(dp0
S'IE 6.0'
p1
(dp2
S'total_runs'
p3
L2L
sS'score'
p4
I1
sS'results'
p5
(dp6
g4
(dp7
g4
I1
sS'median'
p8
L12L
sS'display'
p9
S'12/100'
p10
sssg9
S''
p11
ssS'Konqueror 3.5'
p12
(dp13
S'total_runs'
p14
L1L
sS'score'
p15
I4
sS'results'
p16
(dp17
g15
(dp18
g15
I4
sS'median'
p19
I42
sS'display'
p20
S'42/100'
p21
sssg20
g11
ssS'Camino 1.6.8'
p22
(dp23
S'total_runs'
p24
L1L
sS'score'
p25
I5
sS'results'
p26
(dp27
g25
(dp28
g25
I5
sS'median'
p29
I53
sS'display'
p30
S'53/100'
p31
sssg30
g11
ssS'Firefox (Shiretoko) 3.5'
p32
(dp33
S'total_runs'
p34
L3L
sS'score'
p35
I9
sS'results'
p36
(dp37
g35
(dp38
g35
I9
sS'median'
p39
L93L
sS'display'
p40
S'93/100'
p41
sssg40
g11
ssS'Midori 0.1.9'
p42
(dp43
S'total_runs'
p44
L1L
sS'score'
p45
I10
sS'results'
p46
(dp47
g45
(dp48
g45
I10
sS'median'
p49
I100
sS'display'
p50
S'100/100'
p51
sssg50
g11
ssS'IE 7.0'
p52
(dp53
S'total_runs'
p54
L3L
sS'score'
p55
I1
sS'results'
p56
(dp57
g55
(dp58
g55
I1
sS'median'
p59
L12L
sS'display'
p60
S'12/100'
p61
sssg60
g11
ssS'Firefox 3.0.9'
p62
(dp63
S'total_runs'
p64
L1L
sS'score'
p65
I9
sS'results'
p66
(dp67
g65
(dp68
g65
I9
sS'median'
p69
L93L
sS'display'
p70
S'93/100'
p71
sssg70
g11
ssS'Firefox 3.5.1'
p72
(dp73
S'total_runs'
p74
L2L
sS'score'
p75
I9
sS'results'
p76
(dp77
g75
(dp78
g75
I9
sS'median'
p79
I93
sS'display'
p80
S'93/100'
p81
sssg80
g11
ssS'Firefox 3.5.2'
p82
(dp83
S'total_runs'
p84
L4L
sS'score'
p85
I9
sS'results'
p86
(dp87
g85
(dp88
g85
I9
sS'median'
p89
L93L
sS'display'
p90
S'93/100'
p91
sssg90
g11
ssS'Firefox 3.5.3'
p92
(dp93
S'total_runs'
p94
L16L
sS'score'
p95
I9
sS'results'
p96
(dp97
g95
(dp98
g95
I9
sS'median'
p99
I93
sS'display'
p100
S'93/100'
p101
sssg100
g11
ssS'Opera 10.00'
p102
(dp103
S'total_runs'
p104
L6L
sS'score'
p105
I10
sS'results'
p106
(dp107
g105
(dp108
g105
I10
sS'median'
p109
L99L
sS'display'
p110
S'99/100'
p111
sssg110
g11
ssS'Safari 4.0'
p112
(dp113
S'total_runs'
p114
L19L
sS'score'
p115
I10
sS'results'
p116
(dp117
g115
(dp118
g115
I10
sS'median'
p119
L100L
sS'display'
p120
S'100/100'
p121
sssg120
g11
ssS'Opera 9.64'
p122
(dp123
S'total_runs'
p124
L3L
sS'score'
p125
I9
sS'results'
p126
(dp127
g125
(dp128
g125
I9
sS'median'
p129
L85L
sS'display'
p130
S'85/100'
p131
sssg130
g11
ssS'Firefox 3.0.14'
p132
(dp133
S'total_runs'
p134
L1L
sS'score'
p135
I7
sS'results'
p136
(dp137
g135
(dp138
g135
I7
sS'median'
p139
I71
sS'display'
p140
S'71/100'
p141
sssg140
g11
ssS'iPhone 3.0'
p142
(dp143
S'total_runs'
p144
L1L
sS'score'
p145
I10
sS'results'
p146
(dp147
g145
(dp148
g145
I10
sS'median'
p149
I97
sS'display'
p150
S'97/100'
p151
sssg150
g11
ssS'iPhone 3.1'
p152
(dp153
S'total_runs'
p154
L5L
sS'score'
p155
I10
sS'results'
p156
(dp157
g155
(dp158
g155
I10
sS'median'
p159
I100
sS'display'
p160
S'100/100'
p161
sssg160
g11
ssS'Chrome 4.0.206'
p162
(dp163
S'total_runs'
p164
L11L
sS'score'
p165
I10
sS'results'
p166
(dp167
g165
(dp168
g165
I10
sS'median'
p169
L100L
sS'display'
p170
S'100/100'
p171
sssg170
g11
ssS'Chrome 4.0.207'
p172
(dp173
S'total_runs'
p174
L4L
sS'score'
p175
I10
sS'results'
p176
(dp177
g175
(dp178
g175
I10
sS'median'
p179
I100
sS'display'
p180
S'100/100'
p181
sssg180
g11
ssS'Chrome 4.0.203'
p182
(dp183
S'total_runs'
p184
L1L
sS'score'
p185
I10
sS'results'
p186
(dp187
g185
(dp188
g185
I10
sS'median'
p189
L100L
sS'display'
p190
S'100/100'
p191
sssg190
g11
ssS'Firefox 3.0.13'
p192
(dp193
S'total_runs'
p194
L3L
sS'score'
p195
I7
sS'results'
p196
(dp197
g195
(dp198
g195
I7
sS'median'
p199
L72L
sS'display'
p200
S'72/100'
p201
sssg200
g11
ssS'Camino 1.6.9'
p202
(dp203
S'total_runs'
p204
L1L
sS'score'
p205
I5
sS'results'
p206
(dp207
g205
(dp208
g205
I5
sS'median'
p209
I53
sS'display'
p210
S'53/100'
p211
sssg210
g11
ssS'Firefox 3.0'
p212
(dp213
S'total_runs'
p214
L7L
sS'score'
p215
I7
sS'results'
p216
(dp217
g215
(dp218
g215
I7
sS'median'
p219
L71L
sS'display'
p220
S'71/100'
p221
sssg220
g11
ssS'Firefox 3.5'
p222
(dp223
S'total_runs'
p224
L25L
sS'score'
p225
I9
sS'results'
p226
(dp227
g225
(dp228
g225
I9
sS'median'
p229
L93L
sS'display'
p230
S'93/100'
p231
sssg230
g11
ssS'Firefox 3.0.10'
p232
(dp233
S'total_runs'
p234
L2L
sS'score'
p235
I7
sS'results'
p236
(dp237
g235
(dp238
g235
I7
sS'median'
p239
L71L
sS'display'
p240
S'71/100'
p241
sssg240
g11
ssS'NetNewsWire 3.1.3'
p242
(dp243
S'total_runs'
p244
L1L
sS'score'
p245
I10
sS'results'
p246
(dp247
g245
(dp248
g245
I10
sS'median'
p249
I100
sS'display'
p250
S'100/100'
p251
sssg250
g11
ssS'Firefox 2.0'
p252
(dp253
S'total_runs'
p254
L1L
sS'score'
p255
I9
sS'results'
p256
(dp257
g255
(dp258
g255
I9
sS'median'
p259
I92
sS'display'
p260
S'92/100'
p261
sssg260
g11
ssS'Android 1.5'
p262
(dp263
S'total_runs'
p264
L2L
sS'score'
p265
I9
sS'results'
p266
(dp267
g265
(dp268
g265
I9
sS'median'
p269
L93L
sS'display'
p270
S'93/100'
p271
sssg270
g11
ssS'Chrome 1.0.154'
p272
(dp273
S'total_runs'
p274
L4L
sS'score'
p275
I8
sS'results'
p276
(dp277
g275
(dp278
g275
I8
sS'median'
p279
L79L
sS'display'
p280
S'79/100'
p281
sssg280
g11
ssS'iPhone 2.2'
p282
(dp283
S'total_runs'
p284
L3L
sS'score'
p285
I7
sS'results'
p286
(dp287
g285
(dp288
g285
I7
sS'median'
p289
L74L
sS'display'
p290
S'74/100'
p291
sssg290
g11
ssS'Safari 4.0.2'
p292
(dp293
S'total_runs'
p294
L2L
sS'score'
p295
I10
sS'results'
p296
(dp297
g295
(dp298
g295
I10
sS'median'
p299
L100L
sS'display'
p300
S'100/100'
p301
sssg300
g11
ssS'Safari 4.0.3'
p302
(dp303
S'total_runs'
p304
L14L
sS'score'
p305
I10
sS'results'
p306
(dp307
g305
(dp308
g305
I10
sS'median'
p309
I100
sS'display'
p310
S'100/100'
p311
sssg310
g11
ssS'Opera 10.10'
p312
(dp313
S'total_runs'
p314
L1L
sS'score'
p315
I10
sS'results'
p316
(dp317
g315
(dp318
g315
I10
sS'median'
p319
I99
sS'display'
p320
S'99/100'
p321
sssg320
g11
ssS'Chrome 2.0.172'
p322
(dp323
S'total_runs'
p324
L7L
sS'score'
p325
I10
sS'results'
p326
(dp327
g325
(dp328
g325
I10
sS'median'
p329
L100L
sS'display'
p330
S'100/100'
p331
sssg330
g11
ssS'Safari 3.2'
p332
(dp333
S'total_runs'
p334
L2L
sS'score'
p335
I8
sS'results'
p336
(dp337
g335
(dp338
g335
I8
sS'median'
p339
L75L
sS'display'
p340
S'75/100'
p341
sssg340
g11
ssS'Safari 3.2.3'
p342
(dp343
S'total_runs'
p344
L2L
sS'score'
p345
I8
sS'results'
p346
(dp347
g345
(dp348
g345
I8
sS'median'
p349
L75L
sS'display'
p350
S'75/100'
p351
sssg350
g11
ssS'IE 8.0'
p352
(dp353
S'total_runs'
p354
L7L
sS'score'
p355
I2
sS'results'
p356
(dp357
g355
(dp358
g355
I2
sS'median'
p359
L20L
sS'display'
p360
S'20/100'
p361
sssg360
g11
ssS'iPhone 2.2.1'
p362
(dp363
S'total_runs'
p364
L3L
sS'score'
p365
I7
sS'results'
p366
(dp367
g365
(dp368
g365
I7
sS'median'
p369
I74
sS'display'
p370
S'74/100'
p371
sssg370
g11
ssS'Firefox (Shiretoko) 3.5.2'
p372
(dp373
S'total_runs'
p374
L2L
sS'score'
p375
I9
sS'results'
p376
(dp377
g375
(dp378
g375
I9
sS'median'
p379
I93
sS'display'
p380
S'93/100'
p381
sssg380
g11
ssS'Chrome 3.0.195'
p382
(dp383
S'total_runs'
p384
L4L
sS'score'
p385
I10
sS'results'
p386
(dp387
g385
(dp388
g385
I10
sS'median'
p389
L100L
sS'display'
p390
S'100/100'
p391
sssg390
g11
ss.