(dp0
VFirefox
p1
(dp2
S'total_runs'
p3
L6L
sS'score'
p4
I9
sS'results'
p5
(dp6
g4
(dp7
g4
I9
sS'median'
p8
L93L
sS'display'
p9
S'93/100'
p10
sssg9
S''
p11
ssVChrome
p12
(dp13
S'total_runs'
p14
L14L
sS'score'
p15
I10
sS'results'
p16
(dp17
g15
(dp18
g15
I10
sS'median'
p19
L100L
sS'display'
p20
S'100/100'
p21
sssg20
g11
ssVOpera
p22
(dp23
S'total_runs'
p24
L5L
sS'score'
p25
I9
sS'results'
p26
(dp27
g25
(dp28
g25
I9
sS'median'
p29
L85L
sS'display'
p30
S'85/100'
p31
sssg30
g11
ssVSafari
p32
(dp33
S'total_runs'
p34
L5L
sS'score'
p35
I10
sS'results'
p36
(dp37
g35
(dp38
g35
I10
sS'median'
p39
L100L
sS'display'
p40
S'100/100'
p41
sssg40
g11
ssVAndroid
p42
(dp43
S'total_runs'
p44
L1L
sS'score'
p45
I9
sS'results'
p46
(dp47
g45
(dp48
g45
I9
sS'median'
p49
L92L
sS'display'
p50
S'92/100'
p51
sssg50
g11
ssVIE
p52
(dp53
S'total_runs'
p54
L4L
sS'score'
p55
I1
sS'results'
p56
(dp57
g55
(dp58
g55
I1
sS'median'
p59
L12L
sS'display'
p60
S'12/100'
p61
sssg60
g11
ss.