(dp0
VOpera 9.7
p1
(dp2
S'summary_display'
p3
S''
p4
sS'total_runs'
p5
L1L
sS'summary_score'
p6
I100
sS'results'
p7
(dp8
S'score'
p9
(dp10
g9
I100
sS'raw_score'
p11
I100
sS'display'
p12
S'100/100'
p13
ssssVOpera 9.6
p14
(dp15
S'summary_display'
p16
g4
sS'total_runs'
p17
L1L
sS'summary_score'
p18
I99
sS'results'
p19
(dp20
S'score'
p21
(dp22
g21
I99
sS'raw_score'
p23
I99
sS'display'
p24
S'99/100'
p25
ssssVFennec 1.0
p26
(dp27
S'summary_display'
p28
g4
sS'total_runs'
p29
L8L
sS'summary_score'
p30
I94
sS'results'
p31
(dp32
S'score'
p33
(dp34
g33
I94
sS'raw_score'
p35
I94
sS'display'
p36
S'94/100'
p37
ssssVPlayStation 3
p38
(dp39
S'summary_display'
p40
g4
sS'total_runs'
p41
L1L
sS'summary_score'
p42
I27
sS'results'
p43
(dp44
S'score'
p45
(dp46
g45
I27
sS'raw_score'
p47
I27
sS'display'
p48
S'27/100'
p49
ssssVMaxthon 0
p50
(dp51
S'summary_display'
p52
g4
sS'total_runs'
p53
L1L
sS'summary_score'
p54
I13
sS'results'
p55
(dp56
S'score'
p57
(dp58
g57
I13
sS'raw_score'
p59
I13
sS'display'
p60
S'13/100'
p61
ssssVFirefox (Shiretoko) 3.5
p62
(dp63
S'summary_display'
p64
g4
sS'total_runs'
p65
L180L
sS'summary_score'
p66
I93
sS'results'
p67
(dp68
S'score'
p69
(dp70
g69
I93
sS'raw_score'
p71
I93
sS'display'
p72
S'93/100'
p73
ssssVOpera 9.5
p74
(dp75
S'summary_display'
p76
g4
sS'total_runs'
p77
L4L
sS'summary_score'
p78
I59
sS'results'
p79
(dp80
S'score'
p81
(dp82
g81
I59
sS'raw_score'
p83
I59
sS'display'
p84
S'59/100'
p85
ssssVIron 4.0
p86
(dp87
S'summary_display'
p88
g4
sS'total_runs'
p89
L11L
sS'summary_score'
p90
I100
sS'results'
p91
(dp92
S'score'
p93
(dp94
g93
I100
sS'raw_score'
p95
I100
sS'display'
p96
S'100/100'
p97
ssssVOpera 9.62
p98
(dp99
S'summary_display'
p100
g4
sS'total_runs'
p101
L2L
sS'summary_score'
p102
I85
sS'results'
p103
(dp104
S'score'
p105
(dp106
g105
I85
sS'raw_score'
p107
I85
sS'display'
p108
S'85/100'
p109
ssssVOpera 9.63
p110
(dp111
S'summary_display'
p112
g4
sS'total_runs'
p113
L7L
sS'summary_score'
p114
I85
sS'results'
p115
(dp116
S'score'
p117
(dp118
g117
I85
sS'raw_score'
p119
I85
sS'display'
p120
S'85/100'
p121
ssssVFluid 0.9
p122
(dp123
S'summary_display'
p124
g4
sS'total_runs'
p125
L1L
sS'summary_score'
p126
I100
sS'results'
p127
(dp128
S'score'
p129
(dp130
g129
I100
sS'raw_score'
p131
I100
sS'display'
p132
S'100/100'
p133
ssssVOpera 9.61
p134
(dp135
S'summary_display'
p136
g4
sS'total_runs'
p137
L2L
sS'summary_score'
p138
I92
sS'results'
p139
(dp140
S'score'
p141
(dp142
g141
I92
sS'raw_score'
p143
I92
sS'display'
p144
S'92/100'
p145
ssssVOpera 9.64
p146
(dp147
S'summary_display'
p148
g4
sS'total_runs'
p149
L31L
sS'summary_score'
p150
I85
sS'results'
p151
(dp152
S'score'
p153
(dp154
g153
I85
sS'raw_score'
p155
I85
sS'display'
p156
S'85/100'
p157
ssssViPhone 3.0
p158
(dp159
S'summary_display'
p160
g4
sS'total_runs'
p161
L30L
sS'summary_score'
p162
I97
sS'results'
p163
(dp164
S'score'
p165
(dp166
g165
I97
sS'raw_score'
p167
I97
sS'display'
p168
S'97/100'
p169
ssssViPhone 3.1
p170
(dp171
S'summary_display'
p172
g4
sS'total_runs'
p173
L90L
sS'summary_score'
p174
I100
sS'results'
p175
(dp176
S'score'
p177
(dp178
g177
I100
sS'raw_score'
p179
I100
sS'display'
p180
S'100/100'
p181
ssssVIceweasel 3.5
p182
(dp183
S'summary_display'
p184
g4
sS'total_runs'
p185
L16L
sS'summary_score'
p186
I93
sS'results'
p187
(dp188
S'score'
p189
(dp190
g189
I93
sS'raw_score'
p191
I93
sS'display'
p192
S'93/100'
p193
ssssVCamino 2.1
p194
(dp195
S'summary_display'
p196
g4
sS'total_runs'
p197
L1L
sS'summary_score'
p198
I72
sS'results'
p199
(dp200
S'score'
p201
(dp202
g201
I72
sS'raw_score'
p203
I72
sS'display'
p204
S'72/100'
p205
ssssVCamino 2.0
p206
(dp207
S'summary_display'
p208
g4
sS'total_runs'
p209
L8L
sS'summary_score'
p210
I72
sS'results'
p211
(dp212
S'score'
p213
(dp214
g213
I72
sS'raw_score'
p215
I72
sS'display'
p216
S'72/100'
p217
ssssVIceweasel 3.0
p218
(dp219
S'summary_display'
p220
g4
sS'total_runs'
p221
L35L
sS'summary_score'
p222
I72
sS'results'
p223
(dp224
S'score'
p225
(dp226
g225
I72
sS'raw_score'
p227
I72
sS'display'
p228
S'72/100'
p229
ssssVFlock 1.2
p230
(dp231
S'summary_display'
p232
g4
sS'total_runs'
p233
L1L
sS'summary_score'
p234
I52
sS'results'
p235
(dp236
S'score'
p237
(dp238
g237
I52
sS'raw_score'
p239
I52
sS'display'
p240
S'52/100'
p241
ssssVJasmine 1.0
p242
(dp243
S'summary_display'
p244
g4
sS'total_runs'
p245
L3L
sS'summary_score'
p246
I70
sS'results'
p247
(dp248
S'score'
p249
(dp250
g249
I70
sS'raw_score'
p251
I70
sS'display'
p252
S'70/100'
p253
ssssVChrome 3.0
p254
(dp255
S'summary_display'
p256
g4
sS'total_runs'
p257
L637L
sS'summary_score'
p258
I100
sS'results'
p259
(dp260
S'score'
p261
(dp262
g261
I100
sS'raw_score'
p263
I100
sS'display'
p264
S'100/100'
p265
ssssVBlackberry 9000
p266
(dp267
S'summary_display'
p268
g4
sS'total_runs'
p269
L1L
sS'summary_score'
p270
I83
sS'results'
p271
(dp272
S'score'
p273
(dp274
g273
I83
sS'raw_score'
p275
I83
sS'display'
p276
S'83/100'
p277
ssssVMaxthon 2.0
p278
(dp279
S'summary_display'
p280
g4
sS'total_runs'
p281
L11L
sS'summary_score'
p282
I13
sS'results'
p283
(dp284
S'score'
p285
(dp286
g285
I13
sS'raw_score'
p287
I13
sS'display'
p288
S'13/100'
p289
ssssVChrome 1.0
p290
(dp291
S'summary_display'
p292
g4
sS'total_runs'
p293
L7L
sS'summary_score'
p294
I78
sS'results'
p295
(dp296
S'score'
p297
(dp298
g297
I78
sS'raw_score'
p299
I78
sS'display'
p300
S'78/100'
p301
ssssVAvant 1
p302
(dp303
S'summary_display'
p304
g4
sS'total_runs'
p305
L11L
sS'summary_score'
p306
I12
sS'results'
p307
(dp308
S'score'
p309
(dp310
g309
I12
sS'raw_score'
p311
I12
sS'display'
p312
S'12/100'
p313
ssssVOpera 9.70
p314
(dp315
S'summary_display'
p316
g4
sS'total_runs'
p317
L2L
sS'summary_score'
p318
I100
sS'results'
p319
(dp320
S'score'
p321
(dp322
g321
I100
sS'raw_score'
p323
I100
sS'display'
p324
S'100/100'
p325
ssssVFirefox 3.2
p326
(dp327
S'summary_display'
p328
g4
sS'total_runs'
p329
L1L
sS'summary_score'
p330
I94
sS'results'
p331
(dp332
S'score'
p333
(dp334
g333
I94
sS'raw_score'
p335
I94
sS'display'
p336
S'94/100'
p337
ssssVOpera Mini 5.0
p338
(dp339
S'summary_display'
p340
g4
sS'total_runs'
p341
L1L
sS'summary_score'
p342
I98
sS'results'
p343
(dp344
S'score'
p345
(dp346
g345
I98
sS'raw_score'
p347
I98
sS'display'
p348
S'98/100'
p349
ssssVSeaMonkey 2.1
p350
(dp351
S'summary_display'
p352
g4
sS'total_runs'
p353
L1L
sS'summary_score'
p354
I96
sS'results'
p355
(dp356
S'score'
p357
(dp358
g357
I96
sS'raw_score'
p359
I96
sS'display'
p360
S'96/100'
p361
ssssVSeaMonkey 2.0
p362
(dp363
S'summary_display'
p364
g4
sS'total_runs'
p365
L25L
sS'summary_score'
p366
I93
sS'results'
p367
(dp368
S'score'
p369
(dp370
g369
I93
sS'raw_score'
p371
I93
sS'display'
p372
S'93/100'
p373
ssssVFlock 2.0
p374
(dp375
S'summary_display'
p376
g4
sS'total_runs'
p377
L3L
sS'summary_score'
p378
I71
sS'results'
p379
(dp380
S'score'
p381
(dp382
g381
I71
sS'raw_score'
p383
I71
sS'display'
p384
S'71/100'
p385
ssssVFlock 2.5
p386
(dp387
S'summary_display'
p388
g4
sS'total_runs'
p389
L3L
sS'summary_score'
p390
I72
sS'results'
p391
(dp392
S'score'
p393
(dp394
g393
I72
sS'raw_score'
p395
I72
sS'display'
p396
S'72/100'
p397
ssssVIron 2.0
p398
(dp399
S'summary_display'
p400
g4
sS'total_runs'
p401
L9L
sS'summary_score'
p402
I100
sS'results'
p403
(dp404
S'score'
p405
(dp406
g405
I100
sS'raw_score'
p407
I100
sS'display'
p408
S'100/100'
p409
ssssVIE 6.0
p410
(dp411
S'summary_display'
p412
g4
sS'total_runs'
p413
L124L
sS'summary_score'
p414
I12
sS'results'
p415
(dp416
S'score'
p417
(dp418
g417
I12
sS'raw_score'
p419
I12
sS'display'
p420
S'12/100'
p421
ssssVLunascape 4.9
p422
(dp423
S'summary_display'
p424
g4
sS'total_runs'
p425
L1L
sS'summary_score'
p426
I100
sS'results'
p427
(dp428
S'score'
p429
(dp430
g429
I100
sS'raw_score'
p431
I100
sS'display'
p432
S'100/100'
p433
ssssVSeaMonkey 1.1
p434
(dp435
S'summary_display'
p436
g4
sS'total_runs'
p437
L12L
sS'summary_score'
p438
I52
sS'results'
p439
(dp440
S'score'
p441
(dp442
g441
I52
sS'raw_score'
p443
I52
sS'display'
p444
S'52/100'
p445
ssssVOpera Mini 4.2
p446
(dp447
S'summary_display'
p448
g4
sS'total_runs'
p449
L9L
sS'summary_score'
p450
I98
sS'results'
p451
(dp452
S'score'
p453
(dp454
g453
I98
sS'raw_score'
p455
I98
sS'display'
p456
S'98/100'
p457
ssssVOpera Mini 4.0
p458
(dp459
S'summary_display'
p460
g4
sS'total_runs'
p461
L3L
sS'summary_score'
p462
I98
sS'results'
p463
(dp464
S'score'
p465
(dp466
g465
I98
sS'raw_score'
p467
I98
sS'display'
p468
S'98/100'
p469
ssssVKonqueror 4.3
p470
(dp471
S'summary_display'
p472
g4
sS'total_runs'
p473
L36L
sS'summary_score'
p474
I89
sS'results'
p475
(dp476
S'score'
p477
(dp478
g477
I89
sS'raw_score'
p479
I89
sS'display'
p480
S'89/100'
p481
ssssVKonqueror 4.2
p482
(dp483
S'summary_display'
p484
g4
sS'total_runs'
p485
L3L
sS'summary_score'
p486
I87
sS'results'
p487
(dp488
S'score'
p489
(dp490
g489
I87
sS'raw_score'
p491
I87
sS'display'
p492
S'87/100'
p493
ssssVFirefox (Namoroka) 3.6
p494
(dp495
S'summary_display'
p496
g4
sS'total_runs'
p497
L51L
sS'summary_score'
p498
I94
sS'results'
p499
(dp500
S'score'
p501
(dp502
g501
I94
sS'raw_score'
p503
I94
sS'display'
p504
S'94/100'
p505
ssssVKazehakase 0.5
p506
(dp507
S'summary_display'
p508
g4
sS'total_runs'
p509
L1L
sS'summary_score'
p510
I53
sS'results'
p511
(dp512
S'score'
p513
(dp514
g513
I53
sS'raw_score'
p515
I53
sS'display'
p516
S'53/100'
p517
ssssVLunascape 6.0
p518
(dp519
S'summary_display'
p520
g4
sS'total_runs'
p521
L14L
sS'summary_score'
p522
I93
sS'results'
p523
(dp524
S'score'
p525
(dp526
g525
I93
sS'raw_score'
p527
I93
sS'display'
p528
S'93/100'
p529
ssssVOpera 10.01
p530
(dp531
S'summary_display'
p532
g4
sS'total_runs'
p533
L113L
sS'summary_score'
p534
I100
sS'results'
p535
(dp536
S'score'
p537
(dp538
g537
I100
sS'raw_score'
p539
I100
sS'display'
p540
S'100/100'
p541
ssssVNokia 72
p542
(dp543
S'summary_display'
p544
g4
sS'total_runs'
p545
L1L
sS'summary_score'
p546
I47
sS'results'
p547
(dp548
S'score'
p549
(dp550
g549
I47
sS'raw_score'
p551
I47
sS'display'
p552
S'47/100'
p553
ssssVPalm Pre 1.0
p554
(dp555
S'summary_display'
p556
g4
sS'total_runs'
p557
L5L
sS'summary_score'
p558
I92
sS'results'
p559
(dp560
S'score'
p561
(dp562
g561
I92
sS'raw_score'
p563
I92
sS'display'
p564
S'92/100'
p565
ssssViPhone 2.2
p566
(dp567
S'summary_display'
p568
g4
sS'total_runs'
p569
L9L
sS'summary_score'
p570
I74
sS'results'
p571
(dp572
S'score'
p573
(dp574
g573
I74
sS'raw_score'
p575
I74
sS'display'
p576
S'74/100'
p577
ssssVFirefox 3.1
p578
(dp579
S'summary_display'
p580
g4
sS'total_runs'
p581
L2L
sS'summary_score'
p582
I93
sS'results'
p583
(dp584
S'score'
p585
(dp586
g585
I93
sS'raw_score'
p587
I93
sS'display'
p588
S'93/100'
p589
ssssVFirefox 3.0
p590
(dp591
S'summary_display'
p592
g4
sS'total_runs'
p593
L612L
sS'summary_score'
p594
I72
sS'results'
p595
(dp596
S'score'
p597
(dp598
g597
I72
sS'raw_score'
p599
I72
sS'display'
p600
S'72/100'
p601
ssssVAndroid 2.0
p602
(dp603
S'summary_display'
p604
g4
sS'total_runs'
p605
L10L
sS'summary_score'
p606
I93
sS'results'
p607
(dp608
S'score'
p609
(dp610
g609
I93
sS'raw_score'
p611
I93
sS'display'
p612
S'93/100'
p613
ssssVAndroid 2.1
p614
(dp615
S'summary_display'
p616
g4
sS'total_runs'
p617
L1L
sS'summary_score'
p618
I93
sS'results'
p619
(dp620
S'score'
p621
(dp622
g621
I93
sS'raw_score'
p623
I93
sS'display'
p624
S'93/100'
p625
ssssVFirefox 3.5
p626
(dp627
S'summary_display'
p628
g4
sS'total_runs'
p629
L4003L
sS'summary_score'
p630
I93
sS'results'
p631
(dp632
S'score'
p633
(dp634
g633
I93
sS'raw_score'
p635
I93
sS'display'
p636
S'93/100'
p637
ssssVFirefox 3.7
p638
(dp639
S'summary_display'
p640
g4
sS'total_runs'
p641
L1L
sS'summary_score'
p642
I94
sS'results'
p643
(dp644
S'score'
p645
(dp646
g645
I94
sS'raw_score'
p647
I94
sS'display'
p648
S'94/100'
p649
ssssVFirefox 3.6
p650
(dp651
S'summary_display'
p652
g4
sS'total_runs'
p653
L226L
sS'summary_score'
p654
I94
sS'results'
p655
(dp656
S'score'
p657
(dp658
g657
I94
sS'raw_score'
p659
I94
sS'display'
p660
S'94/100'
p661
ssssVFirefox 2.0
p662
(dp663
S'summary_display'
p664
g4
sS'total_runs'
p665
L45L
sS'summary_score'
p666
I53
sS'results'
p667
(dp668
S'score'
p669
(dp670
g669
I53
sS'raw_score'
p671
I53
sS'display'
p672
S'53/100'
p673
ssssVSwiftfox 3.5
p674
(dp675
S'summary_display'
p676
g4
sS'total_runs'
p677
L13L
sS'summary_score'
p678
I93
sS'results'
p679
(dp680
S'score'
p681
(dp682
g681
I93
sS'raw_score'
p683
I93
sS'display'
p684
S'93/100'
p685
ssssVAndroid 1.5
p686
(dp687
S'summary_display'
p688
g4
sS'total_runs'
p689
L21L
sS'summary_score'
p690
I93
sS'results'
p691
(dp692
S'score'
p693
(dp694
g693
I93
sS'raw_score'
p695
I93
sS'display'
p696
S'93/100'
p697
ssssVChrome 4.0
p698
(dp699
S'summary_display'
p700
g4
sS'total_runs'
p701
L1072L
sS'summary_score'
p702
I100
sS'results'
p703
(dp704
S'score'
p705
(dp706
g705
I100
sS'raw_score'
p707
I100
sS'display'
p708
S'100/100'
p709
ssssVAndroid 1.6
p710
(dp711
S'summary_display'
p712
g4
sS'total_runs'
p713
L16L
sS'summary_score'
p714
I93
sS'results'
p715
(dp716
S'score'
p717
(dp718
g717
I93
sS'raw_score'
p719
I93
sS'display'
p720
S'93/100'
p721
ssssVAndroid 1.1
p722
(dp723
S'summary_display'
p724
g4
sS'total_runs'
p725
L1L
sS'summary_score'
p726
I72
sS'results'
p727
(dp728
S'score'
p729
(dp730
g729
I72
sS'raw_score'
p731
I72
sS'display'
p732
S'72/100'
p733
ssssVOpera 9.60
p734
(dp735
S'summary_display'
p736
g4
sS'total_runs'
p737
L1L
sS'summary_score'
p738
I85
sS'results'
p739
(dp740
S'score'
p741
(dp742
g741
I85
sS'raw_score'
p743
I85
sS'display'
p744
S'85/100'
p745
ssssVOpera 9.52
p746
(dp747
S'summary_display'
p748
g4
sS'total_runs'
p749
L1L
sS'summary_score'
p750
I84
sS'results'
p751
(dp752
S'score'
p753
(dp754
g753
I84
sS'raw_score'
p755
I84
sS'display'
p756
S'84/100'
p757
ssssVOpera 9.51
p758
(dp759
S'summary_display'
p760
g4
sS'total_runs'
p761
L3L
sS'summary_score'
p762
I84
sS'results'
p763
(dp764
S'score'
p765
(dp766
g765
I84
sS'raw_score'
p767
I84
sS'display'
p768
S'84/100'
p769
ssssVOpera 9.50
p770
(dp771
S'summary_display'
p772
g4
sS'total_runs'
p773
L4L
sS'summary_score'
p774
I73
sS'results'
p775
(dp776
S'score'
p777
(dp778
g777
I73
sS'raw_score'
p779
I73
sS'display'
p780
S'73/100'
p781
ssssVOpera 10.10
p782
(dp783
S'summary_display'
p784
g4
sS'total_runs'
p785
L416L
sS'summary_score'
p786
I100
sS'results'
p787
(dp788
S'score'
p789
(dp790
g789
I100
sS'raw_score'
p791
I100
sS'display'
p792
S'100/100'
p793
ssssVSleipnir 2.8
p794
(dp795
S'summary_display'
p796
g4
sS'total_runs'
p797
L13L
sS'summary_score'
p798
I13
sS'results'
p799
(dp800
S'score'
p801
(dp802
g801
I13
sS'raw_score'
p803
I13
sS'display'
p804
S'13/100'
p805
ssssVIE 8.0
p806
(dp807
S'summary_display'
p808
g4
sS'total_runs'
p809
L516L
sS'summary_score'
p810
I20
sS'results'
p811
(dp812
S'score'
p813
(dp814
g813
I20
sS'raw_score'
p815
I20
sS'display'
p816
S'20/100'
p817
ssssVSleipnir 2.9
p818
(dp819
S'summary_display'
p820
g4
sS'total_runs'
p821
L6L
sS'summary_score'
p822
I20
sS'results'
p823
(dp824
S'score'
p825
(dp826
g825
I20
sS'raw_score'
p827
I20
sS'display'
p828
S'20/100'
p829
ssssVNetNewsWire 3.1
p830
(dp831
S'summary_display'
p832
g4
sS'total_runs'
p833
L1L
sS'summary_score'
p834
I100
sS'results'
p835
(dp836
S'score'
p837
(dp838
g837
I100
sS'raw_score'
p839
I100
sS'display'
p840
S'100/100'
p841
ssssVNetscape 7.1
p842
(dp843
S'summary_display'
p844
g4
sS'total_runs'
p845
L3L
sS'summary_score'
p846
I40
sS'results'
p847
(dp848
S'score'
p849
(dp850
g849
I40
sS'raw_score'
p851
I40
sS'display'
p852
S'40/100'
p853
ssssVNetNewsWire 3.2
p854
(dp855
S'summary_display'
p856
g4
sS'total_runs'
p857
L11L
sS'summary_score'
p858
I100
sS'results'
p859
(dp860
S'score'
p861
(dp862
g861
I100
sS'raw_score'
p863
I100
sS'display'
p864
S'100/100'
p865
ssssVSafari 4.0
p866
(dp867
S'summary_display'
p868
g4
sS'total_runs'
p869
L1049L
sS'summary_score'
p870
I100
sS'results'
p871
(dp872
S'score'
p873
(dp874
g873
I100
sS'raw_score'
p875
I100
sS'display'
p876
S'100/100'
p877
ssssVKonqueror 3.5
p878
(dp879
S'summary_display'
p880
g4
sS'total_runs'
p881
L10L
sS'summary_score'
p882
I42
sS'results'
p883
(dp884
S'score'
p885
(dp886
g885
I42
sS'raw_score'
p887
I42
sS'display'
p888
S'42/100'
p889
ssssVFirefox (Minefield) 3.7
p890
(dp891
S'summary_display'
p892
g4
sS'total_runs'
p893
L202L
sS'summary_score'
p894
I96
sS'results'
p895
(dp896
S'score'
p897
(dp898
g897
I96
sS'raw_score'
p899
I96
sS'display'
p900
S'96/100'
p901
ssssVFirefox (Minefield) 3.6
p902
(dp903
S'summary_display'
p904
g4
sS'total_runs'
p905
L8L
sS'summary_score'
p906
I92
sS'results'
p907
(dp908
S'score'
p909
(dp910
g909
I92
sS'raw_score'
p911
I92
sS'display'
p912
S'92/100'
p913
ssssVFlock 1.1
p914
(dp915
S'summary_display'
p916
g4
sS'total_runs'
p917
L1L
sS'summary_score'
p918
I52
sS'results'
p919
(dp920
S'score'
p921
(dp922
g921
I52
sS'raw_score'
p923
I52
sS'display'
p924
S'52/100'
p925
ssssVGranParadiso 3.0
p926
(dp927
S'summary_display'
p928
g4
sS'total_runs'
p929
L2L
sS'summary_score'
p930
I72
sS'results'
p931
(dp932
S'score'
p933
(dp934
g933
I72
sS'raw_score'
p935
I72
sS'display'
p936
S'72/100'
p937
ssssVIron 3.0
p938
(dp939
S'summary_display'
p940
g4
sS'total_runs'
p941
L67L
sS'summary_score'
p942
I100
sS'results'
p943
(dp944
S'score'
p945
(dp946
g945
I100
sS'raw_score'
p947
I100
sS'display'
p948
S'100/100'
p949
ssssVLunascape 5.1
p950
(dp951
S'summary_display'
p952
g4
sS'total_runs'
p953
L12L
sS'summary_score'
p954
I100
sS'results'
p955
(dp956
S'score'
p957
(dp958
g957
I100
sS'raw_score'
p959
I100
sS'display'
p960
S'100/100'
p961
ssssVChrome Frame (IE 8) 4.0
p962
(dp963
S'summary_display'
p964
g4
sS'total_runs'
p965
L18L
sS'summary_score'
p966
I100
sS'results'
p967
(dp968
S'score'
p969
(dp970
g969
I100
sS'raw_score'
p971
I100
sS'display'
p972
S'100/100'
p973
ssssVIE 7.0
p974
(dp975
S'summary_display'
p976
g4
sS'total_runs'
p977
L198L
sS'summary_score'
p978
I12
sS'results'
p979
(dp980
S'score'
p981
(dp982
g981
I12
sS'raw_score'
p983
I12
sS'display'
p984
S'12/100'
p985
ssssVOpera 10.20
p986
(dp987
S'summary_display'
p988
g4
sS'total_runs'
p989
L28L
sS'summary_score'
p990
I100
sS'results'
p991
(dp992
S'score'
p993
(dp994
g993
I100
sS'raw_score'
p995
I100
sS'display'
p996
S'100/100'
p997
ssssVOmniWeb 622.10
p998
(dp999
S'summary_display'
p1000
g4
sS'total_runs'
p1001
L6L
sS'summary_score'
p1002
I100
sS'results'
p1003
(dp1004
S'score'
p1005
(dp1006
g1005
I100
sS'raw_score'
p1007
I100
sS'display'
p1008
S'100/100'
p1009
ssssVStainless 0.7
p1010
(dp1011
S'summary_display'
p1012
g4
sS'total_runs'
p1013
L4L
sS'summary_score'
p1014
I100
sS'results'
p1015
(dp1016
S'score'
p1017
(dp1018
g1017
I100
sS'raw_score'
p1019
I100
sS'display'
p1020
S'100/100'
p1021
ssssVStainless 0.6
p1022
(dp1023
S'summary_display'
p1024
g4
sS'total_runs'
p1025
L1L
sS'summary_score'
p1026
I100
sS'results'
p1027
(dp1028
S'score'
p1029
(dp1030
g1029
I100
sS'raw_score'
p1031
I100
sS'display'
p1032
S'100/100'
p1033
ssssVChrome Frame (IE 7) 4.0
p1034
(dp1035
S'summary_display'
p1036
g4
sS'total_runs'
p1037
L5L
sS'summary_score'
p1038
I100
sS'results'
p1039
(dp1040
S'score'
p1041
(dp1042
g1041
I100
sS'raw_score'
p1043
I100
sS'display'
p1044
S'100/100'
p1045
ssssVK-Meleon 1.5
p1046
(dp1047
S'summary_display'
p1048
g4
sS'total_runs'
p1049
L9L
sS'summary_score'
p1050
I53
sS'results'
p1051
(dp1052
S'score'
p1053
(dp1054
g1053
I53
sS'raw_score'
p1055
I53
sS'display'
p1056
S'53/100'
p1057
ssssVGaleon 2.0
p1058
(dp1059
S'summary_display'
p1060
g4
sS'total_runs'
p1061
L2L
sS'summary_score'
p1062
I72
sS'results'
p1063
(dp1064
S'score'
p1065
(dp1066
g1065
I72
sS'raw_score'
p1067
I72
sS'display'
p1068
S'72/100'
p1069
ssssVQtWeb 3.1
p1070
(dp1071
S'summary_display'
p1072
g4
sS'total_runs'
p1073
L1L
sS'summary_score'
p1074
I98
sS'results'
p1075
(dp1076
S'score'
p1077
(dp1078
g1077
I98
sS'raw_score'
p1079
I98
sS'display'
p1080
S'98/100'
p1081
ssssVMicroB 0.3
p1082
(dp1083
S'summary_display'
p1084
g4
sS'total_runs'
p1085
L2L
sS'summary_score'
p1086
I55
sS'results'
p1087
(dp1088
S'score'
p1089
(dp1090
g1089
I55
sS'raw_score'
p1091
I55
sS'display'
p1092
S'55/100'
p1093
ssssVShiira 0
p1094
(dp1095
S'summary_display'
p1096
g4
sS'total_runs'
p1097
L1L
sS'summary_score'
p1098
I98
sS'results'
p1099
(dp1100
S'score'
p1101
(dp1102
g1101
I98
sS'raw_score'
p1103
I98
sS'display'
p1104
S'98/100'
p1105
ssssViCab 4.7
p1106
(dp1107
S'summary_display'
p1108
g4
sS'total_runs'
p1109
L2L
sS'summary_score'
p1110
I100
sS'results'
p1111
(dp1112
S'score'
p1113
(dp1114
g1113
I100
sS'raw_score'
p1115
I100
sS'display'
p1116
S'100/100'
p1117
ssssVIE 5.5
p1118
(dp1119
S'summary_display'
p1120
g4
sS'total_runs'
p1121
L5L
sS'summary_score'
p1122
I14
sS'results'
p1123
(dp1124
S'score'
p1125
(dp1126
g1125
I14
sS'raw_score'
p1127
I14
sS'display'
p1128
S'14/100'
p1129
ssssVMidori 0.2
p1130
(dp1131
S'summary_display'
p1132
g4
sS'total_runs'
p1133
L6L
sS'summary_score'
p1134
I100
sS'results'
p1135
(dp1136
S'score'
p1137
(dp1138
g1137
I100
sS'raw_score'
p1139
I100
sS'display'
p1140
S'100/100'
p1141
ssssVVienna 2.3
p1142
(dp1143
S'summary_display'
p1144
g4
sS'total_runs'
p1145
L2L
sS'summary_score'
p1146
I100
sS'results'
p1147
(dp1148
S'score'
p1149
(dp1150
g1149
I100
sS'raw_score'
p1151
I100
sS'display'
p1152
S'100/100'
p1153
ssssVSafari 1.0
p1154
(dp1155
S'summary_display'
p1156
g4
sS'total_runs'
p1157
L1L
sS'summary_score'
p1158
I92
sS'results'
p1159
(dp1160
S'score'
p1161
(dp1162
g1161
I92
sS'raw_score'
p1163
I92
sS'display'
p1164
S'92/100'
p1165
ssssVSafari 3.2
p1166
(dp1167
S'summary_display'
p1168
g4
sS'total_runs'
p1169
L21L
sS'summary_score'
p1170
I75
sS'results'
p1171
(dp1172
S'score'
p1173
(dp1174
g1173
I75
sS'raw_score'
p1175
I75
sS'display'
p1176
S'75/100'
p1177
ssssVSafari 3.1
p1178
(dp1179
S'summary_display'
p1180
g4
sS'total_runs'
p1181
L13L
sS'summary_score'
p1182
I100
sS'results'
p1183
(dp1184
S'score'
p1185
(dp1186
g1185
I100
sS'raw_score'
p1187
I100
sS'display'
p1188
S'100/100'
p1189
ssssVSafari 3.0
p1190
(dp1191
S'summary_display'
p1192
g4
sS'total_runs'
p1193
L4L
sS'summary_score'
p1194
I47
sS'results'
p1195
(dp1196
S'score'
p1197
(dp1198
g1197
I47
sS'raw_score'
p1199
I47
sS'display'
p1200
S'47/100'
p1201
ssssVVodafone 1.0
p1202
(dp1203
S'summary_display'
p1204
g4
sS'total_runs'
p1205
L1L
sS'summary_score'
p1206
I93
sS'results'
p1207
(dp1208
S'score'
p1209
(dp1210
g1209
I93
sS'raw_score'
p1211
I93
sS'display'
p1212
S'93/100'
p1213
ssssVWii 9.30
p1214
(dp1215
S'summary_display'
p1216
g4
sS'total_runs'
p1217
L1L
sS'summary_score'
p1218
I55
sS'results'
p1219
(dp1220
S'score'
p1221
(dp1222
g1221
I55
sS'raw_score'
p1223
I55
sS'display'
p1224
S'55/100'
p1225
ssssVArora 0.5
p1226
(dp1227
S'summary_display'
p1228
g4
sS'total_runs'
p1229
L1L
sS'summary_score'
p1230
I100
sS'results'
p1231
(dp1232
S'score'
p1233
(dp1234
g1233
I100
sS'raw_score'
p1235
I100
sS'display'
p1236
S'100/100'
p1237
ssssVArora 0.6
p1238
(dp1239
S'summary_display'
p1240
g4
sS'total_runs'
p1241
L1L
sS'summary_score'
p1242
I41
sS'results'
p1243
(dp1244
S'score'
p1245
(dp1246
g1245
I41
sS'raw_score'
p1247
I41
sS'display'
p1248
S'41/100'
p1249
ssssVArora 0.7
p1250
(dp1251
S'summary_display'
p1252
g4
sS'total_runs'
p1253
L1L
sS'summary_score'
p1254
I100
sS'results'
p1255
(dp1256
S'score'
p1257
(dp1258
g1257
I100
sS'raw_score'
p1259
I100
sS'display'
p1260
S'100/100'
p1261
ssssVArora 0.8
p1262
(dp1263
S'summary_display'
p1264
g4
sS'total_runs'
p1265
L5L
sS'summary_score'
p1266
I98
sS'results'
p1267
(dp1268
S'score'
p1269
(dp1270
g1269
I98
sS'raw_score'
p1271
I98
sS'display'
p1272
S'98/100'
p1273
ssssVArora 0.9
p1274
(dp1275
S'summary_display'
p1276
g4
sS'total_runs'
p1277
L19L
sS'summary_score'
p1278
I100
sS'results'
p1279
(dp1280
S'score'
p1281
(dp1282
g1281
I100
sS'raw_score'
p1283
I100
sS'display'
p1284
S'100/100'
p1285
ssssVOther
p1286
(dp1287
S'summary_display'
p1288
g4
sS'total_runs'
p1289
L58L
sS'summary_score'
p1290
I100
sS'results'
p1291
(dp1292
S'score'
p1293
(dp1294
g1293
I100
sS'raw_score'
p1295
I100
sS'display'
p1296
S'100/100'
p1297
ssssVUzbl 0
p1298
(dp1299
S'summary_display'
p1300
g4
sS'total_runs'
p1301
L23L
sS'summary_score'
p1302
I100
sS'results'
p1303
(dp1304
S'score'
p1305
(dp1306
g1305
I100
sS'raw_score'
p1307
I100
sS'display'
p1308
S'100/100'
p1309
ssssVArora 0.10
p1310
(dp1311
S'summary_display'
p1312
g4
sS'total_runs'
p1313
L7L
sS'summary_score'
p1314
I98
sS'results'
p1315
(dp1316
S'score'
p1317
(dp1318
g1317
I98
sS'raw_score'
p1319
I98
sS'display'
p1320
S'98/100'
p1321
ssssVOpera 9.80
p1322
(dp1323
S'summary_display'
p1324
g4
sS'total_runs'
p1325
L1L
sS'summary_score'
p1326
I100
sS'results'
p1327
(dp1328
S'score'
p1329
(dp1330
g1329
I100
sS'raw_score'
p1331
I100
sS'display'
p1332
S'100/100'
p1333
ssssVIceweasel 2.0
p1334
(dp1335
S'summary_display'
p1336
g4
sS'total_runs'
p1337
L1L
sS'summary_score'
p1338
I52
sS'results'
p1339
(dp1340
S'score'
p1341
(dp1342
g1341
I52
sS'raw_score'
p1343
I52
sS'display'
p1344
S'52/100'
p1345
ssssVChrome Frame (IE 6) 4.0
p1346
(dp1347
S'summary_display'
p1348
g4
sS'total_runs'
p1349
L4L
sS'summary_score'
p1350
I100
sS'results'
p1351
(dp1352
S'score'
p1353
(dp1354
g1353
I100
sS'raw_score'
p1355
I100
sS'display'
p1356
S'100/100'
p1357
ssssVCamino 1.6
p1358
(dp1359
S'summary_display'
p1360
g4
sS'total_runs'
p1361
L15L
sS'summary_score'
p1362
I53
sS'results'
p1363
(dp1364
S'score'
p1365
(dp1366
g1365
I53
sS'raw_score'
p1367
I53
sS'display'
p1368
S'53/100'
p1369
ssssVCamino 1.5
p1370
(dp1371
S'summary_display'
p1372
g4
sS'total_runs'
p1373
L1L
sS'summary_score'
p1374
I53
sS'results'
p1375
(dp1376
S'score'
p1377
(dp1378
g1377
I53
sS'raw_score'
p1379
I53
sS'display'
p1380
S'53/100'
p1381
ssssVOpera 9.27
p1382
(dp1383
S'summary_display'
p1384
g4
sS'total_runs'
p1385
L1L
sS'summary_score'
p1386
I47
sS'results'
p1387
(dp1388
S'score'
p1389
(dp1390
g1389
I47
sS'raw_score'
p1391
I47
sS'display'
p1392
S'47/100'
p1393
ssssS'total_runs'
p1394
L11401L
sVFirefox (Namoroka) 3.7
p1395
(dp1396
S'summary_display'
p1397
g4
sS'total_runs'
p1398
L1L
sS'summary_score'
p1399
I96
sS'results'
p1400
(dp1401
S'score'
p1402
(dp1403
g1402
I96
sS'raw_score'
p1404
I96
sS'display'
p1405
S'96/100'
p1406
ssssVMaxthon 3.0
p1407
(dp1408
S'summary_display'
p1409
g4
sS'total_runs'
p1410
L4L
sS'summary_score'
p1411
I100
sS'results'
p1412
(dp1413
S'score'
p1414
(dp1415
g1414
I100
sS'raw_score'
p1416
I100
sS'display'
p1417
S'100/100'
p1418
ssssVChrome 2.0
p1419
(dp1420
S'summary_display'
p1421
g4
sS'total_runs'
p1422
L243L
sS'summary_score'
p1423
I100
sS'results'
p1424
(dp1425
S'score'
p1426
(dp1427
g1426
I100
sS'raw_score'
p1428
I100
sS'display'
p1429
S'100/100'
p1430
ssssVOpera 10.00
p1431
(dp1432
S'summary_display'
p1433
g4
sS'total_runs'
p1434
L659L
sS'summary_score'
p1435
I99
sS'results'
p1436
(dp1437
S'score'
p1438
(dp1439
g1438
I99
sS'raw_score'
p1440
I99
sS'display'
p1441
S'99/100'
p1442
ssssVNokia 5800
p1443
(dp1444
S'summary_display'
p1445
g4
sS'total_runs'
p1446
L5L
sS'summary_score'
p1447
I47
sS'results'
p1448
(dp1449
S'score'
p1450
(dp1451
g1450
I47
sS'raw_score'
p1452
I47
sS'display'
p1453
S'47/100'
p1454
ssssVMaemo Browser 1.4
p1455
(dp1456
S'summary_display'
p1457
g4
sS'total_runs'
p1458
L1L
sS'summary_score'
p1459
I94
sS'results'
p1460
(dp1461
S'score'
p1462
(dp1463
g1462
I94
sS'raw_score'
p1464
I94
sS'display'
p1465
S'94/100'
p1466
ssssVChrome 0.2
p1467
(dp1468
S'summary_display'
p1469
g4
sS'total_runs'
p1470
L3L
sS'summary_score'
p1471
I78
sS'results'
p1472
(dp1473
S'score'
p1474
(dp1475
g1474
I78
sS'raw_score'
p1476
I78
sS'display'
p1477
S'78/100'
p1478
ssssVFirefox 1.5
p1479
(dp1480
S'summary_display'
p1481
g4
sS'total_runs'
p1482
L5L
sS'summary_score'
p1483
I52
sS'results'
p1484
(dp1485
S'score'
p1486
(dp1487
g1486
I52
sS'raw_score'
p1488
I52
sS'display'
p1489
S'52/100'
p1490
ssssVNetscape 9.0
p1491
(dp1492
S'summary_display'
p1493
g4
sS'total_runs'
p1494
L2L
sS'summary_score'
p1495
I53
sS'results'
p1496
(dp1497
S'score'
p1498
(dp1499
g1498
I53
sS'raw_score'
p1500
I53
sS'display'
p1501
S'53/100'
p1502
ssssVEpiphany 2.22
p1503
(dp1504
S'summary_display'
p1505
g4
sS'total_runs'
p1506
L8L
sS'summary_score'
p1507
I72
sS'results'
p1508
(dp1509
S'score'
p1510
(dp1511
g1510
I72
sS'raw_score'
p1512
I72
sS'display'
p1513
S'72/100'
p1514
ssssVNetFront 3.4
p1515
(dp1516
S'summary_display'
p1517
g4
sS'total_runs'
p1518
L1L
sS'summary_score'
p1519
I72
sS'results'
p1520
(dp1521
S'score'
p1522
(dp1523
g1522
I72
sS'raw_score'
p1524
I72
sS'display'
p1525
S'72/100'
p1526
ssssVNokia 5230
p1527
(dp1528
S'summary_display'
p1529
g4
sS'total_runs'
p1530
L1L
sS'summary_score'
p1531
I46
sS'results'
p1532
(dp1533
S'score'
p1534
(dp1535
g1534
I46
sS'raw_score'
p1536
I46
sS'display'
p1537
S'46/100'
p1538
ssssVMidori 0.1
p1539
(dp1540
S'summary_display'
p1541
g4
sS'total_runs'
p1542
L16L
sS'summary_score'
p1543
I100
sS'results'
p1544
(dp1545
S'score'
p1546
(dp1547
g1546
I100
sS'raw_score'
p1548
I100
sS'display'
p1549
S'100/100'
p1550
ssssVOpera 10.50
p1551
(dp1552
S'summary_display'
p1553
g4
sS'total_runs'
p1554
L106L
sS'summary_score'
p1555
I100
sS'results'
p1556
(dp1557
S'score'
p1558
(dp1559
g1558
I100
sS'raw_score'
p1560
I100
sS'display'
p1561
S'100/100'
p1562
ssss.