(dp0
VOpera 9.7
p1
(dp2
S'summary_display'
p3
S''
p4
sS'total_runs'
p5
L1L
sS'summary_score'
p6
I100
sS'results'
p7
(dp8
S'score'
p9
(dp10
g9
I100
sS'raw_score'
p11
I100
sS'display'
p12
S'100/100'
p13
ssssVOpera 9.6
p14
(dp15
S'summary_display'
p16
g4
sS'total_runs'
p17
L1L
sS'summary_score'
p18
I99
sS'results'
p19
(dp20
S'score'
p21
(dp22
g21
I99
sS'raw_score'
p23
I99
sS'display'
p24
S'99/100'
p25
ssssVOpera 9.5
p26
(dp27
S'summary_display'
p28
g4
sS'total_runs'
p29
L4L
sS'summary_score'
p30
I59
sS'results'
p31
(dp32
S'score'
p33
(dp34
g33
I59
sS'raw_score'
p35
I59
sS'display'
p36
S'59/100'
p37
ssssVGaleon 2.0.4
p38
(dp39
S'summary_display'
p40
g4
sS'total_runs'
p41
L1L
sS'summary_score'
p42
I53
sS'results'
p43
(dp44
S'score'
p45
(dp46
g45
I53
sS'raw_score'
p47
I53
sS'display'
p48
S'53/100'
p49
ssssViPhone 3.1
p50
(dp51
S'summary_display'
p52
g4
sS'total_runs'
p53
L90L
sS'summary_score'
p54
I100
sS'results'
p55
(dp56
S'score'
p57
(dp58
g57
I100
sS'raw_score'
p59
I100
sS'display'
p60
S'100/100'
p61
ssssVGaleon 2.0.7
p62
(dp63
S'summary_display'
p64
g4
sS'total_runs'
p65
L1L
sS'summary_score'
p66
I72
sS'results'
p67
(dp68
S'score'
p69
(dp70
g69
I72
sS'raw_score'
p71
I72
sS'display'
p72
S'72/100'
p73
ssssVMaxthon 0
p74
(dp75
S'summary_display'
p76
g4
sS'total_runs'
p77
L1L
sS'summary_score'
p78
I13
sS'results'
p79
(dp80
S'score'
p81
(dp82
g81
I13
sS'raw_score'
p83
I13
sS'display'
p84
S'13/100'
p85
ssssVFirefox (Shiretoko) 3.5
p86
(dp87
S'summary_display'
p88
g4
sS'total_runs'
p89
L180L
sS'summary_score'
p90
I93
sS'results'
p91
(dp92
S'score'
p93
(dp94
g93
I93
sS'raw_score'
p95
I93
sS'display'
p96
S'93/100'
p97
ssssVFirefox 3.0.5
p98
(dp99
S'summary_display'
p100
g4
sS'total_runs'
p101
L9L
sS'summary_score'
p102
I72
sS'results'
p103
(dp104
S'score'
p105
(dp106
g105
I72
sS'raw_score'
p107
I72
sS'display'
p108
S'72/100'
p109
ssssVFirefox 3.0.4
p110
(dp111
S'summary_display'
p112
g4
sS'total_runs'
p113
L5L
sS'summary_score'
p114
I71
sS'results'
p115
(dp116
S'score'
p117
(dp118
g117
I71
sS'raw_score'
p119
I71
sS'display'
p120
S'71/100'
p121
ssssVFirefox 3.0.7
p122
(dp123
S'summary_display'
p124
g4
sS'total_runs'
p125
L12L
sS'summary_score'
p126
I92
sS'results'
p127
(dp128
S'score'
p129
(dp130
g129
I92
sS'raw_score'
p131
I92
sS'display'
p132
S'92/100'
p133
ssssVFirefox 3.0.6
p134
(dp135
S'summary_display'
p136
g4
sS'total_runs'
p137
L14L
sS'summary_score'
p138
I71
sS'results'
p139
(dp140
S'score'
p141
(dp142
g141
I71
sS'raw_score'
p143
I71
sS'display'
p144
S'71/100'
p145
ssssVFirefox 3.0.1
p146
(dp147
S'summary_display'
p148
g4
sS'total_runs'
p149
L16L
sS'summary_score'
p150
I93
sS'results'
p151
(dp152
S'score'
p153
(dp154
g153
I93
sS'raw_score'
p155
I93
sS'display'
p156
S'93/100'
p157
ssssVFirefox (Minefield) 3.7a1pre
p158
(dp159
S'summary_display'
p160
g4
sS'total_runs'
p161
L202L
sS'summary_score'
p162
I96
sS'results'
p163
(dp164
S'score'
p165
(dp166
g165
I96
sS'raw_score'
p167
I96
sS'display'
p168
S'96/100'
p169
ssssVFirefox 3.0.3
p170
(dp171
S'summary_display'
p172
g4
sS'total_runs'
p173
L10L
sS'summary_score'
p174
I71
sS'results'
p175
(dp176
S'score'
p177
(dp178
g177
I71
sS'raw_score'
p179
I71
sS'display'
p180
S'71/100'
p181
ssssVFirefox 3.0.2
p182
(dp183
S'summary_display'
p184
g4
sS'total_runs'
p185
L2L
sS'summary_score'
p186
I71
sS'results'
p187
(dp188
S'score'
p189
(dp190
g189
I71
sS'raw_score'
p191
I71
sS'display'
p192
S'71/100'
p193
ssssVFirefox 3.5.4
p194
(dp195
S'summary_display'
p196
g4
sS'total_runs'
p197
L170L
sS'summary_score'
p198
I93
sS'results'
p199
(dp200
S'score'
p201
(dp202
g201
I93
sS'raw_score'
p203
I93
sS'display'
p204
S'93/100'
p205
ssssVFirefox 3.5.5
p206
(dp207
S'summary_display'
p208
g4
sS'total_runs'
p209
L761L
sS'summary_score'
p210
I93
sS'results'
p211
(dp212
S'score'
p213
(dp214
g213
I93
sS'raw_score'
p215
I93
sS'display'
p216
S'93/100'
p217
ssssVFirefox 3.5.6
p218
(dp219
S'summary_display'
p220
g4
sS'total_runs'
p221
L137L
sS'summary_score'
p222
I93
sS'results'
p223
(dp224
S'score'
p225
(dp226
g225
I93
sS'raw_score'
p227
I93
sS'display'
p228
S'93/100'
p229
ssssVFirefox 3.5.7
p230
(dp231
S'summary_display'
p232
g4
sS'total_runs'
p233
L116L
sS'summary_score'
p234
I93
sS'results'
p235
(dp236
S'score'
p237
(dp238
g237
I93
sS'raw_score'
p239
I93
sS'display'
p240
S'93/100'
p241
ssssVFirefox 3.0.9
p242
(dp243
S'summary_display'
p244
g4
sS'total_runs'
p245
L5L
sS'summary_score'
p246
I71
sS'results'
p247
(dp248
S'score'
p249
(dp250
g249
I71
sS'raw_score'
p251
I71
sS'display'
p252
S'71/100'
p253
ssssVChrome 4.0.302
p254
(dp255
S'summary_display'
p256
g4
sS'total_runs'
p257
L8L
sS'summary_score'
p258
I100
sS'results'
p259
(dp260
S'score'
p261
(dp262
g261
I100
sS'raw_score'
p263
I100
sS'display'
p264
S'100/100'
p265
ssssVFirefox 3.5.2
p266
(dp267
S'summary_display'
p268
g4
sS'total_runs'
p269
L295L
sS'summary_score'
p270
I93
sS'results'
p271
(dp272
S'score'
p273
(dp274
g273
I93
sS'raw_score'
p275
I93
sS'display'
p276
S'93/100'
p277
ssssVFirefox 3.5.3
p278
(dp279
S'summary_display'
p280
g4
sS'total_runs'
p281
L2401L
sS'summary_score'
p282
I93
sS'results'
p283
(dp284
S'score'
p285
(dp286
g285
I93
sS'raw_score'
p287
I93
sS'display'
p288
S'93/100'
p289
ssssVChrome 4.0.264
p290
(dp291
S'summary_display'
p292
g4
sS'total_runs'
p293
L1L
sS'summary_score'
p294
I100
sS'results'
p295
(dp296
S'score'
p297
(dp298
g297
I100
sS'raw_score'
p299
I100
sS'display'
p300
S'100/100'
p301
ssssVFirefox 3.0.15
p302
(dp303
S'summary_display'
p304
g4
sS'total_runs'
p305
L64L
sS'summary_score'
p306
I72
sS'results'
p307
(dp308
S'score'
p309
(dp310
g309
I72
sS'raw_score'
p311
I72
sS'display'
p312
S'72/100'
p313
ssssVChrome 4.0.266
p314
(dp315
S'summary_display'
p316
g4
sS'total_runs'
p317
L30L
sS'summary_score'
p318
I100
sS'results'
p319
(dp320
S'score'
p321
(dp322
g321
I100
sS'raw_score'
p323
I100
sS'display'
p324
S'100/100'
p325
ssssVChrome 4.0.267
p326
(dp327
S'summary_display'
p328
g4
sS'total_runs'
p329
L4L
sS'summary_score'
p330
I100
sS'results'
p331
(dp332
S'score'
p333
(dp334
g333
I100
sS'raw_score'
p335
I100
sS'display'
p336
S'100/100'
p337
ssssVChrome 4.0.260
p338
(dp339
S'summary_display'
p340
g4
sS'total_runs'
p341
L1L
sS'summary_score'
p342
I100
sS'results'
p343
(dp344
S'score'
p345
(dp346
g345
I100
sS'raw_score'
p347
I100
sS'display'
p348
S'100/100'
p349
ssssVChrome 4.0.261
p350
(dp351
S'summary_display'
p352
g4
sS'total_runs'
p353
L1L
sS'summary_score'
p354
I100
sS'results'
p355
(dp356
S'score'
p357
(dp358
g357
I100
sS'raw_score'
p359
I100
sS'display'
p360
S'100/100'
p361
ssssVOpera 9.64
p362
(dp363
S'summary_display'
p364
g4
sS'total_runs'
p365
L31L
sS'summary_score'
p366
I85
sS'results'
p367
(dp368
S'score'
p369
(dp370
g369
I85
sS'raw_score'
p371
I85
sS'display'
p372
S'85/100'
p373
ssssVFirefox 3.0.14
p374
(dp375
S'summary_display'
p376
g4
sS'total_runs'
p377
L302L
sS'summary_score'
p378
I72
sS'results'
p379
(dp380
S'score'
p381
(dp382
g381
I72
sS'raw_score'
p383
I72
sS'display'
p384
S'72/100'
p385
ssssViPhone 3.0
p386
(dp387
S'summary_display'
p388
g4
sS'total_runs'
p389
L30L
sS'summary_score'
p390
I97
sS'results'
p391
(dp392
S'score'
p393
(dp394
g393
I97
sS'raw_score'
p395
I97
sS'display'
p396
S'97/100'
p397
ssssVChrome 4.0.306
p398
(dp399
S'summary_display'
p400
g4
sS'total_runs'
p401
L2L
sS'summary_score'
p402
I100
sS'results'
p403
(dp404
S'score'
p405
(dp406
g405
I100
sS'raw_score'
p407
I100
sS'display'
p408
S'100/100'
p409
ssssVChrome 4.0.304
p410
(dp411
S'summary_display'
p412
g4
sS'total_runs'
p413
L1L
sS'summary_score'
p414
I100
sS'results'
p415
(dp416
S'score'
p417
(dp418
g417
I100
sS'raw_score'
p419
I100
sS'display'
p420
S'100/100'
p421
ssssVChrome 4.0.268
p422
(dp423
S'summary_display'
p424
g4
sS'total_runs'
p425
L2L
sS'summary_score'
p426
I100
sS'results'
p427
(dp428
S'score'
p429
(dp430
g429
I100
sS'raw_score'
p431
I100
sS'display'
p432
S'100/100'
p433
ssssVChrome Frame (IE 6) 4.0.211
p434
(dp435
S'summary_display'
p436
g4
sS'total_runs'
p437
L4L
sS'summary_score'
p438
I100
sS'results'
p439
(dp440
S'score'
p441
(dp442
g441
I100
sS'raw_score'
p443
I100
sS'display'
p444
S'100/100'
p445
ssssVChrome 4.0.301
p446
(dp447
S'summary_display'
p448
g4
sS'total_runs'
p449
L1L
sS'summary_score'
p450
I100
sS'results'
p451
(dp452
S'score'
p453
(dp454
g453
I100
sS'raw_score'
p455
I100
sS'display'
p456
S'100/100'
p457
ssssVOpera 10.20
p458
(dp459
S'summary_display'
p460
g4
sS'total_runs'
p461
L28L
sS'summary_score'
p462
I100
sS'results'
p463
(dp464
S'score'
p465
(dp466
g465
I100
sS'raw_score'
p467
I100
sS'display'
p468
S'100/100'
p469
ssssVFluid 0.9.6
p470
(dp471
S'summary_display'
p472
g4
sS'total_runs'
p473
L1L
sS'summary_score'
p474
I100
sS'results'
p475
(dp476
S'score'
p477
(dp478
g477
I100
sS'raw_score'
p479
I100
sS'display'
p480
S'100/100'
p481
ssssS'total_runs'
p482
L17515L
sVFirefox 3.0.16
p483
(dp484
S'summary_display'
p485
g4
sS'total_runs'
p486
L6L
sS'summary_score'
p487
I72
sS'results'
p488
(dp489
S'score'
p490
(dp491
g490
I72
sS'raw_score'
p492
I72
sS'display'
p493
S'72/100'
p494
ssssVFirefox 3.6a1pre
p495
(dp496
S'summary_display'
p497
g4
sS'total_runs'
p498
L1L
sS'summary_score'
p499
I93
sS'results'
p500
(dp501
S'score'
p502
(dp503
g502
I93
sS'raw_score'
p504
I93
sS'display'
p505
S'93/100'
p506
ssssVFirefox 3.0.11
p507
(dp508
S'summary_display'
p509
g4
sS'total_runs'
p510
L25L
sS'summary_score'
p511
I72
sS'results'
p512
(dp513
S'score'
p514
(dp515
g514
I72
sS'raw_score'
p516
I72
sS'display'
p517
S'72/100'
p518
ssssVSwiftfox 3.5.2
p519
(dp520
S'summary_display'
p521
g4
sS'total_runs'
p522
L6L
sS'summary_score'
p523
I93
sS'results'
p524
(dp525
S'score'
p526
(dp527
g526
I93
sS'raw_score'
p528
I93
sS'display'
p529
S'93/100'
p530
ssssVSafari 3.0.4
p531
(dp532
S'summary_display'
p533
g4
sS'total_runs'
p534
L1L
sS'summary_score'
p535
I41
sS'results'
p536
(dp537
S'score'
p538
(dp539
g538
I41
sS'raw_score'
p540
I41
sS'display'
p541
S'41/100'
p542
ssssVVienna 2.3.4
p543
(dp544
S'summary_display'
p545
g4
sS'total_runs'
p546
L2L
sS'summary_score'
p547
I100
sS'results'
p548
(dp549
S'score'
p550
(dp551
g550
I100
sS'raw_score'
p552
I100
sS'display'
p553
S'100/100'
p554
ssssVSeaMonkey 2.0.2
p555
(dp556
S'summary_display'
p557
g4
sS'total_runs'
p558
L2L
sS'summary_score'
p559
I93
sS'results'
p560
(dp561
S'score'
p562
(dp563
g562
I93
sS'raw_score'
p564
I93
sS'display'
p565
S'93/100'
p566
ssssVFirefox 3.0.10
p567
(dp568
S'summary_display'
p569
g4
sS'total_runs'
p570
L24L
sS'summary_score'
p571
I71
sS'results'
p572
(dp573
S'score'
p574
(dp575
g574
I71
sS'raw_score'
p576
I71
sS'display'
p577
S'71/100'
p578
ssssVNetNewsWire 3.1.3
p579
(dp580
S'summary_display'
p581
g4
sS'total_runs'
p582
L1L
sS'summary_score'
p583
I100
sS'results'
p584
(dp585
S'score'
p586
(dp587
g586
I100
sS'raw_score'
p588
I100
sS'display'
p589
S'100/100'
p590
ssssVBlackberry 9000
p591
(dp592
S'summary_display'
p593
g4
sS'total_runs'
p594
L1L
sS'summary_score'
p595
I83
sS'results'
p596
(dp597
S'score'
p598
(dp599
g598
I83
sS'raw_score'
p600
I83
sS'display'
p601
S'83/100'
p602
ssssVChrome 4.0.288
p603
(dp604
S'summary_display'
p605
g4
sS'total_runs'
p606
L17L
sS'summary_score'
p607
I100
sS'results'
p608
(dp609
S'score'
p610
(dp611
g610
I100
sS'raw_score'
p612
I100
sS'display'
p613
S'100/100'
p614
ssssVChrome 4.0.289
p615
(dp616
S'summary_display'
p617
g4
sS'total_runs'
p618
L1L
sS'summary_score'
p619
I100
sS'results'
p620
(dp621
S'score'
p622
(dp623
g622
I100
sS'raw_score'
p624
I100
sS'display'
p625
S'100/100'
p626
ssssVFirefox (Minefield) 3.6a1pre
p627
(dp628
S'summary_display'
p629
g4
sS'total_runs'
p630
L8L
sS'summary_score'
p631
I92
sS'results'
p632
(dp633
S'score'
p634
(dp635
g634
I92
sS'raw_score'
p636
I92
sS'display'
p637
S'92/100'
p638
ssssVChrome 4.0.285
p639
(dp640
S'summary_display'
p641
g4
sS'total_runs'
p642
L1L
sS'summary_score'
p643
I100
sS'results'
p644
(dp645
S'score'
p646
(dp647
g646
I100
sS'raw_score'
p648
I100
sS'display'
p649
S'100/100'
p650
ssssVChrome 4.0.282
p651
(dp652
S'summary_display'
p653
g4
sS'total_runs'
p654
L2L
sS'summary_score'
p655
I100
sS'results'
p656
(dp657
S'score'
p658
(dp659
g658
I100
sS'raw_score'
p660
I100
sS'display'
p661
S'100/100'
p662
ssssVChrome 4.0.283
p663
(dp664
S'summary_display'
p665
g4
sS'total_runs'
p666
L5L
sS'summary_score'
p667
I100
sS'results'
p668
(dp669
S'score'
p670
(dp671
g670
I100
sS'raw_score'
p672
I100
sS'display'
p673
S'100/100'
p674
ssssVChrome 4.0.280
p675
(dp676
S'summary_display'
p677
g4
sS'total_runs'
p678
L1L
sS'summary_score'
p679
I100
sS'results'
p680
(dp681
S'score'
p682
(dp683
g682
I100
sS'raw_score'
p684
I100
sS'display'
p685
S'100/100'
p686
ssssVChrome 4.0.281
p687
(dp688
S'summary_display'
p689
g4
sS'total_runs'
p690
L1L
sS'summary_score'
p691
I99
sS'results'
p692
(dp693
S'score'
p694
(dp695
g694
I99
sS'raw_score'
p696
I99
sS'display'
p697
S'99/100'
p698
ssssVIron 3.0.197
p699
(dp700
S'summary_display'
p701
g4
sS'total_runs'
p702
L62L
sS'summary_score'
p703
I100
sS'results'
p704
(dp705
S'score'
p706
(dp707
g706
I100
sS'raw_score'
p708
I100
sS'display'
p709
S'100/100'
p710
ssssVSafari 3.1.2
p711
(dp712
S'summary_display'
p713
g4
sS'total_runs'
p714
L4L
sS'summary_score'
p715
I77
sS'results'
p716
(dp717
S'score'
p718
(dp719
g718
I77
sS'raw_score'
p720
I77
sS'display'
p721
S'77/100'
p722
ssssVStainless 0.7
p723
(dp724
S'summary_display'
p725
g4
sS'total_runs'
p726
L4L
sS'summary_score'
p727
I100
sS'results'
p728
(dp729
S'score'
p730
(dp731
g730
I100
sS'raw_score'
p732
I100
sS'display'
p733
S'100/100'
p734
ssssVLunascape 6.0.1
p735
(dp736
S'summary_display'
p737
g4
sS'total_runs'
p738
L8L
sS'summary_score'
p739
I93
sS'results'
p740
(dp741
S'score'
p742
(dp743
g742
I93
sS'raw_score'
p744
I93
sS'display'
p745
S'93/100'
p746
ssssVNetscape 9.0.0
p747
(dp748
S'summary_display'
p749
g4
sS'total_runs'
p750
L2L
sS'summary_score'
p751
I53
sS'results'
p752
(dp753
S'score'
p754
(dp755
g754
I53
sS'raw_score'
p756
I53
sS'display'
p757
S'53/100'
p758
ssssVFlock 2.0.3
p759
(dp760
S'summary_display'
p761
g4
sS'total_runs'
p762
L3L
sS'summary_score'
p763
I71
sS'results'
p764
(dp765
S'score'
p766
(dp767
g766
I71
sS'raw_score'
p768
I71
sS'display'
p769
S'71/100'
p770
ssssVAvant 1
p771
(dp772
S'summary_display'
p773
g4
sS'total_runs'
p774
L11L
sS'summary_score'
p775
I12
sS'results'
p776
(dp777
S'score'
p778
(dp779
g778
I12
sS'raw_score'
p780
I12
sS'display'
p781
S'12/100'
p782
ssssVFirefox 3.2a1pre
p783
(dp784
S'summary_display'
p785
g4
sS'total_runs'
p786
L1L
sS'summary_score'
p787
I94
sS'results'
p788
(dp789
S'score'
p790
(dp791
g790
I94
sS'raw_score'
p792
I94
sS'display'
p793
S'94/100'
p794
ssssVChrome 4.0.273
p795
(dp796
S'summary_display'
p797
g4
sS'total_runs'
p798
L1L
sS'summary_score'
p799
I100
sS'results'
p800
(dp801
S'score'
p802
(dp803
g802
I100
sS'raw_score'
p804
I100
sS'display'
p805
S'100/100'
p806
ssssVChrome 4.0.272
p807
(dp808
S'summary_display'
p809
g4
sS'total_runs'
p810
L2L
sS'summary_score'
p811
I100
sS'results'
p812
(dp813
S'score'
p814
(dp815
g814
I100
sS'raw_score'
p816
I100
sS'display'
p817
S'100/100'
p818
ssssVOpera 9.80
p819
(dp820
S'summary_display'
p821
g4
sS'total_runs'
p822
L1L
sS'summary_score'
p823
I100
sS'results'
p824
(dp825
S'score'
p826
(dp827
g826
I100
sS'raw_score'
p828
I100
sS'display'
p829
S'100/100'
p830
ssssVChrome 4.0.270
p831
(dp832
S'summary_display'
p833
g4
sS'total_runs'
p834
L2L
sS'summary_score'
p835
I100
sS'results'
p836
(dp837
S'score'
p838
(dp839
g838
I100
sS'raw_score'
p840
I100
sS'display'
p841
S'100/100'
p842
ssssVChrome 4.0.277
p843
(dp844
S'summary_display'
p845
g4
sS'total_runs'
p846
L2L
sS'summary_score'
p847
I100
sS'results'
p848
(dp849
S'score'
p850
(dp851
g850
I100
sS'raw_score'
p852
I100
sS'display'
p853
S'100/100'
p854
ssssVChrome 4.0.276
p855
(dp856
S'summary_display'
p857
g4
sS'total_runs'
p858
L2L
sS'summary_score'
p859
I100
sS'results'
p860
(dp861
S'score'
p862
(dp863
g862
I100
sS'raw_score'
p864
I100
sS'display'
p865
S'100/100'
p866
ssssVFirefox 3.5
p867
(dp868
S'summary_display'
p869
g4
sS'total_runs'
p870
L4003L
sS'summary_score'
p871
I93
sS'results'
p872
(dp873
S'score'
p874
(dp875
g874
I93
sS'raw_score'
p876
I93
sS'display'
p877
S'93/100'
p878
ssssVNetNewsWire 3.2.3
p879
(dp880
S'summary_display'
p881
g4
sS'total_runs'
p882
L1L
sS'summary_score'
p883
I100
sS'results'
p884
(dp885
S'score'
p886
(dp887
g886
I100
sS'raw_score'
p888
I100
sS'display'
p889
S'100/100'
p890
ssssVSafari 3.2.1
p891
(dp892
S'summary_display'
p893
g4
sS'total_runs'
p894
L6L
sS'summary_score'
p895
I76
sS'results'
p896
(dp897
S'score'
p898
(dp899
g898
I76
sS'raw_score'
p900
I76
sS'display'
p901
S'76/100'
p902
ssssVNetscape 7.1
p903
(dp904
S'summary_display'
p905
g4
sS'total_runs'
p906
L3L
sS'summary_score'
p907
I40
sS'results'
p908
(dp909
S'score'
p910
(dp911
g910
I40
sS'raw_score'
p912
I40
sS'display'
p913
S'40/100'
p914
ssssVSafari 3.2.2
p915
(dp916
S'summary_display'
p917
g4
sS'total_runs'
p918
L3L
sS'summary_score'
p919
I74
sS'results'
p920
(dp921
S'score'
p922
(dp923
g922
I74
sS'raw_score'
p924
I74
sS'display'
p925
S'74/100'
p926
ssssVCamino 2.1a1pre
p927
(dp928
S'summary_display'
p929
g4
sS'total_runs'
p930
L1L
sS'summary_score'
p931
I72
sS'results'
p932
(dp933
S'score'
p934
(dp935
g934
I72
sS'raw_score'
p936
I72
sS'display'
p937
S'72/100'
p938
ssssVNetNewsWire 3.2.2
p939
(dp940
S'summary_display'
p941
g4
sS'total_runs'
p942
L1L
sS'summary_score'
p943
I97
sS'results'
p944
(dp945
S'score'
p946
(dp947
g946
I97
sS'raw_score'
p948
I97
sS'display'
p949
S'97/100'
p950
ssssViPhone 2.2.1
p951
(dp952
S'summary_display'
p953
g4
sS'total_runs'
p954
L8L
sS'summary_score'
p955
I74
sS'results'
p956
(dp957
S'score'
p958
(dp959
g958
I74
sS'raw_score'
p960
I74
sS'display'
p961
S'74/100'
p962
ssssVSeaMonkey 2.0
p963
(dp964
S'summary_display'
p965
g4
sS'total_runs'
p966
L25L
sS'summary_score'
p967
I93
sS'results'
p968
(dp969
S'score'
p970
(dp971
g970
I93
sS'raw_score'
p972
I93
sS'display'
p973
S'93/100'
p974
ssssVFirefox 3.6
p975
(dp976
S'summary_display'
p977
g4
sS'total_runs'
p978
L226L
sS'summary_score'
p979
I94
sS'results'
p980
(dp981
S'score'
p982
(dp983
g982
I94
sS'raw_score'
p984
I94
sS'display'
p985
S'94/100'
p986
ssssVSleipnir 2.8.5
p987
(dp988
S'summary_display'
p989
g4
sS'total_runs'
p990
L13L
sS'summary_score'
p991
I13
sS'results'
p992
(dp993
S'score'
p994
(dp995
g994
I13
sS'raw_score'
p996
I13
sS'display'
p997
S'13/100'
p998
ssssVOpera Mini 4.2.13337
p999
(dp1000
S'summary_display'
p1001
g4
sS'total_runs'
p1002
L1L
sS'summary_score'
p1003
I98
sS'results'
p1004
(dp1005
S'score'
p1006
(dp1007
g1006
I98
sS'raw_score'
p1008
I98
sS'display'
p1009
S'98/100'
p1010
ssssVFirefox (Shiretoko) 3.5.5pre
p1011
(dp1012
S'summary_display'
p1013
g4
sS'total_runs'
p1014
L3L
sS'summary_score'
p1015
I93
sS'results'
p1016
(dp1017
S'score'
p1018
(dp1019
g1018
I93
sS'raw_score'
p1020
I93
sS'display'
p1021
S'93/100'
p1022
ssssVIron 4.0.227
p1023
(dp1024
S'summary_display'
p1025
g4
sS'total_runs'
p1026
L10L
sS'summary_score'
p1027
I100
sS'results'
p1028
(dp1029
S'score'
p1030
(dp1031
g1030
I100
sS'raw_score'
p1032
I100
sS'display'
p1033
S'100/100'
p1034
ssssVOpera Mini 4.2.14427
p1035
(dp1036
S'summary_display'
p1037
g4
sS'total_runs'
p1038
L2L
sS'summary_score'
p1039
I98
sS'results'
p1040
(dp1041
S'score'
p1042
(dp1043
g1042
I98
sS'raw_score'
p1044
I98
sS'display'
p1045
S'98/100'
p1046
ssssVChrome 4.0.299
p1047
(dp1048
S'summary_display'
p1049
g4
sS'total_runs'
p1050
L3L
sS'summary_score'
p1051
I100
sS'results'
p1052
(dp1053
S'score'
p1054
(dp1055
g1054
I100
sS'raw_score'
p1056
I100
sS'display'
p1057
S'100/100'
p1058
ssssVChrome 4.0.298
p1059
(dp1060
S'summary_display'
p1061
g4
sS'total_runs'
p1062
L1L
sS'summary_score'
p1063
I100
sS'results'
p1064
(dp1065
S'score'
p1066
(dp1067
g1066
I100
sS'raw_score'
p1068
I100
sS'display'
p1069
S'100/100'
p1070
ssssVCamino 1.6.7
p1071
(dp1072
S'summary_display'
p1073
g4
sS'total_runs'
p1074
L1L
sS'summary_score'
p1075
I52
sS'results'
p1076
(dp1077
S'score'
p1078
(dp1079
g1078
I52
sS'raw_score'
p1080
I52
sS'display'
p1081
S'52/100'
p1082
ssssVCamino 1.6.8
p1083
(dp1084
S'summary_display'
p1085
g4
sS'total_runs'
p1086
L1L
sS'summary_score'
p1087
I53
sS'results'
p1088
(dp1089
S'score'
p1090
(dp1091
g1090
I53
sS'raw_score'
p1092
I53
sS'display'
p1093
S'53/100'
p1094
ssssVCamino 1.6.9
p1095
(dp1096
S'summary_display'
p1097
g4
sS'total_runs'
p1098
L12L
sS'summary_score'
p1099
I53
sS'results'
p1100
(dp1101
S'score'
p1102
(dp1103
g1102
I53
sS'raw_score'
p1104
I53
sS'display'
p1105
S'53/100'
p1106
ssssVChrome 4.0.297
p1107
(dp1108
S'summary_display'
p1109
g4
sS'total_runs'
p1110
L1L
sS'summary_score'
p1111
I100
sS'results'
p1112
(dp1113
S'score'
p1114
(dp1115
g1114
I100
sS'raw_score'
p1116
I100
sS'display'
p1117
S'100/100'
p1118
ssssVChrome 4.0.296
p1119
(dp1120
S'summary_display'
p1121
g4
sS'total_runs'
p1122
L1L
sS'summary_score'
p1123
I100
sS'results'
p1124
(dp1125
S'score'
p1126
(dp1127
g1126
I100
sS'raw_score'
p1128
I100
sS'display'
p1129
S'100/100'
p1130
ssssVChrome 4.0.291
p1131
(dp1132
S'summary_display'
p1133
g4
sS'total_runs'
p1134
L1L
sS'summary_score'
p1135
I100
sS'results'
p1136
(dp1137
S'score'
p1138
(dp1139
g1138
I100
sS'raw_score'
p1140
I100
sS'display'
p1141
S'100/100'
p1142
ssssVOpera Mini 4.2.15227
p1143
(dp1144
S'summary_display'
p1145
g4
sS'total_runs'
p1146
L1L
sS'summary_score'
p1147
I98
sS'results'
p1148
(dp1149
S'score'
p1150
(dp1151
g1150
I98
sS'raw_score'
p1152
I98
sS'display'
p1153
S'98/100'
p1154
ssssVKonqueror 4.3
p1155
(dp1156
S'summary_display'
p1157
g4
sS'total_runs'
p1158
L36L
sS'summary_score'
p1159
I89
sS'results'
p1160
(dp1161
S'score'
p1162
(dp1163
g1162
I89
sS'raw_score'
p1164
I89
sS'display'
p1165
S'89/100'
p1166
ssssVKonqueror 4.2
p1167
(dp1168
S'summary_display'
p1169
g4
sS'total_runs'
p1170
L3L
sS'summary_score'
p1171
I87
sS'results'
p1172
(dp1173
S'score'
p1174
(dp1175
g1174
I87
sS'raw_score'
p1176
I87
sS'display'
p1177
S'87/100'
p1178
ssssVFirefox 3.6b4
p1179
(dp1180
S'summary_display'
p1181
g4
sS'total_runs'
p1182
L44L
sS'summary_score'
p1183
I94
sS'results'
p1184
(dp1185
S'score'
p1186
(dp1187
g1186
I94
sS'raw_score'
p1188
I94
sS'display'
p1189
S'94/100'
p1190
ssssVChrome Frame (IE 8) 4.0.266
p1191
(dp1192
S'summary_display'
p1193
g4
sS'total_runs'
p1194
L4L
sS'summary_score'
p1195
I100
sS'results'
p1196
(dp1197
S'score'
p1198
(dp1199
g1198
I100
sS'raw_score'
p1200
I100
sS'display'
p1201
S'100/100'
p1202
ssssVFirefox 3.0.17
p1203
(dp1204
S'summary_display'
p1205
g4
sS'total_runs'
p1206
L9L
sS'summary_score'
p1207
I72
sS'results'
p1208
(dp1209
S'score'
p1210
(dp1211
g1210
I72
sS'raw_score'
p1212
I72
sS'display'
p1213
S'72/100'
p1214
ssssVLunascape 4.9.9
p1215
(dp1216
S'summary_display'
p1217
g4
sS'total_runs'
p1218
L1L
sS'summary_score'
p1219
I100
sS'results'
p1220
(dp1221
S'score'
p1222
(dp1223
g1222
I100
sS'raw_score'
p1224
I100
sS'display'
p1225
S'100/100'
p1226
ssssVOpera Mini 4.0.10406
p1227
(dp1228
S'summary_display'
p1229
g4
sS'total_runs'
p1230
L1L
sS'summary_score'
p1231
I98
sS'results'
p1232
(dp1233
S'score'
p1234
(dp1235
g1234
I98
sS'raw_score'
p1236
I98
sS'display'
p1237
S'98/100'
p1238
ssssVFirefox 1.5.0
p1239
(dp1240
S'summary_display'
p1241
g4
sS'total_runs'
p1242
L4L
sS'summary_score'
p1243
I52
sS'results'
p1244
(dp1245
S'score'
p1246
(dp1247
g1246
I52
sS'raw_score'
p1248
I52
sS'display'
p1249
S'52/100'
p1250
ssssVFirefox 3.6b2
p1251
(dp1252
S'summary_display'
p1253
g4
sS'total_runs'
p1254
L26L
sS'summary_score'
p1255
I94
sS'results'
p1256
(dp1257
S'score'
p1258
(dp1259
g1258
I94
sS'raw_score'
p1260
I94
sS'display'
p1261
S'94/100'
p1262
ssssVOpera 10.01
p1263
(dp1264
S'summary_display'
p1265
g4
sS'total_runs'
p1266
L113L
sS'summary_score'
p1267
I100
sS'results'
p1268
(dp1269
S'score'
p1270
(dp1271
g1270
I100
sS'raw_score'
p1272
I100
sS'display'
p1273
S'100/100'
p1274
ssssVNokia 72
p1275
(dp1276
S'summary_display'
p1277
g4
sS'total_runs'
p1278
L1L
sS'summary_score'
p1279
I47
sS'results'
p1280
(dp1281
S'score'
p1282
(dp1283
g1282
I47
sS'raw_score'
p1284
I47
sS'display'
p1285
S'47/100'
p1286
ssssVSafari 4.0
p1287
(dp1288
S'summary_display'
p1289
g4
sS'total_runs'
p1290
L1049L
sS'summary_score'
p1291
I100
sS'results'
p1292
(dp1293
S'score'
p1294
(dp1295
g1294
I100
sS'raw_score'
p1296
I100
sS'display'
p1297
S'100/100'
p1298
ssssVChrome Frame (IE 8) 4.0.211
p1299
(dp1300
S'summary_display'
p1301
g4
sS'total_runs'
p1302
L12L
sS'summary_score'
p1303
I100
sS'results'
p1304
(dp1305
S'score'
p1306
(dp1307
g1306
I100
sS'raw_score'
p1308
I100
sS'display'
p1309
S'100/100'
p1310
ssssVFlock 1.2.7
p1311
(dp1312
S'summary_display'
p1313
g4
sS'total_runs'
p1314
L1L
sS'summary_score'
p1315
I52
sS'results'
p1316
(dp1317
S'score'
p1318
(dp1319
g1318
I52
sS'raw_score'
p1320
I52
sS'display'
p1321
S'52/100'
p1322
ssssVIceweasel 3.5.2
p1323
(dp1324
S'summary_display'
p1325
g4
sS'total_runs'
p1326
L2L
sS'summary_score'
p1327
I93
sS'results'
p1328
(dp1329
S'score'
p1330
(dp1331
g1330
I93
sS'raw_score'
p1332
I93
sS'display'
p1333
S'93/100'
p1334
ssssVIceweasel 3.5.1
p1335
(dp1336
S'summary_display'
p1337
g4
sS'total_runs'
p1338
L1L
sS'summary_score'
p1339
I93
sS'results'
p1340
(dp1341
S'score'
p1342
(dp1343
g1342
I93
sS'raw_score'
p1344
I93
sS'display'
p1345
S'93/100'
p1346
ssssVIceweasel 3.5.6
p1347
(dp1348
S'summary_display'
p1349
g4
sS'total_runs'
p1350
L1L
sS'summary_score'
p1351
I92
sS'results'
p1352
(dp1353
S'score'
p1354
(dp1355
g1354
I92
sS'raw_score'
p1356
I92
sS'display'
p1357
S'92/100'
p1358
ssssVFirefox (Namoroka) 3.6b5pre
p1359
(dp1360
S'summary_display'
p1361
g4
sS'total_runs'
p1362
L4L
sS'summary_score'
p1363
I94
sS'results'
p1364
(dp1365
S'score'
p1366
(dp1367
g1366
I94
sS'raw_score'
p1368
I94
sS'display'
p1369
S'94/100'
p1370
ssssVFirefox 3.0.8
p1371
(dp1372
S'summary_display'
p1373
g4
sS'total_runs'
p1374
L9L
sS'summary_score'
p1375
I71
sS'results'
p1376
(dp1377
S'score'
p1378
(dp1379
g1378
I71
sS'raw_score'
p1380
I71
sS'display'
p1381
S'71/100'
p1382
ssssVChrome 4.0.206
p1383
(dp1384
S'summary_display'
p1385
g4
sS'total_runs'
p1386
L173L
sS'summary_score'
p1387
I100
sS'results'
p1388
(dp1389
S'score'
p1390
(dp1391
g1390
I100
sS'raw_score'
p1392
I100
sS'display'
p1393
S'100/100'
p1394
ssssVChrome 4.0.207
p1395
(dp1396
S'summary_display'
p1397
g4
sS'total_runs'
p1398
L107L
sS'summary_score'
p1399
I100
sS'results'
p1400
(dp1401
S'score'
p1402
(dp1403
g1402
I100
sS'raw_score'
p1404
I100
sS'display'
p1405
S'100/100'
p1406
ssssVChrome 4.0.204
p1407
(dp1408
S'summary_display'
p1409
g4
sS'total_runs'
p1410
L6L
sS'summary_score'
p1411
I100
sS'results'
p1412
(dp1413
S'score'
p1414
(dp1415
g1414
I100
sS'raw_score'
p1416
I100
sS'display'
p1417
S'100/100'
p1418
ssssVChrome 4.0.205
p1419
(dp1420
S'summary_display'
p1421
g4
sS'total_runs'
p1422
L1L
sS'summary_score'
p1423
I100
sS'results'
p1424
(dp1425
S'score'
p1426
(dp1427
g1426
I100
sS'raw_score'
p1428
I100
sS'display'
p1429
S'100/100'
p1430
ssssVChrome 4.0.202
p1431
(dp1432
S'summary_display'
p1433
g4
sS'total_runs'
p1434
L6L
sS'summary_score'
p1435
I100
sS'results'
p1436
(dp1437
S'score'
p1438
(dp1439
g1438
I100
sS'raw_score'
p1440
I100
sS'display'
p1441
S'100/100'
p1442
ssssVChrome 4.0.203
p1443
(dp1444
S'summary_display'
p1445
g4
sS'total_runs'
p1446
L7L
sS'summary_score'
p1447
I100
sS'results'
p1448
(dp1449
S'score'
p1450
(dp1451
g1450
I100
sS'raw_score'
p1452
I100
sS'display'
p1453
S'100/100'
p1454
ssssVFirefox 3.0.13
p1455
(dp1456
S'summary_display'
p1457
g4
sS'total_runs'
p1458
L86L
sS'summary_score'
p1459
I72
sS'results'
p1460
(dp1461
S'score'
p1462
(dp1463
g1462
I72
sS'raw_score'
p1464
I72
sS'display'
p1465
S'72/100'
p1466
ssssVChrome 4.0.201
p1467
(dp1468
S'summary_display'
p1469
g4
sS'total_runs'
p1470
L6L
sS'summary_score'
p1471
I100
sS'results'
p1472
(dp1473
S'score'
p1474
(dp1475
g1474
I100
sS'raw_score'
p1476
I100
sS'display'
p1477
S'100/100'
p1478
ssssVFirefox 3.0
p1479
(dp1480
S'summary_display'
p1481
g4
sS'total_runs'
p1482
L612L
sS'summary_score'
p1483
I72
sS'results'
p1484
(dp1485
S'score'
p1486
(dp1487
g1486
I72
sS'raw_score'
p1488
I72
sS'display'
p1489
S'72/100'
p1490
ssssVAndroid 2.0
p1491
(dp1492
S'summary_display'
p1493
g4
sS'total_runs'
p1494
L10L
sS'summary_score'
p1495
I93
sS'results'
p1496
(dp1497
S'score'
p1498
(dp1499
g1498
I93
sS'raw_score'
p1500
I93
sS'display'
p1501
S'93/100'
p1502
ssssVAndroid 2.1
p1503
(dp1504
S'summary_display'
p1505
g4
sS'total_runs'
p1506
L1L
sS'summary_score'
p1507
I93
sS'results'
p1508
(dp1509
S'score'
p1510
(dp1511
g1510
I93
sS'raw_score'
p1512
I93
sS'display'
p1513
S'93/100'
p1514
ssssVChrome 2.0.172
p1515
(dp1516
S'summary_display'
p1517
g4
sS'total_runs'
p1518
L241L
sS'summary_score'
p1519
I100
sS'results'
p1520
(dp1521
S'score'
p1522
(dp1523
g1522
I100
sS'raw_score'
p1524
I100
sS'display'
p1525
S'100/100'
p1526
ssssVChrome 4.0.208
p1527
(dp1528
S'summary_display'
p1529
g4
sS'total_runs'
p1530
L4L
sS'summary_score'
p1531
I100
sS'results'
p1532
(dp1533
S'score'
p1534
(dp1535
g1534
I100
sS'raw_score'
p1536
I100
sS'display'
p1537
S'100/100'
p1538
ssssVChrome 4.0.209
p1539
(dp1540
S'summary_display'
p1541
g4
sS'total_runs'
p1542
L27L
sS'summary_score'
p1543
I100
sS'results'
p1544
(dp1545
S'score'
p1546
(dp1547
g1546
I100
sS'raw_score'
p1548
I100
sS'display'
p1549
S'100/100'
p1550
ssssVOpera 9.62
p1551
(dp1552
S'summary_display'
p1553
g4
sS'total_runs'
p1554
L2L
sS'summary_score'
p1555
I85
sS'results'
p1556
(dp1557
S'score'
p1558
(dp1559
g1558
I85
sS'raw_score'
p1560
I85
sS'display'
p1561
S'85/100'
p1562
ssssVNokia 5800
p1563
(dp1564
S'summary_display'
p1565
g4
sS'total_runs'
p1566
L5L
sS'summary_score'
p1567
I47
sS'results'
p1568
(dp1569
S'score'
p1570
(dp1571
g1570
I47
sS'raw_score'
p1572
I47
sS'display'
p1573
S'47/100'
p1574
ssssVFirefox 2.0
p1575
(dp1576
S'summary_display'
p1577
g4
sS'total_runs'
p1578
L45L
sS'summary_score'
p1579
I53
sS'results'
p1580
(dp1581
S'score'
p1582
(dp1583
g1582
I53
sS'raw_score'
p1584
I53
sS'display'
p1585
S'53/100'
p1586
ssssVNetNewsWire 3.2.1
p1587
(dp1588
S'summary_display'
p1589
g4
sS'total_runs'
p1590
L1L
sS'summary_score'
p1591
I100
sS'results'
p1592
(dp1593
S'score'
p1594
(dp1595
g1594
I100
sS'raw_score'
p1596
I100
sS'display'
p1597
S'100/100'
p1598
ssssVMidori 0.1.9
p1599
(dp1600
S'summary_display'
p1601
g4
sS'total_runs'
p1602
L6L
sS'summary_score'
p1603
I100
sS'results'
p1604
(dp1605
S'score'
p1606
(dp1607
g1606
I100
sS'raw_score'
p1608
I100
sS'display'
p1609
S'100/100'
p1610
ssssVOpera 9.63
p1611
(dp1612
S'summary_display'
p1613
g4
sS'total_runs'
p1614
L7L
sS'summary_score'
p1615
I85
sS'results'
p1616
(dp1617
S'score'
p1618
(dp1619
g1618
I85
sS'raw_score'
p1620
I85
sS'display'
p1621
S'85/100'
p1622
ssssVAndroid 1.5
p1623
(dp1624
S'summary_display'
p1625
g4
sS'total_runs'
p1626
L21L
sS'summary_score'
p1627
I93
sS'results'
p1628
(dp1629
S'score'
p1630
(dp1631
g1630
I93
sS'raw_score'
p1632
I93
sS'display'
p1633
S'93/100'
p1634
ssssVAndroid 1.6
p1635
(dp1636
S'summary_display'
p1637
g4
sS'total_runs'
p1638
L16L
sS'summary_score'
p1639
I93
sS'results'
p1640
(dp1641
S'score'
p1642
(dp1643
g1642
I93
sS'raw_score'
p1644
I93
sS'display'
p1645
S'93/100'
p1646
ssssVAndroid 1.1
p1647
(dp1648
S'summary_display'
p1649
g4
sS'total_runs'
p1650
L1L
sS'summary_score'
p1651
I72
sS'results'
p1652
(dp1653
S'score'
p1654
(dp1655
g1654
I72
sS'raw_score'
p1656
I72
sS'display'
p1657
S'72/100'
p1658
ssssVOpera 9.60
p1659
(dp1660
S'summary_display'
p1661
g4
sS'total_runs'
p1662
L1L
sS'summary_score'
p1663
I85
sS'results'
p1664
(dp1665
S'score'
p1666
(dp1667
g1666
I85
sS'raw_score'
p1668
I85
sS'display'
p1669
S'85/100'
p1670
ssssVFirefox 3.1b3
p1671
(dp1672
S'summary_display'
p1673
g4
sS'total_runs'
p1674
L2L
sS'summary_score'
p1675
I93
sS'results'
p1676
(dp1677
S'score'
p1678
(dp1679
g1678
I93
sS'raw_score'
p1680
I93
sS'display'
p1681
S'93/100'
p1682
ssssVOpera Mini 4.0.8462
p1683
(dp1684
S'summary_display'
p1685
g4
sS'total_runs'
p1686
L2L
sS'summary_score'
p1687
I98
sS'results'
p1688
(dp1689
S'score'
p1690
(dp1691
g1690
I98
sS'raw_score'
p1692
I98
sS'display'
p1693
S'98/100'
p1694
ssssVGranParadiso 3.0.12
p1695
(dp1696
S'summary_display'
p1697
g4
sS'total_runs'
p1698
L1L
sS'summary_score'
p1699
I72
sS'results'
p1700
(dp1701
S'score'
p1702
(dp1703
g1702
I72
sS'raw_score'
p1704
I72
sS'display'
p1705
S'72/100'
p1706
ssssVOpera 9.61
p1707
(dp1708
S'summary_display'
p1709
g4
sS'total_runs'
p1710
L2L
sS'summary_score'
p1711
I92
sS'results'
p1712
(dp1713
S'score'
p1714
(dp1715
g1714
I92
sS'raw_score'
p1716
I92
sS'display'
p1717
S'92/100'
p1718
ssssVOpera Mini 4.2.14912
p1719
(dp1720
S'summary_display'
p1721
g4
sS'total_runs'
p1722
L3L
sS'summary_score'
p1723
I98
sS'results'
p1724
(dp1725
S'score'
p1726
(dp1727
g1726
I98
sS'raw_score'
p1728
I98
sS'display'
p1729
S'98/100'
p1730
ssssVK-Meleon 1.5.3
p1731
(dp1732
S'summary_display'
p1733
g4
sS'total_runs'
p1734
L7L
sS'summary_score'
p1735
I53
sS'results'
p1736
(dp1737
S'score'
p1738
(dp1739
g1738
I53
sS'raw_score'
p1740
I53
sS'display'
p1741
S'53/100'
p1742
ssssVGranParadiso 3.0.16
p1743
(dp1744
S'summary_display'
p1745
g4
sS'total_runs'
p1746
L1L
sS'summary_score'
p1747
I72
sS'results'
p1748
(dp1749
S'score'
p1750
(dp1751
g1750
I72
sS'raw_score'
p1752
I72
sS'display'
p1753
S'72/100'
p1754
ssssVKazehakase 0.5.6
p1755
(dp1756
S'summary_display'
p1757
g4
sS'total_runs'
p1758
L1L
sS'summary_score'
p1759
I53
sS'results'
p1760
(dp1761
S'score'
p1762
(dp1763
g1762
I53
sS'raw_score'
p1764
I53
sS'display'
p1765
S'53/100'
p1766
ssssVOpera 9.52
p1767
(dp1768
S'summary_display'
p1769
g4
sS'total_runs'
p1770
L1L
sS'summary_score'
p1771
I84
sS'results'
p1772
(dp1773
S'score'
p1774
(dp1775
g1774
I84
sS'raw_score'
p1776
I84
sS'display'
p1777
S'84/100'
p1778
ssssVCamino 1.6.10
p1779
(dp1780
S'summary_display'
p1781
g4
sS'total_runs'
p1782
L1L
sS'summary_score'
p1783
I52
sS'results'
p1784
(dp1785
S'score'
p1786
(dp1787
g1786
I52
sS'raw_score'
p1788
I52
sS'display'
p1789
S'52/100'
p1790
ssssVOpera 9.50
p1791
(dp1792
S'summary_display'
p1793
g4
sS'total_runs'
p1794
L4L
sS'summary_score'
p1795
I73
sS'results'
p1796
(dp1797
S'score'
p1798
(dp1799
g1798
I73
sS'raw_score'
p1800
I73
sS'display'
p1801
S'73/100'
p1802
ssssVSeaMonkey 1.1.15
p1803
(dp1804
S'summary_display'
p1805
g4
sS'total_runs'
p1806
L1L
sS'summary_score'
p1807
I52
sS'results'
p1808
(dp1809
S'score'
p1810
(dp1811
g1810
I52
sS'raw_score'
p1812
I52
sS'display'
p1813
S'52/100'
p1814
ssssVSeaMonkey 1.1.17
p1815
(dp1816
S'summary_display'
p1817
g4
sS'total_runs'
p1818
L2L
sS'summary_score'
p1819
I53
sS'results'
p1820
(dp1821
S'score'
p1822
(dp1823
g1822
I53
sS'raw_score'
p1824
I53
sS'display'
p1825
S'53/100'
p1826
ssssVSeaMonkey 1.1.16
p1827
(dp1828
S'summary_display'
p1829
g4
sS'total_runs'
p1830
L1L
sS'summary_score'
p1831
I53
sS'results'
p1832
(dp1833
S'score'
p1834
(dp1835
g1834
I53
sS'raw_score'
p1836
I53
sS'display'
p1837
S'53/100'
p1838
ssssVOpera 10.10
p1839
(dp1840
S'summary_display'
p1841
g4
sS'total_runs'
p1842
L416L
sS'summary_score'
p1843
I100
sS'results'
p1844
(dp1845
S'score'
p1846
(dp1847
g1846
I100
sS'raw_score'
p1848
I100
sS'display'
p1849
S'100/100'
p1850
ssssVPalm Pre 1.0
p1851
(dp1852
S'summary_display'
p1853
g4
sS'total_runs'
p1854
L5L
sS'summary_score'
p1855
I92
sS'results'
p1856
(dp1857
S'score'
p1858
(dp1859
g1858
I92
sS'raw_score'
p1860
I92
sS'display'
p1861
S'92/100'
p1862
ssssViPhone 3.1.1
p1863
(dp1864
S'summary_display'
p1865
g4
sS'total_runs'
p1866
L4L
sS'summary_score'
p1867
I100
sS'results'
p1868
(dp1869
S'score'
p1870
(dp1871
g1870
I100
sS'raw_score'
p1872
I100
sS'display'
p1873
S'100/100'
p1874
ssssVChrome 0.2.152
p1875
(dp1876
S'summary_display'
p1877
g4
sS'total_runs'
p1878
L1L
sS'summary_score'
p1879
I77
sS'results'
p1880
(dp1881
S'score'
p1882
(dp1883
g1882
I77
sS'raw_score'
p1884
I77
sS'display'
p1885
S'77/100'
p1886
ssssViPhone 3.1.2
p1887
(dp1888
S'summary_display'
p1889
g4
sS'total_runs'
p1890
L48L
sS'summary_score'
p1891
I100
sS'results'
p1892
(dp1893
S'score'
p1894
(dp1895
g1894
I100
sS'raw_score'
p1896
I100
sS'display'
p1897
S'100/100'
p1898
ssssVIceweasel 3.0.6
p1899
(dp1900
S'summary_display'
p1901
g4
sS'total_runs'
p1902
L17L
sS'summary_score'
p1903
I72
sS'results'
p1904
(dp1905
S'score'
p1906
(dp1907
g1906
I72
sS'raw_score'
p1908
I72
sS'display'
p1909
S'72/100'
p1910
ssssVSeaMonkey 1.1.18
p1911
(dp1912
S'summary_display'
p1913
g4
sS'total_runs'
p1914
L6L
sS'summary_score'
p1915
I53
sS'results'
p1916
(dp1917
S'score'
p1918
(dp1919
g1918
I53
sS'raw_score'
p1920
I53
sS'display'
p1921
S'53/100'
p1922
ssssVIceweasel 3.0.5
p1923
(dp1924
S'summary_display'
p1925
g4
sS'total_runs'
p1926
L1L
sS'summary_score'
p1927
I71
sS'results'
p1928
(dp1929
S'score'
p1930
(dp1931
g1930
I71
sS'raw_score'
p1932
I71
sS'display'
p1933
S'71/100'
p1934
ssssVFirefox (Shiretoko) 3.5.5
p1935
(dp1936
S'summary_display'
p1937
g4
sS'total_runs'
p1938
L14L
sS'summary_score'
p1939
I93
sS'results'
p1940
(dp1941
S'score'
p1942
(dp1943
g1942
I93
sS'raw_score'
p1944
I93
sS'display'
p1945
S'93/100'
p1946
ssssVFirefox (Shiretoko) 3.5.4
p1947
(dp1948
S'summary_display'
p1949
g4
sS'total_runs'
p1950
L2L
sS'summary_score'
p1951
I93
sS'results'
p1952
(dp1953
S'score'
p1954
(dp1955
g1954
I93
sS'raw_score'
p1956
I93
sS'display'
p1957
S'93/100'
p1958
ssssVFirefox (Shiretoko) 3.5.7
p1959
(dp1960
S'summary_display'
p1961
g4
sS'total_runs'
p1962
L1L
sS'summary_score'
p1963
I93
sS'results'
p1964
(dp1965
S'score'
p1966
(dp1967
g1966
I93
sS'raw_score'
p1968
I93
sS'display'
p1969
S'93/100'
p1970
ssssVFirefox (Shiretoko) 3.5.6
p1971
(dp1972
S'summary_display'
p1973
g4
sS'total_runs'
p1974
L1L
sS'summary_score'
p1975
I93
sS'results'
p1976
(dp1977
S'score'
p1978
(dp1979
g1978
I93
sS'raw_score'
p1980
I93
sS'display'
p1981
S'93/100'
p1982
ssssVChrome 4.0.211
p1983
(dp1984
S'summary_display'
p1985
g4
sS'total_runs'
p1986
L51L
sS'summary_score'
p1987
I100
sS'results'
p1988
(dp1989
S'score'
p1990
(dp1991
g1990
I100
sS'raw_score'
p1992
I100
sS'display'
p1993
S'100/100'
p1994
ssssVChrome 4.0.210
p1995
(dp1996
S'summary_display'
p1997
g4
sS'total_runs'
p1998
L2L
sS'summary_score'
p1999
I100
sS'results'
p2000
(dp2001
S'score'
p2002
(dp2003
g2002
I100
sS'raw_score'
p2004
I100
sS'display'
p2005
S'100/100'
p2006
ssssVChrome 4.0.213
p2007
(dp2008
S'summary_display'
p2009
g4
sS'total_runs'
p2010
L31L
sS'summary_score'
p2011
I100
sS'results'
p2012
(dp2013
S'score'
p2014
(dp2015
g2014
I100
sS'raw_score'
p2016
I100
sS'display'
p2017
S'100/100'
p2018
ssssVChrome 4.0.212
p2019
(dp2020
S'summary_display'
p2021
g4
sS'total_runs'
p2022
L24L
sS'summary_score'
p2023
I100
sS'results'
p2024
(dp2025
S'score'
p2026
(dp2027
g2026
I100
sS'raw_score'
p2028
I100
sS'display'
p2029
S'100/100'
p2030
ssssVChrome 2.0.164
p2031
(dp2032
S'summary_display'
p2033
g4
sS'total_runs'
p2034
L2L
sS'summary_score'
p2035
I100
sS'results'
p2036
(dp2037
S'score'
p2038
(dp2039
g2038
I100
sS'raw_score'
p2040
I100
sS'display'
p2041
S'100/100'
p2042
ssssVCamino 2.0b3
p2043
(dp2044
S'summary_display'
p2045
g4
sS'total_runs'
p2046
L1L
sS'summary_score'
p2047
I72
sS'results'
p2048
(dp2049
S'score'
p2050
(dp2051
g2050
I72
sS'raw_score'
p2052
I72
sS'display'
p2053
S'72/100'
p2054
ssssVNetNewsWire 3.2
p2055
(dp2056
S'summary_display'
p2057
g4
sS'total_runs'
p2058
L11L
sS'summary_score'
p2059
I100
sS'results'
p2060
(dp2061
S'score'
p2062
(dp2063
g2062
I100
sS'raw_score'
p2064
I100
sS'display'
p2065
S'100/100'
p2066
ssssVChrome 4.0.219
p2067
(dp2068
S'summary_display'
p2069
g4
sS'total_runs'
p2070
L11L
sS'summary_score'
p2071
I100
sS'results'
p2072
(dp2073
S'score'
p2074
(dp2075
g2074
I100
sS'raw_score'
p2076
I100
sS'display'
p2077
S'100/100'
p2078
ssssVCamino 2.0b4
p2079
(dp2080
S'summary_display'
p2081
g4
sS'total_runs'
p2082
L1L
sS'summary_score'
p2083
I72
sS'results'
p2084
(dp2085
S'score'
p2086
(dp2087
g2086
I72
sS'raw_score'
p2088
I72
sS'display'
p2089
S'72/100'
p2090
ssssVFirefox (Namoroka) 3.6
p2091
(dp2092
S'summary_display'
p2093
g4
sS'total_runs'
p2094
L51L
sS'summary_score'
p2095
I94
sS'results'
p2096
(dp2097
S'score'
p2098
(dp2099
g2098
I94
sS'raw_score'
p2100
I94
sS'display'
p2101
S'94/100'
p2102
ssssVKonqueror 4.3.1
p2103
(dp2104
S'summary_display'
p2105
g4
sS'total_runs'
p2106
L4L
sS'summary_score'
p2107
I100
sS'results'
p2108
(dp2109
S'score'
p2110
(dp2111
g2110
I100
sS'raw_score'
p2112
I100
sS'display'
p2113
S'100/100'
p2114
ssssVMaemo Browser 1.4.1
p2115
(dp2116
S'summary_display'
p2117
g4
sS'total_runs'
p2118
L1L
sS'summary_score'
p2119
I94
sS'results'
p2120
(dp2121
S'score'
p2122
(dp2123
g2122
I94
sS'raw_score'
p2124
I94
sS'display'
p2125
S'94/100'
p2126
ssssVIceweasel 3.5
p2127
(dp2128
S'summary_display'
p2129
g4
sS'total_runs'
p2130
L16L
sS'summary_score'
p2131
I93
sS'results'
p2132
(dp2133
S'score'
p2134
(dp2135
g2134
I93
sS'raw_score'
p2136
I93
sS'display'
p2137
S'93/100'
p2138
ssssVIceweasel 2.0.0
p2139
(dp2140
S'summary_display'
p2141
g4
sS'total_runs'
p2142
L1L
sS'summary_score'
p2143
I52
sS'results'
p2144
(dp2145
S'score'
p2146
(dp2147
g2146
I52
sS'raw_score'
p2148
I52
sS'display'
p2149
S'52/100'
p2150
ssssVIron 3.0.189
p2151
(dp2152
S'summary_display'
p2153
g4
sS'total_runs'
p2154
L5L
sS'summary_score'
p2155
I100
sS'results'
p2156
(dp2157
S'score'
p2158
(dp2159
g2158
I100
sS'raw_score'
p2160
I100
sS'display'
p2161
S'100/100'
p2162
ssssVIE 7.0
p2163
(dp2164
S'summary_display'
p2165
g4
sS'total_runs'
p2166
L198L
sS'summary_score'
p2167
I12
sS'results'
p2168
(dp2169
S'score'
p2170
(dp2171
g2170
I12
sS'raw_score'
p2172
I12
sS'display'
p2173
S'12/100'
p2174
ssssVMidori 0.1.6
p2175
(dp2176
S'summary_display'
p2177
g4
sS'total_runs'
p2178
L1L
sS'summary_score'
p2179
I100
sS'results'
p2180
(dp2181
S'score'
p2182
(dp2183
g2182
I100
sS'raw_score'
p2184
I100
sS'display'
p2185
S'100/100'
p2186
ssssVIron 2.0.178
p2187
(dp2188
S'summary_display'
p2189
g4
sS'total_runs'
p2190
L8L
sS'summary_score'
p2191
I100
sS'results'
p2192
(dp2193
S'score'
p2194
(dp2195
g2194
I100
sS'raw_score'
p2196
I100
sS'display'
p2197
S'100/100'
p2198
ssssVFlock 1.1
p2199
(dp2200
S'summary_display'
p2201
g4
sS'total_runs'
p2202
L1L
sS'summary_score'
p2203
I52
sS'results'
p2204
(dp2205
S'score'
p2206
(dp2207
g2206
I52
sS'raw_score'
p2208
I52
sS'display'
p2209
S'52/100'
p2210
ssssVMidori 0.2.0
p2211
(dp2212
S'summary_display'
p2213
g4
sS'total_runs'
p2214
L1L
sS'summary_score'
p2215
I100
sS'results'
p2216
(dp2217
S'score'
p2218
(dp2219
g2218
I100
sS'raw_score'
p2220
I100
sS'display'
p2221
S'100/100'
p2222
ssssVCamino 2.0
p2223
(dp2224
S'summary_display'
p2225
g4
sS'total_runs'
p2226
L8L
sS'summary_score'
p2227
I72
sS'results'
p2228
(dp2229
S'score'
p2230
(dp2231
g2230
I72
sS'raw_score'
p2232
I72
sS'display'
p2233
S'72/100'
p2234
ssssVChrome Frame (IE 8) 4.0.245
p2235
(dp2236
S'summary_display'
p2237
g4
sS'total_runs'
p2238
L1L
sS'summary_score'
p2239
I100
sS'results'
p2240
(dp2241
S'score'
p2242
(dp2243
g2242
I100
sS'raw_score'
p2244
I100
sS'display'
p2245
S'100/100'
p2246
ssssVMidori 0.2.1
p2247
(dp2248
S'summary_display'
p2249
g4
sS'total_runs'
p2250
L4L
sS'summary_score'
p2251
I100
sS'results'
p2252
(dp2253
S'score'
p2254
(dp2255
g2254
I100
sS'raw_score'
p2256
I100
sS'display'
p2257
S'100/100'
p2258
ssssVMidori 0.2.2
p2259
(dp2260
S'summary_display'
p2261
g4
sS'total_runs'
p2262
L1L
sS'summary_score'
p2263
I100
sS'results'
p2264
(dp2265
S'score'
p2266
(dp2267
g2266
I100
sS'raw_score'
p2268
I100
sS'display'
p2269
S'100/100'
p2270
ssssVOpera Mini 5.0.15650
p2271
(dp2272
S'summary_display'
p2273
g4
sS'total_runs'
p2274
L1L
sS'summary_score'
p2275
I98
sS'results'
p2276
(dp2277
S'score'
p2278
(dp2279
g2278
I98
sS'raw_score'
p2280
I98
sS'display'
p2281
S'98/100'
p2282
ssssVOmniWeb 622.10
p2283
(dp2284
S'summary_display'
p2285
g4
sS'total_runs'
p2286
L6L
sS'summary_score'
p2287
I100
sS'results'
p2288
(dp2289
S'score'
p2290
(dp2291
g2290
I100
sS'raw_score'
p2292
I100
sS'display'
p2293
S'100/100'
p2294
ssssVSafari 4.0.1
p2295
(dp2296
S'summary_display'
p2297
g4
sS'total_runs'
p2298
L4L
sS'summary_score'
p2299
I100
sS'results'
p2300
(dp2301
S'score'
p2302
(dp2303
g2302
I100
sS'raw_score'
p2304
I100
sS'display'
p2305
S'100/100'
p2306
ssssVFirefox 3.6a2pre
p2307
(dp2308
S'summary_display'
p2309
g4
sS'total_runs'
p2310
L2L
sS'summary_score'
p2311
I95
sS'results'
p2312
(dp2313
S'score'
p2314
(dp2315
g2314
I95
sS'raw_score'
p2316
I95
sS'display'
p2317
S'95/100'
p2318
ssssVIE 6.0
p2319
(dp2320
S'summary_display'
p2321
g4
sS'total_runs'
p2322
L124L
sS'summary_score'
p2323
I12
sS'results'
p2324
(dp2325
S'score'
p2326
(dp2327
g2326
I12
sS'raw_score'
p2328
I12
sS'display'
p2329
S'12/100'
p2330
ssssVFirefox (Shiretoko) 3.5.7pre
p2331
(dp2332
S'summary_display'
p2333
g4
sS'total_runs'
p2334
L2L
sS'summary_score'
p2335
I93
sS'results'
p2336
(dp2337
S'score'
p2338
(dp2339
g2338
I93
sS'raw_score'
p2340
I93
sS'display'
p2341
S'93/100'
p2342
ssssVFirefox 3.5.1
p2343
(dp2344
S'summary_display'
p2345
g4
sS'total_runs'
p2346
L57L
sS'summary_score'
p2347
I93
sS'results'
p2348
(dp2349
S'score'
p2350
(dp2351
g2350
I93
sS'raw_score'
p2352
I93
sS'display'
p2353
S'93/100'
p2354
ssssVOpera 9.51
p2355
(dp2356
S'summary_display'
p2357
g4
sS'total_runs'
p2358
L3L
sS'summary_score'
p2359
I84
sS'results'
p2360
(dp2361
S'score'
p2362
(dp2363
g2362
I84
sS'raw_score'
p2364
I84
sS'display'
p2365
S'84/100'
p2366
ssssVChrome Frame (IE 7) 4.0.211
p2367
(dp2368
S'summary_display'
p2369
g4
sS'total_runs'
p2370
L4L
sS'summary_score'
p2371
I100
sS'results'
p2372
(dp2373
S'score'
p2374
(dp2375
g2374
I100
sS'raw_score'
p2376
I100
sS'display'
p2377
S'100/100'
p2378
ssssVMaxthon 2.0
p2379
(dp2380
S'summary_display'
p2381
g4
sS'total_runs'
p2382
L11L
sS'summary_score'
p2383
I13
sS'results'
p2384
(dp2385
S'score'
p2386
(dp2387
g2386
I13
sS'raw_score'
p2388
I13
sS'display'
p2389
S'13/100'
p2390
ssssVStainless 0.6
p2391
(dp2392
S'summary_display'
p2393
g4
sS'total_runs'
p2394
L1L
sS'summary_score'
p2395
I100
sS'results'
p2396
(dp2397
S'score'
p2398
(dp2399
g2398
I100
sS'raw_score'
p2400
I100
sS'display'
p2401
S'100/100'
p2402
ssssVMidori 0.1.10
p2403
(dp2404
S'summary_display'
p2405
g4
sS'total_runs'
p2406
L3L
sS'summary_score'
p2407
I100
sS'results'
p2408
(dp2409
S'score'
p2410
(dp2411
g2410
I100
sS'raw_score'
p2412
I100
sS'display'
p2413
S'100/100'
p2414
ssssVOpera Mini 4.2.13057
p2415
(dp2416
S'summary_display'
p2417
g4
sS'total_runs'
p2418
L1L
sS'summary_score'
p2419
I98
sS'results'
p2420
(dp2421
S'score'
p2422
(dp2423
g2422
I98
sS'raw_score'
p2424
I98
sS'display'
p2425
S'98/100'
p2426
ssssVFirefox (Shiretoko) 3.5.6pre
p2427
(dp2428
S'summary_display'
p2429
g4
sS'total_runs'
p2430
L8L
sS'summary_score'
p2431
I93
sS'results'
p2432
(dp2433
S'score'
p2434
(dp2435
g2434
I93
sS'raw_score'
p2436
I93
sS'display'
p2437
S'93/100'
p2438
ssssVSeaMonkey 2.0a2
p2439
(dp2440
S'summary_display'
p2441
g4
sS'total_runs'
p2442
L3L
sS'summary_score'
p2443
I93
sS'results'
p2444
(dp2445
S'score'
p2446
(dp2447
g2446
I93
sS'raw_score'
p2448
I93
sS'display'
p2449
S'93/100'
p2450
ssssVFirefox (Shiretoko) 3.5.4pre
p2451
(dp2452
S'summary_display'
p2453
g4
sS'total_runs'
p2454
L32L
sS'summary_score'
p2455
I93
sS'results'
p2456
(dp2457
S'score'
p2458
(dp2459
g2458
I93
sS'raw_score'
p2460
I93
sS'display'
p2461
S'93/100'
p2462
ssssVCamino 2.0.1
p2463
(dp2464
S'summary_display'
p2465
g4
sS'total_runs'
p2466
L2L
sS'summary_score'
p2467
I72
sS'results'
p2468
(dp2469
S'score'
p2470
(dp2471
g2470
I72
sS'raw_score'
p2472
I72
sS'display'
p2473
S'72/100'
p2474
ssssVFirefox 3.0.12
p2475
(dp2476
S'summary_display'
p2477
g4
sS'total_runs'
p2478
L8L
sS'summary_score'
p2479
I72
sS'results'
p2480
(dp2481
S'score'
p2482
(dp2483
g2482
I72
sS'raw_score'
p2484
I72
sS'display'
p2485
S'72/100'
p2486
ssssVChrome 0.2.149
p2487
(dp2488
S'summary_display'
p2489
g4
sS'total_runs'
p2490
L2L
sS'summary_score'
p2491
I78
sS'results'
p2492
(dp2493
S'score'
p2494
(dp2495
g2494
I78
sS'raw_score'
p2496
I78
sS'display'
p2497
S'78/100'
p2498
ssssVOpera Mini 4.2.13216
p2499
(dp2500
S'summary_display'
p2501
g4
sS'total_runs'
p2502
L1L
sS'summary_score'
p2503
I98
sS'results'
p2504
(dp2505
S'score'
p2506
(dp2507
g2506
I98
sS'raw_score'
p2508
I98
sS'display'
p2509
S'98/100'
p2510
ssssVChrome 4.0.220
p2511
(dp2512
S'summary_display'
p2513
g4
sS'total_runs'
p2514
L12L
sS'summary_score'
p2515
I100
sS'results'
p2516
(dp2517
S'score'
p2518
(dp2519
g2518
I100
sS'raw_score'
p2520
I100
sS'display'
p2521
S'100/100'
p2522
ssssVChrome 4.0.221
p2523
(dp2524
S'summary_display'
p2525
g4
sS'total_runs'
p2526
L25L
sS'summary_score'
p2527
I100
sS'results'
p2528
(dp2529
S'score'
p2530
(dp2531
g2530
I100
sS'raw_score'
p2532
I100
sS'display'
p2533
S'100/100'
p2534
ssssVChrome 4.0.222
p2535
(dp2536
S'summary_display'
p2537
g4
sS'total_runs'
p2538
L23L
sS'summary_score'
p2539
I100
sS'results'
p2540
(dp2541
S'score'
p2542
(dp2543
g2542
I100
sS'raw_score'
p2544
I100
sS'display'
p2545
S'100/100'
p2546
ssssVChrome 4.0.223
p2547
(dp2548
S'summary_display'
p2549
g4
sS'total_runs'
p2550
L120L
sS'summary_score'
p2551
I100
sS'results'
p2552
(dp2553
S'score'
p2554
(dp2555
g2554
I100
sS'raw_score'
p2556
I100
sS'display'
p2557
S'100/100'
p2558
ssssVChrome 4.0.224
p2559
(dp2560
S'summary_display'
p2561
g4
sS'total_runs'
p2562
L1L
sS'summary_score'
p2563
I100
sS'results'
p2564
(dp2565
S'score'
p2566
(dp2567
g2566
I100
sS'raw_score'
p2568
I100
sS'display'
p2569
S'100/100'
p2570
ssssVChrome 4.0.226
p2571
(dp2572
S'summary_display'
p2573
g4
sS'total_runs'
p2574
L4L
sS'summary_score'
p2575
I100
sS'results'
p2576
(dp2577
S'score'
p2578
(dp2579
g2578
I100
sS'raw_score'
p2580
I100
sS'display'
p2581
S'100/100'
p2582
ssssVChrome 4.0.227
p2583
(dp2584
S'summary_display'
p2585
g4
sS'total_runs'
p2586
L4L
sS'summary_score'
p2587
I100
sS'results'
p2588
(dp2589
S'score'
p2590
(dp2591
g2590
I100
sS'raw_score'
p2592
I100
sS'display'
p2593
S'100/100'
p2594
ssssVSwiftfox 3.5.1
p2595
(dp2596
S'summary_display'
p2597
g4
sS'total_runs'
p2598
L2L
sS'summary_score'
p2599
I93
sS'results'
p2600
(dp2601
S'score'
p2602
(dp2603
g2602
I93
sS'raw_score'
p2604
I93
sS'display'
p2605
S'93/100'
p2606
ssssVQtWeb 3.1
p2607
(dp2608
S'summary_display'
p2609
g4
sS'total_runs'
p2610
L1L
sS'summary_score'
p2611
I98
sS'results'
p2612
(dp2613
S'score'
p2614
(dp2615
g2614
I98
sS'raw_score'
p2616
I98
sS'display'
p2617
S'98/100'
p2618
ssssVSwiftfox 3.5.5
p2619
(dp2620
S'summary_display'
p2621
g4
sS'total_runs'
p2622
L2L
sS'summary_score'
p2623
I93
sS'results'
p2624
(dp2625
S'score'
p2626
(dp2627
g2626
I93
sS'raw_score'
p2628
I93
sS'display'
p2629
S'93/100'
p2630
ssssVShiira 0
p2631
(dp2632
S'summary_display'
p2633
g4
sS'total_runs'
p2634
L1L
sS'summary_score'
p2635
I98
sS'results'
p2636
(dp2637
S'score'
p2638
(dp2639
g2638
I98
sS'raw_score'
p2640
I98
sS'display'
p2641
S'98/100'
p2642
ssssVIron 2.0.168
p2643
(dp2644
S'summary_display'
p2645
g4
sS'total_runs'
p2646
L1L
sS'summary_score'
p2647
I100
sS'results'
p2648
(dp2649
S'score'
p2650
(dp2651
g2650
I100
sS'raw_score'
p2652
I100
sS'display'
p2653
S'100/100'
p2654
ssssVFirefox (Namoroka) 3.6b3pre
p2655
(dp2656
S'summary_display'
p2657
g4
sS'total_runs'
p2658
L3L
sS'summary_score'
p2659
I92
sS'results'
p2660
(dp2661
S'score'
p2662
(dp2663
g2662
I92
sS'raw_score'
p2664
I92
sS'display'
p2665
S'92/100'
p2666
ssssViPhone 2.2
p2667
(dp2668
S'summary_display'
p2669
g4
sS'total_runs'
p2670
L9L
sS'summary_score'
p2671
I74
sS'results'
p2672
(dp2673
S'score'
p2674
(dp2675
g2674
I74
sS'raw_score'
p2676
I74
sS'display'
p2677
S'74/100'
p2678
ssssVIE 5.5
p2679
(dp2680
S'summary_display'
p2681
g4
sS'total_runs'
p2682
L5L
sS'summary_score'
p2683
I14
sS'results'
p2684
(dp2685
S'score'
p2686
(dp2687
g2686
I14
sS'raw_score'
p2688
I14
sS'display'
p2689
S'14/100'
p2690
ssssVIceweasel 3.0.11
p2691
(dp2692
S'summary_display'
p2693
g4
sS'total_runs'
p2694
L1L
sS'summary_score'
p2695
I71
sS'results'
p2696
(dp2697
S'score'
p2698
(dp2699
g2698
I71
sS'raw_score'
p2700
I71
sS'display'
p2701
S'71/100'
p2702
ssssVFirefox (Namoroka) 3.6b4pre
p2703
(dp2704
S'summary_display'
p2705
g4
sS'total_runs'
p2706
L4L
sS'summary_score'
p2707
I92
sS'results'
p2708
(dp2709
S'score'
p2710
(dp2711
g2710
I92
sS'raw_score'
p2712
I92
sS'display'
p2713
S'92/100'
p2714
ssssVVodafone 1.0
p2715
(dp2716
S'summary_display'
p2717
g4
sS'total_runs'
p2718
L1L
sS'summary_score'
p2719
I93
sS'results'
p2720
(dp2721
S'score'
p2722
(dp2723
g2722
I93
sS'raw_score'
p2724
I93
sS'display'
p2725
S'93/100'
p2726
ssssVFlock 2.5.6
p2727
(dp2728
S'summary_display'
p2729
g4
sS'total_runs'
p2730
L1L
sS'summary_score'
p2731
I72
sS'results'
p2732
(dp2733
S'score'
p2734
(dp2735
g2734
I72
sS'raw_score'
p2736
I72
sS'display'
p2737
S'72/100'
p2738
ssssVChrome 4.0.295
p2739
(dp2740
S'summary_display'
p2741
g4
sS'total_runs'
p2742
L10L
sS'summary_score'
p2743
I100
sS'results'
p2744
(dp2745
S'score'
p2746
(dp2747
g2746
I100
sS'raw_score'
p2748
I100
sS'display'
p2749
S'100/100'
p2750
ssssVSeaMonkey 2.0b2pre
p2751
(dp2752
S'summary_display'
p2753
g4
sS'total_runs'
p2754
L1L
sS'summary_score'
p2755
I93
sS'results'
p2756
(dp2757
S'score'
p2758
(dp2759
g2758
I93
sS'raw_score'
p2760
I93
sS'display'
p2761
S'93/100'
p2762
ssssVFlock 2.5.5
p2763
(dp2764
S'summary_display'
p2765
g4
sS'total_runs'
p2766
L2L
sS'summary_score'
p2767
I72
sS'results'
p2768
(dp2769
S'score'
p2770
(dp2771
g2770
I72
sS'raw_score'
p2772
I72
sS'display'
p2773
S'72/100'
p2774
ssssVSafari 1.0
p2775
(dp2776
S'summary_display'
p2777
g4
sS'total_runs'
p2778
L1L
sS'summary_score'
p2779
I92
sS'results'
p2780
(dp2781
S'score'
p2782
(dp2783
g2782
I92
sS'raw_score'
p2784
I92
sS'display'
p2785
S'92/100'
p2786
ssssVSafari 3.2.3
p2787
(dp2788
S'summary_display'
p2789
g4
sS'total_runs'
p2790
L10L
sS'summary_score'
p2791
I76
sS'results'
p2792
(dp2793
S'score'
p2794
(dp2795
g2794
I76
sS'raw_score'
p2796
I76
sS'display'
p2797
S'76/100'
p2798
ssssVIceweasel 3.5.5
p2799
(dp2800
S'summary_display'
p2801
g4
sS'total_runs'
p2802
L4L
sS'summary_score'
p2803
I93
sS'results'
p2804
(dp2805
S'score'
p2806
(dp2807
g2806
I93
sS'raw_score'
p2808
I93
sS'display'
p2809
S'93/100'
p2810
ssssVK-Meleon 1.5.2
p2811
(dp2812
S'summary_display'
p2813
g4
sS'total_runs'
p2814
L2L
sS'summary_score'
p2815
I54
sS'results'
p2816
(dp2817
S'score'
p2818
(dp2819
g2818
I54
sS'raw_score'
p2820
I54
sS'display'
p2821
S'54/100'
p2822
ssssVFirefox (Shiretoko) 3.5.1
p2823
(dp2824
S'summary_display'
p2825
g4
sS'total_runs'
p2826
L2L
sS'summary_score'
p2827
I93
sS'results'
p2828
(dp2829
S'score'
p2830
(dp2831
g2830
I93
sS'raw_score'
p2832
I93
sS'display'
p2833
S'93/100'
p2834
ssssVChrome 4.0.239
p2835
(dp2836
S'summary_display'
p2837
g4
sS'total_runs'
p2838
L2L
sS'summary_score'
p2839
I100
sS'results'
p2840
(dp2841
S'score'
p2842
(dp2843
g2842
I100
sS'raw_score'
p2844
I100
sS'display'
p2845
S'100/100'
p2846
ssssVChrome 4.0.237
p2847
(dp2848
S'summary_display'
p2849
g4
sS'total_runs'
p2850
L93L
sS'summary_score'
p2851
I100
sS'results'
p2852
(dp2853
S'score'
p2854
(dp2855
g2854
I100
sS'raw_score'
p2856
I100
sS'display'
p2857
S'100/100'
p2858
ssssVKonqueror 3.5
p2859
(dp2860
S'summary_display'
p2861
g4
sS'total_runs'
p2862
L10L
sS'summary_score'
p2863
I42
sS'results'
p2864
(dp2865
S'score'
p2866
(dp2867
g2866
I42
sS'raw_score'
p2868
I42
sS'display'
p2869
S'42/100'
p2870
ssssVChrome 4.0.235
p2871
(dp2872
S'summary_display'
p2873
g4
sS'total_runs'
p2874
L1L
sS'summary_score'
p2875
I100
sS'results'
p2876
(dp2877
S'score'
p2878
(dp2879
g2878
I100
sS'raw_score'
p2880
I100
sS'display'
p2881
S'100/100'
p2882
ssssVSwiftfox 3.5.3
p2883
(dp2884
S'summary_display'
p2885
g4
sS'total_runs'
p2886
L3L
sS'summary_score'
p2887
I93
sS'results'
p2888
(dp2889
S'score'
p2890
(dp2891
g2890
I93
sS'raw_score'
p2892
I93
sS'display'
p2893
S'93/100'
p2894
ssssVChrome 4.0.232
p2895
(dp2896
S'summary_display'
p2897
g4
sS'total_runs'
p2898
L1L
sS'summary_score'
p2899
I100
sS'results'
p2900
(dp2901
S'score'
p2902
(dp2903
g2902
I100
sS'raw_score'
p2904
I100
sS'display'
p2905
S'100/100'
p2906
ssssVChrome 4.0.231
p2907
(dp2908
S'summary_display'
p2909
g4
sS'total_runs'
p2910
L1L
sS'summary_score'
p2911
I100
sS'results'
p2912
(dp2913
S'score'
p2914
(dp2915
g2914
I100
sS'raw_score'
p2916
I100
sS'display'
p2917
S'100/100'
p2918
ssssVSafari 3.0
p2919
(dp2920
S'summary_display'
p2921
g4
sS'total_runs'
p2922
L4L
sS'summary_score'
p2923
I47
sS'results'
p2924
(dp2925
S'score'
p2926
(dp2927
g2926
I47
sS'raw_score'
p2928
I47
sS'display'
p2929
S'47/100'
p2930
ssssVMicroB 0.3.7
p2931
(dp2932
S'summary_display'
p2933
g4
sS'total_runs'
p2934
L2L
sS'summary_score'
p2935
I55
sS'results'
p2936
(dp2937
S'score'
p2938
(dp2939
g2938
I55
sS'raw_score'
p2940
I55
sS'display'
p2941
S'55/100'
p2942
ssssVCamino 1.5.4
p2943
(dp2944
S'summary_display'
p2945
g4
sS'total_runs'
p2946
L1L
sS'summary_score'
p2947
I53
sS'results'
p2948
(dp2949
S'score'
p2950
(dp2951
g2950
I53
sS'raw_score'
p2952
I53
sS'display'
p2953
S'53/100'
p2954
ssssVLunascape 6.0.0
p2955
(dp2956
S'summary_display'
p2957
g4
sS'total_runs'
p2958
L6L
sS'summary_score'
p2959
I93
sS'results'
p2960
(dp2961
S'score'
p2962
(dp2963
g2962
I93
sS'raw_score'
p2964
I93
sS'display'
p2965
S'93/100'
p2966
ssssVIceweasel 3.5.4
p2967
(dp2968
S'summary_display'
p2969
g4
sS'total_runs'
p2970
L3L
sS'summary_score'
p2971
I92
sS'results'
p2972
(dp2973
S'score'
p2974
(dp2975
g2974
I92
sS'raw_score'
p2976
I92
sS'display'
p2977
S'92/100'
p2978
ssssVSeaMonkey 2.0.1
p2979
(dp2980
S'summary_display'
p2981
g4
sS'total_runs'
p2982
L5L
sS'summary_score'
p2983
I93
sS'results'
p2984
(dp2985
S'score'
p2986
(dp2987
g2986
I93
sS'raw_score'
p2988
I93
sS'display'
p2989
S'93/100'
p2990
ssssVWii 9.30
p2991
(dp2992
S'summary_display'
p2993
g4
sS'total_runs'
p2994
L1L
sS'summary_score'
p2995
I55
sS'results'
p2996
(dp2997
S'score'
p2998
(dp2999
g2998
I55
sS'raw_score'
p3000
I55
sS'display'
p3001
S'55/100'
p3002
ssssVArora 0.5
p3003
(dp3004
S'summary_display'
p3005
g4
sS'total_runs'
p3006
L1L
sS'summary_score'
p3007
I100
sS'results'
p3008
(dp3009
S'score'
p3010
(dp3011
g3010
I100
sS'raw_score'
p3012
I100
sS'display'
p3013
S'100/100'
p3014
ssssVArora 0.6
p3015
(dp3016
S'summary_display'
p3017
g4
sS'total_runs'
p3018
L1L
sS'summary_score'
p3019
I41
sS'results'
p3020
(dp3021
S'score'
p3022
(dp3023
g3022
I41
sS'raw_score'
p3024
I41
sS'display'
p3025
S'41/100'
p3026
ssssVArora 0.7
p3027
(dp3028
S'summary_display'
p3029
g4
sS'total_runs'
p3030
L1L
sS'summary_score'
p3031
I100
sS'results'
p3032
(dp3033
S'score'
p3034
(dp3035
g3034
I100
sS'raw_score'
p3036
I100
sS'display'
p3037
S'100/100'
p3038
ssssVSafari 3.2
p3039
(dp3040
S'summary_display'
p3041
g4
sS'total_runs'
p3042
L21L
sS'summary_score'
p3043
I75
sS'results'
p3044
(dp3045
S'score'
p3046
(dp3047
g3046
I75
sS'raw_score'
p3048
I75
sS'display'
p3049
S'75/100'
p3050
ssssVIceweasel 3.0.14
p3051
(dp3052
S'summary_display'
p3053
g4
sS'total_runs'
p3054
L10L
sS'summary_score'
p3055
I72
sS'results'
p3056
(dp3057
S'score'
p3058
(dp3059
g3058
I72
sS'raw_score'
p3060
I72
sS'display'
p3061
S'72/100'
p3062
ssssVChrome Frame (IE 8) 4.0.223
p3063
(dp3064
S'summary_display'
p3065
g4
sS'total_runs'
p3066
L1L
sS'summary_score'
p3067
I100
sS'results'
p3068
(dp3069
S'score'
p3070
(dp3071
g3070
I100
sS'raw_score'
p3072
I100
sS'display'
p3073
S'100/100'
p3074
ssssVFirefox 3.6a1
p3075
(dp3076
S'summary_display'
p3077
g4
sS'total_runs'
p3078
L1L
sS'summary_score'
p3079
I92
sS'results'
p3080
(dp3081
S'score'
p3082
(dp3083
g3082
I92
sS'raw_score'
p3084
I92
sS'display'
p3085
S'92/100'
p3086
ssssVArora 0.8
p3087
(dp3088
S'summary_display'
p3089
g4
sS'total_runs'
p3090
L5L
sS'summary_score'
p3091
I98
sS'results'
p3092
(dp3093
S'score'
p3094
(dp3095
g3094
I98
sS'raw_score'
p3096
I98
sS'display'
p3097
S'98/100'
p3098
ssssVArora 0.9
p3099
(dp3100
S'summary_display'
p3101
g4
sS'total_runs'
p3102
L19L
sS'summary_score'
p3103
I100
sS'results'
p3104
(dp3105
S'score'
p3106
(dp3107
g3106
I100
sS'raw_score'
p3108
I100
sS'display'
p3109
S'100/100'
p3110
ssssVIceweasel 3.0.12
p3111
(dp3112
S'summary_display'
p3113
g4
sS'total_runs'
p3114
L6L
sS'summary_score'
p3115
I72
sS'results'
p3116
(dp3117
S'score'
p3118
(dp3119
g3118
I72
sS'raw_score'
p3120
I72
sS'display'
p3121
S'72/100'
p3122
ssssVMidori 0.1.8
p3123
(dp3124
S'summary_display'
p3125
g4
sS'total_runs'
p3126
L6L
sS'summary_score'
p3127
I88
sS'results'
p3128
(dp3129
S'score'
p3130
(dp3131
g3130
I88
sS'raw_score'
p3132
I88
sS'display'
p3133
S'88/100'
p3134
ssssVOther
p3135
(dp3136
S'summary_display'
p3137
g4
sS'total_runs'
p3138
L58L
sS'summary_score'
p3139
I100
sS'results'
p3140
(dp3141
S'score'
p3142
(dp3143
g3142
I100
sS'raw_score'
p3144
I100
sS'display'
p3145
S'100/100'
p3146
ssssVMaxthon 3.0
p3147
(dp3148
S'summary_display'
p3149
g4
sS'total_runs'
p3150
L4L
sS'summary_score'
p3151
I100
sS'results'
p3152
(dp3153
S'score'
p3154
(dp3155
g3154
I100
sS'raw_score'
p3156
I100
sS'display'
p3157
S'100/100'
p3158
ssssVUzbl 0
p3159
(dp3160
S'summary_display'
p3161
g4
sS'total_runs'
p3162
L23L
sS'summary_score'
p3163
I100
sS'results'
p3164
(dp3165
S'score'
p3166
(dp3167
g3166
I100
sS'raw_score'
p3168
I100
sS'display'
p3169
S'100/100'
p3170
ssssVSeaMonkey 2.0b2
p3171
(dp3172
S'summary_display'
p3173
g4
sS'total_runs'
p3174
L4L
sS'summary_score'
p3175
I93
sS'results'
p3176
(dp3177
S'score'
p3178
(dp3179
g3178
I93
sS'raw_score'
p3180
I93
sS'display'
p3181
S'93/100'
p3182
ssssVPlayStation 3
p3183
(dp3184
S'summary_display'
p3185
g4
sS'total_runs'
p3186
L1L
sS'summary_score'
p3187
I27
sS'results'
p3188
(dp3189
S'score'
p3190
(dp3191
g3190
I27
sS'raw_score'
p3192
I27
sS'display'
p3193
S'27/100'
p3194
ssssVSeaMonkey 2.0b1
p3195
(dp3196
S'summary_display'
p3197
g4
sS'total_runs'
p3198
L1L
sS'summary_score'
p3199
I93
sS'results'
p3200
(dp3201
S'score'
p3202
(dp3203
g3202
I93
sS'raw_score'
p3204
I93
sS'display'
p3205
S'93/100'
p3206
ssssVSeaMonkey 1.1.8
p3207
(dp3208
S'summary_display'
p3209
g4
sS'total_runs'
p3210
L1L
sS'summary_score'
p3211
I52
sS'results'
p3212
(dp3213
S'score'
p3214
(dp3215
g3214
I52
sS'raw_score'
p3216
I52
sS'display'
p3217
S'52/100'
p3218
ssssVChrome 4.0.269
p3219
(dp3220
S'summary_display'
p3221
g4
sS'total_runs'
p3222
L1L
sS'summary_score'
p3223
I100
sS'results'
p3224
(dp3225
S'score'
p3226
(dp3227
g3226
I100
sS'raw_score'
p3228
I100
sS'display'
p3229
S'100/100'
p3230
ssssVArora 0.10
p3231
(dp3232
S'summary_display'
p3233
g4
sS'total_runs'
p3234
L7L
sS'summary_score'
p3235
I98
sS'results'
p3236
(dp3237
S'score'
p3238
(dp3239
g3238
I98
sS'raw_score'
p3240
I98
sS'display'
p3241
S'98/100'
p3242
ssssVFirefox (Namoroka) 3.6b6pre
p3243
(dp3244
S'summary_display'
p3245
g4
sS'total_runs'
p3246
L4L
sS'summary_score'
p3247
I94
sS'results'
p3248
(dp3249
S'score'
p3250
(dp3251
g3250
I94
sS'raw_score'
p3252
I94
sS'display'
p3253
S'94/100'
p3254
ssssVFirefox (Namoroka) 3.6a1
p3255
(dp3256
S'summary_display'
p3257
g4
sS'total_runs'
p3258
L6L
sS'summary_score'
p3259
I94
sS'results'
p3260
(dp3261
S'score'
p3262
(dp3263
g3262
I94
sS'raw_score'
p3264
I94
sS'display'
p3265
S'94/100'
p3266
ssssVFirefox (Namoroka) 3.7a1pre
p3267
(dp3268
S'summary_display'
p3269
g4
sS'total_runs'
p3270
L1L
sS'summary_score'
p3271
I96
sS'results'
p3272
(dp3273
S'score'
p3274
(dp3275
g3274
I96
sS'raw_score'
p3276
I96
sS'display'
p3277
S'96/100'
p3278
ssssVChrome 4.0.249
p3279
(dp3280
S'summary_display'
p3281
g4
sS'total_runs'
p3282
L165L
sS'summary_score'
p3283
I100
sS'results'
p3284
(dp3285
S'score'
p3286
(dp3287
g3286
I100
sS'raw_score'
p3288
I100
sS'display'
p3289
S'100/100'
p3290
ssssVSafari 3.1
p3291
(dp3292
S'summary_display'
p3293
g4
sS'total_runs'
p3294
L13L
sS'summary_score'
p3295
I100
sS'results'
p3296
(dp3297
S'score'
p3298
(dp3299
g3298
I100
sS'raw_score'
p3300
I100
sS'display'
p3301
S'100/100'
p3302
ssssVChrome 4.0.242
p3303
(dp3304
S'summary_display'
p3305
g4
sS'total_runs'
p3306
L2L
sS'summary_score'
p3307
I100
sS'results'
p3308
(dp3309
S'score'
p3310
(dp3311
g3310
I100
sS'raw_score'
p3312
I100
sS'display'
p3313
S'100/100'
p3314
ssssVChrome 4.0.240
p3315
(dp3316
S'summary_display'
p3317
g4
sS'total_runs'
p3318
L2L
sS'summary_score'
p3319
I100
sS'results'
p3320
(dp3321
S'score'
p3322
(dp3323
g3322
I100
sS'raw_score'
p3324
I100
sS'display'
p3325
S'100/100'
p3326
ssssVChrome 4.0.241
p3327
(dp3328
S'summary_display'
p3329
g4
sS'total_runs'
p3330
L4L
sS'summary_score'
p3331
I100
sS'results'
p3332
(dp3333
S'score'
p3334
(dp3335
g3334
I100
sS'raw_score'
p3336
I100
sS'display'
p3337
S'100/100'
p3338
ssssVChrome 4.0.246
p3339
(dp3340
S'summary_display'
p3341
g4
sS'total_runs'
p3342
L4L
sS'summary_score'
p3343
I100
sS'results'
p3344
(dp3345
S'score'
p3346
(dp3347
g3346
I100
sS'raw_score'
p3348
I100
sS'display'
p3349
S'100/100'
p3350
ssssVIE 8.0
p3351
(dp3352
S'summary_display'
p3353
g4
sS'total_runs'
p3354
L516L
sS'summary_score'
p3355
I20
sS'results'
p3356
(dp3357
S'score'
p3358
(dp3359
g3358
I20
sS'raw_score'
p3360
I20
sS'display'
p3361
S'20/100'
p3362
ssssVChrome 4.0.244
p3363
(dp3364
S'summary_display'
p3365
g4
sS'total_runs'
p3366
L5L
sS'summary_score'
p3367
I100
sS'results'
p3368
(dp3369
S'score'
p3370
(dp3371
g3370
I100
sS'raw_score'
p3372
I100
sS'display'
p3373
S'100/100'
p3374
ssssVChrome 4.0.245
p3375
(dp3376
S'summary_display'
p3377
g4
sS'total_runs'
p3378
L20L
sS'summary_score'
p3379
I100
sS'results'
p3380
(dp3381
S'score'
p3382
(dp3383
g3382
I100
sS'raw_score'
p3384
I100
sS'display'
p3385
S'100/100'
p3386
ssssVOpera 10.50
p3387
(dp3388
S'summary_display'
p3389
g4
sS'total_runs'
p3390
L106L
sS'summary_score'
p3391
I100
sS'results'
p3392
(dp3393
S'score'
p3394
(dp3395
g3394
I100
sS'raw_score'
p3396
I100
sS'display'
p3397
S'100/100'
p3398
ssssVJasmine 1.0
p3399
(dp3400
S'summary_display'
p3401
g4
sS'total_runs'
p3402
L3L
sS'summary_score'
p3403
I70
sS'results'
p3404
(dp3405
S'score'
p3406
(dp3407
g3406
I70
sS'raw_score'
p3408
I70
sS'display'
p3409
S'70/100'
p3410
ssssVFirefox 3.7a1pre
p3411
(dp3412
S'summary_display'
p3413
g4
sS'total_runs'
p3414
L1L
sS'summary_score'
p3415
I94
sS'results'
p3416
(dp3417
S'score'
p3418
(dp3419
g3418
I94
sS'raw_score'
p3420
I94
sS'display'
p3421
S'94/100'
p3422
ssssVChrome 3.0.182
p3423
(dp3424
S'summary_display'
p3425
g4
sS'total_runs'
p3426
L1L
sS'summary_score'
p3427
I94
sS'results'
p3428
(dp3429
S'score'
p3430
(dp3431
g3430
I94
sS'raw_score'
p3432
I94
sS'display'
p3433
S'94/100'
p3434
ssssVFirefox 2.0.0
p3435
(dp3436
S'summary_display'
p3437
g4
sS'total_runs'
p3438
L43L
sS'summary_score'
p3439
I53
sS'results'
p3440
(dp3441
S'score'
p3442
(dp3443
g3442
I53
sS'raw_score'
p3444
I53
sS'display'
p3445
S'53/100'
p3446
ssssVSafari 3.1.1
p3447
(dp3448
S'summary_display'
p3449
g4
sS'total_runs'
p3450
L2L
sS'summary_score'
p3451
I100
sS'results'
p3452
(dp3453
S'score'
p3454
(dp3455
g3454
I100
sS'raw_score'
p3456
I100
sS'display'
p3457
S'100/100'
p3458
ssssVOpera 9.27
p3459
(dp3460
S'summary_display'
p3461
g4
sS'total_runs'
p3462
L1L
sS'summary_score'
p3463
I47
sS'results'
p3464
(dp3465
S'score'
p3466
(dp3467
g3466
I47
sS'raw_score'
p3468
I47
sS'display'
p3469
S'47/100'
p3470
ssssVFirefox (Shiretoko) 3.5.2
p3471
(dp3472
S'summary_display'
p3473
g4
sS'total_runs'
p3474
L69L
sS'summary_score'
p3475
I93
sS'results'
p3476
(dp3477
S'score'
p3478
(dp3479
g3478
I93
sS'raw_score'
p3480
I93
sS'display'
p3481
S'93/100'
p3482
ssssVFirefox (Namoroka) 3.6a2pre
p3483
(dp3484
S'summary_display'
p3485
g4
sS'total_runs'
p3486
L21L
sS'summary_score'
p3487
I94
sS'results'
p3488
(dp3489
S'score'
p3490
(dp3491
g3490
I94
sS'raw_score'
p3492
I94
sS'display'
p3493
S'94/100'
p3494
ssssVSeaMonkey 2.1a1pre
p3495
(dp3496
S'summary_display'
p3497
g4
sS'total_runs'
p3498
L1L
sS'summary_score'
p3499
I96
sS'results'
p3500
(dp3501
S'score'
p3502
(dp3503
g3502
I96
sS'raw_score'
p3504
I96
sS'display'
p3505
S'96/100'
p3506
ssssVFirefox 3.6b5
p3507
(dp3508
S'summary_display'
p3509
g4
sS'total_runs'
p3510
L22L
sS'summary_score'
p3511
I94
sS'results'
p3512
(dp3513
S'score'
p3514
(dp3515
g3514
I94
sS'raw_score'
p3516
I94
sS'display'
p3517
S'94/100'
p3518
ssssVFirefox (Shiretoko) 3.5.8pre
p3519
(dp3520
S'summary_display'
p3521
g4
sS'total_runs'
p3522
L3L
sS'summary_score'
p3523
I93
sS'results'
p3524
(dp3525
S'score'
p3526
(dp3527
g3526
I93
sS'raw_score'
p3528
I93
sS'display'
p3529
S'93/100'
p3530
ssssVFirefox 3.6b3
p3531
(dp3532
S'summary_display'
p3533
g4
sS'total_runs'
p3534
L13L
sS'summary_score'
p3535
I94
sS'results'
p3536
(dp3537
S'score'
p3538
(dp3539
g3538
I94
sS'raw_score'
p3540
I94
sS'display'
p3541
S'94/100'
p3542
ssssVFirefox (Shiretoko) 3.5.3
p3543
(dp3544
S'summary_display'
p3545
g4
sS'total_runs'
p3546
L41L
sS'summary_score'
p3547
I93
sS'results'
p3548
(dp3549
S'score'
p3550
(dp3551
g3550
I93
sS'raw_score'
p3552
I93
sS'display'
p3553
S'93/100'
p3554
ssssVFirefox 3.6b1
p3555
(dp3556
S'summary_display'
p3557
g4
sS'total_runs'
p3558
L17L
sS'summary_score'
p3559
I94
sS'results'
p3560
(dp3561
S'score'
p3562
(dp3563
g3562
I94
sS'raw_score'
p3564
I94
sS'display'
p3565
S'94/100'
p3566
ssssVOpera 10.00
p3567
(dp3568
S'summary_display'
p3569
g4
sS'total_runs'
p3570
L659L
sS'summary_score'
p3571
I99
sS'results'
p3572
(dp3573
S'score'
p3574
(dp3575
g3574
I99
sS'raw_score'
p3576
I99
sS'display'
p3577
S'99/100'
p3578
ssssVIron 4.0.275
p3579
(dp3580
S'summary_display'
p3581
g4
sS'total_runs'
p3582
L1L
sS'summary_score'
p3583
I100
sS'results'
p3584
(dp3585
S'score'
p3586
(dp3587
g3586
I100
sS'raw_score'
p3588
I100
sS'display'
p3589
S'100/100'
p3590
ssssViCab 4.7
p3591
(dp3592
S'summary_display'
p3593
g4
sS'total_runs'
p3594
L2L
sS'summary_score'
p3595
I100
sS'results'
p3596
(dp3597
S'score'
p3598
(dp3599
g3598
I100
sS'raw_score'
p3600
I100
sS'display'
p3601
S'100/100'
p3602
ssssVChrome 1.0.154
p3603
(dp3604
S'summary_display'
p3605
g4
sS'total_runs'
p3606
L7L
sS'summary_score'
p3607
I78
sS'results'
p3608
(dp3609
S'score'
p3610
(dp3611
g3610
I78
sS'raw_score'
p3612
I78
sS'display'
p3613
S'78/100'
p3614
ssssVFirefox 1.5
p3615
(dp3616
S'summary_display'
p3617
g4
sS'total_runs'
p3618
L5L
sS'summary_score'
p3619
I52
sS'results'
p3620
(dp3621
S'score'
p3622
(dp3623
g3622
I52
sS'raw_score'
p3624
I52
sS'display'
p3625
S'52/100'
p3626
ssssVSleipnir 2.9.2
p3627
(dp3628
S'summary_display'
p3629
g4
sS'total_runs'
p3630
L2L
sS'summary_score'
p3631
I20
sS'results'
p3632
(dp3633
S'score'
p3634
(dp3635
g3634
I20
sS'raw_score'
p3636
I20
sS'display'
p3637
S'20/100'
p3638
ssssViPhone 3.0.1
p3639
(dp3640
S'summary_display'
p3641
g4
sS'total_runs'
p3642
L17L
sS'summary_score'
p3643
I97
sS'results'
p3644
(dp3645
S'score'
p3646
(dp3647
g3646
I97
sS'raw_score'
p3648
I97
sS'display'
p3649
S'97/100'
p3650
ssssVFennec 1.0b3
p3651
(dp3652
S'summary_display'
p3653
g4
sS'total_runs'
p3654
L3L
sS'summary_score'
p3655
I96
sS'results'
p3656
(dp3657
S'score'
p3658
(dp3659
g3658
I96
sS'raw_score'
p3660
I96
sS'display'
p3661
S'96/100'
p3662
ssssVChrome Frame (IE 7) 4.0.223
p3663
(dp3664
S'summary_display'
p3665
g4
sS'total_runs'
p3666
L1L
sS'summary_score'
p3667
I100
sS'results'
p3668
(dp3669
S'score'
p3670
(dp3671
g3670
I100
sS'raw_score'
p3672
I100
sS'display'
p3673
S'100/100'
p3674
ssssVFennec 1.0b4
p3675
(dp3676
S'summary_display'
p3677
g4
sS'total_runs'
p3678
L3L
sS'summary_score'
p3679
I94
sS'results'
p3680
(dp3681
S'score'
p3682
(dp3683
g3682
I94
sS'raw_score'
p3684
I94
sS'display'
p3685
S'94/100'
p3686
ssssVFennec 1.0b5
p3687
(dp3688
S'summary_display'
p3689
g4
sS'total_runs'
p3690
L1L
sS'summary_score'
p3691
I93
sS'results'
p3692
(dp3693
S'score'
p3694
(dp3695
g3694
I93
sS'raw_score'
p3696
I93
sS'display'
p3697
S'93/100'
p3698
ssssVMaxthon 3.0.6
p3699
(dp3700
S'summary_display'
p3701
g4
sS'total_runs'
p3702
L1L
sS'summary_score'
p3703
I100
sS'results'
p3704
(dp3705
S'score'
p3706
(dp3707
g3706
I100
sS'raw_score'
p3708
I100
sS'display'
p3709
S'100/100'
p3710
ssssVSafari 4.0.2
p3711
(dp3712
S'summary_display'
p3713
g4
sS'total_runs'
p3714
L32L
sS'summary_score'
p3715
I100
sS'results'
p3716
(dp3717
S'score'
p3718
(dp3719
g3718
I100
sS'raw_score'
p3720
I100
sS'display'
p3721
S'100/100'
p3722
ssssVSafari 4.0.3
p3723
(dp3724
S'summary_display'
p3725
g4
sS'total_runs'
p3726
L837L
sS'summary_score'
p3727
I100
sS'results'
p3728
(dp3729
S'score'
p3730
(dp3731
g3730
I100
sS'raw_score'
p3732
I100
sS'display'
p3733
S'100/100'
p3734
ssssVSafari 4.0.4
p3735
(dp3736
S'summary_display'
p3737
g4
sS'total_runs'
p3738
L150L
sS'summary_score'
p3739
I100
sS'results'
p3740
(dp3741
S'score'
p3742
(dp3743
g3742
I100
sS'raw_score'
p3744
I100
sS'display'
p3745
S'100/100'
p3746
ssssVEpiphany 2.22
p3747
(dp3748
S'summary_display'
p3749
g4
sS'total_runs'
p3750
L8L
sS'summary_score'
p3751
I72
sS'results'
p3752
(dp3753
S'score'
p3754
(dp3755
g3754
I72
sS'raw_score'
p3756
I72
sS'display'
p3757
S'72/100'
p3758
ssssVLunascape 5.1.2
p3759
(dp3760
S'summary_display'
p3761
g4
sS'total_runs'
p3762
L2L
sS'summary_score'
p3763
I100
sS'results'
p3764
(dp3765
S'score'
p3766
(dp3767
g3766
I100
sS'raw_score'
p3768
I100
sS'display'
p3769
S'100/100'
p3770
ssssVFirefox (Namoroka) 3.6b1pre
p3771
(dp3772
S'summary_display'
p3773
g4
sS'total_runs'
p3774
L4L
sS'summary_score'
p3775
I94
sS'results'
p3776
(dp3777
S'score'
p3778
(dp3779
g3778
I94
sS'raw_score'
p3780
I94
sS'display'
p3781
S'94/100'
p3782
ssssVNetFront 3.4
p3783
(dp3784
S'summary_display'
p3785
g4
sS'total_runs'
p3786
L1L
sS'summary_score'
p3787
I72
sS'results'
p3788
(dp3789
S'score'
p3790
(dp3791
g3790
I72
sS'raw_score'
p3792
I72
sS'display'
p3793
S'72/100'
p3794
ssssVNokia 5230
p3795
(dp3796
S'summary_display'
p3797
g4
sS'total_runs'
p3798
L1L
sS'summary_score'
p3799
I46
sS'results'
p3800
(dp3801
S'score'
p3802
(dp3803
g3802
I46
sS'raw_score'
p3804
I46
sS'display'
p3805
S'46/100'
p3806
ssssVSleipnir 2.9.1
p3807
(dp3808
S'summary_display'
p3809
g4
sS'total_runs'
p3810
L4L
sS'summary_score'
p3811
I20
sS'results'
p3812
(dp3813
S'score'
p3814
(dp3815
g3814
I20
sS'raw_score'
p3816
I20
sS'display'
p3817
S'20/100'
p3818
ssssVLunascape 5.1.5
p3819
(dp3820
S'summary_display'
p3821
g4
sS'total_runs'
p3822
L9L
sS'summary_score'
p3823
I93
sS'results'
p3824
(dp3825
S'score'
p3826
(dp3827
g3826
I93
sS'raw_score'
p3828
I93
sS'display'
p3829
S'93/100'
p3830
ssssVLunascape 5.1.4
p3831
(dp3832
S'summary_display'
p3833
g4
sS'total_runs'
p3834
L1L
sS'summary_score'
p3835
I93
sS'results'
p3836
(dp3837
S'score'
p3838
(dp3839
g3838
I93
sS'raw_score'
p3840
I93
sS'display'
p3841
S'93/100'
p3842
ssssVChrome 4.0.251
p3843
(dp3844
S'summary_display'
p3845
g4
sS'total_runs'
p3846
L5L
sS'summary_score'
p3847
I100
sS'results'
p3848
(dp3849
S'score'
p3850
(dp3851
g3850
I100
sS'raw_score'
p3852
I100
sS'display'
p3853
S'100/100'
p3854
ssssVChrome 4.0.250
p3855
(dp3856
S'summary_display'
p3857
g4
sS'total_runs'
p3858
L1L
sS'summary_score'
p3859
I100
sS'results'
p3860
(dp3861
S'score'
p3862
(dp3863
g3862
I100
sS'raw_score'
p3864
I100
sS'display'
p3865
S'100/100'
p3866
ssssVChrome 4.0.253
p3867
(dp3868
S'summary_display'
p3869
g4
sS'total_runs'
p3870
L6L
sS'summary_score'
p3871
I100
sS'results'
p3872
(dp3873
S'score'
p3874
(dp3875
g3874
I100
sS'raw_score'
p3876
I100
sS'display'
p3877
S'100/100'
p3878
ssssVChrome 4.0.252
p3879
(dp3880
S'summary_display'
p3881
g4
sS'total_runs'
p3882
L2L
sS'summary_score'
p3883
I100
sS'results'
p3884
(dp3885
S'score'
p3886
(dp3887
g3886
I100
sS'raw_score'
p3888
I100
sS'display'
p3889
S'100/100'
p3890
ssssVChrome 4.0.255
p3891
(dp3892
S'summary_display'
p3893
g4
sS'total_runs'
p3894
L1L
sS'summary_score'
p3895
I100
sS'results'
p3896
(dp3897
S'score'
p3898
(dp3899
g3898
I100
sS'raw_score'
p3900
I100
sS'display'
p3901
S'100/100'
p3902
ssssVChrome 4.0.254
p3903
(dp3904
S'summary_display'
p3905
g4
sS'total_runs'
p3906
L1L
sS'summary_score'
p3907
I100
sS'results'
p3908
(dp3909
S'score'
p3910
(dp3911
g3910
I100
sS'raw_score'
p3912
I100
sS'display'
p3913
S'100/100'
p3914
ssssVChrome 4.0.257
p3915
(dp3916
S'summary_display'
p3917
g4
sS'total_runs'
p3918
L1L
sS'summary_score'
p3919
I100
sS'results'
p3920
(dp3921
S'score'
p3922
(dp3923
g3922
I100
sS'raw_score'
p3924
I100
sS'display'
p3925
S'100/100'
p3926
ssssVChrome 4.0.256
p3927
(dp3928
S'summary_display'
p3929
g4
sS'total_runs'
p3930
L3L
sS'summary_score'
p3931
I100
sS'results'
p3932
(dp3933
S'score'
p3934
(dp3935
g3934
I100
sS'raw_score'
p3936
I100
sS'display'
p3937
S'100/100'
p3938
ssssVIceweasel 3.5.3
p3939
(dp3940
S'summary_display'
p3941
g4
sS'total_runs'
p3942
L4L
sS'summary_score'
p3943
I93
sS'results'
p3944
(dp3945
S'score'
p3946
(dp3947
g3946
I93
sS'raw_score'
p3948
I93
sS'display'
p3949
S'93/100'
p3950
ssssVFennec 1.0b4pre
p3951
(dp3952
S'summary_display'
p3953
g4
sS'total_runs'
p3954
L1L
sS'summary_score'
p3955
I94
sS'results'
p3956
(dp3957
S'score'
p3958
(dp3959
g3958
I94
sS'raw_score'
p3960
I94
sS'display'
p3961
S'94/100'
p3962
ssssVFirefox (Namoroka) 3.6b2pre
p3963
(dp3964
S'summary_display'
p3965
g4
sS'total_runs'
p3966
L3L
sS'summary_score'
p3967
I95
sS'results'
p3968
(dp3969
S'score'
p3970
(dp3971
g3970
I95
sS'raw_score'
p3972
I95
sS'display'
p3973
S'95/100'
p3974
ssssVOpera 9.70
p3975
(dp3976
S'summary_display'
p3977
g4
sS'total_runs'
p3978
L2L
sS'summary_score'
p3979
I100
sS'results'
p3980
(dp3981
S'score'
p3982
(dp3983
g3982
I100
sS'raw_score'
p3984
I100
sS'display'
p3985
S'100/100'
p3986
ssssVChrome 3.0.191
p3987
(dp3988
S'summary_display'
p3989
g4
sS'total_runs'
p3990
L1L
sS'summary_score'
p3991
I100
sS'results'
p3992
(dp3993
S'score'
p3994
(dp3995
g3994
I100
sS'raw_score'
p3996
I100
sS'display'
p3997
S'100/100'
p3998
ssssVChrome 3.0.193
p3999
(dp4000
S'summary_display'
p4001
g4
sS'total_runs'
p4002
L1L
sS'summary_score'
p4003
I100
sS'results'
p4004
(dp4005
S'score'
p4006
(dp4007
g4006
I100
sS'raw_score'
p4008
I100
sS'display'
p4009
S'100/100'
p4010
ssssVChrome 3.0.192
p4011
(dp4012
S'summary_display'
p4013
g4
sS'total_runs'
p4014
L1L
sS'summary_score'
p4015
I100
sS'results'
p4016
(dp4017
S'score'
p4018
(dp4019
g4018
I100
sS'raw_score'
p4020
I100
sS'display'
p4021
S'100/100'
p4022
ssssVChrome 3.0.195
p4023
(dp4024
S'summary_display'
p4025
g4
sS'total_runs'
p4026
L632L
sS'summary_score'
p4027
I100
sS'results'
p4028
(dp4029
S'score'
p4030
(dp4031
g4030
I100
sS'raw_score'
p4032
I100
sS'display'
p4033
S'100/100'
p4034
ssssVChrome 3.0.194
p4035
(dp4036
S'summary_display'
p4037
g4
sS'total_runs'
p4038
L1L
sS'summary_score'
p4039
I100
sS'results'
p4040
(dp4041
S'score'
p4042
(dp4043
g4042
I100
sS'raw_score'
p4044
I100
sS'display'
p4045
S'100/100'
p4046
ssssVChrome 3.0.196
p4047
(dp4048
S'summary_display'
p4049
g4
sS'total_runs'
p4050
L4L
sS'summary_score'
p4051
I100
sS'results'
p4052
(dp4053
S'score'
p4054
(dp4055
g4054
I100
sS'raw_score'
p4056
I100
sS'display'
p4057
S'100/100'
p4058
ssss.