(dp0
VNetscape 7
p1
(dp2
S'summary_display'
p3
S''
p4
sS'total_runs'
p5
L3L
sS'summary_score'
p6
I40
sS'results'
p7
(dp8
S'score'
p9
(dp10
g9
I40
sS'raw_score'
p11
I40
sS'display'
p12
S'40/100'
p13
ssssVSafari 3
p14
(dp15
S'summary_display'
p16
g4
sS'total_runs'
p17
L38L
sS'summary_score'
p18
I76
sS'results'
p19
(dp20
S'score'
p21
(dp22
g21
I76
sS'raw_score'
p23
I76
sS'display'
p24
S'76/100'
p25
ssssVPlayStation 3
p26
(dp27
S'summary_display'
p28
g4
sS'total_runs'
p29
L1L
sS'summary_score'
p30
I27
sS'results'
p31
(dp32
S'score'
p33
(dp34
g33
I27
sS'raw_score'
p35
I27
sS'display'
p36
S'27/100'
p37
ssssVK-Meleon 1
p38
(dp39
S'summary_display'
p40
g4
sS'total_runs'
p41
L9L
sS'summary_score'
p42
I53
sS'results'
p43
(dp44
S'score'
p45
(dp46
g45
I53
sS'raw_score'
p47
I53
sS'display'
p48
S'53/100'
p49
ssssVMaxthon 0
p50
(dp51
S'summary_display'
p52
g4
sS'total_runs'
p53
L1L
sS'summary_score'
p54
I13
sS'results'
p55
(dp56
S'score'
p57
(dp58
g57
I13
sS'raw_score'
p59
I13
sS'display'
p60
S'13/100'
p61
ssssVSafari 1
p62
(dp63
S'summary_display'
p64
g4
sS'total_runs'
p65
L1L
sS'summary_score'
p66
I92
sS'results'
p67
(dp68
S'score'
p69
(dp70
g69
I92
sS'raw_score'
p71
I92
sS'display'
p72
S'92/100'
p73
ssssVMaxthon 2
p74
(dp75
S'summary_display'
p76
g4
sS'total_runs'
p77
L11L
sS'summary_score'
p78
I13
sS'results'
p79
(dp80
S'score'
p81
(dp82
g81
I13
sS'raw_score'
p83
I13
sS'display'
p84
S'13/100'
p85
ssssVMaxthon 3
p86
(dp87
S'summary_display'
p88
g4
sS'total_runs'
p89
L4L
sS'summary_score'
p90
I100
sS'results'
p91
(dp92
S'score'
p93
(dp94
g93
I100
sS'raw_score'
p95
I100
sS'display'
p96
S'100/100'
p97
ssssVShiira 0
p98
(dp99
S'summary_display'
p100
g4
sS'total_runs'
p101
L1L
sS'summary_score'
p102
I98
sS'results'
p103
(dp104
S'score'
p105
(dp106
g105
I98
sS'raw_score'
p107
I98
sS'display'
p108
S'98/100'
p109
ssssVChrome Frame (IE 8) 4
p110
(dp111
S'summary_display'
p112
g4
sS'total_runs'
p113
L18L
sS'summary_score'
p114
I100
sS'results'
p115
(dp116
S'score'
p117
(dp118
g117
I100
sS'raw_score'
p119
I100
sS'display'
p120
S'100/100'
p121
ssssVNetscape 9
p122
(dp123
S'summary_display'
p124
g4
sS'total_runs'
p125
L2L
sS'summary_score'
p126
I53
sS'results'
p127
(dp128
S'score'
p129
(dp130
g129
I53
sS'raw_score'
p131
I53
sS'display'
p132
S'53/100'
p133
ssssVOpera Mini 5
p134
(dp135
S'summary_display'
p136
g4
sS'total_runs'
p137
L1L
sS'summary_score'
p138
I98
sS'results'
p139
(dp140
S'score'
p141
(dp142
g141
I98
sS'raw_score'
p143
I98
sS'display'
p144
S'98/100'
p145
ssssVFirefox (Namoroka) 3
p146
(dp147
S'summary_display'
p148
g4
sS'total_runs'
p149
L52L
sS'summary_score'
p150
I94
sS'results'
p151
(dp152
S'score'
p153
(dp154
g153
I94
sS'raw_score'
p155
I94
sS'display'
p156
S'94/100'
p157
ssssVIE 8
p158
(dp159
S'summary_display'
p160
g4
sS'total_runs'
p161
L516L
sS'summary_score'
p162
I20
sS'results'
p163
(dp164
S'score'
p165
(dp166
g165
I20
sS'raw_score'
p167
I20
sS'display'
p168
S'20/100'
p169
ssssVLunascape 4
p170
(dp171
S'summary_display'
p172
g4
sS'total_runs'
p173
L1L
sS'summary_score'
p174
I100
sS'results'
p175
(dp176
S'score'
p177
(dp178
g177
I100
sS'raw_score'
p179
I100
sS'display'
p180
S'100/100'
p181
ssssVOpera 10
p182
(dp183
S'summary_display'
p184
g4
sS'total_runs'
p185
L1322L
sS'summary_score'
p186
I100
sS'results'
p187
(dp188
S'score'
p189
(dp190
g189
I100
sS'raw_score'
p191
I100
sS'display'
p192
S'100/100'
p193
ssssVMaemo Browser 1
p194
(dp195
S'summary_display'
p196
g4
sS'total_runs'
p197
L1L
sS'summary_score'
p198
I94
sS'results'
p199
(dp200
S'score'
p201
(dp202
g201
I94
sS'raw_score'
p203
I94
sS'display'
p204
S'94/100'
p205
ssssVMidori 0
p206
(dp207
S'summary_display'
p208
g4
sS'total_runs'
p209
L22L
sS'summary_score'
p210
I100
sS'results'
p211
(dp212
S'score'
p213
(dp214
g213
I100
sS'raw_score'
p215
I100
sS'display'
p216
S'100/100'
p217
ssssVIE 6
p218
(dp219
S'summary_display'
p220
g4
sS'total_runs'
p221
L124L
sS'summary_score'
p222
I12
sS'results'
p223
(dp224
S'score'
p225
(dp226
g225
I12
sS'raw_score'
p227
I12
sS'display'
p228
S'12/100'
p229
ssssVIE 7
p230
(dp231
S'summary_display'
p232
g4
sS'total_runs'
p233
L198L
sS'summary_score'
p234
I12
sS'results'
p235
(dp236
S'score'
p237
(dp238
g237
I12
sS'raw_score'
p239
I12
sS'display'
p240
S'12/100'
p241
ssssVIE 5
p242
(dp243
S'summary_display'
p244
g4
sS'total_runs'
p245
L5L
sS'summary_score'
p246
I14
sS'results'
p247
(dp248
S'score'
p249
(dp250
g249
I14
sS'raw_score'
p251
I14
sS'display'
p252
S'14/100'
p253
ssssVFirefox 2
p254
(dp255
S'summary_display'
p256
g4
sS'total_runs'
p257
L45L
sS'summary_score'
p258
I53
sS'results'
p259
(dp260
S'score'
p261
(dp262
g261
I53
sS'raw_score'
p263
I53
sS'display'
p264
S'53/100'
p265
ssssVFirefox 3
p266
(dp267
S'summary_display'
p268
g4
sS'total_runs'
p269
L4852L
sS'summary_score'
p270
I93
sS'results'
p271
(dp272
S'score'
p273
(dp274
g273
I93
sS'raw_score'
p275
I93
sS'display'
p276
S'93/100'
p277
ssssVChrome 4
p278
(dp279
S'summary_display'
p280
g4
sS'total_runs'
p281
L1072L
sS'summary_score'
p282
I100
sS'results'
p283
(dp284
S'score'
p285
(dp286
g285
I100
sS'raw_score'
p287
I100
sS'display'
p288
S'100/100'
p289
ssssVFirefox 1
p290
(dp291
S'summary_display'
p292
g4
sS'total_runs'
p293
L5L
sS'summary_score'
p294
I52
sS'results'
p295
(dp296
S'score'
p297
(dp298
g297
I52
sS'raw_score'
p299
I52
sS'display'
p300
S'52/100'
p301
ssssVChrome 2
p302
(dp303
S'summary_display'
p304
g4
sS'total_runs'
p305
L243L
sS'summary_score'
p306
I100
sS'results'
p307
(dp308
S'score'
p309
(dp310
g309
I100
sS'raw_score'
p311
I100
sS'display'
p312
S'100/100'
p313
ssssVChrome 3
p314
(dp315
S'summary_display'
p316
g4
sS'total_runs'
p317
L641L
sS'summary_score'
p318
I100
sS'results'
p319
(dp320
S'score'
p321
(dp322
g321
I100
sS'raw_score'
p323
I100
sS'display'
p324
S'100/100'
p325
ssssVChrome 0
p326
(dp327
S'summary_display'
p328
g4
sS'total_runs'
p329
L3L
sS'summary_score'
p330
I78
sS'results'
p331
(dp332
S'score'
p333
(dp334
g333
I78
sS'raw_score'
p335
I78
sS'display'
p336
S'78/100'
p337
ssssVChrome 1
p338
(dp339
S'summary_display'
p340
g4
sS'total_runs'
p341
L7L
sS'summary_score'
p342
I78
sS'results'
p343
(dp344
S'score'
p345
(dp346
g345
I78
sS'raw_score'
p347
I78
sS'display'
p348
S'78/100'
p349
ssssVNetNewsWire 3
p350
(dp351
S'summary_display'
p352
g4
sS'total_runs'
p353
L12L
sS'summary_score'
p354
I100
sS'results'
p355
(dp356
S'score'
p357
(dp358
g357
I100
sS'raw_score'
p359
I100
sS'display'
p360
S'100/100'
p361
ssssVNetFront 3
p362
(dp363
S'summary_display'
p364
g4
sS'total_runs'
p365
L1L
sS'summary_score'
p366
I72
sS'results'
p367
(dp368
S'score'
p369
(dp370
g369
I72
sS'raw_score'
p371
I72
sS'display'
p372
S'72/100'
p373
ssssVSafari 4
p374
(dp375
S'summary_display'
p376
g4
sS'total_runs'
p377
L1049L
sS'summary_score'
p378
I100
sS'results'
p379
(dp380
S'score'
p381
(dp382
g381
I100
sS'raw_score'
p383
I100
sS'display'
p384
S'100/100'
p385
ssssVStainless 0
p386
(dp387
S'summary_display'
p388
g4
sS'total_runs'
p389
L5L
sS'summary_score'
p390
I100
sS'results'
p391
(dp392
S'score'
p393
(dp394
g393
I100
sS'raw_score'
p395
I100
sS'display'
p396
S'100/100'
p397
ssssVVodafone 1
p398
(dp399
S'summary_display'
p400
g4
sS'total_runs'
p401
L1L
sS'summary_score'
p402
I93
sS'results'
p403
(dp404
S'score'
p405
(dp406
g405
I93
sS'raw_score'
p407
I93
sS'display'
p408
S'93/100'
p409
ssssViPhone 3
p410
(dp411
S'summary_display'
p412
g4
sS'total_runs'
p413
L120L
sS'summary_score'
p414
I100
sS'results'
p415
(dp416
S'score'
p417
(dp418
g417
I100
sS'raw_score'
p419
I100
sS'display'
p420
S'100/100'
p421
ssssViPhone 2
p422
(dp423
S'summary_display'
p424
g4
sS'total_runs'
p425
L9L
sS'summary_score'
p426
I74
sS'results'
p427
(dp428
S'score'
p429
(dp430
g429
I74
sS'raw_score'
p431
I74
sS'display'
p432
S'74/100'
p433
ssssVEpiphany 2
p434
(dp435
S'summary_display'
p436
g4
sS'total_runs'
p437
L8L
sS'summary_score'
p438
I72
sS'results'
p439
(dp440
S'score'
p441
(dp442
g441
I72
sS'raw_score'
p443
I72
sS'display'
p444
S'72/100'
p445
ssssVChrome Frame (IE 6) 4
p446
(dp447
S'summary_display'
p448
g4
sS'total_runs'
p449
L4L
sS'summary_score'
p450
I100
sS'results'
p451
(dp452
S'score'
p453
(dp454
g453
I100
sS'raw_score'
p455
I100
sS'display'
p456
S'100/100'
p457
ssssVAvant 1
p458
(dp459
S'summary_display'
p460
g4
sS'total_runs'
p461
L11L
sS'summary_score'
p462
I12
sS'results'
p463
(dp464
S'score'
p465
(dp466
g465
I12
sS'raw_score'
p467
I12
sS'display'
p468
S'12/100'
p469
ssssVIron 2
p470
(dp471
S'summary_display'
p472
g4
sS'total_runs'
p473
L9L
sS'summary_score'
p474
I100
sS'results'
p475
(dp476
S'score'
p477
(dp478
g477
I100
sS'raw_score'
p479
I100
sS'display'
p480
S'100/100'
p481
ssssVIron 3
p482
(dp483
S'summary_display'
p484
g4
sS'total_runs'
p485
L67L
sS'summary_score'
p486
I100
sS'results'
p487
(dp488
S'score'
p489
(dp490
g489
I100
sS'raw_score'
p491
I100
sS'display'
p492
S'100/100'
p493
ssssVNokia 72
p494
(dp495
S'summary_display'
p496
g4
sS'total_runs'
p497
L1L
sS'summary_score'
p498
I47
sS'results'
p499
(dp500
S'score'
p501
(dp502
g501
I47
sS'raw_score'
p503
I47
sS'display'
p504
S'47/100'
p505
ssssVOmniWeb 622
p506
(dp507
S'summary_display'
p508
g4
sS'total_runs'
p509
L6L
sS'summary_score'
p510
I100
sS'results'
p511
(dp512
S'score'
p513
(dp514
g513
I100
sS'raw_score'
p515
I100
sS'display'
p516
S'100/100'
p517
ssssVIceweasel 3
p518
(dp519
S'summary_display'
p520
g4
sS'total_runs'
p521
L51L
sS'summary_score'
p522
I72
sS'results'
p523
(dp524
S'score'
p525
(dp526
g525
I72
sS'raw_score'
p527
I72
sS'display'
p528
S'72/100'
p529
ssssVFluid 0
p530
(dp531
S'summary_display'
p532
g4
sS'total_runs'
p533
L1L
sS'summary_score'
p534
I100
sS'results'
p535
(dp536
S'score'
p537
(dp538
g537
I100
sS'raw_score'
p539
I100
sS'display'
p540
S'100/100'
p541
ssssS'total_runs'
p542
L11412L
sVSeaMonkey 2
p543
(dp544
S'summary_display'
p545
g4
sS'total_runs'
p546
L26L
sS'summary_score'
p547
I93
sS'results'
p548
(dp549
S'score'
p550
(dp551
g550
I93
sS'raw_score'
p552
I93
sS'display'
p553
S'93/100'
p554
ssssVWii 9
p555
(dp556
S'summary_display'
p557
g4
sS'total_runs'
p558
L1L
sS'summary_score'
p559
I55
sS'results'
p560
(dp561
S'score'
p562
(dp563
g562
I55
sS'raw_score'
p564
I55
sS'display'
p565
S'55/100'
p566
ssssVBlackberry 9000
p567
(dp568
S'summary_display'
p569
g4
sS'total_runs'
p570
L1L
sS'summary_score'
p571
I83
sS'results'
p572
(dp573
S'score'
p574
(dp575
g574
I83
sS'raw_score'
p576
I83
sS'display'
p577
S'83/100'
p578
ssssVFlock 1
p579
(dp580
S'summary_display'
p581
g4
sS'total_runs'
p582
L2L
sS'summary_score'
p583
I52
sS'results'
p584
(dp585
S'score'
p586
(dp587
g586
I52
sS'raw_score'
p588
I52
sS'display'
p589
S'52/100'
p590
ssssVFirefox (Shiretoko) 3
p591
(dp592
S'summary_display'
p593
g4
sS'total_runs'
p594
L180L
sS'summary_score'
p595
I93
sS'results'
p596
(dp597
S'score'
p598
(dp599
g598
I93
sS'raw_score'
p600
I93
sS'display'
p601
S'93/100'
p602
ssssVFennec 1
p603
(dp604
S'summary_display'
p605
g4
sS'total_runs'
p606
L8L
sS'summary_score'
p607
I94
sS'results'
p608
(dp609
S'score'
p610
(dp611
g610
I94
sS'raw_score'
p612
I94
sS'display'
p613
S'94/100'
p614
ssssVNokia 5800
p615
(dp616
S'summary_display'
p617
g4
sS'total_runs'
p618
L5L
sS'summary_score'
p619
I47
sS'results'
p620
(dp621
S'score'
p622
(dp623
g622
I47
sS'raw_score'
p624
I47
sS'display'
p625
S'47/100'
p626
ssssVFlock 2
p627
(dp628
S'summary_display'
p629
g4
sS'total_runs'
p630
L6L
sS'summary_score'
p631
I72
sS'results'
p632
(dp633
S'score'
p634
(dp635
g634
I72
sS'raw_score'
p636
I72
sS'display'
p637
S'72/100'
p638
ssssVKonqueror 3
p639
(dp640
S'summary_display'
p641
g4
sS'total_runs'
p642
L10L
sS'summary_score'
p643
I42
sS'results'
p644
(dp645
S'score'
p646
(dp647
g646
I42
sS'raw_score'
p648
I42
sS'display'
p649
S'42/100'
p650
ssssVFirefox (Minefield) 3
p651
(dp652
S'summary_display'
p653
g4
sS'total_runs'
p654
L210L
sS'summary_score'
p655
I96
sS'results'
p656
(dp657
S'score'
p658
(dp659
g658
I96
sS'raw_score'
p660
I96
sS'display'
p661
S'96/100'
p662
ssssViCab 4
p663
(dp664
S'summary_display'
p665
g4
sS'total_runs'
p666
L2L
sS'summary_score'
p667
I100
sS'results'
p668
(dp669
S'score'
p670
(dp671
g670
I100
sS'raw_score'
p672
I100
sS'display'
p673
S'100/100'
p674
ssssVSleipnir 2
p675
(dp676
S'summary_display'
p677
g4
sS'total_runs'
p678
L19L
sS'summary_score'
p679
I20
sS'results'
p680
(dp681
S'score'
p682
(dp683
g682
I20
sS'raw_score'
p684
I20
sS'display'
p685
S'20/100'
p686
ssssVKonqueror 4
p687
(dp688
S'summary_display'
p689
g4
sS'total_runs'
p690
L39L
sS'summary_score'
p691
I89
sS'results'
p692
(dp693
S'score'
p694
(dp695
g694
I89
sS'raw_score'
p696
I89
sS'display'
p697
S'89/100'
p698
ssssVCamino 2
p699
(dp700
S'summary_display'
p701
g4
sS'total_runs'
p702
L9L
sS'summary_score'
p703
I72
sS'results'
p704
(dp705
S'score'
p706
(dp707
g706
I72
sS'raw_score'
p708
I72
sS'display'
p709
S'72/100'
p710
ssssVCamino 1
p711
(dp712
S'summary_display'
p713
g4
sS'total_runs'
p714
L16L
sS'summary_score'
p715
I53
sS'results'
p716
(dp717
S'score'
p718
(dp719
g718
I53
sS'raw_score'
p720
I53
sS'display'
p721
S'53/100'
p722
ssssVJasmine 1
p723
(dp724
S'summary_display'
p725
g4
sS'total_runs'
p726
L3L
sS'summary_score'
p727
I70
sS'results'
p728
(dp729
S'score'
p730
(dp731
g730
I70
sS'raw_score'
p732
I70
sS'display'
p733
S'70/100'
p734
ssssVArora 0
p735
(dp736
S'summary_display'
p737
g4
sS'total_runs'
p738
L34L
sS'summary_score'
p739
I100
sS'results'
p740
(dp741
S'score'
p742
(dp743
g742
I100
sS'raw_score'
p744
I100
sS'display'
p745
S'100/100'
p746
ssssVAndroid 1
p747
(dp748
S'summary_display'
p749
g4
sS'total_runs'
p750
L38L
sS'summary_score'
p751
I93
sS'results'
p752
(dp753
S'score'
p754
(dp755
g754
I93
sS'raw_score'
p756
I93
sS'display'
p757
S'93/100'
p758
ssssVAndroid 2
p759
(dp760
S'summary_display'
p761
g4
sS'total_runs'
p762
L11L
sS'summary_score'
p763
I93
sS'results'
p764
(dp765
S'score'
p766
(dp767
g766
I93
sS'raw_score'
p768
I93
sS'display'
p769
S'93/100'
p770
ssssVIron 4
p771
(dp772
S'summary_display'
p773
g4
sS'total_runs'
p774
L11L
sS'summary_score'
p775
I100
sS'results'
p776
(dp777
S'score'
p778
(dp779
g778
I100
sS'raw_score'
p780
I100
sS'display'
p781
S'100/100'
p782
ssssVPalm Pre 1
p783
(dp784
S'summary_display'
p785
g4
sS'total_runs'
p786
L5L
sS'summary_score'
p787
I92
sS'results'
p788
(dp789
S'score'
p790
(dp791
g790
I92
sS'raw_score'
p792
I92
sS'display'
p793
S'92/100'
p794
ssssVKazehakase 0
p795
(dp796
S'summary_display'
p797
g4
sS'total_runs'
p798
L1L
sS'summary_score'
p799
I53
sS'results'
p800
(dp801
S'score'
p802
(dp803
g802
I53
sS'raw_score'
p804
I53
sS'display'
p805
S'53/100'
p806
ssssVVienna 2
p807
(dp808
S'summary_display'
p809
g4
sS'total_runs'
p810
L2L
sS'summary_score'
p811
I100
sS'results'
p812
(dp813
S'score'
p814
(dp815
g814
I100
sS'raw_score'
p816
I100
sS'display'
p817
S'100/100'
p818
ssssVNokia 5230
p819
(dp820
S'summary_display'
p821
g4
sS'total_runs'
p822
L1L
sS'summary_score'
p823
I46
sS'results'
p824
(dp825
S'score'
p826
(dp827
g826
I46
sS'raw_score'
p828
I46
sS'display'
p829
S'46/100'
p830
ssssVSwiftfox 3
p831
(dp832
S'summary_display'
p833
g4
sS'total_runs'
p834
L13L
sS'summary_score'
p835
I93
sS'results'
p836
(dp837
S'score'
p838
(dp839
g838
I93
sS'raw_score'
p840
I93
sS'display'
p841
S'93/100'
p842
ssssVOpera Mini 4
p843
(dp844
S'summary_display'
p845
g4
sS'total_runs'
p846
L12L
sS'summary_score'
p847
I98
sS'results'
p848
(dp849
S'score'
p850
(dp851
g850
I98
sS'raw_score'
p852
I98
sS'display'
p853
S'98/100'
p854
ssssVLunascape 6
p855
(dp856
S'summary_display'
p857
g4
sS'total_runs'
p858
L14L
sS'summary_score'
p859
I93
sS'results'
p860
(dp861
S'score'
p862
(dp863
g862
I93
sS'raw_score'
p864
I93
sS'display'
p865
S'93/100'
p866
ssssVChrome Frame (IE 7) 4
p867
(dp868
S'summary_display'
p869
g4
sS'total_runs'
p870
L5L
sS'summary_score'
p871
I100
sS'results'
p872
(dp873
S'score'
p874
(dp875
g874
I100
sS'raw_score'
p876
I100
sS'display'
p877
S'100/100'
p878
ssssVOpera 9
p879
(dp880
S'summary_display'
p881
g4
sS'total_runs'
p882
L61L
sS'summary_score'
p883
I85
sS'results'
p884
(dp885
S'score'
p886
(dp887
g886
I85
sS'raw_score'
p888
I85
sS'display'
p889
S'85/100'
p890
ssssVLunascape 5
p891
(dp892
S'summary_display'
p893
g4
sS'total_runs'
p894
L12L
sS'summary_score'
p895
I100
sS'results'
p896
(dp897
S'score'
p898
(dp899
g898
I100
sS'raw_score'
p900
I100
sS'display'
p901
S'100/100'
p902
ssssVGranParadiso 3
p903
(dp904
S'summary_display'
p905
g4
sS'total_runs'
p906
L2L
sS'summary_score'
p907
I72
sS'results'
p908
(dp909
S'score'
p910
(dp911
g910
I72
sS'raw_score'
p912
I72
sS'display'
p913
S'72/100'
p914
ssssVOther
p915
(dp916
S'summary_display'
p917
g4
sS'total_runs'
p918
L58L
sS'summary_score'
p919
I100
sS'results'
p920
(dp921
S'score'
p922
(dp923
g922
I100
sS'raw_score'
p924
I100
sS'display'
p925
S'100/100'
p926
ssssVGaleon 2
p927
(dp928
S'summary_display'
p929
g4
sS'total_runs'
p930
L2L
sS'summary_score'
p931
I72
sS'results'
p932
(dp933
S'score'
p934
(dp935
g934
I72
sS'raw_score'
p936
I72
sS'display'
p937
S'72/100'
p938
ssssVMicroB 0
p939
(dp940
S'summary_display'
p941
g4
sS'total_runs'
p942
L2L
sS'summary_score'
p943
I55
sS'results'
p944
(dp945
S'score'
p946
(dp947
g946
I55
sS'raw_score'
p948
I55
sS'display'
p949
S'55/100'
p950
ssssVQtWeb 3
p951
(dp952
S'summary_display'
p953
g4
sS'total_runs'
p954
L1L
sS'summary_score'
p955
I98
sS'results'
p956
(dp957
S'score'
p958
(dp959
g958
I98
sS'raw_score'
p960
I98
sS'display'
p961
S'98/100'
p962
ssssVSeaMonkey 1
p963
(dp964
S'summary_display'
p965
g4
sS'total_runs'
p966
L12L
sS'summary_score'
p967
I52
sS'results'
p968
(dp969
S'score'
p970
(dp971
g970
I52
sS'raw_score'
p972
I52
sS'display'
p973
S'52/100'
p974
ssssVIceweasel 2
p975
(dp976
S'summary_display'
p977
g4
sS'total_runs'
p978
L1L
sS'summary_score'
p979
I52
sS'results'
p980
(dp981
S'score'
p982
(dp983
g982
I52
sS'raw_score'
p984
I52
sS'display'
p985
S'52/100'
p986
ssssVUzbl 0
p987
(dp988
S'summary_display'
p989
g4
sS'total_runs'
p990
L23L
sS'summary_score'
p991
I100
sS'results'
p992
(dp993
S'score'
p994
(dp995
g994
I100
sS'raw_score'
p996
I100
sS'display'
p997
S'100/100'
p998
ssss.