(dp0
VPlayStation
p1
(dp2
S'summary_display'
p3
S''
p4
sS'total_runs'
p5
L1L
sS'summary_score'
p6
I27
sS'results'
p7
(dp8
S'score'
p9
(dp10
g9
I27
sS'raw_score'
p11
I27
sS'display'
p12
S'27/100'
p13
ssssS'total_runs'
p14
L11412L
sVChrome
p15
(dp16
S'summary_display'
p17
g4
sS'total_runs'
p18
L1966L
sS'summary_score'
p19
I100
sS'results'
p20
(dp21
S'score'
p22
(dp23
g22
I100
sS'raw_score'
p24
I100
sS'display'
p25
S'100/100'
p26
ssssVStainless
p27
(dp28
S'summary_display'
p29
g4
sS'total_runs'
p30
L5L
sS'summary_score'
p31
I100
sS'results'
p32
(dp33
S'score'
p34
(dp35
g34
I100
sS'raw_score'
p36
I100
sS'display'
p37
S'100/100'
p38
ssssVSeaMonkey
p39
(dp40
S'summary_display'
p41
g4
sS'total_runs'
p42
L38L
sS'summary_score'
p43
I93
sS'results'
p44
(dp45
S'score'
p46
(dp47
g46
I93
sS'raw_score'
p48
I93
sS'display'
p49
S'93/100'
p50
ssssVFirefox (Minefield)
p51
(dp52
S'summary_display'
p53
g4
sS'total_runs'
p54
L210L
sS'summary_score'
p55
I96
sS'results'
p56
(dp57
S'score'
p58
(dp59
g58
I96
sS'raw_score'
p60
I96
sS'display'
p61
S'96/100'
p62
ssssVFirefox (Shiretoko)
p63
(dp64
S'summary_display'
p65
g4
sS'total_runs'
p66
L180L
sS'summary_score'
p67
I93
sS'results'
p68
(dp69
S'score'
p70
(dp71
g70
I93
sS'raw_score'
p72
I93
sS'display'
p73
S'93/100'
p74
ssssVMaxthon
p75
(dp76
S'summary_display'
p77
g4
sS'total_runs'
p78
L16L
sS'summary_score'
p79
I13
sS'results'
p80
(dp81
S'score'
p82
(dp83
g82
I13
sS'raw_score'
p84
I13
sS'display'
p85
S'13/100'
p86
ssssVCamino
p87
(dp88
S'summary_display'
p89
g4
sS'total_runs'
p90
L25L
sS'summary_score'
p91
I53
sS'results'
p92
(dp93
S'score'
p94
(dp95
g94
I53
sS'raw_score'
p96
I53
sS'display'
p97
S'53/100'
p98
ssssVOther
p99
(dp100
S'summary_display'
p101
g4
sS'total_runs'
p102
L58L
sS'summary_score'
p103
I100
sS'results'
p104
(dp105
S'score'
p106
(dp107
g106
I100
sS'raw_score'
p108
I100
sS'display'
p109
S'100/100'
p110
ssssVGranParadiso
p111
(dp112
S'summary_display'
p113
g4
sS'total_runs'
p114
L2L
sS'summary_score'
p115
I72
sS'results'
p116
(dp117
S'score'
p118
(dp119
g118
I72
sS'raw_score'
p120
I72
sS'display'
p121
S'72/100'
p122
ssssVOpera Mini
p123
(dp124
S'summary_display'
p125
g4
sS'total_runs'
p126
L13L
sS'summary_score'
p127
I98
sS'results'
p128
(dp129
S'score'
p130
(dp131
g130
I98
sS'raw_score'
p132
I98
sS'display'
p133
S'98/100'
p134
ssssVAndroid
p135
(dp136
S'summary_display'
p137
g4
sS'total_runs'
p138
L49L
sS'summary_score'
p139
I93
sS'results'
p140
(dp141
S'score'
p142
(dp143
g142
I93
sS'raw_score'
p144
I93
sS'display'
p145
S'93/100'
p146
ssssVUzbl
p147
(dp148
S'summary_display'
p149
g4
sS'total_runs'
p150
L23L
sS'summary_score'
p151
I100
sS'results'
p152
(dp153
S'score'
p154
(dp155
g154
I100
sS'raw_score'
p156
I100
sS'display'
p157
S'100/100'
p158
ssssVVodafone
p159
(dp160
S'summary_display'
p161
g4
sS'total_runs'
p162
L1L
sS'summary_score'
p163
I93
sS'results'
p164
(dp165
S'score'
p166
(dp167
g166
I93
sS'raw_score'
p168
I93
sS'display'
p169
S'93/100'
p170
ssssVVienna
p171
(dp172
S'summary_display'
p173
g4
sS'total_runs'
p174
L2L
sS'summary_score'
p175
I100
sS'results'
p176
(dp177
S'score'
p178
(dp179
g178
I100
sS'raw_score'
p180
I100
sS'display'
p181
S'100/100'
p182
ssssVSleipnir
p183
(dp184
S'summary_display'
p185
g4
sS'total_runs'
p186
L19L
sS'summary_score'
p187
I20
sS'results'
p188
(dp189
S'score'
p190
(dp191
g190
I20
sS'raw_score'
p192
I20
sS'display'
p193
S'20/100'
p194
ssssVNetFront
p195
(dp196
S'summary_display'
p197
g4
sS'total_runs'
p198
L1L
sS'summary_score'
p199
I72
sS'results'
p200
(dp201
S'score'
p202
(dp203
g202
I72
sS'raw_score'
p204
I72
sS'display'
p205
S'72/100'
p206
ssssVNokia
p207
(dp208
S'summary_display'
p209
g4
sS'total_runs'
p210
L7L
sS'summary_score'
p211
I47
sS'results'
p212
(dp213
S'score'
p214
(dp215
g214
I47
sS'raw_score'
p216
I47
sS'display'
p217
S'47/100'
p218
ssssVJasmine
p219
(dp220
S'summary_display'
p221
g4
sS'total_runs'
p222
L3L
sS'summary_score'
p223
I70
sS'results'
p224
(dp225
S'score'
p226
(dp227
g226
I70
sS'raw_score'
p228
I70
sS'display'
p229
S'70/100'
p230
ssssVFluid
p231
(dp232
S'summary_display'
p233
g4
sS'total_runs'
p234
L1L
sS'summary_score'
p235
I100
sS'results'
p236
(dp237
S'score'
p238
(dp239
g238
I100
sS'raw_score'
p240
I100
sS'display'
p241
S'100/100'
p242
ssssVK-Meleon
p243
(dp244
S'summary_display'
p245
g4
sS'total_runs'
p246
L9L
sS'summary_score'
p247
I53
sS'results'
p248
(dp249
S'score'
p250
(dp251
g250
I53
sS'raw_score'
p252
I53
sS'display'
p253
S'53/100'
p254
ssssVChrome Frame (IE 7)
p255
(dp256
S'summary_display'
p257
g4
sS'total_runs'
p258
L5L
sS'summary_score'
p259
I100
sS'results'
p260
(dp261
S'score'
p262
(dp263
g262
I100
sS'raw_score'
p264
I100
sS'display'
p265
S'100/100'
p266
ssssVQtWeb
p267
(dp268
S'summary_display'
p269
g4
sS'total_runs'
p270
L1L
sS'summary_score'
p271
I98
sS'results'
p272
(dp273
S'score'
p274
(dp275
g274
I98
sS'raw_score'
p276
I98
sS'display'
p277
S'98/100'
p278
ssssVSafari
p279
(dp280
S'summary_display'
p281
g4
sS'total_runs'
p282
L1088L
sS'summary_score'
p283
I100
sS'results'
p284
(dp285
S'score'
p286
(dp287
g286
I100
sS'raw_score'
p288
I100
sS'display'
p289
S'100/100'
p290
ssssVGaleon
p291
(dp292
S'summary_display'
p293
g4
sS'total_runs'
p294
L2L
sS'summary_score'
p295
I72
sS'results'
p296
(dp297
S'score'
p298
(dp299
g298
I72
sS'raw_score'
p300
I72
sS'display'
p301
S'72/100'
p302
ssssVNetNewsWire
p303
(dp304
S'summary_display'
p305
g4
sS'total_runs'
p306
L12L
sS'summary_score'
p307
I100
sS'results'
p308
(dp309
S'score'
p310
(dp311
g310
I100
sS'raw_score'
p312
I100
sS'display'
p313
S'100/100'
p314
ssssVMaemo Browser
p315
(dp316
S'summary_display'
p317
g4
sS'total_runs'
p318
L1L
sS'summary_score'
p319
I94
sS'results'
p320
(dp321
S'score'
p322
(dp323
g322
I94
sS'raw_score'
p324
I94
sS'display'
p325
S'94/100'
p326
ssssVPalm Pre
p327
(dp328
S'summary_display'
p329
g4
sS'total_runs'
p330
L5L
sS'summary_score'
p331
I92
sS'results'
p332
(dp333
S'score'
p334
(dp335
g334
I92
sS'raw_score'
p336
I92
sS'display'
p337
S'92/100'
p338
ssssVNetscape
p339
(dp340
S'summary_display'
p341
g4
sS'total_runs'
p342
L5L
sS'summary_score'
p343
I40
sS'results'
p344
(dp345
S'score'
p346
(dp347
g346
I40
sS'raw_score'
p348
I40
sS'display'
p349
S'40/100'
p350
ssssVIceweasel
p351
(dp352
S'summary_display'
p353
g4
sS'total_runs'
p354
L52L
sS'summary_score'
p355
I72
sS'results'
p356
(dp357
S'score'
p358
(dp359
g358
I72
sS'raw_score'
p360
I72
sS'display'
p361
S'72/100'
p362
ssssVKonqueror
p363
(dp364
S'summary_display'
p365
g4
sS'total_runs'
p366
L49L
sS'summary_score'
p367
I89
sS'results'
p368
(dp369
S'score'
p370
(dp371
g370
I89
sS'raw_score'
p372
I89
sS'display'
p373
S'89/100'
p374
ssssVKazehakase
p375
(dp376
S'summary_display'
p377
g4
sS'total_runs'
p378
L1L
sS'summary_score'
p379
I53
sS'results'
p380
(dp381
S'score'
p382
(dp383
g382
I53
sS'raw_score'
p384
I53
sS'display'
p385
S'53/100'
p386
ssssVOpera
p387
(dp388
S'summary_display'
p389
g4
sS'total_runs'
p390
L1383L
sS'summary_score'
p391
I100
sS'results'
p392
(dp393
S'score'
p394
(dp395
g394
I100
sS'raw_score'
p396
I100
sS'display'
p397
S'100/100'
p398
ssssVAvant
p399
(dp400
S'summary_display'
p401
g4
sS'total_runs'
p402
L11L
sS'summary_score'
p403
I12
sS'results'
p404
(dp405
S'score'
p406
(dp407
g406
I12
sS'raw_score'
p408
I12
sS'display'
p409
S'12/100'
p410
ssssViPhone
p411
(dp412
S'summary_display'
p413
g4
sS'total_runs'
p414
L129L
sS'summary_score'
p415
I100
sS'results'
p416
(dp417
S'score'
p418
(dp419
g418
I100
sS'raw_score'
p420
I100
sS'display'
p421
S'100/100'
p422
ssssVMicroB
p423
(dp424
S'summary_display'
p425
g4
sS'total_runs'
p426
L2L
sS'summary_score'
p427
I55
sS'results'
p428
(dp429
S'score'
p430
(dp431
g430
I55
sS'raw_score'
p432
I55
sS'display'
p433
S'55/100'
p434
ssssVEpiphany
p435
(dp436
S'summary_display'
p437
g4
sS'total_runs'
p438
L8L
sS'summary_score'
p439
I72
sS'results'
p440
(dp441
S'score'
p442
(dp443
g442
I72
sS'raw_score'
p444
I72
sS'display'
p445
S'72/100'
p446
ssssVBlackberry
p447
(dp448
S'summary_display'
p449
g4
sS'total_runs'
p450
L1L
sS'summary_score'
p451
I83
sS'results'
p452
(dp453
S'score'
p454
(dp455
g454
I83
sS'raw_score'
p456
I83
sS'display'
p457
S'83/100'
p458
ssssVIron
p459
(dp460
S'summary_display'
p461
g4
sS'total_runs'
p462
L87L
sS'summary_score'
p463
I100
sS'results'
p464
(dp465
S'score'
p466
(dp467
g466
I100
sS'raw_score'
p468
I100
sS'display'
p469
S'100/100'
p470
ssssVShiira
p471
(dp472
S'summary_display'
p473
g4
sS'total_runs'
p474
L1L
sS'summary_score'
p475
I98
sS'results'
p476
(dp477
S'score'
p478
(dp479
g478
I98
sS'raw_score'
p480
I98
sS'display'
p481
S'98/100'
p482
ssssVMidori
p483
(dp484
S'summary_display'
p485
g4
sS'total_runs'
p486
L22L
sS'summary_score'
p487
I100
sS'results'
p488
(dp489
S'score'
p490
(dp491
g490
I100
sS'raw_score'
p492
I100
sS'display'
p493
S'100/100'
p494
ssssVOmniWeb
p495
(dp496
S'summary_display'
p497
g4
sS'total_runs'
p498
L6L
sS'summary_score'
p499
I100
sS'results'
p500
(dp501
S'score'
p502
(dp503
g502
I100
sS'raw_score'
p504
I100
sS'display'
p505
S'100/100'
p506
ssssVIE
p507
(dp508
S'summary_display'
p509
g4
sS'total_runs'
p510
L843L
sS'summary_score'
p511
I20
sS'results'
p512
(dp513
S'score'
p514
(dp515
g514
I20
sS'raw_score'
p516
I20
sS'display'
p517
S'20/100'
p518
ssssVFirefox
p519
(dp520
S'summary_display'
p521
g4
sS'total_runs'
p522
L4902L
sS'summary_score'
p523
I93
sS'results'
p524
(dp525
S'score'
p526
(dp527
g526
I93
sS'raw_score'
p528
I93
sS'display'
p529
S'93/100'
p530
ssssVLunascape
p531
(dp532
S'summary_display'
p533
g4
sS'total_runs'
p534
L27L
sS'summary_score'
p535
I93
sS'results'
p536
(dp537
S'score'
p538
(dp539
g538
I93
sS'raw_score'
p540
I93
sS'display'
p541
S'93/100'
p542
ssssVSwiftfox
p543
(dp544
S'summary_display'
p545
g4
sS'total_runs'
p546
L13L
sS'summary_score'
p547
I93
sS'results'
p548
(dp549
S'score'
p550
(dp551
g550
I93
sS'raw_score'
p552
I93
sS'display'
p553
S'93/100'
p554
ssssVWii
p555
(dp556
S'summary_display'
p557
g4
sS'total_runs'
p558
L1L
sS'summary_score'
p559
I55
sS'results'
p560
(dp561
S'score'
p562
(dp563
g562
I55
sS'raw_score'
p564
I55
sS'display'
p565
S'55/100'
p566
ssssVFennec
p567
(dp568
S'summary_display'
p569
g4
sS'total_runs'
p570
L8L
sS'summary_score'
p571
I94
sS'results'
p572
(dp573
S'score'
p574
(dp575
g574
I94
sS'raw_score'
p576
I94
sS'display'
p577
S'94/100'
p578
ssssVChrome Frame (IE 6)
p579
(dp580
S'summary_display'
p581
g4
sS'total_runs'
p582
L4L
sS'summary_score'
p583
I100
sS'results'
p584
(dp585
S'score'
p586
(dp587
g586
I100
sS'raw_score'
p588
I100
sS'display'
p589
S'100/100'
p590
ssssVFirefox (Namoroka)
p591
(dp592
S'summary_display'
p593
g4
sS'total_runs'
p594
L52L
sS'summary_score'
p595
I94
sS'results'
p596
(dp597
S'score'
p598
(dp599
g598
I94
sS'raw_score'
p600
I94
sS'display'
p601
S'94/100'
p602
ssssVArora
p603
(dp604
S'summary_display'
p605
g4
sS'total_runs'
p606
L34L
sS'summary_score'
p607
I100
sS'results'
p608
(dp609
S'score'
p610
(dp611
g610
I100
sS'raw_score'
p612
I100
sS'display'
p613
S'100/100'
p614
ssssVFlock
p615
(dp616
S'summary_display'
p617
g4
sS'total_runs'
p618
L8L
sS'summary_score'
p619
I71
sS'results'
p620
(dp621
S'score'
p622
(dp623
g622
I71
sS'raw_score'
p624
I71
sS'display'
p625
S'71/100'
p626
ssssViCab
p627
(dp628
S'summary_display'
p629
g4
sS'total_runs'
p630
L2L
sS'summary_score'
p631
I100
sS'results'
p632
(dp633
S'score'
p634
(dp635
g634
I100
sS'raw_score'
p636
I100
sS'display'
p637
S'100/100'
p638
ssssVChrome Frame (IE 8)
p639
(dp640
S'summary_display'
p641
g4
sS'total_runs'
p642
L18L
sS'summary_score'
p643
I100
sS'results'
p644
(dp645
S'score'
p646
(dp647
g646
I100
sS'raw_score'
p648
I100
sS'display'
p649
S'100/100'
p650
ssss.