(dp0
S'Chrome 4'
p1
(dp2
S'total_runs'
p3
L5L
sS'score'
p4
I10
sS'results'
p5
(dp6
g4
(dp7
g4
I10
sS'median'
p8
L100L
sS'display'
p9
S'100/100'
p10
sssg9
S''
p11
ssS'Chrome 2'
p12
(dp13
S'total_runs'
p14
L1L
sS'score'
p15
I10
sS'results'
p16
(dp17
g15
(dp18
g15
I10
sS'median'
p19
L100L
sS'display'
p20
S'100/100'
p21
sssg20
g11
ssS'Chrome 3'
p22
(dp23
S'total_runs'
p24
L4L
sS'score'
p25
I10
sS'results'
p26
(dp27
g25
(dp28
g25
I10
sS'median'
p29
L100L
sS'display'
p30
S'100/100'
p31
sssg30
g11
ssS'Opera 9.64'
p32
(dp33
S'total_runs'
p34
L3L
sS'score'
p35
I9
sS'results'
p36
(dp37
g35
(dp38
g35
I9
sS'median'
p39
L85L
sS'display'
p40
S'85/100'
p41
sssg40
g11
ssS'IE 6'
p42
(dp43
S'total_runs'
p44
L1L
sS'score'
p45
I1
sS'results'
p46
(dp47
g45
(dp48
g45
I1
sS'median'
p49
L12L
sS'display'
p50
S'12/100'
p51
sssg50
g11
ssS'Safari 3.2'
p52
(dp53
S'total_runs'
p54
L2L
sS'score'
p55
I8
sS'results'
p56
(dp57
g55
(dp58
g55
I8
sS'median'
p59
L75L
sS'display'
p60
S'75/100'
p61
sssg60
g11
ssS'Safari 4.0'
p62
(dp63
S'total_runs'
p64
L3L
sS'score'
p65
I10
sS'results'
p66
(dp67
g65
(dp68
g65
I10
sS'median'
p69
L100L
sS'display'
p70
S'100/100'
p71
sssg70
g11
ssS'IE 8'
p72
(dp73
S'total_runs'
p74
L1L
sS'score'
p75
I2
sS'results'
p76
(dp77
g75
(dp78
g75
I2
sS'median'
p79
L20L
sS'display'
p80
S'20/100'
p81
sssg80
g11
ssS'Opera 10'
p82
(dp83
S'total_runs'
p84
L2L
sS'score'
p85
I10
sS'results'
p86
(dp87
g85
(dp88
g85
I10
sS'median'
p89
L99L
sS'display'
p90
S'99/100'
p91
sssg90
g11
ssS'iPhone 2.2'
p92
(dp93
S'total_runs'
p94
NsS'score'
p95
I0
sS'results'
p96
(dp97
g95
(dp98
g95
I0
sS'median'
p99
NsS'display'
p100
g11
sssg100
g11
ssS'Firefox 3.0'
p101
(dp102
S'total_runs'
p103
L4L
sS'score'
p104
I7
sS'results'
p105
(dp106
g104
(dp107
g104
I7
sS'median'
p108
L72L
sS'display'
p109
S'72/100'
p110
sssg109
g11
ssS'Firefox 3.5'
p111
(dp112
S'total_runs'
p113
L4L
sS'score'
p114
I9
sS'results'
p115
(dp116
g114
(dp117
g114
I9
sS'median'
p118
L93L
sS'display'
p119
S'93/100'
p120
sssg119
g11
ssS'IE 7'
p121
(dp122
S'total_runs'
p123
L2L
sS'score'
p124
I1
sS'results'
p125
(dp126
g124
(dp127
g124
I1
sS'median'
p128
L12L
sS'display'
p129
S'12/100'
p130
sssg129
g11
ss.