(dp0
S'total_runs'
p1
L9688L
sS'Chrome 4'
p2
(dp3
S'summary_display'
p4
S''
p5
sS'total_runs'
p6
L1072L
sS'summary_score'
p7
I100
sS'results'
p8
(dp9
S'score'
p10
(dp11
g10
I100
sS'raw_score'
p12
I100
sS'display'
p13
S'100/100'
p14
ssssS'iPhone 3.1'
p15
(dp16
S'summary_display'
p17
g5
sS'total_runs'
p18
L90L
sS'summary_score'
p19
I100
sS'results'
p20
(dp21
S'score'
p22
(dp23
g22
I100
sS'raw_score'
p24
I100
sS'display'
p25
S'100/100'
p26
ssssS'Chrome 3'
p27
(dp28
S'summary_display'
p29
g5
sS'total_runs'
p30
L641L
sS'summary_score'
p31
I100
sS'results'
p32
(dp33
S'score'
p34
(dp35
g34
I100
sS'raw_score'
p36
I100
sS'display'
p37
S'100/100'
p38
ssssS'Opera 9.64'
p39
(dp40
S'summary_display'
p41
g5
sS'total_runs'
p42
L31L
sS'summary_score'
p43
I85
sS'results'
p44
(dp45
S'score'
p46
(dp47
g46
I85
sS'raw_score'
p48
I85
sS'display'
p49
S'85/100'
p50
ssssS'IE 6'
p51
(dp52
S'summary_display'
p53
g5
sS'total_runs'
p54
L124L
sS'summary_score'
p55
I12
sS'results'
p56
(dp57
S'score'
p58
(dp59
g58
I12
sS'raw_score'
p60
I12
sS'display'
p61
S'12/100'
p62
ssssS'Safari 3.2'
p63
(dp64
S'summary_display'
p65
g5
sS'total_runs'
p66
L21L
sS'summary_score'
p67
I75
sS'results'
p68
(dp69
S'score'
p70
(dp71
g70
I75
sS'raw_score'
p72
I75
sS'display'
p73
S'75/100'
p74
ssssS'Safari 4.0'
p75
(dp76
S'summary_display'
p77
g5
sS'total_runs'
p78
L1049L
sS'summary_score'
p79
I100
sS'results'
p80
(dp81
S'score'
p82
(dp83
g82
I100
sS'raw_score'
p84
I100
sS'display'
p85
S'100/100'
p86
ssssS'IE 8'
p87
(dp88
S'summary_display'
p89
g5
sS'total_runs'
p90
L516L
sS'summary_score'
p91
I20
sS'results'
p92
(dp93
S'score'
p94
(dp95
g94
I20
sS'raw_score'
p96
I20
sS'display'
p97
S'20/100'
p98
ssssS'Opera 10'
p99
(dp100
S'summary_display'
p101
g5
sS'total_runs'
p102
L1322L
sS'summary_score'
p103
I100
sS'results'
p104
(dp105
S'score'
p106
(dp107
g106
I100
sS'raw_score'
p108
I100
sS'display'
p109
S'100/100'
p110
ssssS'iPhone 2.2'
p111
(dp112
S'summary_display'
p113
g5
sS'total_runs'
p114
L9L
sS'summary_score'
p115
I74
sS'results'
p116
(dp117
S'score'
p118
(dp119
g118
I74
sS'raw_score'
p120
I74
sS'display'
p121
S'74/100'
p122
ssssS'Firefox 3.0'
p123
(dp124
S'summary_display'
p125
g5
sS'total_runs'
p126
L612L
sS'summary_score'
p127
I72
sS'results'
p128
(dp129
S'score'
p130
(dp131
g130
I72
sS'raw_score'
p132
I72
sS'display'
p133
S'72/100'
p134
ssssS'Firefox 3.5'
p135
(dp136
S'summary_display'
p137
g5
sS'total_runs'
p138
L4003L
sS'summary_score'
p139
I93
sS'results'
p140
(dp141
S'score'
p142
(dp143
g142
I93
sS'raw_score'
p144
I93
sS'display'
p145
S'93/100'
p146
ssssS'IE 7'
p147
(dp148
S'summary_display'
p149
g5
sS'total_runs'
p150
L198L
sS'summary_score'
p151
I12
sS'results'
p152
(dp153
S'score'
p154
(dp155
g154
I12
sS'raw_score'
p156
I12
sS'display'
p157
S'12/100'
p158
ssss.