(dp0
S'Chrome 4'
p1
(dp2
S'total_runs'
p3
L16L
sS'score'
p4
I10
sS'results'
p5
(dp6
g4
(dp7
g4
I10
sS'median'
p8
L100L
sS'display'
p9
S'100/100'
p10
sssg9
S''
p11
ssS'Chrome 2'
p12
(dp13
S'total_runs'
p14
L7L
sS'score'
p15
I10
sS'results'
p16
(dp17
g15
(dp18
g15
I10
sS'median'
p19
L100L
sS'display'
p20
S'100/100'
p21
sssg20
g11
ssS'Chrome 3'
p22
(dp23
S'total_runs'
p24
L4L
sS'score'
p25
I10
sS'results'
p26
(dp27
g25
(dp28
g25
I10
sS'median'
p29
L100L
sS'display'
p30
S'100/100'
p31
sssg30
g11
ssS'Opera 9.64'
p32
(dp33
S'total_runs'
p34
L3L
sS'score'
p35
I9
sS'results'
p36
(dp37
g35
(dp38
g35
I9
sS'median'
p39
L85L
sS'display'
p40
S'85/100'
p41
sssg40
g11
ssS'IE 6'
p42
(dp43
S'total_runs'
p44
L2L
sS'score'
p45
I1
sS'results'
p46
(dp47
g45
(dp48
g45
I1
sS'median'
p49
L12L
sS'display'
p50
S'12/100'
p51
sssg50
g11
ssS'Safari 3.2'
p52
(dp53
S'total_runs'
p54
L2L
sS'score'
p55
I8
sS'results'
p56
(dp57
g55
(dp58
g55
I8
sS'median'
p59
L75L
sS'display'
p60
S'75/100'
p61
sssg60
g11
ssS'Safari 4.0'
p62
(dp63
S'total_runs'
p64
L19L
sS'score'
p65
I10
sS'results'
p66
(dp67
g65
(dp68
g65
I10
sS'median'
p69
L100L
sS'display'
p70
S'100/100'
p71
sssg70
g11
ssS'IE 8'
p72
(dp73
S'total_runs'
p74
L7L
sS'score'
p75
I2
sS'results'
p76
(dp77
g75
(dp78
g75
I2
sS'median'
p79
L20L
sS'display'
p80
S'20/100'
p81
sssg80
g11
ssS'Opera 10'
p82
(dp83
S'total_runs'
p84
L7L
sS'score'
p85
I10
sS'results'
p86
(dp87
g85
(dp88
g85
I10
sS'median'
p89
L99L
sS'display'
p90
S'99/100'
p91
sssg90
g11
ssS'iPhone 2.2'
p92
(dp93
S'total_runs'
p94
L3L
sS'score'
p95
I7
sS'results'
p96
(dp97
g95
(dp98
g95
I7
sS'median'
p99
L74L
sS'display'
p100
S'74/100'
p101
sssg100
g11
ssS'Firefox 3.0'
p102
(dp103
S'total_runs'
p104
L7L
sS'score'
p105
I7
sS'results'
p106
(dp107
g105
(dp108
g105
I7
sS'median'
p109
L71L
sS'display'
p110
S'71/100'
p111
sssg110
g11
ssS'Firefox 3.5'
p112
(dp113
S'total_runs'
p114
L25L
sS'score'
p115
I9
sS'results'
p116
(dp117
g115
(dp118
g115
I9
sS'median'
p119
L93L
sS'display'
p120
S'93/100'
p121
sssg120
g11
ssS'IE 7'
p122
(dp123
S'total_runs'
p124
L3L
sS'score'
p125
I1
sS'results'
p126
(dp127
g125
(dp128
g125
I1
sS'median'
p129
L12L
sS'display'
p130
S'12/100'
p131
sssg130
g11
ss.