(dp0
S'Konqueror'
p1
(dp2
S'total_runs'
p3
L1L
sS'score'
p4
I4
sS'results'
p5
(dp6
g4
(dp7
g4
I4
sS'median'
p8
I42
sS'display'
p9
S'42/100'
p10
sssg9
S''
p11
ssS'Firefox'
p12
(dp13
S'total_runs'
p14
L41L
sS'score'
p15
I9
sS'results'
p16
(dp17
g15
(dp18
g15
I9
sS'median'
p19
L93L
sS'display'
p20
S'93/100'
p21
sssg20
g11
ssS'Chrome'
p22
(dp23
S'total_runs'
p24
L35L
sS'score'
p25
I10
sS'results'
p26
(dp27
g25
(dp28
g25
I10
sS'median'
p29
L100L
sS'display'
p30
S'100/100'
p31
sssg30
g11
ssS'Camino'
p32
(dp33
S'total_runs'
p34
L2L
sS'score'
p35
I5
sS'results'
p36
(dp37
g35
(dp38
g35
I5
sS'median'
p39
I53
sS'display'
p40
S'53/100'
p41
sssg40
g11
ssS'Opera'
p42
(dp43
S'total_runs'
p44
L12L
sS'score'
p45
I10
sS'results'
p46
(dp47
g45
(dp48
g45
I10
sS'median'
p49
L99L
sS'display'
p50
S'99/100'
p51
sssg50
g11
ssS'NetNewsWire'
p52
(dp53
S'total_runs'
p54
L1L
sS'score'
p55
I10
sS'results'
p56
(dp57
g55
(dp58
g55
I10
sS'median'
p59
I100
sS'display'
p60
S'100/100'
p61
sssg60
g11
ssS'iPhone'
p62
(dp63
S'total_runs'
p64
L10L
sS'score'
p65
I10
sS'results'
p66
(dp67
g65
(dp68
g65
I10
sS'median'
p69
L100L
sS'display'
p70
S'100/100'
p71
sssg70
g11
ssS'Safari'
p72
(dp73
S'total_runs'
p74
L24L
sS'score'
p75
I10
sS'results'
p76
(dp77
g75
(dp78
g75
I10
sS'median'
p79
L100L
sS'display'
p80
S'100/100'
p81
sssg80
g11
ssS'Midori'
p82
(dp83
S'total_runs'
p84
L1L
sS'score'
p85
I10
sS'results'
p86
(dp87
g85
(dp88
g85
I10
sS'median'
p89
I100
sS'display'
p90
S'100/100'
p91
sssg90
g11
ssS'Android'
p92
(dp93
S'total_runs'
p94
L2L
sS'score'
p95
I9
sS'results'
p96
(dp97
g95
(dp98
g95
I9
sS'median'
p99
L93L
sS'display'
p100
S'93/100'
p101
sssg100
g11
ssS'IE'
p102
(dp103
S'total_runs'
p104
L12L
sS'score'
p105
I2
sS'results'
p106
(dp107
g105
(dp108
g105
I2
sS'median'
p109
L20L
sS'display'
p110
S'20/100'
p111
sssg110
g11
ss.