(dp0
VOpera 10.00
p1
(dp2
S'total_runs'
p3
L2L
sS'score'
p4
I10
sS'results'
p5
(dp6
g4
(dp7
g4
I10
sS'median'
p8
L99L
sS'display'
p9
S'99/100'
p10
sssg9
S''
p11
ssVIE 6.0
p12
(dp13
S'total_runs'
p14
L1L
sS'score'
p15
I1
sS'results'
p16
(dp17
g15
(dp18
g15
I1
sS'median'
p19
L12L
sS'display'
p20
S'12/100'
p21
sssg20
g11
ssVSafari 4.0
p22
(dp23
S'total_runs'
p24
L3L
sS'score'
p25
I10
sS'results'
p26
(dp27
g25
(dp28
g25
I10
sS'median'
p29
L100L
sS'display'
p30
S'100/100'
p31
sssg30
g11
ssVOpera 9.64
p32
(dp33
S'total_runs'
p34
L3L
sS'score'
p35
I9
sS'results'
p36
(dp37
g35
(dp38
g35
I9
sS'median'
p39
L85L
sS'display'
p40
S'85/100'
p41
sssg40
g11
ssVAndroid 1.5
p42
(dp43
S'total_runs'
p44
L1L
sS'score'
p45
I9
sS'results'
p46
(dp47
g45
(dp48
g45
I9
sS'median'
p49
L92L
sS'display'
p50
S'92/100'
p51
sssg50
g11
ssVChrome 2.0.172
p52
(dp53
S'total_runs'
p54
L1L
sS'score'
p55
I10
sS'results'
p56
(dp57
g55
(dp58
g55
I10
sS'median'
p59
L100L
sS'display'
p60
S'100/100'
p61
sssg60
g11
ssVIE 7.0
p62
(dp63
S'total_runs'
p64
L2L
sS'score'
p65
I1
sS'results'
p66
(dp67
g65
(dp68
g65
I1
sS'median'
p69
L12L
sS'display'
p70
S'12/100'
p71
sssg70
g11
ssVSafari 3.2
p72
(dp73
S'total_runs'
p74
L2L
sS'score'
p75
I8
sS'results'
p76
(dp77
g75
(dp78
g75
I8
sS'median'
p79
L75L
sS'display'
p80
S'75/100'
p81
sssg80
g11
ssVSafari 3.2.3
p82
(dp83
S'total_runs'
p84
L2L
sS'score'
p85
I8
sS'results'
p86
(dp87
g85
(dp88
g85
I8
sS'median'
p89
L75L
sS'display'
p90
S'75/100'
p91
sssg90
g11
ssVChrome 4.0.206
p92
(dp93
S'total_runs'
p94
L4L
sS'score'
p95
I10
sS'results'
p96
(dp97
g95
(dp98
g95
I10
sS'median'
p99
L100L
sS'display'
p100
S'100/100'
p101
sssg100
g11
ssVIE 8.0
p102
(dp103
S'total_runs'
p104
L1L
sS'score'
p105
I2
sS'results'
p106
(dp107
g105
(dp108
g105
I2
sS'median'
p109
L20L
sS'display'
p110
S'20/100'
p111
sssg110
g11
ssVFirefox 3.5
p112
(dp113
S'total_runs'
p114
L2L
sS'score'
p115
I9
sS'results'
p116
(dp117
g115
(dp118
g115
I9
sS'median'
p119
L93L
sS'display'
p120
S'93/100'
p121
sssg120
g11
ssVChrome 4.0.203
p122
(dp123
S'total_runs'
p124
L1L
sS'score'
p125
I10
sS'results'
p126
(dp127
g125
(dp128
g125
I10
sS'median'
p129
L100L
sS'display'
p130
S'100/100'
p131
sssg130
g11
ssVFirefox 3.0.13
p132
(dp133
S'total_runs'
p134
L1L
sS'score'
p135
I7
sS'results'
p136
(dp137
g135
(dp138
g135
I7
sS'median'
p139
L72L
sS'display'
p140
S'72/100'
p141
sssg140
g11
ssVChrome 1.0.154
p142
(dp143
S'total_runs'
p144
L4L
sS'score'
p145
I8
sS'results'
p146
(dp147
g145
(dp148
g145
I8
sS'median'
p149
L79L
sS'display'
p150
S'79/100'
p151
sssg150
g11
ssVFirefox 3.0
p152
(dp153
S'total_runs'
p154
L4L
sS'score'
p155
I7
sS'results'
p156
(dp157
g155
(dp158
g155
I7
sS'median'
p159
L72L
sS'display'
p160
S'72/100'
p161
sssg160
g11
ssVFirefox 3.5.2
p162
(dp163
S'total_runs'
p164
L1L
sS'score'
p165
I9
sS'results'
p166
(dp167
g165
(dp168
g165
I9
sS'median'
p169
L93L
sS'display'
p170
S'93/100'
p171
sssg170
g11
ssVChrome 3.0.195
p172
(dp173
S'total_runs'
p174
L4L
sS'score'
p175
I10
sS'results'
p176
(dp177
g175
(dp178
g175
I10
sS'median'
p179
L100L
sS'display'
p180
S'100/100'
p181
sssg180
g11
ssVSafari 4.0.2
p182
(dp183
S'total_runs'
p184
L1L
sS'score'
p185
I10
sS'results'
p186
(dp187
g185
(dp188
g185
I10
sS'median'
p189
L100L
sS'display'
p190
S'100/100'
p191
sssg190
g11
ssVFirefox 3.0.9
p192
(dp193
S'total_runs'
p194
L1L
sS'score'
p195
I9
sS'results'
p196
(dp197
g195
(dp198
g195
I9
sS'median'
p199
L93L
sS'display'
p200
S'93/100'
p201
sssg200
g11
ssVFirefox 3.0.10
p202
(dp203
S'total_runs'
p204
L2L
sS'score'
p205
I7
sS'results'
p206
(dp207
g205
(dp208
g205
I7
sS'median'
p209
L71L
sS'display'
p210
S'71/100'
p211
sssg210
g11
ss.