(dp0
S'Firefox (Namoroka) 3'
p1
(dp2
S'total_runs'
p3
L1L
sS'score'
p4
I9
sS'results'
p5
(dp6
g4
(dp7
g4
I9
sS'median'
p8
I94
sS'display'
p9
S'94/100'
p10
sssg9
S''
p11
ssS'IE 8'
p12
(dp13
S'total_runs'
p14
L7L
sS'score'
p15
I2
sS'results'
p16
(dp17
g15
(dp18
g15
I2
sS'median'
p19
L20L
sS'display'
p20
S'20/100'
p21
sssg20
g11
ssS'Opera 10'
p22
(dp23
S'total_runs'
p24
L7L
sS'score'
p25
I10
sS'results'
p26
(dp27
g25
(dp28
g25
I10
sS'median'
p29
L99L
sS'display'
p30
S'99/100'
p31
sssg30
g11
ssS'Midori 0'
p32
(dp33
S'total_runs'
p34
L1L
sS'score'
p35
I10
sS'results'
p36
(dp37
g35
(dp38
g35
I10
sS'median'
p39
I100
sS'display'
p40
S'100/100'
p41
sssg40
g11
ssS'IE 6'
p42
(dp43
S'total_runs'
p44
L2L
sS'score'
p45
I1
sS'results'
p46
(dp47
g45
(dp48
g45
I1
sS'median'
p49
L12L
sS'display'
p50
S'12/100'
p51
sssg50
g11
ssS'IE 7'
p52
(dp53
S'total_runs'
p54
L3L
sS'score'
p55
I1
sS'results'
p56
(dp57
g55
(dp58
g55
I1
sS'median'
p59
L12L
sS'display'
p60
S'12/100'
p61
sssg60
g11
ssS'Firefox 2'
p62
(dp63
S'total_runs'
p64
L1L
sS'score'
p65
I9
sS'results'
p66
(dp67
g65
(dp68
g65
I9
sS'median'
p69
I92
sS'display'
p70
S'92/100'
p71
sssg70
g11
ssS'Firefox 3'
p72
(dp73
S'total_runs'
p74
L32L
sS'score'
p75
I9
sS'results'
p76
(dp77
g75
(dp78
g75
I9
sS'median'
p79
L93L
sS'display'
p80
S'93/100'
p81
sssg80
g11
ssS'Chrome 4'
p82
(dp83
S'total_runs'
p84
L16L
sS'score'
p85
I10
sS'results'
p86
(dp87
g85
(dp88
g85
I10
sS'median'
p89
L100L
sS'display'
p90
S'100/100'
p91
sssg90
g11
ssS'Chrome 2'
p92
(dp93
S'total_runs'
p94
L7L
sS'score'
p95
I10
sS'results'
p96
(dp97
g95
(dp98
g95
I10
sS'median'
p99
L100L
sS'display'
p100
S'100/100'
p101
sssg100
g11
ssS'Chrome 3'
p102
(dp103
S'total_runs'
p104
L4L
sS'score'
p105
I10
sS'results'
p106
(dp107
g105
(dp108
g105
I10
sS'median'
p109
L100L
sS'display'
p110
S'100/100'
p111
sssg110
g11
ssS'Chrome 1'
p112
(dp113
S'total_runs'
p114
L4L
sS'score'
p115
I8
sS'results'
p116
(dp117
g115
(dp118
g115
I8
sS'median'
p119
L79L
sS'display'
p120
S'79/100'
p121
sssg120
g11
ssS'NetNewsWire 3'
p122
(dp123
S'total_runs'
p124
L1L
sS'score'
p125
I10
sS'results'
p126
(dp127
g125
(dp128
g125
I10
sS'median'
p129
I100
sS'display'
p130
S'100/100'
p131
sssg130
g11
ssS'Safari 3'
p132
(dp133
S'total_runs'
p134
L2L
sS'score'
p135
I8
sS'results'
p136
(dp137
g135
(dp138
g135
I8
sS'median'
p139
L75L
sS'display'
p140
S'75/100'
p141
sssg140
g11
ssS'Safari 4'
p142
(dp143
S'total_runs'
p144
L19L
sS'score'
p145
I10
sS'results'
p146
(dp147
g145
(dp148
g145
I10
sS'median'
p149
L100L
sS'display'
p150
S'100/100'
p151
sssg150
g11
ssS'iPhone 3'
p152
(dp153
S'total_runs'
p154
L6L
sS'score'
p155
I10
sS'results'
p156
(dp157
g155
(dp158
g155
I10
sS'median'
p159
I100
sS'display'
p160
S'100/100'
p161
sssg160
g11
ssS'iPhone 2'
p162
(dp163
S'total_runs'
p164
L3L
sS'score'
p165
I7
sS'results'
p166
(dp167
g165
(dp168
g165
I7
sS'median'
p169
L74L
sS'display'
p170
S'74/100'
p171
sssg170
g11
ssS'Firefox (Shiretoko) 3'
p172
(dp173
S'total_runs'
p174
L3L
sS'score'
p175
I9
sS'results'
p176
(dp177
g175
(dp178
g175
I9
sS'median'
p179
L93L
sS'display'
p180
S'93/100'
p181
sssg180
g11
ssS'Konqueror 3'
p182
(dp183
S'total_runs'
p184
L1L
sS'score'
p185
I4
sS'results'
p186
(dp187
g185
(dp188
g185
I4
sS'median'
p189
I42
sS'display'
p190
S'42/100'
p191
sssg190
g11
ssS'Firefox (Minefield) 3'
p192
(dp193
S'total_runs'
p194
L1L
sS'score'
p195
I9
sS'results'
p196
(dp197
g195
(dp198
g195
I9
sS'median'
p199
L94L
sS'display'
p200
S'94/100'
p201
sssg200
g11
ssS'Camino 1'
p202
(dp203
S'total_runs'
p204
L2L
sS'score'
p205
I5
sS'results'
p206
(dp207
g205
(dp208
g205
I5
sS'median'
p209
I53
sS'display'
p210
S'53/100'
p211
sssg210
g11
ssS'Android 1'
p212
(dp213
S'total_runs'
p214
L2L
sS'score'
p215
I9
sS'results'
p216
(dp217
g215
(dp218
g215
I9
sS'median'
p219
L93L
sS'display'
p220
S'93/100'
p221
sssg220
g11
ssS'Opera 9'
p222
(dp223
S'total_runs'
p224
L3L
sS'score'
p225
I9
sS'results'
p226
(dp227
g225
(dp228
g225
I9
sS'median'
p229
L85L
sS'display'
p230
S'85/100'
p231
sssg230
g11
ss.