(dp0
VFirefox 3
p1
(dp2
S'total_runs'
p3
L8L
sS'score'
p4
I9
sS'results'
p5
(dp6
g4
(dp7
g4
I9
sS'median'
p8
L93L
sS'display'
p9
S'93/100'
p10
sssg9
S''
p11
ssVChrome 4
p12
(dp13
S'total_runs'
p14
L5L
sS'score'
p15
I10
sS'results'
p16
(dp17
g15
(dp18
g15
I10
sS'median'
p19
L100L
sS'display'
p20
S'100/100'
p21
sssg20
g11
ssVSafari 3
p22
(dp23
S'total_runs'
p24
L2L
sS'score'
p25
I8
sS'results'
p26
(dp27
g25
(dp28
g25
I8
sS'median'
p29
L75L
sS'display'
p30
S'75/100'
p31
sssg30
g11
ssVChrome 2
p32
(dp33
S'total_runs'
p34
L1L
sS'score'
p35
I10
sS'results'
p36
(dp37
g35
(dp38
g35
I10
sS'median'
p39
L100L
sS'display'
p40
S'100/100'
p41
sssg40
g11
ssVChrome 3
p42
(dp43
S'total_runs'
p44
L4L
sS'score'
p45
I10
sS'results'
p46
(dp47
g45
(dp48
g45
I10
sS'median'
p49
L100L
sS'display'
p50
S'100/100'
p51
sssg50
g11
ssVChrome 1
p52
(dp53
S'total_runs'
p54
L4L
sS'score'
p55
I8
sS'results'
p56
(dp57
g55
(dp58
g55
I8
sS'median'
p59
L79L
sS'display'
p60
S'79/100'
p61
sssg60
g11
ssVOpera 9
p62
(dp63
S'total_runs'
p64
L3L
sS'score'
p65
I9
sS'results'
p66
(dp67
g65
(dp68
g65
I9
sS'median'
p69
L85L
sS'display'
p70
S'85/100'
p71
sssg70
g11
ssVSafari 4
p72
(dp73
S'total_runs'
p74
L3L
sS'score'
p75
I10
sS'results'
p76
(dp77
g75
(dp78
g75
I10
sS'median'
p79
L100L
sS'display'
p80
S'100/100'
p81
sssg80
g11
ssVIE 7
p82
(dp83
S'total_runs'
p84
L2L
sS'score'
p85
I1
sS'results'
p86
(dp87
g85
(dp88
g85
I1
sS'median'
p89
L12L
sS'display'
p90
S'12/100'
p91
sssg90
g11
ssVKonqueror 3
p92
(dp93
S'total_runs'
p94
L1L
sS'score'
p95
I4
sS'results'
p96
(dp97
g95
(dp98
g95
I4
sS'median'
p99
I42
sS'display'
p100
S'42/100'
p101
sssg100
g11
ssVIE 8
p102
(dp103
S'total_runs'
p104
L1L
sS'score'
p105
I2
sS'results'
p106
(dp107
g105
(dp108
g105
I2
sS'median'
p109
L20L
sS'display'
p110
S'20/100'
p111
sssg110
g11
ssVOpera 10
p112
(dp113
S'total_runs'
p114
L2L
sS'score'
p115
I10
sS'results'
p116
(dp117
g115
(dp118
g115
I10
sS'median'
p119
L99L
sS'display'
p120
S'99/100'
p121
sssg120
g11
ssVIE 6
p122
(dp123
S'total_runs'
p124
L1L
sS'score'
p125
I1
sS'results'
p126
(dp127
g125
(dp128
g125
I1
sS'median'
p129
L12L
sS'display'
p130
S'12/100'
p131
sssg130
g11
ssVAndroid 1
p132
(dp133
S'total_runs'
p134
L1L
sS'score'
p135
I9
sS'results'
p136
(dp137
g135
(dp138
g135
I9
sS'median'
p139
L92L
sS'display'
p140
S'92/100'
p141
sssg140
g11
ss.