(dp0
S'Chrome 4'
p1
(dp2
S'total_runs'
p3
L47L
sS'score'
p4
I8
sS'results'
p5
(dp6
S'maxconn'
p7
(dp8
g4
I10
sS'median'
p9
L60L
sS'display'
p10
S'60'
p11
ssS'parscript'
p12
(dp13
g4
I10
sg9
L1L
sg10
S'yes'
p14
ssS'parcssjs'
p15
(dp16
g4
I1
sg9
L0L
sg10
S'no'
p17
ssS'cacheresredir'
p18
(dp19
g4
I10
sg9
L1L
sg10
g14
ssS'cacheexp'
p20
(dp21
g4
I10
sg9
L1L
sg10
g14
ssS'gzip'
p22
(dp23
g4
I10
sg9
L1L
sg10
g14
ssS'prefetch'
p24
(dp25
g4
I1
sg9
L0L
sg10
g17
ssS'cacheredir'
p26
(dp27
g4
I10
sg9
L1L
sg10
g14
ssS'parsheet'
p28
(dp29
g4
I10
sg9
L1L
sg10
g14
ssS'du'
p30
(dp31
g4
I10
sg9
L1L
sg10
g14
ssS'hostconn'
p32
(dp33
g4
I10
sg9
L4L
sg10
S'4'
p34
sssg10
S'9/11'
p35
ssS'iPhone 3.1'
p36
(dp37
S'total_runs'
p38
L10L
sS'score'
p39
I7
sS'results'
p40
(dp41
S'maxconn'
p42
(dp43
g39
I10
sS'median'
p44
L59L
sS'display'
p45
S'59'
p46
ssS'parscript'
p47
(dp48
g39
I10
sg44
L1L
sg45
S'yes'
p49
ssS'parcssjs'
p50
(dp51
g39
I1
sg44
L0L
sg45
S'no'
p52
ssS'cacheresredir'
p53
(dp54
g39
I10
sg44
L1L
sg45
g49
ssS'cacheexp'
p55
(dp56
g39
I10
sg44
L1L
sg45
g49
ssS'gzip'
p57
(dp58
g39
I10
sg44
L1L
sg45
g49
ssS'prefetch'
p59
(dp60
g39
I1
sg44
L0L
sg45
g52
ssS'cacheredir'
p61
(dp62
g39
I1
sg44
L0L
sg45
g52
ssS'parsheet'
p63
(dp64
g39
I10
sg44
L1L
sg45
g49
ssS'du'
p65
(dp66
g39
I10
sg44
L1L
sg45
g49
ssS'hostconn'
p67
(dp68
g39
I10
sg44
L6L
sg45
S'6'
p69
sssg45
S'8/11'
p70
ssS'Chrome 2'
p71
(dp72
S'total_runs'
p73
L478L
sS'score'
p74
I8
sS'results'
p75
(dp76
S'maxconn'
p77
(dp78
g74
I10
sS'median'
p79
L60L
sS'display'
p80
S'60'
p81
ssS'parscript'
p82
(dp83
g74
I10
sg79
L1L
sg80
S'yes'
p84
ssS'parcssjs'
p85
(dp86
g74
I1
sg79
L0L
sg80
S'no'
p87
ssS'cacheresredir'
p88
(dp89
g74
I10
sg79
L1L
sg80
g84
ssS'cacheexp'
p90
(dp91
g74
I10
sg79
L1L
sg80
g84
ssS'gzip'
p92
(dp93
g74
I10
sg79
L1L
sg80
g84
ssS'prefetch'
p94
(dp95
g74
I1
sg79
L0L
sg80
g87
ssS'cacheredir'
p96
(dp97
g74
I10
sg79
L1L
sg80
g84
ssS'parsheet'
p98
(dp99
g74
I10
sg79
L1L
sg80
g84
ssS'du'
p100
(dp101
g74
I10
sg79
L1L
sg80
g84
ssS'hostconn'
p102
(dp103
g74
I10
sg79
L6L
sg80
g69
sssg80
S'9/11'
p104
ssS'Chrome 3'
p105
(dp106
S'total_runs'
p107
L198L
sS'score'
p108
I8
sS'results'
p109
(dp110
S'maxconn'
p111
(dp112
g108
I10
sS'median'
p113
L60L
sS'display'
p114
S'60'
p115
ssS'parscript'
p116
(dp117
g108
I10
sg113
L1L
sg114
S'yes'
p118
ssS'parcssjs'
p119
(dp120
g108
I1
sg113
L0L
sg114
S'no'
p121
ssS'cacheresredir'
p122
(dp123
g108
I10
sg113
L1L
sg114
g118
ssS'cacheexp'
p124
(dp125
g108
I10
sg113
L1L
sg114
g118
ssS'gzip'
p126
(dp127
g108
I10
sg113
L1L
sg114
g118
ssS'prefetch'
p128
(dp129
g108
I1
sg113
L0L
sg114
g121
ssS'cacheredir'
p130
(dp131
g108
I10
sg113
L1L
sg114
g118
ssS'parsheet'
p132
(dp133
g108
I10
sg113
L1L
sg114
g118
ssS'du'
p134
(dp135
g108
I10
sg113
L1L
sg114
g118
ssS'hostconn'
p136
(dp137
g108
I10
sg113
L6L
sg114
g69
sssg114
S'9/11'
p138
ssS'Opera 9.64'
p139
(dp140
S'total_runs'
p141
L951L
sS'score'
p142
I5
sS'results'
p143
(dp144
S'maxconn'
p145
(dp146
g142
I10
sS'median'
p147
L59L
sS'display'
p148
S'59'
p149
ssS'parscript'
p150
(dp151
g142
I1
sg147
L0L
sg148
S'no'
p152
ssS'parcssjs'
p153
(dp154
g142
I1
sg147
L0L
sg148
g152
ssS'cacheresredir'
p155
(dp156
g142
I1
sg147
L0L
sg148
g152
ssS'cacheexp'
p157
(dp158
g142
I10
sg147
L1L
sg148
S'yes'
p159
ssS'gzip'
p160
(dp161
g142
I10
sg147
L1L
sg148
g159
ssS'prefetch'
p162
(dp163
g142
I1
sg147
L0L
sg148
g152
ssS'cacheredir'
p164
(dp165
g142
I1
sg147
L0L
sg148
g152
ssS'parsheet'
p166
(dp167
g142
I10
sg147
L1L
sg148
g159
ssS'du'
p168
(dp169
g142
I10
sg147
L1L
sg148
g159
ssS'hostconn'
p170
(dp171
g142
I10
sg147
L8L
sg148
S'8'
p172
sssg148
S'6/11'
p173
ssS'IE 6'
p174
(dp175
S'total_runs'
p176
L307L
sS'score'
p177
I4
sS'results'
p178
(dp179
S'maxconn'
p180
(dp181
g177
I10
sS'median'
p182
L54L
sS'display'
p183
S'54'
p184
ssS'parscript'
p185
(dp186
g177
I1
sg182
L0L
sg183
S'no'
p187
ssS'parcssjs'
p188
(dp189
g177
I1
sg182
L0L
sg183
g187
ssS'cacheresredir'
p190
(dp191
g177
I1
sg182
L0L
sg183
g187
ssS'cacheexp'
p192
(dp193
g177
I10
sg182
L1L
sg183
S'yes'
p194
ssS'gzip'
p195
(dp196
g177
I10
sg182
L1L
sg183
g194
ssS'prefetch'
p197
(dp198
g177
I1
sg182
L0L
sg183
g187
ssS'cacheredir'
p199
(dp200
g177
I1
sg182
L0L
sg183
g187
ssS'parsheet'
p201
(dp202
g177
I10
sg182
L1L
sg183
g194
ssS'du'
p203
(dp204
g177
I1
sg182
L0L
sg183
g187
ssS'hostconn'
p205
(dp206
g177
I5
sg182
L2L
sg183
S'2'
p207
sssg183
S'4/11'
p208
ssS'Safari 3.2'
p209
(dp210
S'total_runs'
p211
L561L
sS'score'
p212
I6
sS'results'
p213
(dp214
S'maxconn'
p215
(dp216
g212
I10
sS'median'
p217
L60L
sS'display'
p218
S'60'
p219
ssS'parscript'
p220
(dp221
g212
I1
sg217
L0L
sg218
S'no'
p222
ssS'parcssjs'
p223
(dp224
g212
I1
sg217
L0L
sg218
g222
ssS'cacheresredir'
p225
(dp226
g212
I10
sg217
L1L
sg218
S'yes'
p227
ssS'cacheexp'
p228
(dp229
g212
I10
sg217
L1L
sg218
g227
ssS'gzip'
p230
(dp231
g212
I10
sg217
L1L
sg218
g227
ssS'prefetch'
p232
(dp233
g212
I1
sg217
L0L
sg218
g222
ssS'cacheredir'
p234
(dp235
g212
I1
sg217
L0L
sg218
g222
ssS'parsheet'
p236
(dp237
g212
I10
sg217
L1L
sg218
g227
ssS'du'
p238
(dp239
g212
I10
sg217
L1L
sg218
g227
ssS'hostconn'
p240
(dp241
g212
I10
sg217
L4L
sg218
g34
sssg218
S'7/11'
p242
ssS'Safari 4.0'
p243
(dp244
S'total_runs'
p245
L430L
sS'score'
p246
I7
sS'results'
p247
(dp248
S'maxconn'
p249
(dp250
g246
I10
sS'median'
p251
L60L
sS'display'
p252
S'60'
p253
ssS'parscript'
p254
(dp255
g246
I10
sg251
L1L
sg252
S'yes'
p256
ssS'parcssjs'
p257
(dp258
g246
I1
sg251
L0L
sg252
S'no'
p259
ssS'cacheresredir'
p260
(dp261
g246
I10
sg251
L1L
sg252
g256
ssS'cacheexp'
p262
(dp263
g246
I10
sg251
L1L
sg252
g256
ssS'gzip'
p264
(dp265
g246
I10
sg251
L1L
sg252
g256
ssS'prefetch'
p266
(dp267
g246
I1
sg251
L0L
sg252
g259
ssS'cacheredir'
p268
(dp269
g246
I1
sg251
L0L
sg252
g259
ssS'parsheet'
p270
(dp271
g246
I10
sg251
L1L
sg252
g256
ssS'du'
p272
(dp273
g246
I10
sg251
L1L
sg252
g256
ssS'hostconn'
p274
(dp275
g246
I10
sg251
L4L
sg252
g34
sssg252
S'8/11'
p276
ssS'IE 8'
p277
(dp278
S'total_runs'
p279
L345L
sS'score'
p280
I6
sS'results'
p281
(dp282
S'maxconn'
p283
(dp284
g280
I10
sS'median'
p285
L60L
sS'display'
p286
S'60'
p287
ssS'parscript'
p288
(dp289
g280
I10
sg285
L1L
sg286
S'yes'
p290
ssS'parcssjs'
p291
(dp292
g280
I1
sg285
L0L
sg286
S'no'
p293
ssS'cacheresredir'
p294
(dp295
g280
I1
sg285
L0L
sg286
g293
ssS'cacheexp'
p296
(dp297
g280
I10
sg285
L1L
sg286
g290
ssS'gzip'
p298
(dp299
g280
I10
sg285
L1L
sg286
g290
ssS'prefetch'
p300
(dp301
g280
I1
sg285
L0L
sg286
g293
ssS'cacheredir'
p302
(dp303
g280
I1
sg285
L0L
sg286
g293
ssS'parsheet'
p304
(dp305
g280
I10
sg285
L1L
sg286
g290
ssS'du'
p306
(dp307
g280
I10
sg285
L1L
sg286
g290
ssS'hostconn'
p308
(dp309
g280
I10
sg285
L6L
sg286
g69
sssg286
S'7/11'
p310
ssS'Opera 10'
p311
(dp312
S'total_runs'
p313
L1265L
sS'score'
p314
I6
sS'results'
p315
(dp316
S'maxconn'
p317
(dp318
g314
I10
sS'median'
p319
L49L
sS'display'
p320
S'49'
p321
ssS'parscript'
p322
(dp323
g314
I1
sg319
L0L
sg320
S'no'
p324
ssS'parcssjs'
p325
(dp326
g314
I1
sg319
L0L
sg320
g324
ssS'cacheresredir'
p327
(dp328
g314
I10
sg319
L1L
sg320
S'yes'
p329
ssS'cacheexp'
p330
(dp331
g314
I10
sg319
L1L
sg320
g329
ssS'gzip'
p332
(dp333
g314
I10
sg319
L1L
sg320
g329
ssS'prefetch'
p334
(dp335
g314
I1
sg319
L0L
sg320
g324
ssS'cacheredir'
p336
(dp337
g314
I1
sg319
L0L
sg320
g324
ssS'parsheet'
p338
(dp339
g314
I10
sg319
L1L
sg320
g329
ssS'du'
p340
(dp341
g314
I10
sg319
L1L
sg320
g329
ssS'hostconn'
p342
(dp343
g314
I10
sg319
L8L
sg320
g172
sssg320
S'7/11'
p344
ssS'iPhone 2.2'
p345
(dp346
S'total_runs'
p347
L89L
sS'score'
p348
I7
sS'results'
p349
(dp350
S'maxconn'
p351
(dp352
g348
I10
sS'median'
p353
L60L
sS'display'
p354
S'60'
p355
ssS'parscript'
p356
(dp357
g348
I10
sg353
L1L
sg354
S'yes'
p358
ssS'parcssjs'
p359
(dp360
g348
I1
sg353
L0L
sg354
S'no'
p361
ssS'cacheresredir'
p362
(dp363
g348
I10
sg353
L1L
sg354
g358
ssS'cacheexp'
p364
(dp365
g348
I10
sg353
L1L
sg354
g358
ssS'gzip'
p366
(dp367
g348
I10
sg353
L1L
sg354
g358
ssS'prefetch'
p368
(dp369
g348
I1
sg353
L0L
sg354
g361
ssS'cacheredir'
p370
(dp371
g348
I1
sg353
L0L
sg354
g361
ssS'parsheet'
p372
(dp373
g348
I10
sg353
L1L
sg354
g358
ssS'du'
p374
(dp375
g348
I10
sg353
L1L
sg354
g358
ssS'hostconn'
p376
(dp377
g348
I10
sg353
L4L
sg354
g34
sssg354
S'8/11'
p378
ssS'Firefox 3.0'
p379
(dp380
S'total_runs'
p381
L5563L
sS'score'
p382
I6
sS'results'
p383
(dp384
S'maxconn'
p385
(dp386
g382
I10
sS'median'
p387
L30L
sS'display'
p388
S'30'
p389
ssS'parscript'
p390
(dp391
g382
I1
sg387
L0L
sg388
S'no'
p392
ssS'parcssjs'
p393
(dp394
g382
I1
sg387
L0L
sg388
g392
ssS'cacheresredir'
p395
(dp396
g382
I1
sg387
L0L
sg388
g392
ssS'cacheexp'
p397
(dp398
g382
I10
sg387
L1L
sg388
S'yes'
p399
ssS'gzip'
p400
(dp401
g382
I10
sg387
L1L
sg388
g399
ssS'prefetch'
p402
(dp403
g382
I10
sg387
L1L
sg388
g399
ssS'cacheredir'
p404
(dp405
g382
I1
sg387
L0L
sg388
g392
ssS'parsheet'
p406
(dp407
g382
I10
sg387
L1L
sg388
g399
ssS'du'
p408
(dp409
g382
I10
sg387
L1L
sg388
g399
ssS'hostconn'
p410
(dp411
g382
I10
sg387
L6L
sg388
g69
sssg388
S'7/11'
p412
ssS'Firefox 3.5'
p413
(dp414
S'total_runs'
p415
L1057L
sS'score'
p416
I9
sS'results'
p417
(dp418
S'maxconn'
p419
(dp420
g416
I10
sS'median'
p421
L30L
sS'display'
p422
S'30'
p423
ssS'parscript'
p424
(dp425
g416
I10
sg421
L1L
sg422
S'yes'
p426
ssS'parcssjs'
p427
(dp428
g416
I1
sg421
L0L
sg422
S'no'
p429
ssS'cacheresredir'
p430
(dp431
g416
I10
sg421
L1L
sg422
g426
ssS'cacheexp'
p432
(dp433
g416
I10
sg421
L1L
sg422
g426
ssS'gzip'
p434
(dp435
g416
I10
sg421
L1L
sg422
g426
ssS'prefetch'
p436
(dp437
g416
I10
sg421
L1L
sg422
g426
ssS'cacheredir'
p438
(dp439
g416
I10
sg421
L1L
sg422
g426
ssS'parsheet'
p440
(dp441
g416
I10
sg421
L1L
sg422
g426
ssS'du'
p442
(dp443
g416
I10
sg421
L1L
sg422
g426
ssS'hostconn'
p444
(dp445
g416
I10
sg421
L6L
sg422
g69
sssg422
S'10/11'
p446
ssS'IE 7'
p447
(dp448
S'total_runs'
p449
L660L
sS'score'
p450
I4
sS'results'
p451
(dp452
S'maxconn'
p453
(dp454
g450
I10
sS'median'
p455
L60L
sS'display'
p456
S'60'
p457
ssS'parscript'
p458
(dp459
g450
I1
sg455
L0L
sg456
S'no'
p460
ssS'parcssjs'
p461
(dp462
g450
I1
sg455
L0L
sg456
g460
ssS'cacheresredir'
p463
(dp464
g450
I1
sg455
L0L
sg456
g460
ssS'cacheexp'
p465
(dp466
g450
I10
sg455
L1L
sg456
S'yes'
p467
ssS'gzip'
p468
(dp469
g450
I10
sg455
L1L
sg456
g467
ssS'prefetch'
p470
(dp471
g450
I1
sg455
L0L
sg456
g460
ssS'cacheredir'
p472
(dp473
g450
I1
sg455
L0L
sg456
g460
ssS'parsheet'
p474
(dp475
g450
I10
sg455
L1L
sg456
g467
ssS'du'
p476
(dp477
g450
I1
sg455
L0L
sg456
g460
ssS'hostconn'
p478
(dp479
g450
I5
sg455
L2L
sg456
g207
sssg456
S'4/11'
p480
ss.