(dp0
S'Netscape 7'
p1
(dp2
S'total_runs'
p3
L2L
sS'score'
p4
I5
sS'results'
p5
(dp6
S'maxconn'
p7
(dp8
g4
I10
sS'median'
p9
L24L
sS'display'
p10
S'24'
p11
ssS'parscript'
p12
(dp13
g4
I1
sg9
L0L
sg10
S'no'
p14
ssS'parcssjs'
p15
(dp16
g4
I1
sg9
L0L
sg10
g14
ssS'cacheresredir'
p17
(dp18
g4
I10
sg9
L1L
sg10
S'yes'
p19
ssS'cacheexp'
p20
(dp21
g4
I10
sg9
L1L
sg10
g19
ssS'gzip'
p22
(dp23
g4
I10
sg9
L1L
sg10
g19
ssS'prefetch'
p24
(dp25
g4
I10
sg9
L1L
sg10
g19
ssS'cacheredir'
p26
(dp27
g4
I1
sg9
L0L
sg10
g14
ssS'parsheet'
p28
(dp29
g4
I1
sg9
L0L
sg10
g14
ssS'du'
p30
(dp31
g4
I10
sg9
L1L
sg10
g19
ssS'hostconn'
p32
(dp33
g4
I5
sg9
L2L
sg10
S'2'
p34
sssg10
S'6/11'
p35
ssS'Netscape 6'
p36
(dp37
S'total_runs'
p38
L1L
sS'score'
p39
I4
sS'results'
p40
(dp41
S'maxconn'
p42
(dp43
g39
I5
sS'median'
p44
L16L
sS'display'
p45
S'16'
p46
ssS'parscript'
p47
(dp48
g39
I1
sg44
L0L
sg45
S'no'
p49
ssS'parcssjs'
p50
(dp51
g39
I1
sg44
L0L
sg45
g49
ssS'cacheresredir'
p52
(dp53
g39
I10
sg44
L1L
sg45
S'yes'
p54
ssS'cacheexp'
p55
(dp56
g39
I10
sg44
L1L
sg45
g54
ssS'gzip'
p57
(dp58
g39
I10
sg44
L1L
sg45
g54
ssS'prefetch'
p59
(dp60
g39
I1
sg44
L0L
sg45
g49
ssS'cacheredir'
p61
(dp62
g39
I1
sg44
L0L
sg45
g49
ssS'parsheet'
p63
(dp64
g39
I1
sg44
L0L
sg45
g49
ssS'du'
p65
(dp66
g39
I10
sg44
L1L
sg45
g54
ssS'hostconn'
p67
(dp68
g39
I10
sg44
L8L
sg45
S'8'
p69
sssg45
S'5/11'
p70
ssS'Nokia 78'
p71
(dp72
S'total_runs'
p73
L1L
sS'score'
p74
I5
sS'results'
p75
(dp76
S'maxconn'
p77
(dp78
g74
I0
sS'median'
p79
L7L
sS'display'
p80
S'7'
p81
ssS'parscript'
p82
(dp83
g74
I10
sg79
L1L
sg80
S'yes'
p84
ssS'parcssjs'
p85
(dp86
g74
I1
sg79
L0L
sg80
S'no'
p87
ssS'cacheresredir'
p88
(dp89
g74
I1
sg79
L0L
sg80
g87
ssS'cacheexp'
p90
(dp91
g74
I10
sg79
L1L
sg80
g84
ssS'gzip'
p92
(dp93
g74
I10
sg79
L1L
sg80
g84
ssS'prefetch'
p94
(dp95
g74
I1
sg79
L0L
sg80
g87
ssS'cacheredir'
p96
(dp97
g74
I1
sg79
L0L
sg80
g87
ssS'parsheet'
p98
(dp99
g74
I10
sg79
L1L
sg80
g84
ssS'du'
p100
(dp101
g74
I10
sg79
L1L
sg80
g84
ssS'hostconn'
p102
(dp103
g74
I10
sg79
L7L
sg80
g81
sssg80
S'6/11'
p104
ssS'Blackberry 8330'
p105
(dp106
S'total_runs'
p107
L1L
sS'score'
p108
I5
sS'results'
p109
(dp110
S'maxconn'
p111
(dp112
g108
I0
sS'median'
p113
L8L
sS'display'
p114
g69
ssS'parscript'
p115
(dp116
g108
I10
sg113
L1L
sg114
S'yes'
p117
ssS'parcssjs'
p118
(dp119
g108
I1
sg113
L0L
sg114
S'no'
p120
ssS'cacheresredir'
p121
(dp122
g108
I10
sg113
L1L
sg114
g117
ssS'cacheexp'
p123
(dp124
g108
I10
sg113
L1L
sg114
g117
ssS'gzip'
p125
(dp126
g108
I1
sg113
L0L
sg114
g120
ssS'prefetch'
p127
(dp128
g108
I10
sg113
L1L
sg114
g117
ssS'cacheredir'
p129
(dp130
g108
I1
sg113
L0L
sg114
g120
ssS'parsheet'
p131
(dp132
g108
I10
sg113
L1L
sg114
g117
ssS'du'
p133
(dp134
g108
I1
sg113
L0L
sg114
g120
ssS'hostconn'
p135
(dp136
g108
I10
sg113
L8L
sg114
g69
sssg114
S'6/11'
p137
ssS'Maxthon 0'
p138
(dp139
S'total_runs'
p140
L12L
sS'score'
p141
I3
sS'results'
p142
(dp143
S'maxconn'
p144
(dp145
g141
I0
sS'median'
p146
L9L
sS'display'
p147
S'9'
p148
ssS'parscript'
p149
(dp150
g141
I1
sg146
L0L
sg147
S'no'
p151
ssS'parcssjs'
p152
(dp153
g141
I1
sg146
L0L
sg147
g151
ssS'cacheresredir'
p154
(dp155
g141
I1
sg146
L0L
sg147
g151
ssS'cacheexp'
p156
(dp157
g141
I10
sg146
L1L
sg147
S'yes'
p158
ssS'gzip'
p159
(dp160
g141
I10
sg146
L1L
sg147
g158
ssS'prefetch'
p161
(dp162
g141
I1
sg146
L0L
sg147
g151
ssS'cacheredir'
p163
(dp164
g141
I1
sg146
L0L
sg147
g151
ssS'parsheet'
p165
(dp166
g141
I10
sg146
L1L
sg147
g158
ssS'du'
p167
(dp168
g141
I1
sg146
L0L
sg147
g151
ssS'hostconn'
p169
(dp170
g141
I10
sg146
L9L
sg147
g148
sssg147
S'4/11'
p171
ssS'Blackberry 8130'
p172
(dp173
S'total_runs'
p174
L1L
sS'score'
p175
I5
sS'results'
p176
(dp177
S'maxconn'
p178
(dp179
g175
I0
sS'median'
p180
L4L
sS'display'
p181
S'4'
p182
ssS'parscript'
p183
(dp184
g175
I10
sg180
L1L
sg181
S'yes'
p185
ssS'parcssjs'
p186
(dp187
g175
I1
sg180
L0L
sg181
S'no'
p188
ssS'cacheresredir'
p189
(dp190
g175
I10
sg180
L1L
sg181
g185
ssS'cacheexp'
p191
(dp192
g175
I10
sg180
L1L
sg181
g185
ssS'gzip'
p193
(dp194
g175
I1
sg180
L0L
sg181
g188
ssS'prefetch'
p195
(dp196
g175
I10
sg180
L1L
sg181
g185
ssS'cacheredir'
p197
(dp198
g175
I1
sg180
L0L
sg181
g188
ssS'parsheet'
p199
(dp200
g175
I10
sg180
L1L
sg181
g185
ssS'du'
p201
(dp202
g175
I1
sg180
L0L
sg181
g188
ssS'hostconn'
p203
(dp204
g175
I10
sg180
L4L
sg181
g182
sssg181
S'6/11'
p205
ssS'Maxthon 3'
p206
(dp207
S'total_runs'
p208
L9L
sS'score'
p209
I8
sS'results'
p210
(dp211
S'maxconn'
p212
(dp213
g209
I10
sS'median'
p214
L60L
sS'display'
p215
S'60'
p216
ssS'parscript'
p217
(dp218
g209
I10
sg214
L1L
sg215
S'yes'
p219
ssS'parcssjs'
p220
(dp221
g209
I1
sg214
L0L
sg215
S'no'
p222
ssS'cacheresredir'
p223
(dp224
g209
I10
sg214
L1L
sg215
g219
ssS'cacheexp'
p225
(dp226
g209
I10
sg214
L1L
sg215
g219
ssS'gzip'
p227
(dp228
g209
I10
sg214
L1L
sg215
g219
ssS'prefetch'
p229
(dp230
g209
I1
sg214
L0L
sg215
g222
ssS'cacheredir'
p231
(dp232
g209
I10
sg214
L1L
sg215
g219
ssS'parsheet'
p233
(dp234
g209
I10
sg214
L1L
sg215
g219
ssS'du'
p235
(dp236
g209
I10
sg214
L1L
sg215
g219
ssS'hostconn'
p237
(dp238
g209
I10
sg214
L6L
sg215
S'6'
p239
sssg215
S'9/11'
p240
ssS'Netscape 9'
p241
(dp242
S'total_runs'
p243
L10L
sS'score'
p244
I5
sS'results'
p245
(dp246
S'maxconn'
p247
(dp248
g244
I10
sS'median'
p249
L24L
sS'display'
p250
S'24'
p251
ssS'parscript'
p252
(dp253
g244
I1
sg249
L0L
sg250
S'no'
p254
ssS'parcssjs'
p255
(dp256
g244
I1
sg249
L0L
sg250
g254
ssS'cacheresredir'
p257
(dp258
g244
I10
sg249
L1L
sg250
S'yes'
p259
ssS'cacheexp'
p260
(dp261
g244
I10
sg249
L1L
sg250
g259
ssS'gzip'
p262
(dp263
g244
I10
sg249
L1L
sg250
g259
ssS'prefetch'
p264
(dp265
g244
I1
sg249
L0L
sg250
g254
ssS'cacheredir'
p266
(dp267
g244
I10
sg249
L1L
sg250
g259
ssS'parsheet'
p268
(dp269
g244
I1
sg249
L0L
sg250
g254
ssS'du'
p270
(dp271
g244
I10
sg249
L1L
sg250
g259
ssS'hostconn'
p272
(dp273
g244
I5
sg249
L2L
sg250
g34
sssg250
S'6/11'
p274
ssS'Netscape 8'
p275
(dp276
S'total_runs'
p277
L3L
sS'score'
p278
I5
sS'results'
p279
(dp280
S'maxconn'
p281
(dp282
g278
I10
sS'median'
p283
L24L
sS'display'
p284
S'24'
p285
ssS'parscript'
p286
(dp287
g278
I1
sg283
L0L
sg284
S'no'
p288
ssS'parcssjs'
p289
(dp290
g278
I1
sg283
L0L
sg284
g288
ssS'cacheresredir'
p291
(dp292
g278
I10
sg283
L1L
sg284
S'yes'
p293
ssS'cacheexp'
p294
(dp295
g278
I10
sg283
L1L
sg284
g293
ssS'gzip'
p296
(dp297
g278
I10
sg283
L1L
sg284
g293
ssS'prefetch'
p298
(dp299
g278
I10
sg283
L1L
sg284
g293
ssS'cacheredir'
p300
(dp301
g278
I1
sg283
L0L
sg284
g288
ssS'parsheet'
p302
(dp303
g278
I1
sg283
L0L
sg284
g288
ssS'du'
p304
(dp305
g278
I10
sg283
L1L
sg284
g293
ssS'hostconn'
p306
(dp307
g278
I5
sg283
L2L
sg284
g34
sssg284
S'6/11'
p308
ssS'Blackberry 8520'
p309
(dp310
S'total_runs'
p311
L1L
sS'score'
p312
I7
sS'results'
p313
(dp314
S'maxconn'
p315
(dp316
g312
I0
sS'median'
p317
L1L
sS'display'
p318
S'1'
p319
ssS'parscript'
p320
(dp321
g312
I10
sg317
L1L
sg318
S'yes'
p322
ssS'parcssjs'
p323
(dp324
g312
I1
sg317
L0L
sg318
S'no'
p325
ssS'cacheresredir'
p326
(dp327
g312
I10
sg317
L1L
sg318
g322
ssS'cacheexp'
p328
(dp329
g312
I10
sg317
L1L
sg318
g322
ssS'gzip'
p330
(dp331
g312
I1
sg317
L0L
sg318
g325
ssS'prefetch'
p332
(dp333
g312
I10
sg317
L1L
sg318
g322
ssS'cacheredir'
p334
(dp335
g312
I10
sg317
L1L
sg318
g322
ssS'parsheet'
p336
(dp337
g312
I10
sg317
L1L
sg318
g322
ssS'du'
p338
(dp339
g312
I10
sg317
L1L
sg318
g322
ssS'hostconn'
p340
(dp341
g312
I10
sg317
L4L
sg318
g182
sssg318
S'8/11'
p342
ssS'IE 8'
p343
(dp344
S'total_runs'
p345
L345L
sS'score'
p346
I6
sS'results'
p347
(dp348
S'maxconn'
p349
(dp350
g346
I10
sS'median'
p351
L60L
sS'display'
p352
S'60'
p353
ssS'parscript'
p354
(dp355
g346
I10
sg351
L1L
sg352
S'yes'
p356
ssS'parcssjs'
p357
(dp358
g346
I1
sg351
L0L
sg352
S'no'
p359
ssS'cacheresredir'
p360
(dp361
g346
I1
sg351
L0L
sg352
g359
ssS'cacheexp'
p362
(dp363
g346
I10
sg351
L1L
sg352
g356
ssS'gzip'
p364
(dp365
g346
I10
sg351
L1L
sg352
g356
ssS'prefetch'
p366
(dp367
g346
I1
sg351
L0L
sg352
g359
ssS'cacheredir'
p368
(dp369
g346
I1
sg351
L0L
sg352
g359
ssS'parsheet'
p370
(dp371
g346
I10
sg351
L1L
sg352
g356
ssS'du'
p372
(dp373
g346
I10
sg351
L1L
sg352
g356
ssS'hostconn'
p374
(dp375
g346
I10
sg351
L6L
sg352
g239
sssg352
S'7/11'
p376
ssS'IE 9'
p377
(dp378
S'total_runs'
p379
L1L
sS'score'
p380
I3
sS'results'
p381
(dp382
S'maxconn'
p383
(dp384
g380
I10
sS'median'
p385
L60L
sS'display'
p386
S'60'
p387
ssS'parscript'
p388
(dp389
g380
I1
sg385
L0L
sg386
S'no'
p390
ssS'parcssjs'
p391
(dp392
g380
I1
sg385
L0L
sg386
g390
ssS'cacheresredir'
p393
(dp394
g380
I1
sg385
L0L
sg386
g390
ssS'cacheexp'
p395
(dp396
g380
I10
sg385
L1L
sg386
S'yes'
p397
ssS'gzip'
p398
(dp399
g380
I10
sg385
L1L
sg386
g397
ssS'prefetch'
p400
(dp401
g380
I1
sg385
L0L
sg386
g390
ssS'cacheredir'
p402
(dp403
g380
I1
sg385
L0L
sg386
g390
ssS'parsheet'
p404
(dp405
g380
I1
sg385
L0L
sg386
g390
ssS'du'
p406
(dp407
g380
I1
sg385
L0L
sg386
g390
ssS'hostconn'
p408
(dp409
g380
I10
sg385
L8L
sg386
g69
sssg386
S'4/11'
p410
ssS'PlayStation 3'
p411
(dp412
S'total_runs'
p413
L5L
sS'score'
p414
I3
sS'results'
p415
(dp416
S'maxconn'
p417
(dp418
g414
I0
sS'median'
p419
L4L
sS'display'
p420
g182
ssS'parscript'
p421
(dp422
g414
I1
sg419
L0L
sg420
S'no'
p423
ssS'parcssjs'
p424
(dp425
g414
I1
sg419
L0L
sg420
g423
ssS'cacheresredir'
p426
(dp427
g414
I1
sg419
L0L
sg420
g423
ssS'cacheexp'
p428
(dp429
g414
I10
sg419
L1L
sg420
S'yes'
p430
ssS'gzip'
p431
(dp432
g414
I1
sg419
L0L
sg420
g423
ssS'prefetch'
p433
(dp434
g414
I1
sg419
L0L
sg420
g423
ssS'cacheredir'
p435
(dp436
g414
I10
sg419
L1L
sg420
g430
ssS'parsheet'
p437
(dp438
g414
I1
sg419
L0L
sg420
g423
ssS'du'
p439
(dp440
g414
I10
sg419
L1L
sg420
g430
ssS'hostconn'
p441
(dp442
g414
I10
sg419
L4L
sg420
g182
sssg420
S'4/11'
p443
ssS'Palm Blazer 4'
p444
(dp445
S'total_runs'
p446
L1L
sS'score'
p447
I2
sS'results'
p448
(dp449
S'maxconn'
p450
(dp451
g447
I0
sS'median'
p452
L0L
sS'display'
p453
S'0'
p454
ssS'parscript'
p455
(dp456
g447
I1
sg452
L0L
sg453
S'no'
p457
ssS'parcssjs'
p458
(dp459
g447
I1
sg452
L0L
sg453
g457
ssS'cacheresredir'
p460
(dp461
g447
I1
sg452
L0L
sg453
g457
ssS'cacheexp'
p462
(dp463
g447
I1
sg452
L0L
sg453
g457
ssS'gzip'
p464
(dp465
g447
I10
sg452
L1L
sg453
S'yes'
p466
ssS'prefetch'
p467
(dp468
g447
I1
sg452
L0L
sg453
g457
ssS'cacheredir'
p469
(dp470
g447
I10
sg452
L1L
sg453
g466
ssS'parsheet'
p471
(dp472
g447
I1
sg452
L0L
sg453
g457
ssS'du'
p473
(dp474
g447
I0
sg452
Nsg453
S''
p475
ssS'hostconn'
p476
(dp477
g447
I0
sg452
L0L
sg453
g454
sssg453
S'2/11'
p478
ssS'IE 6'
p479
(dp480
S'total_runs'
p481
L307L
sS'score'
p482
I4
sS'results'
p483
(dp484
S'maxconn'
p485
(dp486
g482
I10
sS'median'
p487
L54L
sS'display'
p488
S'54'
p489
ssS'parscript'
p490
(dp491
g482
I1
sg487
L0L
sg488
S'no'
p492
ssS'parcssjs'
p493
(dp494
g482
I1
sg487
L0L
sg488
g492
ssS'cacheresredir'
p495
(dp496
g482
I1
sg487
L0L
sg488
g492
ssS'cacheexp'
p497
(dp498
g482
I10
sg487
L1L
sg488
S'yes'
p499
ssS'gzip'
p500
(dp501
g482
I10
sg487
L1L
sg488
g499
ssS'prefetch'
p502
(dp503
g482
I1
sg487
L0L
sg488
g492
ssS'cacheredir'
p504
(dp505
g482
I1
sg487
L0L
sg488
g492
ssS'parsheet'
p506
(dp507
g482
I10
sg487
L1L
sg488
g499
ssS'du'
p508
(dp509
g482
I1
sg487
L0L
sg488
g492
ssS'hostconn'
p510
(dp511
g482
I5
sg487
L2L
sg488
g34
sssg488
S'4/11'
p512
ssS'IE 7'
p513
(dp514
S'total_runs'
p515
L660L
sS'score'
p516
I4
sS'results'
p517
(dp518
S'maxconn'
p519
(dp520
g516
I10
sS'median'
p521
L60L
sS'display'
p522
S'60'
p523
ssS'parscript'
p524
(dp525
g516
I1
sg521
L0L
sg522
S'no'
p526
ssS'parcssjs'
p527
(dp528
g516
I1
sg521
L0L
sg522
g526
ssS'cacheresredir'
p529
(dp530
g516
I1
sg521
L0L
sg522
g526
ssS'cacheexp'
p531
(dp532
g516
I10
sg521
L1L
sg522
S'yes'
p533
ssS'gzip'
p534
(dp535
g516
I10
sg521
L1L
sg522
g533
ssS'prefetch'
p536
(dp537
g516
I1
sg521
L0L
sg522
g526
ssS'cacheredir'
p538
(dp539
g516
I1
sg521
L0L
sg522
g526
ssS'parsheet'
p540
(dp541
g516
I10
sg521
L1L
sg522
g533
ssS'du'
p542
(dp543
g516
I1
sg521
L0L
sg522
g526
ssS'hostconn'
p544
(dp545
g516
I5
sg521
L2L
sg522
g34
sssg522
S'4/11'
p546
ssS'IE 4'
p547
(dp548
S'total_runs'
p549
L3L
sS'score'
p550
I0
sS'results'
p551
(dp552
S'maxconn'
p553
(dp554
g550
I0
sS'median'
p555
L0L
sS'display'
p556
g454
ssS'parscript'
p557
(dp558
g550
I1
sg555
L0L
sg556
S'no'
p559
ssS'parcssjs'
p560
(dp561
g550
I1
sg555
L0L
sg556
g559
ssS'cacheresredir'
p562
(dp563
g550
I1
sg555
L0L
sg556
g559
ssS'cacheexp'
p564
(dp565
g550
I1
sg555
L0L
sg556
g559
ssS'gzip'
p566
(dp567
g550
I1
sg555
L0L
sg556
g559
ssS'prefetch'
p568
(dp569
g550
I1
sg555
L0L
sg556
g559
ssS'cacheredir'
p570
(dp571
g550
I1
sg555
L0L
sg556
g559
ssS'parsheet'
p572
(dp573
g550
I1
sg555
L0L
sg556
g559
ssS'du'
p574
(dp575
g550
I1
sg555
L0L
sg556
g559
ssS'hostconn'
p576
(dp577
g550
I0
sg555
L0L
sg556
g454
sssg556
S'0/11'
p578
ssS'IE 5'
p579
(dp580
S'total_runs'
p581
L36L
sS'score'
p582
I3
sS'results'
p583
(dp584
S'maxconn'
p585
(dp586
g582
I10
sS'median'
p587
L60L
sS'display'
p588
S'60'
p589
ssS'parscript'
p590
(dp591
g582
I1
sg587
L0L
sg588
S'no'
p592
ssS'parcssjs'
p593
(dp594
g582
I1
sg587
L0L
sg588
g592
ssS'cacheresredir'
p595
(dp596
g582
I1
sg587
L0L
sg588
g592
ssS'cacheexp'
p597
(dp598
g582
I10
sg587
L1L
sg588
S'yes'
p599
ssS'gzip'
p600
(dp601
g582
I10
sg587
L1L
sg588
g599
ssS'prefetch'
p602
(dp603
g582
I1
sg587
L0L
sg588
g592
ssS'cacheredir'
p604
(dp605
g582
I1
sg587
L0L
sg588
g592
ssS'parsheet'
p606
(dp607
g582
I10
sg587
L1L
sg588
g599
ssS'du'
p608
(dp609
g582
I1
sg587
L0L
sg588
g592
ssS'hostconn'
p610
(dp611
g582
I5
sg587
L2L
sg588
g34
sssg588
S'4/11'
p612
ssS'Firefox 2'
p613
(dp614
S'total_runs'
p615
L378L
sS'score'
p616
I6
sS'results'
p617
(dp618
S'maxconn'
p619
(dp620
g616
I10
sS'median'
p621
L24L
sS'display'
p622
S'24'
p623
ssS'parscript'
p624
(dp625
g616
I1
sg621
L0L
sg622
S'no'
p626
ssS'parcssjs'
p627
(dp628
g616
I1
sg621
L0L
sg622
g626
ssS'cacheresredir'
p629
(dp630
g616
I10
sg621
L1L
sg622
S'yes'
p631
ssS'cacheexp'
p632
(dp633
g616
I10
sg621
L1L
sg622
g631
ssS'gzip'
p634
(dp635
g616
I10
sg621
L1L
sg622
g631
ssS'prefetch'
p636
(dp637
g616
I10
sg621
L1L
sg622
g631
ssS'cacheredir'
p638
(dp639
g616
I10
sg621
L1L
sg622
g631
ssS'parsheet'
p640
(dp641
g616
I1
sg621
L0L
sg622
g626
ssS'du'
p642
(dp643
g616
I10
sg621
L1L
sg622
g631
ssS'hostconn'
p644
(dp645
g616
I5
sg621
L2L
sg622
g34
sssg622
S'7/11'
p646
ssS'Firefox 3'
p647
(dp648
S'total_runs'
p649
L7077L
sS'score'
p650
I7
sS'results'
p651
(dp652
S'maxconn'
p653
(dp654
g650
I10
sS'median'
p655
L30L
sS'display'
p656
S'30'
p657
ssS'parscript'
p658
(dp659
g650
I1
sg655
L0L
sg656
S'no'
p660
ssS'parcssjs'
p661
(dp662
g650
I1
sg655
L0L
sg656
g660
ssS'cacheresredir'
p663
(dp664
g650
I10
sg655
L1L
sg656
S'yes'
p665
ssS'cacheexp'
p666
(dp667
g650
I10
sg655
L1L
sg656
g665
ssS'gzip'
p668
(dp669
g650
I10
sg655
L1L
sg656
g665
ssS'prefetch'
p670
(dp671
g650
I10
sg655
L1L
sg656
g665
ssS'cacheredir'
p672
(dp673
g650
I1
sg655
L0L
sg656
g660
ssS'parsheet'
p674
(dp675
g650
I10
sg655
L1L
sg656
g665
ssS'du'
p676
(dp677
g650
I10
sg655
L1L
sg656
g665
ssS'hostconn'
p678
(dp679
g650
I10
sg655
L6L
sg656
g239
sssg656
S'8/11'
p680
ssS'Firefox 1'
p681
(dp682
S'total_runs'
p683
L23L
sS'score'
p684
I6
sS'results'
p685
(dp686
S'maxconn'
p687
(dp688
g684
I10
sS'median'
p689
L24L
sS'display'
p690
S'24'
p691
ssS'parscript'
p692
(dp693
g684
I1
sg689
L0L
sg690
S'no'
p694
ssS'parcssjs'
p695
(dp696
g684
I1
sg689
L0L
sg690
g694
ssS'cacheresredir'
p697
(dp698
g684
I10
sg689
L1L
sg690
S'yes'
p699
ssS'cacheexp'
p700
(dp701
g684
I10
sg689
L1L
sg690
g699
ssS'gzip'
p702
(dp703
g684
I10
sg689
L1L
sg690
g699
ssS'prefetch'
p704
(dp705
g684
I10
sg689
L1L
sg690
g699
ssS'cacheredir'
p706
(dp707
g684
I10
sg689
L1L
sg690
g699
ssS'parsheet'
p708
(dp709
g684
I1
sg689
L0L
sg690
g694
ssS'du'
p710
(dp711
g684
I10
sg689
L1L
sg690
g699
ssS'hostconn'
p712
(dp713
g684
I5
sg689
L2L
sg690
g34
sssg690
S'7/11'
p714
ssS'Nokia 95'
p715
(dp716
S'total_runs'
p717
L11L
sS'score'
p718
I3
sS'results'
p719
(dp720
S'maxconn'
p721
(dp722
g718
I0
sS'median'
p723
L5L
sS'display'
p724
S'5'
p725
ssS'parscript'
p726
(dp727
g718
I10
sg723
L1L
sg724
S'yes'
p728
ssS'parcssjs'
p729
(dp730
g718
I1
sg723
L0L
sg724
S'no'
p731
ssS'cacheresredir'
p732
(dp733
g718
I1
sg723
L0L
sg724
g731
ssS'cacheexp'
p734
(dp735
g718
I10
sg723
L1L
sg724
g728
ssS'gzip'
p736
(dp737
g718
I10
sg723
L1L
sg724
g728
ssS'prefetch'
p738
(dp739
g718
I1
sg723
L0L
sg724
g731
ssS'cacheredir'
p740
(dp741
g718
I1
sg723
L0L
sg724
g731
ssS'parsheet'
p742
(dp743
g718
I10
sg723
L1L
sg724
g728
ssS'du'
p744
(dp745
g718
I1
sg723
L0L
sg724
g731
ssS'hostconn'
p746
(dp747
g718
I0
sg723
L0L
sg724
g454
sssg724
S'4/11'
p748
ssS'Nokia 96'
p749
(dp750
S'total_runs'
p751
L1L
sS'score'
p752
I4
sS'results'
p753
(dp754
S'maxconn'
p755
(dp756
g752
I0
sS'median'
p757
L0L
sS'display'
p758
g454
ssS'parscript'
p759
(dp760
g752
I10
sg757
L1L
sg758
S'yes'
p761
ssS'parcssjs'
p762
(dp763
g752
I1
sg757
L0L
sg758
S'no'
p764
ssS'cacheresredir'
p765
(dp766
g752
I1
sg757
L0L
sg758
g764
ssS'cacheexp'
p767
(dp768
g752
I1
sg757
L0L
sg758
g764
ssS'gzip'
p769
(dp770
g752
I10
sg757
L1L
sg758
g761
ssS'prefetch'
p771
(dp772
g752
I1
sg757
L0L
sg758
g764
ssS'cacheredir'
p773
(dp774
g752
I1
sg757
L0L
sg758
g764
ssS'parsheet'
p775
(dp776
g752
I10
sg757
L1L
sg758
g761
ssS'du'
p777
(dp778
g752
I10
sg757
L1L
sg758
g761
ssS'hostconn'
p779
(dp780
g752
I10
sg757
L7L
sg758
g81
sssg758
S'5/11'
p781
ssS'IE Mobile 7'
p782
(dp783
S'total_runs'
p784
L1L
sS'score'
p785
I3
sS'results'
p786
(dp787
S'maxconn'
p788
(dp789
g785
I0
sS'median'
p790
L0L
sS'display'
p791
g454
ssS'parscript'
p792
(dp793
g785
I1
sg790
L0L
sg791
S'no'
p794
ssS'parcssjs'
p795
(dp796
g785
I1
sg790
L0L
sg791
g794
ssS'cacheresredir'
p797
(dp798
g785
I1
sg790
L0L
sg791
g794
ssS'cacheexp'
p799
(dp800
g785
I10
sg790
L1L
sg791
S'yes'
p801
ssS'gzip'
p802
(dp803
g785
I1
sg790
L0L
sg791
g794
ssS'prefetch'
p804
(dp805
g785
I10
sg790
L1L
sg791
g801
ssS'cacheredir'
p806
(dp807
g785
I1
sg790
L0L
sg791
g794
ssS'parsheet'
p808
(dp809
g785
I10
sg790
L1L
sg791
g801
ssS'du'
p810
(dp811
g785
I1
sg790
L0L
sg791
g794
ssS'hostconn'
p812
(dp813
g785
I0
sg790
L0L
sg791
g454
sssg791
S'3/11'
p814
ssS'Blackberry 9530'
p815
(dp816
S'total_runs'
p817
L3L
sS'score'
p818
I6
sS'results'
p819
(dp820
S'maxconn'
p821
(dp822
g818
I0
sS'median'
p823
L4L
sS'display'
p824
g182
ssS'parscript'
p825
(dp826
g818
I10
sg823
L1L
sg824
S'yes'
p827
ssS'parcssjs'
p828
(dp829
g818
I1
sg823
L0L
sg824
S'no'
p830
ssS'cacheresredir'
p831
(dp832
g818
I10
sg823
L1L
sg824
g827
ssS'cacheexp'
p833
(dp834
g818
I10
sg823
L1L
sg824
g827
ssS'gzip'
p835
(dp836
g818
I1
sg823
L0L
sg824
g830
ssS'prefetch'
p837
(dp838
g818
I10
sg823
L1L
sg824
g827
ssS'cacheredir'
p839
(dp840
g818
I10
sg823
L1L
sg824
g827
ssS'parsheet'
p841
(dp842
g818
I10
sg823
L1L
sg824
g827
ssS'du'
p843
(dp844
g818
I1
sg823
L0L
sg824
g830
ssS'hostconn'
p845
(dp846
g818
I10
sg823
L5L
sg824
g725
sssg824
S'7/11'
p847
ssS'Swiftfox 3'
p848
(dp849
S'total_runs'
p850
L7L
sS'score'
p851
I7
sS'results'
p852
(dp853
S'maxconn'
p854
(dp855
g851
I10
sS'median'
p856
L32L
sS'display'
p857
S'32'
p858
ssS'parscript'
p859
(dp860
g851
I1
sg856
L0L
sg857
S'no'
p861
ssS'parcssjs'
p862
(dp863
g851
I1
sg856
L0L
sg857
g861
ssS'cacheresredir'
p864
(dp865
g851
I10
sg856
L1L
sg857
S'yes'
p866
ssS'cacheexp'
p867
(dp868
g851
I10
sg856
L1L
sg857
g866
ssS'gzip'
p869
(dp870
g851
I10
sg856
L1L
sg857
g866
ssS'prefetch'
p871
(dp872
g851
I10
sg856
L1L
sg857
g866
ssS'cacheredir'
p873
(dp874
g851
I1
sg856
L0L
sg857
g861
ssS'parsheet'
p875
(dp876
g851
I10
sg856
L1L
sg857
g866
ssS'du'
p877
(dp878
g851
I10
sg856
L1L
sg857
g866
ssS'hostconn'
p879
(dp880
g851
I10
sg856
L6L
sg857
g239
sssg857
S'8/11'
p881
ssS'Maxthon 2'
p882
(dp883
S'total_runs'
p884
L36L
sS'score'
p885
I3
sS'results'
p886
(dp887
S'maxconn'
p888
(dp889
g885
I10
sS'median'
p890
L60L
sS'display'
p891
S'60'
p892
ssS'parscript'
p893
(dp894
g885
I1
sg890
L0L
sg891
S'no'
p895
ssS'parcssjs'
p896
(dp897
g885
I1
sg890
L0L
sg891
g895
ssS'cacheresredir'
p898
(dp899
g885
I1
sg890
L0L
sg891
g895
ssS'cacheexp'
p900
(dp901
g885
I10
sg890
L1L
sg891
S'yes'
p902
ssS'gzip'
p903
(dp904
g885
I10
sg890
L1L
sg891
g902
ssS'prefetch'
p905
(dp906
g885
I1
sg890
L0L
sg891
g895
ssS'cacheredir'
p907
(dp908
g885
I1
sg890
L0L
sg891
g895
ssS'parsheet'
p909
(dp910
g885
I1
sg890
L0L
sg891
g895
ssS'du'
p911
(dp912
g885
I1
sg890
L0L
sg891
g895
ssS'hostconn'
p913
(dp914
g885
I10
sg890
L6L
sg891
g239
sssg891
S'4/11'
p915
ssS'Iceweasel 3'
p916
(dp917
S'total_runs'
p918
L94L
sS'score'
p919
I6
sS'results'
p920
(dp921
S'maxconn'
p922
(dp923
g919
I10
sS'median'
p924
L30L
sS'display'
p925
S'30'
p926
ssS'parscript'
p927
(dp928
g919
I1
sg924
L0L
sg925
S'no'
p929
ssS'parcssjs'
p930
(dp931
g919
I1
sg924
L0L
sg925
g929
ssS'cacheresredir'
p932
(dp933
g919
I1
sg924
L0L
sg925
g929
ssS'cacheexp'
p934
(dp935
g919
I10
sg924
L1L
sg925
S'yes'
p936
ssS'gzip'
p937
(dp938
g919
I10
sg924
L1L
sg925
g936
ssS'prefetch'
p939
(dp940
g919
I10
sg924
L1L
sg925
g936
ssS'cacheredir'
p941
(dp942
g919
I1
sg924
L0L
sg925
g929
ssS'parsheet'
p943
(dp944
g919
I10
sg924
L1L
sg925
g936
ssS'du'
p945
(dp946
g919
I10
sg924
L1L
sg925
g936
ssS'hostconn'
p947
(dp948
g919
I10
sg924
L6L
sg925
g239
sssg925
S'7/11'
p949
ssS'Iceweasel 2'
p950
(dp951
S'total_runs'
p952
L13L
sS'score'
p953
I6
sS'results'
p954
(dp955
S'maxconn'
p956
(dp957
g953
I10
sS'median'
p958
L23L
sS'display'
p959
S'23'
p960
ssS'parscript'
p961
(dp962
g953
I1
sg958
L0L
sg959
S'no'
p963
ssS'parcssjs'
p964
(dp965
g953
I1
sg958
L0L
sg959
g963
ssS'cacheresredir'
p966
(dp967
g953
I10
sg958
L1L
sg959
S'yes'
p968
ssS'cacheexp'
p969
(dp970
g953
I10
sg958
L1L
sg959
g968
ssS'gzip'
p971
(dp972
g953
I10
sg958
L1L
sg959
g968
ssS'prefetch'
p973
(dp974
g953
I10
sg958
L1L
sg959
g968
ssS'cacheredir'
p975
(dp976
g953
I10
sg958
L1L
sg959
g968
ssS'parsheet'
p977
(dp978
g953
I1
sg958
L0L
sg959
g963
ssS'du'
p979
(dp980
g953
I10
sg958
L1L
sg959
g968
ssS'hostconn'
p981
(dp982
g953
I5
sg958
L2L
sg959
g34
sssg959
S'7/11'
p983
ssS'Blackberry 9000'
p984
(dp985
S'total_runs'
p986
L5L
sS'score'
p987
I6
sS'results'
p988
(dp989
S'maxconn'
p990
(dp991
g987
I0
sS'median'
p992
L4L
sS'display'
p993
g182
ssS'parscript'
p994
(dp995
g987
I10
sg992
L1L
sg993
S'yes'
p996
ssS'parcssjs'
p997
(dp998
g987
I1
sg992
L0L
sg993
S'no'
p999
ssS'cacheresredir'
p1000
(dp1001
g987
I10
sg992
L1L
sg993
g996
ssS'cacheexp'
p1002
(dp1003
g987
I10
sg992
L1L
sg993
g996
ssS'gzip'
p1004
(dp1005
g987
I1
sg992
L0L
sg993
g999
ssS'prefetch'
p1006
(dp1007
g987
I10
sg992
L1L
sg993
g996
ssS'cacheredir'
p1008
(dp1009
g987
I10
sg992
L1L
sg993
g996
ssS'parsheet'
p1010
(dp1011
g987
I10
sg992
L1L
sg993
g996
ssS'du'
p1012
(dp1013
g987
I1
sg992
L0L
sg993
g999
ssS'hostconn'
p1014
(dp1015
g987
I10
sg992
L6L
sg993
g239
sssg993
S'7/11'
p1016
ssS'Opera Mini 3'
p1017
(dp1018
S'total_runs'
p1019
L5L
sS'score'
p1020
I5
sS'results'
p1021
(dp1022
S'maxconn'
p1023
(dp1024
g1020
I10
sS'median'
p1025
L60L
sS'display'
p1026
S'60'
p1027
ssS'parscript'
p1028
(dp1029
g1020
I1
sg1025
L0L
sg1026
S'no'
p1030
ssS'parcssjs'
p1031
(dp1032
g1020
I1
sg1025
L0L
sg1026
g1030
ssS'cacheresredir'
p1033
(dp1034
g1020
I1
sg1025
L0L
sg1026
g1030
ssS'cacheexp'
p1035
(dp1036
g1020
I10
sg1025
L1L
sg1026
S'yes'
p1037
ssS'gzip'
p1038
(dp1039
g1020
I10
sg1025
L1L
sg1026
g1037
ssS'prefetch'
p1040
(dp1041
g1020
I1
sg1025
L0L
sg1026
g1030
ssS'cacheredir'
p1042
(dp1043
g1020
I1
sg1025
L0L
sg1026
g1030
ssS'parsheet'
p1044
(dp1045
g1020
I10
sg1025
L1L
sg1026
g1037
ssS'du'
p1046
(dp1047
g1020
I10
sg1025
L1L
sg1026
g1037
ssS'hostconn'
p1048
(dp1049
g1020
I10
sg1025
L10L
sg1026
S'10'
p1050
sssg1026
S'6/11'
p1051
ssS'SeaMonkey 1'
p1052
(dp1053
S'total_runs'
p1054
L49L
sS'score'
p1055
I6
sS'results'
p1056
(dp1057
S'maxconn'
p1058
(dp1059
g1055
I10
sS'median'
p1060
L24L
sS'display'
p1061
S'24'
p1062
ssS'parscript'
p1063
(dp1064
g1055
I1
sg1060
L0L
sg1061
S'no'
p1065
ssS'parcssjs'
p1066
(dp1067
g1055
I1
sg1060
L0L
sg1061
g1065
ssS'cacheresredir'
p1068
(dp1069
g1055
I10
sg1060
L1L
sg1061
S'yes'
p1070
ssS'cacheexp'
p1071
(dp1072
g1055
I10
sg1060
L1L
sg1061
g1070
ssS'gzip'
p1073
(dp1074
g1055
I10
sg1060
L1L
sg1061
g1070
ssS'prefetch'
p1075
(dp1076
g1055
I10
sg1060
L1L
sg1061
g1070
ssS'cacheredir'
p1077
(dp1078
g1055
I10
sg1060
L1L
sg1061
g1070
ssS'parsheet'
p1079
(dp1080
g1055
I1
sg1060
L0L
sg1061
g1065
ssS'du'
p1081
(dp1082
g1055
I10
sg1060
L1L
sg1061
g1070
ssS'hostconn'
p1083
(dp1084
g1055
I5
sg1060
L2L
sg1061
g34
sssg1061
S'7/11'
p1085
ssS'Fennec 1'
p1086
(dp1087
S'total_runs'
p1088
L6L
sS'score'
p1089
I7
sS'results'
p1090
(dp1091
S'maxconn'
p1092
(dp1093
g1089
I0
sS'median'
p1094
L6L
sS'display'
p1095
g239
ssS'parscript'
p1096
(dp1097
g1089
I1
sg1094
L0L
sg1095
S'no'
p1098
ssS'parcssjs'
p1099
(dp1100
g1089
I1
sg1094
L0L
sg1095
g1098
ssS'cacheresredir'
p1101
(dp1102
g1089
I10
sg1094
L1L
sg1095
S'yes'
p1103
ssS'cacheexp'
p1104
(dp1105
g1089
I10
sg1094
L1L
sg1095
g1103
ssS'gzip'
p1106
(dp1107
g1089
I10
sg1094
L1L
sg1095
g1103
ssS'prefetch'
p1108
(dp1109
g1089
I10
sg1094
L1L
sg1095
g1103
ssS'cacheredir'
p1110
(dp1111
g1089
I10
sg1094
L1L
sg1095
g1103
ssS'parsheet'
p1112
(dp1113
g1089
I10
sg1094
L1L
sg1095
g1103
ssS'du'
p1114
(dp1115
g1089
I10
sg1094
L1L
sg1095
g1103
ssS'hostconn'
p1116
(dp1117
g1089
I10
sg1094
L4L
sg1095
g182
sssg1095
S'8/11'
p1118
ssS'Fennec 0'
p1119
(dp1120
S'total_runs'
p1121
L2L
sS'score'
p1122
I7
sS'results'
p1123
(dp1124
S'maxconn'
p1125
(dp1126
g1122
I0
sS'median'
p1127
L6L
sS'display'
p1128
g239
ssS'parscript'
p1129
(dp1130
g1122
I1
sg1127
L0L
sg1128
S'no'
p1131
ssS'parcssjs'
p1132
(dp1133
g1122
I1
sg1127
L0L
sg1128
g1131
ssS'cacheresredir'
p1134
(dp1135
g1122
I10
sg1127
L1L
sg1128
S'yes'
p1136
ssS'cacheexp'
p1137
(dp1138
g1122
I10
sg1127
L1L
sg1128
g1136
ssS'gzip'
p1139
(dp1140
g1122
I10
sg1127
L1L
sg1128
g1136
ssS'prefetch'
p1141
(dp1142
g1122
I10
sg1127
L1L
sg1128
g1136
ssS'cacheredir'
p1143
(dp1144
g1122
I10
sg1127
L1L
sg1128
g1136
ssS'parsheet'
p1145
(dp1146
g1122
I10
sg1127
L1L
sg1128
g1136
ssS'du'
p1147
(dp1148
g1122
I10
sg1127
L1L
sg1128
g1136
ssS'hostconn'
p1149
(dp1150
g1122
I10
sg1127
L4L
sg1128
g182
sssg1128
S'8/11'
p1151
ssS'Blackberry 8900'
p1152
(dp1153
S'total_runs'
p1154
L2L
sS'score'
p1155
I6
sS'results'
p1156
(dp1157
S'maxconn'
p1158
(dp1159
g1155
I5
sS'median'
p1160
L11L
sS'display'
p1161
S'11'
p1162
ssS'parscript'
p1163
(dp1164
g1155
I10
sg1160
L1L
sg1161
S'yes'
p1165
ssS'parcssjs'
p1166
(dp1167
g1155
I1
sg1160
L0L
sg1161
S'no'
p1168
ssS'cacheresredir'
p1169
(dp1170
g1155
I10
sg1160
L1L
sg1161
g1165
ssS'cacheexp'
p1171
(dp1172
g1155
I10
sg1160
L1L
sg1161
g1165
ssS'gzip'
p1173
(dp1174
g1155
I1
sg1160
L0L
sg1161
g1168
ssS'prefetch'
p1175
(dp1176
g1155
I10
sg1160
L1L
sg1161
g1165
ssS'cacheredir'
p1177
(dp1178
g1155
I10
sg1160
L1L
sg1161
g1165
ssS'parsheet'
p1179
(dp1180
g1155
I10
sg1160
L1L
sg1161
g1165
ssS'du'
p1181
(dp1182
g1155
I1
sg1160
L0L
sg1161
g1168
ssS'hostconn'
p1183
(dp1184
g1155
I10
sg1160
L12L
sg1161
S'12'
p1185
sssg1161
S'7/11'
p1186
ssS'Arora 0'
p1187
(dp1188
S'total_runs'
p1189
L4L
sS'score'
p1190
I6
sS'results'
p1191
(dp1192
S'maxconn'
p1193
(dp1194
g1190
I10
sS'median'
p1195
L60L
sS'display'
p1196
S'60'
p1197
ssS'parscript'
p1198
(dp1199
g1190
I10
sg1195
L1L
sg1196
S'yes'
p1200
ssS'parcssjs'
p1201
(dp1202
g1190
I1
sg1195
L0L
sg1196
S'no'
p1203
ssS'cacheresredir'
p1204
(dp1205
g1190
I10
sg1195
L1L
sg1196
g1200
ssS'cacheexp'
p1206
(dp1207
g1190
I10
sg1195
L1L
sg1196
g1200
ssS'gzip'
p1208
(dp1209
g1190
I10
sg1195
L1L
sg1196
g1200
ssS'prefetch'
p1210
(dp1211
g1190
I1
sg1195
L0L
sg1196
g1203
ssS'cacheredir'
p1212
(dp1213
g1190
I1
sg1195
L0L
sg1196
g1203
ssS'parsheet'
p1214
(dp1215
g1190
I10
sg1195
L1L
sg1196
g1200
ssS'du'
p1216
(dp1217
g1190
I10
sg1195
L1L
sg1196
g1200
ssS'hostconn'
p1218
(dp1219
g1190
I5
sg1195
L2L
sg1196
g34
sssg1196
S'7/11'
p1220
ssS'Avant 1'
p1221
(dp1222
S'total_runs'
p1223
L32L
sS'score'
p1224
I3
sS'results'
p1225
(dp1226
S'maxconn'
p1227
(dp1228
g1224
I10
sS'median'
p1229
L60L
sS'display'
p1230
S'60'
p1231
ssS'parscript'
p1232
(dp1233
g1224
I1
sg1229
L0L
sg1230
S'no'
p1234
ssS'parcssjs'
p1235
(dp1236
g1224
I1
sg1229
L0L
sg1230
g1234
ssS'cacheresredir'
p1237
(dp1238
g1224
I1
sg1229
L0L
sg1230
g1234
ssS'cacheexp'
p1239
(dp1240
g1224
I10
sg1229
L1L
sg1230
S'yes'
p1241
ssS'gzip'
p1242
(dp1243
g1224
I10
sg1229
L1L
sg1230
g1241
ssS'prefetch'
p1244
(dp1245
g1224
I1
sg1229
L0L
sg1230
g1234
ssS'cacheredir'
p1246
(dp1247
g1224
I1
sg1229
L0L
sg1230
g1234
ssS'parsheet'
p1248
(dp1249
g1224
I10
sg1229
L1L
sg1230
g1241
ssS'du'
p1250
(dp1251
g1224
I1
sg1229
L0L
sg1230
g1234
ssS'hostconn'
p1252
(dp1253
g1224
I5
sg1229
L2L
sg1230
g34
sssg1230
S'4/11'
p1254
ssS'MyIE2 0'
p1255
(dp1256
S'total_runs'
p1257
L7L
sS'score'
p1258
I6
sS'results'
p1259
(dp1260
S'maxconn'
p1261
(dp1262
g1258
I10
sS'median'
p1263
L60L
sS'display'
p1264
S'60'
p1265
ssS'parscript'
p1266
(dp1267
g1258
I10
sg1263
L1L
sg1264
S'yes'
p1268
ssS'parcssjs'
p1269
(dp1270
g1258
I1
sg1263
L0L
sg1264
S'no'
p1271
ssS'cacheresredir'
p1272
(dp1273
g1258
I1
sg1263
L0L
sg1264
g1271
ssS'cacheexp'
p1274
(dp1275
g1258
I10
sg1263
L1L
sg1264
g1268
ssS'gzip'
p1276
(dp1277
g1258
I10
sg1263
L1L
sg1264
g1268
ssS'prefetch'
p1278
(dp1279
g1258
I1
sg1263
L0L
sg1264
g1271
ssS'cacheredir'
p1280
(dp1281
g1258
I1
sg1263
L0L
sg1264
g1271
ssS'parsheet'
p1282
(dp1283
g1258
I10
sg1263
L1L
sg1264
g1268
ssS'du'
p1284
(dp1285
g1258
I10
sg1263
L1L
sg1264
g1268
ssS'hostconn'
p1286
(dp1287
g1258
I10
sg1263
L10L
sg1264
S'10'
p1288
sssg1264
S'7/11'
p1289
ssS'Opera Mini 4'
p1290
(dp1291
S'total_runs'
p1292
L40L
sS'score'
p1293
I4
sS'results'
p1294
(dp1295
S'maxconn'
p1296
(dp1297
g1293
I10
sS'median'
p1298
L60L
sS'display'
p1299
S'60'
p1300
ssS'parscript'
p1301
(dp1302
g1293
I1
sg1298
L0L
sg1299
S'no'
p1303
ssS'parcssjs'
p1304
(dp1305
g1293
I1
sg1298
L0L
sg1299
g1303
ssS'cacheresredir'
p1306
(dp1307
g1293
I1
sg1298
L0L
sg1299
g1303
ssS'cacheexp'
p1308
(dp1309
g1293
I1
sg1298
L0L
sg1299
g1303
ssS'gzip'
p1310
(dp1311
g1293
I10
sg1298
L1L
sg1299
S'yes'
p1312
ssS'prefetch'
p1313
(dp1314
g1293
I1
sg1298
L0L
sg1299
g1303
ssS'cacheredir'
p1315
(dp1316
g1293
I1
sg1298
L0L
sg1299
g1303
ssS'parsheet'
p1317
(dp1318
g1293
I10
sg1298
L1L
sg1299
g1312
ssS'du'
p1319
(dp1320
g1293
I10
sg1298
L1L
sg1299
g1312
ssS'hostconn'
p1321
(dp1322
g1293
I10
sg1298
L10L
sg1299
S'10'
p1323
sssg1299
S'5/11'
p1324
ssS'Nokia 66'
p1325
(dp1326
S'total_runs'
p1327
L2L
sS'score'
p1328
I5
sS'results'
p1329
(dp1330
S'maxconn'
p1331
(dp1332
g1328
I0
sS'median'
p1333
L7L
sS'display'
p1334
g81
ssS'parscript'
p1335
(dp1336
g1328
I10
sg1333
L1L
sg1334
S'yes'
p1337
ssS'parcssjs'
p1338
(dp1339
g1328
I1
sg1333
L0L
sg1334
S'no'
p1340
ssS'cacheresredir'
p1341
(dp1342
g1328
I1
sg1333
L0L
sg1334
g1340
ssS'cacheexp'
p1343
(dp1344
g1328
I10
sg1333
L1L
sg1334
g1337
ssS'gzip'
p1345
(dp1346
g1328
I10
sg1333
L1L
sg1334
g1337
ssS'prefetch'
p1347
(dp1348
g1328
I10
sg1333
L1L
sg1334
g1337
ssS'cacheredir'
p1349
(dp1350
g1328
I1
sg1333
L0L
sg1334
g1340
ssS'parsheet'
p1351
(dp1352
g1328
I10
sg1333
L1L
sg1334
g1337
ssS'du'
p1353
(dp1354
g1328
I1
sg1333
L0L
sg1334
g1340
ssS'hostconn'
p1355
(dp1356
g1328
I10
sg1333
L7L
sg1334
g81
sssg1334
S'6/11'
p1357
ssS'Lunascape 5'
p1358
(dp1359
S'total_runs'
p1360
L47L
sS'score'
p1361
I7
sS'results'
p1362
(dp1363
S'maxconn'
p1364
(dp1365
g1361
I10
sS'median'
p1366
L33L
sS'display'
p1367
S'33'
p1368
ssS'parscript'
p1369
(dp1370
g1361
I10
sg1366
L1L
sg1367
S'yes'
p1371
ssS'parcssjs'
p1372
(dp1373
g1361
I1
sg1366
L0L
sg1367
S'no'
p1374
ssS'cacheresredir'
p1375
(dp1376
g1361
I10
sg1366
L1L
sg1367
g1371
ssS'cacheexp'
p1377
(dp1378
g1361
I10
sg1366
L1L
sg1367
g1371
ssS'gzip'
p1379
(dp1380
g1361
I10
sg1366
L1L
sg1367
g1371
ssS'prefetch'
p1381
(dp1382
g1361
I1
sg1366
L0L
sg1367
g1374
ssS'cacheredir'
p1383
(dp1384
g1361
I1
sg1366
L0L
sg1367
g1374
ssS'parsheet'
p1385
(dp1386
g1361
I10
sg1366
L1L
sg1367
g1371
ssS'du'
p1387
(dp1388
g1361
I10
sg1366
L1L
sg1367
g1371
ssS'hostconn'
p1389
(dp1390
g1361
I10
sg1366
L4L
sg1367
g182
sssg1367
S'8/11'
p1391
ssS'Lunascape 4'
p1392
(dp1393
S'total_runs'
p1394
L75L
sS'score'
p1395
I8
sS'results'
p1396
(dp1397
S'maxconn'
p1398
(dp1399
g1395
I10
sS'median'
p1400
L30L
sS'display'
p1401
S'30'
p1402
ssS'parscript'
p1403
(dp1404
g1395
I10
sg1400
L1L
sg1401
S'yes'
p1405
ssS'parcssjs'
p1406
(dp1407
g1395
I1
sg1400
L0L
sg1401
S'no'
p1408
ssS'cacheresredir'
p1409
(dp1410
g1395
I10
sg1400
L1L
sg1401
g1405
ssS'cacheexp'
p1411
(dp1412
g1395
I10
sg1400
L1L
sg1401
g1405
ssS'gzip'
p1413
(dp1414
g1395
I10
sg1400
L1L
sg1401
g1405
ssS'prefetch'
p1415
(dp1416
g1395
I10
sg1400
L1L
sg1401
g1405
ssS'cacheredir'
p1417
(dp1418
g1395
I10
sg1400
L1L
sg1401
g1405
ssS'parsheet'
p1419
(dp1420
g1395
I10
sg1400
L1L
sg1401
g1405
ssS'du'
p1421
(dp1422
g1395
I10
sg1400
L1L
sg1401
g1405
ssS'hostconn'
p1423
(dp1424
g1395
I10
sg1400
L6L
sg1401
g239
sssg1401
S'10/11'
p1425
ssS'MicroB 0'
p1426
(dp1427
S'total_runs'
p1428
L5L
sS'score'
p1429
I7
sS'results'
p1430
(dp1431
S'maxconn'
p1432
(dp1433
g1429
I10
sS'median'
p1434
L24L
sS'display'
p1435
S'24'
p1436
ssS'parscript'
p1437
(dp1438
g1429
I1
sg1434
L0L
sg1435
S'no'
p1439
ssS'parcssjs'
p1440
(dp1441
g1429
I1
sg1434
L0L
sg1435
g1439
ssS'cacheresredir'
p1442
(dp1443
g1429
I10
sg1434
L1L
sg1435
S'yes'
p1444
ssS'cacheexp'
p1445
(dp1446
g1429
I10
sg1434
L1L
sg1435
g1444
ssS'gzip'
p1447
(dp1448
g1429
I10
sg1434
L1L
sg1435
g1444
ssS'prefetch'
p1449
(dp1450
g1429
I10
sg1434
L1L
sg1435
g1444
ssS'cacheredir'
p1451
(dp1452
g1429
I1
sg1434
L0L
sg1435
g1439
ssS'parsheet'
p1453
(dp1454
g1429
I10
sg1434
L1L
sg1435
g1444
ssS'du'
p1455
(dp1456
g1429
I10
sg1434
L1L
sg1435
g1444
ssS'hostconn'
p1457
(dp1458
g1429
I10
sg1434
L4L
sg1435
g182
sssg1435
S'8/11'
p1459
ssS'MicroB 1'
p1460
(dp1461
S'total_runs'
p1462
L1L
sS'score'
p1463
I8
sS'results'
p1464
(dp1465
S'maxconn'
p1466
(dp1467
g1463
I10
sS'median'
p1468
L30L
sS'display'
p1469
S'30'
p1470
ssS'parscript'
p1471
(dp1472
g1463
I10
sg1468
L1L
sg1469
S'yes'
p1473
ssS'parcssjs'
p1474
(dp1475
g1463
I1
sg1468
L0L
sg1469
S'no'
p1476
ssS'cacheresredir'
p1477
(dp1478
g1463
I10
sg1468
L1L
sg1469
g1473
ssS'cacheexp'
p1479
(dp1480
g1463
I10
sg1468
L1L
sg1469
g1473
ssS'gzip'
p1481
(dp1482
g1463
I10
sg1468
L1L
sg1469
g1473
ssS'prefetch'
p1483
(dp1484
g1463
I10
sg1468
L1L
sg1469
g1473
ssS'cacheredir'
p1485
(dp1486
g1463
I10
sg1468
L1L
sg1469
g1473
ssS'parsheet'
p1487
(dp1488
g1463
I10
sg1468
L1L
sg1469
g1473
ssS'du'
p1489
(dp1490
g1463
I10
sg1468
L1L
sg1469
g1473
ssS'hostconn'
p1491
(dp1492
g1463
I10
sg1468
L6L
sg1469
g239
sssg1469
S'10/11'
p1493
ssS'OLPC 0'
p1494
(dp1495
S'total_runs'
p1496
L1L
sS'score'
p1497
I6
sS'results'
p1498
(dp1499
S'maxconn'
p1500
(dp1501
g1497
I10
sS'median'
p1502
L24L
sS'display'
p1503
S'24'
p1504
ssS'parscript'
p1505
(dp1506
g1497
I1
sg1502
L0L
sg1503
S'no'
p1507
ssS'parcssjs'
p1508
(dp1509
g1497
I1
sg1502
L0L
sg1503
g1507
ssS'cacheresredir'
p1510
(dp1511
g1497
I10
sg1502
L1L
sg1503
S'yes'
p1512
ssS'cacheexp'
p1513
(dp1514
g1497
I10
sg1502
L1L
sg1503
g1512
ssS'gzip'
p1515
(dp1516
g1497
I10
sg1502
L1L
sg1503
g1512
ssS'prefetch'
p1517
(dp1518
g1497
I10
sg1502
L1L
sg1503
g1512
ssS'cacheredir'
p1519
(dp1520
g1497
I1
sg1502
L0L
sg1503
g1507
ssS'parsheet'
p1521
(dp1522
g1497
I10
sg1502
L1L
sg1503
g1512
ssS'du'
p1523
(dp1524
g1497
I10
sg1502
L1L
sg1503
g1512
ssS'hostconn'
p1525
(dp1526
g1497
I5
sg1502
L2L
sg1503
g34
sssg1503
S'7/11'
p1527
ssS'Iceape 1'
p1528
(dp1529
S'total_runs'
p1530
L6L
sS'score'
p1531
I6
sS'results'
p1532
(dp1533
S'maxconn'
p1534
(dp1535
g1531
I10
sS'median'
p1536
L24L
sS'display'
p1537
S'24'
p1538
ssS'parscript'
p1539
(dp1540
g1531
I1
sg1536
L0L
sg1537
S'no'
p1541
ssS'parcssjs'
p1542
(dp1543
g1531
I1
sg1536
L0L
sg1537
g1541
ssS'cacheresredir'
p1544
(dp1545
g1531
I10
sg1536
L1L
sg1537
S'yes'
p1546
ssS'cacheexp'
p1547
(dp1548
g1531
I10
sg1536
L1L
sg1537
g1546
ssS'gzip'
p1549
(dp1550
g1531
I10
sg1536
L1L
sg1537
g1546
ssS'prefetch'
p1551
(dp1552
g1531
I10
sg1536
L1L
sg1537
g1546
ssS'cacheredir'
p1553
(dp1554
g1531
I10
sg1536
L1L
sg1537
g1546
ssS'parsheet'
p1555
(dp1556
g1531
I1
sg1536
L0L
sg1537
g1541
ssS'du'
p1557
(dp1558
g1531
I10
sg1536
L1L
sg1537
g1546
ssS'hostconn'
p1559
(dp1560
g1531
I5
sg1536
L2L
sg1537
g34
sssg1537
S'7/11'
p1561
ssS'OmniWeb 622'
p1562
(dp1563
S'total_runs'
p1564
L9L
sS'score'
p1565
I6
sS'results'
p1566
(dp1567
S'maxconn'
p1568
(dp1569
g1565
I10
sS'median'
p1570
L60L
sS'display'
p1571
S'60'
p1572
ssS'parscript'
p1573
(dp1574
g1565
I1
sg1570
L0L
sg1571
S'no'
p1575
ssS'parcssjs'
p1576
(dp1577
g1565
I1
sg1570
L0L
sg1571
g1575
ssS'cacheresredir'
p1578
(dp1579
g1565
I10
sg1570
L1L
sg1571
S'yes'
p1580
ssS'cacheexp'
p1581
(dp1582
g1565
I10
sg1570
L1L
sg1571
g1580
ssS'gzip'
p1583
(dp1584
g1565
I10
sg1570
L1L
sg1571
g1580
ssS'prefetch'
p1585
(dp1586
g1565
I1
sg1570
L0L
sg1571
g1575
ssS'cacheredir'
p1587
(dp1588
g1565
I1
sg1570
L0L
sg1571
g1575
ssS'parsheet'
p1589
(dp1590
g1565
I10
sg1570
L1L
sg1571
g1580
ssS'du'
p1591
(dp1592
g1565
I10
sg1570
L1L
sg1571
g1580
ssS'hostconn'
p1593
(dp1594
g1565
I10
sg1570
L4L
sg1571
g182
sssg1571
S'7/11'
p1595
ssS'Shiira 0'
p1596
(dp1597
S'total_runs'
p1598
L7L
sS'score'
p1599
I6
sS'results'
p1600
(dp1601
S'maxconn'
p1602
(dp1603
g1599
I10
sS'median'
p1604
L60L
sS'display'
p1605
S'60'
p1606
ssS'parscript'
p1607
(dp1608
g1599
I1
sg1604
L0L
sg1605
S'no'
p1609
ssS'parcssjs'
p1610
(dp1611
g1599
I1
sg1604
L0L
sg1605
g1609
ssS'cacheresredir'
p1612
(dp1613
g1599
I10
sg1604
L1L
sg1605
S'yes'
p1614
ssS'cacheexp'
p1615
(dp1616
g1599
I10
sg1604
L1L
sg1605
g1614
ssS'gzip'
p1617
(dp1618
g1599
I10
sg1604
L1L
sg1605
g1614
ssS'prefetch'
p1619
(dp1620
g1599
I1
sg1604
L0L
sg1605
g1609
ssS'cacheredir'
p1621
(dp1622
g1599
I1
sg1604
L0L
sg1605
g1609
ssS'parsheet'
p1623
(dp1624
g1599
I10
sg1604
L1L
sg1605
g1614
ssS'du'
p1625
(dp1626
g1599
I10
sg1604
L1L
sg1605
g1614
ssS'hostconn'
p1627
(dp1628
g1599
I10
sg1604
L4L
sg1605
g182
sssg1605
S'7/11'
p1629
ssS'Shiira 1'
p1630
(dp1631
S'total_runs'
p1632
L7L
sS'score'
p1633
I6
sS'results'
p1634
(dp1635
S'maxconn'
p1636
(dp1637
g1633
I10
sS'median'
p1638
L60L
sS'display'
p1639
S'60'
p1640
ssS'parscript'
p1641
(dp1642
g1633
I1
sg1638
L0L
sg1639
S'no'
p1643
ssS'parcssjs'
p1644
(dp1645
g1633
I1
sg1638
L0L
sg1639
g1643
ssS'cacheresredir'
p1646
(dp1647
g1633
I10
sg1638
L1L
sg1639
S'yes'
p1648
ssS'cacheexp'
p1649
(dp1650
g1633
I10
sg1638
L1L
sg1639
g1648
ssS'gzip'
p1651
(dp1652
g1633
I10
sg1638
L1L
sg1639
g1648
ssS'prefetch'
p1653
(dp1654
g1633
I1
sg1638
L0L
sg1639
g1643
ssS'cacheredir'
p1655
(dp1656
g1633
I1
sg1638
L0L
sg1639
g1643
ssS'parsheet'
p1657
(dp1658
g1633
I10
sg1638
L1L
sg1639
g1648
ssS'du'
p1659
(dp1660
g1633
I10
sg1638
L1L
sg1639
g1648
ssS'hostconn'
p1661
(dp1662
g1633
I10
sg1638
L4L
sg1639
g182
sssg1639
S'7/11'
p1663
ssS'Palm Pre 1'
p1664
(dp1665
S'total_runs'
p1666
L10L
sS'score'
p1667
I4
sS'results'
p1668
(dp1669
S'maxconn'
p1670
(dp1671
g1667
I5
sS'median'
p1672
L11L
sS'display'
p1673
S'11'
p1674
ssS'parscript'
p1675
(dp1676
g1667
I1
sg1672
L0L
sg1673
S'no'
p1677
ssS'parcssjs'
p1678
(dp1679
g1667
I1
sg1672
L0L
sg1673
g1677
ssS'cacheresredir'
p1680
(dp1681
g1667
I1
sg1672
L0L
sg1673
g1677
ssS'cacheexp'
p1682
(dp1683
g1667
I10
sg1672
L1L
sg1673
S'yes'
p1684
ssS'gzip'
p1685
(dp1686
g1667
I10
sg1672
L1L
sg1673
g1684
ssS'prefetch'
p1687
(dp1688
g1667
I1
sg1672
L0L
sg1673
g1677
ssS'cacheredir'
p1689
(dp1690
g1667
I1
sg1672
L0L
sg1673
g1677
ssS'parsheet'
p1691
(dp1692
g1667
I10
sg1672
L1L
sg1673
g1684
ssS'du'
p1693
(dp1694
g1667
I10
sg1672
L1L
sg1673
g1684
ssS'hostconn'
p1695
(dp1696
g1667
I10
sg1672
L10L
sg1673
S'10'
p1697
sssg1673
S'5/11'
p1698
ssS'Nokia 6103'
p1699
(dp1700
S'total_runs'
p1701
L1L
sS'score'
p1702
I5
sS'results'
p1703
(dp1704
S'maxconn'
p1705
(dp1706
g1702
I10
sS'median'
p1707
L30L
sS'display'
p1708
S'30'
p1709
ssS'parscript'
p1710
(dp1711
g1702
I1
sg1707
L0L
sg1708
S'no'
p1712
ssS'parcssjs'
p1713
(dp1714
g1702
I1
sg1707
L0L
sg1708
g1712
ssS'cacheresredir'
p1715
(dp1716
g1702
I10
sg1707
L1L
sg1708
S'yes'
p1717
ssS'cacheexp'
p1718
(dp1719
g1702
I10
sg1707
L1L
sg1708
g1717
ssS'gzip'
p1720
(dp1721
g1702
I1
sg1707
L0L
sg1708
g1712
ssS'prefetch'
p1722
(dp1723
g1702
I10
sg1707
L1L
sg1708
g1717
ssS'cacheredir'
p1724
(dp1725
g1702
I1
sg1707
L0L
sg1708
g1712
ssS'parsheet'
p1726
(dp1727
g1702
I10
sg1707
L1L
sg1708
g1717
ssS'du'
p1728
(dp1729
g1702
I10
sg1707
L1L
sg1708
g1717
ssS'hostconn'
p1730
(dp1731
g1702
I5
sg1707
L2L
sg1708
g34
sssg1708
S'6/11'
p1732
ssS'Chrome 4'
p1733
(dp1734
S'total_runs'
p1735
L47L
sS'score'
p1736
I8
sS'results'
p1737
(dp1738
S'maxconn'
p1739
(dp1740
g1736
I10
sS'median'
p1741
L60L
sS'display'
p1742
S'60'
p1743
ssS'parscript'
p1744
(dp1745
g1736
I10
sg1741
L1L
sg1742
S'yes'
p1746
ssS'parcssjs'
p1747
(dp1748
g1736
I1
sg1741
L0L
sg1742
S'no'
p1749
ssS'cacheresredir'
p1750
(dp1751
g1736
I10
sg1741
L1L
sg1742
g1746
ssS'cacheexp'
p1752
(dp1753
g1736
I10
sg1741
L1L
sg1742
g1746
ssS'gzip'
p1754
(dp1755
g1736
I10
sg1741
L1L
sg1742
g1746
ssS'prefetch'
p1756
(dp1757
g1736
I1
sg1741
L0L
sg1742
g1749
ssS'cacheredir'
p1758
(dp1759
g1736
I10
sg1741
L1L
sg1742
g1746
ssS'parsheet'
p1760
(dp1761
g1736
I10
sg1741
L1L
sg1742
g1746
ssS'du'
p1762
(dp1763
g1736
I10
sg1741
L1L
sg1742
g1746
ssS'hostconn'
p1764
(dp1765
g1736
I10
sg1741
L4L
sg1742
g182
sssg1742
S'9/11'
p1766
ssS'Chrome 2'
p1767
(dp1768
S'total_runs'
p1769
L478L
sS'score'
p1770
I8
sS'results'
p1771
(dp1772
S'maxconn'
p1773
(dp1774
g1770
I10
sS'median'
p1775
L60L
sS'display'
p1776
S'60'
p1777
ssS'parscript'
p1778
(dp1779
g1770
I10
sg1775
L1L
sg1776
S'yes'
p1780
ssS'parcssjs'
p1781
(dp1782
g1770
I1
sg1775
L0L
sg1776
S'no'
p1783
ssS'cacheresredir'
p1784
(dp1785
g1770
I10
sg1775
L1L
sg1776
g1780
ssS'cacheexp'
p1786
(dp1787
g1770
I10
sg1775
L1L
sg1776
g1780
ssS'gzip'
p1788
(dp1789
g1770
I10
sg1775
L1L
sg1776
g1780
ssS'prefetch'
p1790
(dp1791
g1770
I1
sg1775
L0L
sg1776
g1783
ssS'cacheredir'
p1792
(dp1793
g1770
I10
sg1775
L1L
sg1776
g1780
ssS'parsheet'
p1794
(dp1795
g1770
I10
sg1775
L1L
sg1776
g1780
ssS'du'
p1796
(dp1797
g1770
I10
sg1775
L1L
sg1776
g1780
ssS'hostconn'
p1798
(dp1799
g1770
I10
sg1775
L6L
sg1776
g239
sssg1776
S'9/11'
p1800
ssS'Chrome 3'
p1801
(dp1802
S'total_runs'
p1803
L198L
sS'score'
p1804
I8
sS'results'
p1805
(dp1806
S'maxconn'
p1807
(dp1808
g1804
I10
sS'median'
p1809
L60L
sS'display'
p1810
S'60'
p1811
ssS'parscript'
p1812
(dp1813
g1804
I10
sg1809
L1L
sg1810
S'yes'
p1814
ssS'parcssjs'
p1815
(dp1816
g1804
I1
sg1809
L0L
sg1810
S'no'
p1817
ssS'cacheresredir'
p1818
(dp1819
g1804
I10
sg1809
L1L
sg1810
g1814
ssS'cacheexp'
p1820
(dp1821
g1804
I10
sg1809
L1L
sg1810
g1814
ssS'gzip'
p1822
(dp1823
g1804
I10
sg1809
L1L
sg1810
g1814
ssS'prefetch'
p1824
(dp1825
g1804
I1
sg1809
L0L
sg1810
g1817
ssS'cacheredir'
p1826
(dp1827
g1804
I10
sg1809
L1L
sg1810
g1814
ssS'parsheet'
p1828
(dp1829
g1804
I10
sg1809
L1L
sg1810
g1814
ssS'du'
p1830
(dp1831
g1804
I10
sg1809
L1L
sg1810
g1814
ssS'hostconn'
p1832
(dp1833
g1804
I10
sg1809
L6L
sg1810
g239
sssg1810
S'9/11'
p1834
ssS'Chrome 0'
p1835
(dp1836
S'total_runs'
p1837
L829L
sS'score'
p1838
I7
sS'results'
p1839
(dp1840
S'maxconn'
p1841
(dp1842
g1838
I10
sS'median'
p1843
L59L
sS'display'
p1844
S'59'
p1845
ssS'parscript'
p1846
(dp1847
g1838
I1
sg1843
L0L
sg1844
S'no'
p1848
ssS'parcssjs'
p1849
(dp1850
g1838
I1
sg1843
L0L
sg1844
g1848
ssS'cacheresredir'
p1851
(dp1852
g1838
I10
sg1843
L1L
sg1844
S'yes'
p1853
ssS'cacheexp'
p1854
(dp1855
g1838
I10
sg1843
L1L
sg1844
g1853
ssS'gzip'
p1856
(dp1857
g1838
I10
sg1843
L1L
sg1844
g1853
ssS'prefetch'
p1858
(dp1859
g1838
I1
sg1843
L0L
sg1844
g1848
ssS'cacheredir'
p1860
(dp1861
g1838
I10
sg1843
L1L
sg1844
g1853
ssS'parsheet'
p1862
(dp1863
g1838
I10
sg1843
L1L
sg1844
g1853
ssS'du'
p1864
(dp1865
g1838
I10
sg1843
L1L
sg1844
g1853
ssS'hostconn'
p1866
(dp1867
g1838
I10
sg1843
L6L
sg1844
g239
sssg1844
S'8/11'
p1868
ssS'Chrome 1'
p1869
(dp1870
S'total_runs'
p1871
L424L
sS'score'
p1872
I7
sS'results'
p1873
(dp1874
S'maxconn'
p1875
(dp1876
g1872
I10
sS'median'
p1877
L60L
sS'display'
p1878
S'60'
p1879
ssS'parscript'
p1880
(dp1881
g1872
I1
sg1877
L0L
sg1878
S'no'
p1882
ssS'parcssjs'
p1883
(dp1884
g1872
I1
sg1877
L0L
sg1878
g1882
ssS'cacheresredir'
p1885
(dp1886
g1872
I10
sg1877
L1L
sg1878
S'yes'
p1887
ssS'cacheexp'
p1888
(dp1889
g1872
I10
sg1877
L1L
sg1878
g1887
ssS'gzip'
p1890
(dp1891
g1872
I10
sg1877
L1L
sg1878
g1887
ssS'prefetch'
p1892
(dp1893
g1872
I1
sg1877
L0L
sg1878
g1882
ssS'cacheredir'
p1894
(dp1895
g1872
I10
sg1877
L1L
sg1878
g1887
ssS'parsheet'
p1896
(dp1897
g1872
I10
sg1877
L1L
sg1878
g1887
ssS'du'
p1898
(dp1899
g1872
I10
sg1877
L1L
sg1878
g1887
ssS'hostconn'
p1900
(dp1901
g1872
I10
sg1877
L6L
sg1878
g239
sssg1878
S'8/11'
p1902
ssS'NetNewsWire 2'
p1903
(dp1904
S'total_runs'
p1905
L1L
sS'score'
p1906
I6
sS'results'
p1907
(dp1908
S'maxconn'
p1909
(dp1910
g1906
I10
sS'median'
p1911
L31L
sS'display'
p1912
S'31'
p1913
ssS'parscript'
p1914
(dp1915
g1906
I1
sg1911
L0L
sg1912
S'no'
p1916
ssS'parcssjs'
p1917
(dp1918
g1906
I1
sg1911
L0L
sg1912
g1916
ssS'cacheresredir'
p1919
(dp1920
g1906
I10
sg1911
L1L
sg1912
S'yes'
p1921
ssS'cacheexp'
p1922
(dp1923
g1906
I10
sg1911
L1L
sg1912
g1921
ssS'gzip'
p1924
(dp1925
g1906
I10
sg1911
L1L
sg1912
g1921
ssS'prefetch'
p1926
(dp1927
g1906
I1
sg1911
L0L
sg1912
g1916
ssS'cacheredir'
p1928
(dp1929
g1906
I1
sg1911
L0L
sg1912
g1916
ssS'parsheet'
p1930
(dp1931
g1906
I10
sg1911
L1L
sg1912
g1921
ssS'du'
p1932
(dp1933
g1906
I10
sg1911
L1L
sg1912
g1921
ssS'hostconn'
p1934
(dp1935
g1906
I10
sg1911
L3L
sg1912
S'3'
p1936
sssg1912
S'7/11'
p1937
ssS'NetNewsWire 3'
p1938
(dp1939
S'total_runs'
p1940
L19L
sS'score'
p1941
I6
sS'results'
p1942
(dp1943
S'maxconn'
p1944
(dp1945
g1941
I10
sS'median'
p1946
L60L
sS'display'
p1947
S'60'
p1948
ssS'parscript'
p1949
(dp1950
g1941
I1
sg1946
L0L
sg1947
S'no'
p1951
ssS'parcssjs'
p1952
(dp1953
g1941
I1
sg1946
L0L
sg1947
g1951
ssS'cacheresredir'
p1954
(dp1955
g1941
I10
sg1946
L1L
sg1947
S'yes'
p1956
ssS'cacheexp'
p1957
(dp1958
g1941
I10
sg1946
L1L
sg1947
g1956
ssS'gzip'
p1959
(dp1960
g1941
I10
sg1946
L1L
sg1947
g1956
ssS'prefetch'
p1961
(dp1962
g1941
I1
sg1946
L0L
sg1947
g1951
ssS'cacheredir'
p1963
(dp1964
g1941
I1
sg1946
L0L
sg1947
g1951
ssS'parsheet'
p1965
(dp1966
g1941
I10
sg1946
L1L
sg1947
g1956
ssS'du'
p1967
(dp1968
g1941
I10
sg1946
L1L
sg1947
g1956
ssS'hostconn'
p1969
(dp1970
g1941
I10
sg1946
L4L
sg1947
g182
sssg1947
S'7/11'
p1971
ssS'Nokia 79'
p1972
(dp1973
S'total_runs'
p1974
L1L
sS'score'
p1975
I5
sS'results'
p1976
(dp1977
S'maxconn'
p1978
(dp1979
g1975
I0
sS'median'
p1980
L7L
sS'display'
p1981
g81
ssS'parscript'
p1982
(dp1983
g1975
I10
sg1980
L1L
sg1981
S'yes'
p1984
ssS'parcssjs'
p1985
(dp1986
g1975
I1
sg1980
L0L
sg1981
S'no'
p1987
ssS'cacheresredir'
p1988
(dp1989
g1975
I1
sg1980
L0L
sg1981
g1987
ssS'cacheexp'
p1990
(dp1991
g1975
I10
sg1980
L1L
sg1981
g1984
ssS'gzip'
p1992
(dp1993
g1975
I10
sg1980
L1L
sg1981
g1984
ssS'prefetch'
p1994
(dp1995
g1975
I1
sg1980
L0L
sg1981
g1987
ssS'cacheredir'
p1996
(dp1997
g1975
I1
sg1980
L0L
sg1981
g1987
ssS'parsheet'
p1998
(dp1999
g1975
I10
sg1980
L1L
sg1981
g1984
ssS'du'
p2000
(dp2001
g1975
I10
sg1980
L1L
sg1981
g1984
ssS'hostconn'
p2002
(dp2003
g1975
I10
sg1980
L7L
sg1981
g81
sssg1981
S'6/11'
p2004
ssS'Blackberry 8320'
p2005
(dp2006
S'total_runs'
p2007
L2L
sS'score'
p2008
I5
sS'results'
p2009
(dp2010
S'maxconn'
p2011
(dp2012
g2008
I0
sS'median'
p2013
L8L
sS'display'
p2014
g69
ssS'parscript'
p2015
(dp2016
g2008
I10
sg2013
L1L
sg2014
S'yes'
p2017
ssS'parcssjs'
p2018
(dp2019
g2008
I1
sg2013
L0L
sg2014
S'no'
p2020
ssS'cacheresredir'
p2021
(dp2022
g2008
I10
sg2013
L1L
sg2014
g2017
ssS'cacheexp'
p2023
(dp2024
g2008
I10
sg2013
L1L
sg2014
g2017
ssS'gzip'
p2025
(dp2026
g2008
I1
sg2013
L0L
sg2014
g2020
ssS'prefetch'
p2027
(dp2028
g2008
I10
sg2013
L1L
sg2014
g2017
ssS'cacheredir'
p2029
(dp2030
g2008
I1
sg2013
L0L
sg2014
g2020
ssS'parsheet'
p2031
(dp2032
g2008
I10
sg2013
L1L
sg2014
g2017
ssS'du'
p2033
(dp2034
g2008
I1
sg2013
L0L
sg2014
g2020
ssS'hostconn'
p2035
(dp2036
g2008
I10
sg2013
L8L
sg2014
g69
sssg2014
S'6/11'
p2037
ssS'Safari 4'
p2038
(dp2039
S'total_runs'
p2040
L430L
sS'score'
p2041
I7
sS'results'
p2042
(dp2043
S'maxconn'
p2044
(dp2045
g2041
I10
sS'median'
p2046
L60L
sS'display'
p2047
S'60'
p2048
ssS'parscript'
p2049
(dp2050
g2041
I10
sg2046
L1L
sg2047
S'yes'
p2051
ssS'parcssjs'
p2052
(dp2053
g2041
I1
sg2046
L0L
sg2047
S'no'
p2054
ssS'cacheresredir'
p2055
(dp2056
g2041
I10
sg2046
L1L
sg2047
g2051
ssS'cacheexp'
p2057
(dp2058
g2041
I10
sg2046
L1L
sg2047
g2051
ssS'gzip'
p2059
(dp2060
g2041
I10
sg2046
L1L
sg2047
g2051
ssS'prefetch'
p2061
(dp2062
g2041
I1
sg2046
L0L
sg2047
g2054
ssS'cacheredir'
p2063
(dp2064
g2041
I1
sg2046
L0L
sg2047
g2054
ssS'parsheet'
p2065
(dp2066
g2041
I10
sg2046
L1L
sg2047
g2051
ssS'du'
p2067
(dp2068
g2041
I10
sg2046
L1L
sg2047
g2051
ssS'hostconn'
p2069
(dp2070
g2041
I10
sg2046
L4L
sg2047
g182
sssg2047
S'8/11'
p2071
ssS'Vodafone 1'
p2072
(dp2073
S'total_runs'
p2074
L2L
sS'score'
p2075
I3
sS'results'
p2076
(dp2077
S'maxconn'
p2078
(dp2079
g2075
I0
sS'median'
p2080
L0L
sS'display'
p2081
g454
ssS'parscript'
p2082
(dp2083
g2075
I1
sg2080
L0L
sg2081
S'no'
p2084
ssS'parcssjs'
p2085
(dp2086
g2075
I1
sg2080
L0L
sg2081
g2084
ssS'cacheresredir'
p2087
(dp2088
g2075
I10
sg2080
L1L
sg2081
S'yes'
p2089
ssS'cacheexp'
p2090
(dp2091
g2075
I10
sg2080
L1L
sg2081
g2089
ssS'gzip'
p2092
(dp2093
g2075
I1
sg2080
L0L
sg2081
g2084
ssS'prefetch'
p2094
(dp2095
g2075
I1
sg2080
L0L
sg2081
g2084
ssS'cacheredir'
p2096
(dp2097
g2075
I1
sg2080
L0L
sg2081
g2084
ssS'parsheet'
p2098
(dp2099
g2075
I10
sg2080
L1L
sg2081
g2089
ssS'du'
p2100
(dp2101
g2075
I10
sg2080
L1L
sg2081
g2089
ssS'hostconn'
p2102
(dp2103
g2075
I0
sg2080
L0L
sg2081
g454
sssg2081
S'4/11'
p2104
ssS'Firefox (Shiretoko) 3'
p2105
(dp2106
S'total_runs'
p2107
L185L
sS'score'
p2108
I9
sS'results'
p2109
(dp2110
S'maxconn'
p2111
(dp2112
g2108
I10
sS'median'
p2113
L30L
sS'display'
p2114
S'30'
p2115
ssS'parscript'
p2116
(dp2117
g2108
I10
sg2113
L1L
sg2114
S'yes'
p2118
ssS'parcssjs'
p2119
(dp2120
g2108
I1
sg2113
L0L
sg2114
S'no'
p2121
ssS'cacheresredir'
p2122
(dp2123
g2108
I10
sg2113
L1L
sg2114
g2118
ssS'cacheexp'
p2124
(dp2125
g2108
I10
sg2113
L1L
sg2114
g2118
ssS'gzip'
p2126
(dp2127
g2108
I10
sg2113
L1L
sg2114
g2118
ssS'prefetch'
p2128
(dp2129
g2108
I10
sg2113
L1L
sg2114
g2118
ssS'cacheredir'
p2130
(dp2131
g2108
I10
sg2113
L1L
sg2114
g2118
ssS'parsheet'
p2132
(dp2133
g2108
I10
sg2113
L1L
sg2114
g2118
ssS'du'
p2134
(dp2135
g2108
I10
sg2113
L1L
sg2114
g2118
ssS'hostconn'
p2136
(dp2137
g2108
I10
sg2113
L6L
sg2114
g239
sssg2114
S'10/11'
p2138
ssS'Obigo 2'
p2139
(dp2140
S'total_runs'
p2141
L7L
sS'score'
p2142
I3
sS'results'
p2143
(dp2144
S'maxconn'
p2145
(dp2146
g2142
I0
sS'median'
p2147
L4L
sS'display'
p2148
g182
ssS'parscript'
p2149
(dp2150
g2142
I10
sg2147
L1L
sg2148
S'yes'
p2151
ssS'parcssjs'
p2152
(dp2153
g2142
I1
sg2147
L0L
sg2148
S'no'
p2154
ssS'cacheresredir'
p2155
(dp2156
g2142
I1
sg2147
L0L
sg2148
g2154
ssS'cacheexp'
p2157
(dp2158
g2142
I10
sg2147
L1L
sg2148
g2151
ssS'gzip'
p2159
(dp2160
g2142
I1
sg2147
L0L
sg2148
g2154
ssS'prefetch'
p2161
(dp2162
g2142
I10
sg2147
L1L
sg2148
g2151
ssS'cacheredir'
p2163
(dp2164
g2142
I1
sg2147
L0L
sg2148
g2154
ssS'parsheet'
p2165
(dp2166
g2142
I1
sg2147
L0L
sg2148
g2154
ssS'du'
p2167
(dp2168
g2142
I10
sg2147
L1L
sg2148
g2151
ssS'hostconn'
p2169
(dp2170
g2142
I5
sg2147
L2L
sg2148
g34
sssg2148
S'4/11'
p2171
ssS'Obigo 7'
p2172
(dp2173
S'total_runs'
p2174
L2L
sS'score'
p2175
I3
sS'results'
p2176
(dp2177
S'maxconn'
p2178
(dp2179
g2175
I0
sS'median'
p2180
L8L
sS'display'
p2181
g69
ssS'parscript'
p2182
(dp2183
g2175
I1
sg2180
L0L
sg2181
S'no'
p2184
ssS'parcssjs'
p2185
(dp2186
g2175
I1
sg2180
L0L
sg2181
g2184
ssS'cacheresredir'
p2187
(dp2188
g2175
I1
sg2180
L0L
sg2181
g2184
ssS'cacheexp'
p2189
(dp2190
g2175
I10
sg2180
L1L
sg2181
S'yes'
p2191
ssS'gzip'
p2192
(dp2193
g2175
I10
sg2180
L1L
sg2181
g2191
ssS'prefetch'
p2194
(dp2195
g2175
I1
sg2180
L0L
sg2181
g2184
ssS'cacheredir'
p2196
(dp2197
g2175
I1
sg2180
L0L
sg2181
g2184
ssS'parsheet'
p2198
(dp2199
g2175
I1
sg2180
L0L
sg2181
g2184
ssS'du'
p2200
(dp2201
g2175
I1
sg2180
L0L
sg2181
g2184
ssS'hostconn'
p2202
(dp2203
g2175
I10
sg2180
L6L
sg2181
g239
sssg2181
S'3/11'
p2204
ssS'Nokia 6620'
p2205
(dp2206
S'total_runs'
p2207
L1L
sS'score'
p2208
I8
sS'results'
p2209
(dp2210
S'maxconn'
p2211
(dp2212
g2208
I10
sS'median'
p2213
L30L
sS'display'
p2214
S'30'
p2215
ssS'parscript'
p2216
(dp2217
g2208
I1
sg2213
L0L
sg2214
S'no'
p2218
ssS'parcssjs'
p2219
(dp2220
g2208
I1
sg2213
L0L
sg2214
g2218
ssS'cacheresredir'
p2221
(dp2222
g2208
I10
sg2213
L1L
sg2214
S'yes'
p2223
ssS'cacheexp'
p2224
(dp2225
g2208
I10
sg2213
L1L
sg2214
g2223
ssS'gzip'
p2226
(dp2227
g2208
I10
sg2213
L1L
sg2214
g2223
ssS'prefetch'
p2228
(dp2229
g2208
I10
sg2213
L1L
sg2214
g2223
ssS'cacheredir'
p2230
(dp2231
g2208
I10
sg2213
L1L
sg2214
g2223
ssS'parsheet'
p2232
(dp2233
g2208
I10
sg2213
L1L
sg2214
g2223
ssS'du'
p2234
(dp2235
g2208
I10
sg2213
L1L
sg2214
g2223
ssS'hostconn'
p2236
(dp2237
g2208
I10
sg2213
L4L
sg2214
g182
sssg2214
S'9/11'
p2238
ssS'IE Mobile 8'
p2239
(dp2240
S'total_runs'
p2241
L2L
sS'score'
p2242
I3
sS'results'
p2243
(dp2244
S'maxconn'
p2245
(dp2246
g2242
I5
sS'median'
p2247
L15L
sS'display'
p2248
S'15'
p2249
ssS'parscript'
p2250
(dp2251
g2242
I1
sg2247
L0L
sg2248
S'no'
p2252
ssS'parcssjs'
p2253
(dp2254
g2242
I1
sg2247
L0L
sg2248
g2252
ssS'cacheresredir'
p2255
(dp2256
g2242
I1
sg2247
L0L
sg2248
g2252
ssS'cacheexp'
p2257
(dp2258
g2242
I10
sg2247
L1L
sg2248
S'yes'
p2259
ssS'gzip'
p2260
(dp2261
g2242
I10
sg2247
L1L
sg2248
g2259
ssS'prefetch'
p2262
(dp2263
g2242
I1
sg2247
L0L
sg2248
g2252
ssS'cacheredir'
p2264
(dp2265
g2242
I1
sg2247
L0L
sg2248
g2252
ssS'parsheet'
p2266
(dp2267
g2242
I10
sg2247
L1L
sg2248
g2259
ssS'du'
p2268
(dp2269
g2242
I1
sg2247
L0L
sg2248
g2252
ssS'hostconn'
p2270
(dp2271
g2242
I10
sg2247
L4L
sg2248
g182
sssg2248
S'4/11'
p2272
ssS'OmniWeb 613'
p2273
(dp2274
S'total_runs'
p2275
L1L
sS'score'
p2276
I6
sS'results'
p2277
(dp2278
S'maxconn'
p2279
(dp2280
g2276
I10
sS'median'
p2281
L60L
sS'display'
p2282
S'60'
p2283
ssS'parscript'
p2284
(dp2285
g2276
I1
sg2281
L0L
sg2282
S'no'
p2286
ssS'parcssjs'
p2287
(dp2288
g2276
I1
sg2281
L0L
sg2282
g2286
ssS'cacheresredir'
p2289
(dp2290
g2276
I10
sg2281
L1L
sg2282
S'yes'
p2291
ssS'cacheexp'
p2292
(dp2293
g2276
I10
sg2281
L1L
sg2282
g2291
ssS'gzip'
p2294
(dp2295
g2276
I10
sg2281
L1L
sg2282
g2291
ssS'prefetch'
p2296
(dp2297
g2276
I1
sg2281
L0L
sg2282
g2286
ssS'cacheredir'
p2298
(dp2299
g2276
I1
sg2281
L0L
sg2282
g2286
ssS'parsheet'
p2300
(dp2301
g2276
I10
sg2281
L1L
sg2282
g2291
ssS'du'
p2302
(dp2303
g2276
I10
sg2281
L1L
sg2282
g2291
ssS'hostconn'
p2304
(dp2305
g2276
I10
sg2281
L4L
sg2282
g182
sssg2282
S'7/11'
p2306
ssS'Nokia 71'
p2307
(dp2308
S'total_runs'
p2309
L10L
sS'score'
p2310
I3
sS'results'
p2311
(dp2312
S'maxconn'
p2313
(dp2314
g2310
I0
sS'median'
p2315
L7L
sS'display'
p2316
g81
ssS'parscript'
p2317
(dp2318
g2310
I10
sg2315
L1L
sg2316
S'yes'
p2319
ssS'parcssjs'
p2320
(dp2321
g2310
I1
sg2315
L0L
sg2316
S'no'
p2322
ssS'cacheresredir'
p2323
(dp2324
g2310
I1
sg2315
L0L
sg2316
g2322
ssS'cacheexp'
p2325
(dp2326
g2310
I10
sg2315
L1L
sg2316
g2319
ssS'gzip'
p2327
(dp2328
g2310
I10
sg2315
L1L
sg2316
g2319
ssS'prefetch'
p2329
(dp2330
g2310
I1
sg2315
L0L
sg2316
g2322
ssS'cacheredir'
p2331
(dp2332
g2310
I1
sg2315
L0L
sg2316
g2322
ssS'parsheet'
p2333
(dp2334
g2310
I10
sg2315
L1L
sg2316
g2319
ssS'du'
p2335
(dp2336
g2310
I1
sg2315
L0L
sg2316
g2322
ssS'hostconn'
p2337
(dp2338
g2310
I0
sg2315
L0L
sg2316
g454
sssg2316
S'4/11'
p2339
ssS'Demeter 1'
p2340
(dp2341
S'total_runs'
p2342
L1L
sS'score'
p2343
I6
sS'results'
p2344
(dp2345
S'maxconn'
p2346
(dp2347
g2343
I10
sS'median'
p2348
L60L
sS'display'
p2349
S'60'
p2350
ssS'parscript'
p2351
(dp2352
g2343
I1
sg2348
L0L
sg2349
S'no'
p2353
ssS'parcssjs'
p2354
(dp2355
g2343
I1
sg2348
L0L
sg2349
g2353
ssS'cacheresredir'
p2356
(dp2357
g2343
I10
sg2348
L1L
sg2349
S'yes'
p2358
ssS'cacheexp'
p2359
(dp2360
g2343
I10
sg2348
L1L
sg2349
g2358
ssS'gzip'
p2361
(dp2362
g2343
I10
sg2348
L1L
sg2349
g2358
ssS'prefetch'
p2363
(dp2364
g2343
I1
sg2348
L0L
sg2349
g2353
ssS'cacheredir'
p2365
(dp2366
g2343
I1
sg2348
L0L
sg2349
g2353
ssS'parsheet'
p2367
(dp2368
g2343
I10
sg2348
L1L
sg2349
g2358
ssS'du'
p2369
(dp2370
g2343
I10
sg2348
L1L
sg2349
g2358
ssS'hostconn'
p2371
(dp2372
g2343
I10
sg2348
L4L
sg2349
g182
sssg2349
S'7/11'
p2373
ssS'K-Meleon 1'
p2374
(dp2375
S'total_runs'
p2376
L18L
sS'score'
p2377
I6
sS'results'
p2378
(dp2379
S'maxconn'
p2380
(dp2381
g2377
I10
sS'median'
p2382
L24L
sS'display'
p2383
S'24'
p2384
ssS'parscript'
p2385
(dp2386
g2377
I1
sg2382
L0L
sg2383
S'no'
p2387
ssS'parcssjs'
p2388
(dp2389
g2377
I1
sg2382
L0L
sg2383
g2387
ssS'cacheresredir'
p2390
(dp2391
g2377
I10
sg2382
L1L
sg2383
S'yes'
p2392
ssS'cacheexp'
p2393
(dp2394
g2377
I10
sg2382
L1L
sg2383
g2392
ssS'gzip'
p2395
(dp2396
g2377
I10
sg2382
L1L
sg2383
g2392
ssS'prefetch'
p2397
(dp2398
g2377
I10
sg2382
L1L
sg2383
g2392
ssS'cacheredir'
p2399
(dp2400
g2377
I10
sg2382
L1L
sg2383
g2392
ssS'parsheet'
p2401
(dp2402
g2377
I1
sg2382
L0L
sg2383
g2387
ssS'du'
p2403
(dp2404
g2377
I10
sg2382
L1L
sg2383
g2392
ssS'hostconn'
p2405
(dp2406
g2377
I5
sg2382
L2L
sg2383
g34
sssg2383
S'7/11'
p2407
ssS'Opera 6'
p2408
(dp2409
S'total_runs'
p2410
L1L
sS'score'
p2411
I3
sS'results'
p2412
(dp2413
S'maxconn'
p2414
(dp2415
g2411
I5
sS'median'
p2416
L20L
sS'display'
p2417
S'20'
p2418
ssS'parscript'
p2419
(dp2420
g2411
I1
sg2416
L0L
sg2417
S'no'
p2421
ssS'parcssjs'
p2422
(dp2423
g2411
I1
sg2416
L0L
sg2417
g2421
ssS'cacheresredir'
p2424
(dp2425
g2411
I1
sg2416
L0L
sg2417
g2421
ssS'cacheexp'
p2426
(dp2427
g2411
I1
sg2416
L0L
sg2417
g2421
ssS'gzip'
p2428
(dp2429
g2411
I10
sg2416
L1L
sg2417
S'yes'
p2430
ssS'prefetch'
p2431
(dp2432
g2411
I1
sg2416
L0L
sg2417
g2421
ssS'cacheredir'
p2433
(dp2434
g2411
I10
sg2416
L1L
sg2417
g2430
ssS'parsheet'
p2435
(dp2436
g2411
I10
sg2416
L1L
sg2417
g2430
ssS'du'
p2437
(dp2438
g2411
I1
sg2416
L0L
sg2417
g2421
ssS'hostconn'
p2439
(dp2440
g2411
I10
sg2416
L4L
sg2417
g182
sssg2417
S'4/11'
p2441
ssS'Opera 7'
p2442
(dp2443
S'total_runs'
p2444
L3L
sS'score'
p2445
I3
sS'results'
p2446
(dp2447
S'maxconn'
p2448
(dp2449
g2445
I5
sS'median'
p2450
L20L
sS'display'
p2451
S'20'
p2452
ssS'parscript'
p2453
(dp2454
g2445
I1
sg2450
L0L
sg2451
S'no'
p2455
ssS'parcssjs'
p2456
(dp2457
g2445
I1
sg2450
L0L
sg2451
g2455
ssS'cacheresredir'
p2458
(dp2459
g2445
I1
sg2450
L0L
sg2451
g2455
ssS'cacheexp'
p2460
(dp2461
g2445
I1
sg2450
L0L
sg2451
g2455
ssS'gzip'
p2462
(dp2463
g2445
I10
sg2450
L1L
sg2451
S'yes'
p2464
ssS'prefetch'
p2465
(dp2466
g2445
I1
sg2450
L0L
sg2451
g2455
ssS'cacheredir'
p2467
(dp2468
g2445
I1
sg2450
L0L
sg2451
g2455
ssS'parsheet'
p2469
(dp2470
g2445
I10
sg2450
L1L
sg2451
g2464
ssS'du'
p2471
(dp2472
g2445
I1
sg2450
L0L
sg2451
g2455
ssS'hostconn'
p2473
(dp2474
g2445
I10
sg2450
L4L
sg2451
g182
sssg2451
S'3/11'
p2475
ssS'Opera 5'
p2476
(dp2477
S'total_runs'
p2478
L1L
sS'score'
p2479
I3
sS'results'
p2480
(dp2481
S'maxconn'
p2482
(dp2483
g2479
I5
sS'median'
p2484
L20L
sS'display'
p2485
S'20'
p2486
ssS'parscript'
p2487
(dp2488
g2479
I1
sg2484
L0L
sg2485
S'no'
p2489
ssS'parcssjs'
p2490
(dp2491
g2479
I1
sg2484
L0L
sg2485
g2489
ssS'cacheresredir'
p2492
(dp2493
g2479
I10
sg2484
L1L
sg2485
S'yes'
p2494
ssS'cacheexp'
p2495
(dp2496
g2479
I1
sg2484
L0L
sg2485
g2489
ssS'gzip'
p2497
(dp2498
g2479
I10
sg2484
L1L
sg2485
g2494
ssS'prefetch'
p2499
(dp2500
g2479
I1
sg2484
L0L
sg2485
g2489
ssS'cacheredir'
p2501
(dp2502
g2479
I1
sg2484
L0L
sg2485
g2489
ssS'parsheet'
p2503
(dp2504
g2479
I10
sg2484
L1L
sg2485
g2494
ssS'du'
p2505
(dp2506
g2479
I1
sg2484
L0L
sg2485
g2489
ssS'hostconn'
p2507
(dp2508
g2479
I10
sg2484
L4L
sg2485
g182
sssg2485
S'4/11'
p2509
ssS'Opera 8'
p2510
(dp2511
S'total_runs'
p2512
L15L
sS'score'
p2513
I4
sS'results'
p2514
(dp2515
S'maxconn'
p2516
(dp2517
g2513
I5
sS'median'
p2518
L18L
sS'display'
p2519
S'18'
p2520
ssS'parscript'
p2521
(dp2522
g2513
I1
sg2518
L0L
sg2519
S'no'
p2523
ssS'parcssjs'
p2524
(dp2525
g2513
I1
sg2518
L0L
sg2519
g2523
ssS'cacheresredir'
p2526
(dp2527
g2513
I1
sg2518
L0L
sg2519
g2523
ssS'cacheexp'
p2528
(dp2529
g2513
I10
sg2518
L1L
sg2519
S'yes'
p2530
ssS'gzip'
p2531
(dp2532
g2513
I10
sg2518
L1L
sg2519
g2530
ssS'prefetch'
p2533
(dp2534
g2513
I1
sg2518
L0L
sg2519
g2523
ssS'cacheredir'
p2535
(dp2536
g2513
I1
sg2518
L0L
sg2519
g2523
ssS'parsheet'
p2537
(dp2538
g2513
I10
sg2518
L1L
sg2519
g2530
ssS'du'
p2539
(dp2540
g2513
I10
sg2518
L1L
sg2519
g2530
ssS'hostconn'
p2541
(dp2542
g2513
I10
sg2518
L8L
sg2519
g69
sssg2519
S'5/11'
p2543
ssS'Opera 9'
p2544
(dp2545
S'total_runs'
p2546
L3624L
sS'score'
p2547
I5
sS'results'
p2548
(dp2549
S'maxconn'
p2550
(dp2551
g2547
I5
sS'median'
p2552
L20L
sS'display'
p2553
S'20'
p2554
ssS'parscript'
p2555
(dp2556
g2547
I1
sg2552
L0L
sg2553
S'no'
p2557
ssS'parcssjs'
p2558
(dp2559
g2547
I1
sg2552
L0L
sg2553
g2557
ssS'cacheresredir'
p2560
(dp2561
g2547
I1
sg2552
L0L
sg2553
g2557
ssS'cacheexp'
p2562
(dp2563
g2547
I10
sg2552
L1L
sg2553
S'yes'
p2564
ssS'gzip'
p2565
(dp2566
g2547
I10
sg2552
L1L
sg2553
g2564
ssS'prefetch'
p2567
(dp2568
g2547
I1
sg2552
L0L
sg2553
g2557
ssS'cacheredir'
p2569
(dp2570
g2547
I1
sg2552
L0L
sg2553
g2557
ssS'parsheet'
p2571
(dp2572
g2547
I10
sg2552
L1L
sg2553
g2564
ssS'du'
p2573
(dp2574
g2547
I10
sg2552
L1L
sg2553
g2564
ssS'hostconn'
p2575
(dp2576
g2547
I10
sg2552
L4L
sg2553
g182
sssg2553
S'5/11'
p2577
ssS'GranParadiso 3'
p2578
(dp2579
S'total_runs'
p2580
L44L
sS'score'
p2581
I6
sS'results'
p2582
(dp2583
S'maxconn'
p2584
(dp2585
g2581
I10
sS'median'
p2586
L30L
sS'display'
p2587
S'30'
p2588
ssS'parscript'
p2589
(dp2590
g2581
I1
sg2586
L0L
sg2587
S'no'
p2591
ssS'parcssjs'
p2592
(dp2593
g2581
I1
sg2586
L0L
sg2587
g2591
ssS'cacheresredir'
p2594
(dp2595
g2581
I1
sg2586
L0L
sg2587
g2591
ssS'cacheexp'
p2596
(dp2597
g2581
I10
sg2586
L1L
sg2587
S'yes'
p2598
ssS'gzip'
p2599
(dp2600
g2581
I10
sg2586
L1L
sg2587
g2598
ssS'prefetch'
p2601
(dp2602
g2581
I10
sg2586
L1L
sg2587
g2598
ssS'cacheredir'
p2603
(dp2604
g2581
I1
sg2586
L0L
sg2587
g2591
ssS'parsheet'
p2605
(dp2606
g2581
I10
sg2586
L1L
sg2587
g2598
ssS'du'
p2607
(dp2608
g2581
I10
sg2586
L1L
sg2587
g2598
ssS'hostconn'
p2609
(dp2610
g2581
I10
sg2586
L6L
sg2587
g239
sssg2587
S'7/11'
p2611
ssS'WebPilot 8'
p2612
(dp2613
S'total_runs'
p2614
L1L
sS'score'
p2615
I4
sS'results'
p2616
(dp2617
S'maxconn'
p2618
(dp2619
g2615
I10
sS'median'
p2620
L48L
sS'display'
p2621
S'48'
p2622
ssS'parscript'
p2623
(dp2624
g2615
I1
sg2620
L0L
sg2621
S'no'
p2625
ssS'parcssjs'
p2626
(dp2627
g2615
I1
sg2620
L0L
sg2621
g2625
ssS'cacheresredir'
p2628
(dp2629
g2615
I1
sg2620
L0L
sg2621
g2625
ssS'cacheexp'
p2630
(dp2631
g2615
I10
sg2620
L1L
sg2621
S'yes'
p2632
ssS'gzip'
p2633
(dp2634
g2615
I10
sg2620
L1L
sg2621
g2632
ssS'prefetch'
p2635
(dp2636
g2615
I1
sg2620
L0L
sg2621
g2625
ssS'cacheredir'
p2637
(dp2638
g2615
I1
sg2620
L0L
sg2621
g2625
ssS'parsheet'
p2639
(dp2640
g2615
I10
sg2620
L1L
sg2621
g2632
ssS'du'
p2641
(dp2642
g2615
I1
sg2620
L0L
sg2621
g2625
ssS'hostconn'
p2643
(dp2644
g2615
I10
sg2620
L16L
sg2621
S'16'
p2645
sssg2621
S'5/11'
p2646
ssS'Obigo'
p2647
(dp2648
S'total_runs'
p2649
L5L
sS'score'
p2650
I1
sS'results'
p2651
(dp2652
S'maxconn'
p2653
(dp2654
g2650
I0
sS'median'
p2655
L0L
sS'display'
p2656
g454
ssS'parscript'
p2657
(dp2658
g2650
I1
sg2655
L0L
sg2656
S'no'
p2659
ssS'parcssjs'
p2660
(dp2661
g2650
I1
sg2655
L0L
sg2656
g2659
ssS'cacheresredir'
p2662
(dp2663
g2650
I1
sg2655
L0L
sg2656
g2659
ssS'cacheexp'
p2664
(dp2665
g2650
I10
sg2655
L1L
sg2656
S'yes'
p2666
ssS'gzip'
p2667
(dp2668
g2650
I1
sg2655
L0L
sg2656
g2659
ssS'prefetch'
p2669
(dp2670
g2650
I1
sg2655
L0L
sg2656
g2659
ssS'cacheredir'
p2671
(dp2672
g2650
I1
sg2655
L0L
sg2656
g2659
ssS'parsheet'
p2673
(dp2674
g2650
I1
sg2655
L0L
sg2656
g2659
ssS'du'
p2675
(dp2676
g2650
I1
sg2655
L0L
sg2656
g2659
ssS'hostconn'
p2677
(dp2678
g2650
I0
sg2655
L1L
sg2656
g319
sssg2656
S'1/11'
p2679
ssS'OmniWeb 607'
p2680
(dp2681
S'total_runs'
p2682
L1L
sS'score'
p2683
I6
sS'results'
p2684
(dp2685
S'maxconn'
p2686
(dp2687
g2683
I10
sS'median'
p2688
L60L
sS'display'
p2689
S'60'
p2690
ssS'parscript'
p2691
(dp2692
g2683
I1
sg2688
L0L
sg2689
S'no'
p2693
ssS'parcssjs'
p2694
(dp2695
g2683
I1
sg2688
L0L
sg2689
g2693
ssS'cacheresredir'
p2696
(dp2697
g2683
I10
sg2688
L1L
sg2689
S'yes'
p2698
ssS'cacheexp'
p2699
(dp2700
g2683
I10
sg2688
L1L
sg2689
g2698
ssS'gzip'
p2701
(dp2702
g2683
I10
sg2688
L1L
sg2689
g2698
ssS'prefetch'
p2703
(dp2704
g2683
I1
sg2688
L0L
sg2689
g2693
ssS'cacheredir'
p2705
(dp2706
g2683
I1
sg2688
L0L
sg2689
g2693
ssS'parsheet'
p2707
(dp2708
g2683
I10
sg2688
L1L
sg2689
g2698
ssS'du'
p2709
(dp2710
g2683
I10
sg2688
L1L
sg2689
g2698
ssS'hostconn'
p2711
(dp2712
g2683
I10
sg2688
L4L
sg2689
g182
sssg2689
S'7/11'
p2713
ssS'OmniWeb 563'
p2714
(dp2715
S'total_runs'
p2716
L2L
sS'score'
p2717
I4
sS'results'
p2718
(dp2719
S'maxconn'
p2720
(dp2721
g2717
I5
sS'median'
p2722
L10L
sS'display'
p2723
S'10'
p2724
ssS'parscript'
p2725
(dp2726
g2717
I1
sg2722
L0L
sg2723
S'no'
p2727
ssS'parcssjs'
p2728
(dp2729
g2717
I1
sg2722
L0L
sg2723
g2727
ssS'cacheresredir'
p2730
(dp2731
g2717
I10
sg2722
L1L
sg2723
S'yes'
p2732
ssS'cacheexp'
p2733
(dp2734
g2717
I10
sg2722
L1L
sg2723
g2732
ssS'gzip'
p2735
(dp2736
g2717
I10
sg2722
L1L
sg2723
g2732
ssS'prefetch'
p2737
(dp2738
g2717
I1
sg2722
L0L
sg2723
g2727
ssS'cacheredir'
p2739
(dp2740
g2717
I1
sg2722
L0L
sg2723
g2727
ssS'parsheet'
p2741
(dp2742
g2717
I1
sg2722
L0L
sg2723
g2727
ssS'du'
p2743
(dp2744
g2717
I10
sg2722
L1L
sg2723
g2732
ssS'hostconn'
p2745
(dp2746
g2717
I10
sg2722
L4L
sg2723
g182
sssg2723
S'5/11'
p2747
ssS'Obigo 05'
p2748
(dp2749
S'total_runs'
p2750
L1L
sS'score'
p2751
I3
sS'results'
p2752
(dp2753
S'maxconn'
p2754
(dp2755
g2751
I5
sS'median'
p2756
L10L
sS'display'
p2757
S'10'
p2758
ssS'parscript'
p2759
(dp2760
g2751
I1
sg2756
L0L
sg2757
S'no'
p2761
ssS'parcssjs'
p2762
(dp2763
g2751
I1
sg2756
L0L
sg2757
g2761
ssS'cacheresredir'
p2764
(dp2765
g2751
I1
sg2756
L0L
sg2757
g2761
ssS'cacheexp'
p2766
(dp2767
g2751
I10
sg2756
L1L
sg2757
S'yes'
p2768
ssS'gzip'
p2769
(dp2770
g2751
I10
sg2756
L1L
sg2757
g2768
ssS'prefetch'
p2771
(dp2772
g2751
I1
sg2756
L0L
sg2757
g2761
ssS'cacheredir'
p2773
(dp2774
g2751
I1
sg2756
L0L
sg2757
g2761
ssS'parsheet'
p2775
(dp2776
g2751
I1
sg2756
L0L
sg2757
g2761
ssS'du'
p2777
(dp2778
g2751
I10
sg2756
L1L
sg2757
g2768
ssS'hostconn'
p2779
(dp2780
g2751
I10
sg2756
L9L
sg2757
g148
sssg2757
S'4/11'
p2781
ssS'Midori 0'
p2782
(dp2783
S'total_runs'
p2784
L6L
sS'score'
p2785
I5
sS'results'
p2786
(dp2787
S'maxconn'
p2788
(dp2789
g2785
I5
sS'median'
p2790
L10L
sS'display'
p2791
S'10'
p2792
ssS'parscript'
p2793
(dp2794
g2785
I10
sg2790
L1L
sg2791
S'yes'
p2795
ssS'parcssjs'
p2796
(dp2797
g2785
I1
sg2790
L0L
sg2791
S'no'
p2798
ssS'cacheresredir'
p2799
(dp2800
g2785
I10
sg2790
L1L
sg2791
g2795
ssS'cacheexp'
p2801
(dp2802
g2785
I10
sg2790
L1L
sg2791
g2795
ssS'gzip'
p2803
(dp2804
g2785
I1
sg2790
L0L
sg2791
g2798
ssS'prefetch'
p2805
(dp2806
g2785
I1
sg2790
L0L
sg2791
g2798
ssS'cacheredir'
p2807
(dp2808
g2785
I1
sg2790
L0L
sg2791
g2798
ssS'parsheet'
p2809
(dp2810
g2785
I10
sg2790
L1L
sg2791
g2795
ssS'du'
p2811
(dp2812
g2785
I10
sg2790
L1L
sg2791
g2795
ssS'hostconn'
p2813
(dp2814
g2785
I5
sg2790
L2L
sg2791
g34
sssg2791
S'5/11'
p2815
ssS'Nokia 51'
p2816
(dp2817
S'total_runs'
p2818
L4L
sS'score'
p2819
I4
sS'results'
p2820
(dp2821
S'maxconn'
p2822
(dp2823
g2819
I0
sS'median'
p2824
L7L
sS'display'
p2825
g81
ssS'parscript'
p2826
(dp2827
g2819
I10
sg2824
L1L
sg2825
S'yes'
p2828
ssS'parcssjs'
p2829
(dp2830
g2819
I1
sg2824
L0L
sg2825
S'no'
p2831
ssS'cacheresredir'
p2832
(dp2833
g2819
I1
sg2824
L0L
sg2825
g2831
ssS'cacheexp'
p2834
(dp2835
g2819
I10
sg2824
L1L
sg2825
g2828
ssS'gzip'
p2836
(dp2837
g2819
I10
sg2824
L1L
sg2825
g2828
ssS'prefetch'
p2838
(dp2839
g2819
I10
sg2824
L1L
sg2825
g2828
ssS'cacheredir'
p2840
(dp2841
g2819
I1
sg2824
L0L
sg2825
g2831
ssS'parsheet'
p2842
(dp2843
g2819
I10
sg2824
L1L
sg2825
g2828
ssS'du'
p2844
(dp2845
g2819
I1
sg2824
L0L
sg2825
g2831
ssS'hostconn'
p2846
(dp2847
g2819
I0
sg2824
L0L
sg2825
g454
sssg2825
S'5/11'
p2848
ssS'Blackberry 8830'
p2849
(dp2850
S'total_runs'
p2851
L5L
sS'score'
p2852
I5
sS'results'
p2853
(dp2854
S'maxconn'
p2855
(dp2856
g2852
I0
sS'median'
p2857
L8L
sS'display'
p2858
g69
ssS'parscript'
p2859
(dp2860
g2852
I10
sg2857
L1L
sg2858
S'yes'
p2861
ssS'parcssjs'
p2862
(dp2863
g2852
I1
sg2857
L0L
sg2858
S'no'
p2864
ssS'cacheresredir'
p2865
(dp2866
g2852
I10
sg2857
L1L
sg2858
g2861
ssS'cacheexp'
p2867
(dp2868
g2852
I10
sg2857
L1L
sg2858
g2861
ssS'gzip'
p2869
(dp2870
g2852
I1
sg2857
L0L
sg2858
g2864
ssS'prefetch'
p2871
(dp2872
g2852
I10
sg2857
L1L
sg2858
g2861
ssS'cacheredir'
p2873
(dp2874
g2852
I1
sg2857
L0L
sg2858
g2864
ssS'parsheet'
p2875
(dp2876
g2852
I10
sg2857
L1L
sg2858
g2861
ssS'du'
p2877
(dp2878
g2852
I1
sg2857
L0L
sg2858
g2864
ssS'hostconn'
p2879
(dp2880
g2852
I10
sg2857
L8L
sg2858
g69
sssg2858
S'6/11'
p2881
ssS'Camino 1'
p2882
(dp2883
S'total_runs'
p2884
L39L
sS'score'
p2885
I6
sS'results'
p2886
(dp2887
S'maxconn'
p2888
(dp2889
g2885
I10
sS'median'
p2890
L24L
sS'display'
p2891
S'24'
p2892
ssS'parscript'
p2893
(dp2894
g2885
I1
sg2890
L0L
sg2891
S'no'
p2895
ssS'parcssjs'
p2896
(dp2897
g2885
I1
sg2890
L0L
sg2891
g2895
ssS'cacheresredir'
p2898
(dp2899
g2885
I10
sg2890
L1L
sg2891
S'yes'
p2900
ssS'cacheexp'
p2901
(dp2902
g2885
I10
sg2890
L1L
sg2891
g2900
ssS'gzip'
p2903
(dp2904
g2885
I10
sg2890
L1L
sg2891
g2900
ssS'prefetch'
p2905
(dp2906
g2885
I10
sg2890
L1L
sg2891
g2900
ssS'cacheredir'
p2907
(dp2908
g2885
I10
sg2890
L1L
sg2891
g2900
ssS'parsheet'
p2909
(dp2910
g2885
I1
sg2890
L0L
sg2891
g2895
ssS'du'
p2911
(dp2912
g2885
I10
sg2890
L1L
sg2891
g2900
ssS'hostconn'
p2913
(dp2914
g2885
I5
sg2890
L2L
sg2891
g34
sssg2891
S'7/11'
p2915
ssS'Blackberry 7130'
p2916
(dp2917
S'total_runs'
p2918
L1L
sS'score'
p2919
I5
sS'results'
p2920
(dp2921
S'maxconn'
p2922
(dp2923
g2919
I0
sS'median'
p2924
L0L
sS'display'
p2925
g454
ssS'parscript'
p2926
(dp2927
g2919
I1
sg2924
L0L
sg2925
S'no'
p2928
ssS'parcssjs'
p2929
(dp2930
g2919
I10
sg2924
L1L
sg2925
S'yes'
p2931
ssS'cacheresredir'
p2932
(dp2933
g2919
I10
sg2924
L1L
sg2925
g2931
ssS'cacheexp'
p2934
(dp2935
g2919
I10
sg2924
L1L
sg2925
g2931
ssS'gzip'
p2936
(dp2937
g2919
I10
sg2924
L1L
sg2925
g2931
ssS'prefetch'
p2938
(dp2939
g2919
I10
sg2924
L1L
sg2925
g2931
ssS'cacheredir'
p2940
(dp2941
g2919
I1
sg2924
L0L
sg2925
g2928
ssS'parsheet'
p2942
(dp2943
g2919
I10
sg2924
L1L
sg2925
g2931
ssS'du'
p2944
(dp2945
g2919
I1
sg2924
L0L
sg2925
g2928
ssS'hostconn'
p2946
(dp2947
g2919
I0
sg2924
L0L
sg2925
g454
sssg2925
S'6/11'
p2948
ssS'Camino 0'
p2949
(dp2950
S'total_runs'
p2951
L1L
sS'score'
p2952
I5
sS'results'
p2953
(dp2954
S'maxconn'
p2955
(dp2956
g2952
I0
sS'median'
p2957
L4L
sS'display'
p2958
g182
ssS'parscript'
p2959
(dp2960
g2952
I1
sg2957
L0L
sg2958
S'no'
p2961
ssS'parcssjs'
p2962
(dp2963
g2952
I1
sg2957
L0L
sg2958
g2961
ssS'cacheresredir'
p2964
(dp2965
g2952
I10
sg2957
L1L
sg2958
S'yes'
p2966
ssS'cacheexp'
p2967
(dp2968
g2952
I10
sg2957
L1L
sg2958
g2966
ssS'gzip'
p2969
(dp2970
g2952
I10
sg2957
L1L
sg2958
g2966
ssS'prefetch'
p2971
(dp2972
g2952
I10
sg2957
L1L
sg2958
g2966
ssS'cacheredir'
p2973
(dp2974
g2952
I1
sg2957
L0L
sg2958
g2961
ssS'parsheet'
p2975
(dp2976
g2952
I1
sg2957
L0L
sg2958
g2961
ssS'du'
p2977
(dp2978
g2952
I10
sg2957
L1L
sg2958
g2966
ssS'hostconn'
p2979
(dp2980
g2952
I10
sg2957
L4L
sg2958
g182
sssg2958
S'6/11'
p2981
ssS'ANTGalio 2'
p2982
(dp2983
S'total_runs'
p2984
L2L
sS'score'
p2985
I3
sS'results'
p2986
(dp2987
S'maxconn'
p2988
(dp2989
g2985
I10
sS'median'
p2990
L53L
sS'display'
p2991
S'53'
p2992
ssS'parscript'
p2993
(dp2994
g2985
I1
sg2990
L0L
sg2991
S'no'
p2995
ssS'parcssjs'
p2996
(dp2997
g2985
I1
sg2990
L0L
sg2991
g2995
ssS'cacheresredir'
p2998
(dp2999
g2985
I1
sg2990
L0L
sg2991
g2995
ssS'cacheexp'
p3000
(dp3001
g2985
I1
sg2990
L0L
sg2991
g2995
ssS'gzip'
p3002
(dp3003
g2985
I1
sg2990
L0L
sg2991
g2995
ssS'prefetch'
p3004
(dp3005
g2985
I1
sg2990
L0L
sg2991
g2995
ssS'cacheredir'
p3006
(dp3007
g2985
I1
sg2990
L0L
sg2991
g2995
ssS'parsheet'
p3008
(dp3009
g2985
I1
sg2990
L0L
sg2991
g2995
ssS'du'
p3010
(dp3011
g2985
I10
sg2990
L1L
sg2991
S'yes'
p3012
ssS'hostconn'
p3013
(dp3014
g2985
I10
sg2990
L7L
sg2991
g81
sssg2991
S'3/11'
p3015
ssS'Fresco 4'
p3016
(dp3017
S'total_runs'
p3018
L1L
sS'score'
p3019
I6
sS'results'
p3020
(dp3021
S'maxconn'
p3022
(dp3023
g3019
I10
sS'median'
p3024
L30L
sS'display'
p3025
S'30'
p3026
ssS'parscript'
p3027
(dp3028
g3019
I1
sg3024
L0L
sg3025
S'no'
p3029
ssS'parcssjs'
p3030
(dp3031
g3019
I1
sg3024
L0L
sg3025
g3029
ssS'cacheresredir'
p3032
(dp3033
g3019
I1
sg3024
L0L
sg3025
g3029
ssS'cacheexp'
p3034
(dp3035
g3019
I10
sg3024
L1L
sg3025
S'yes'
p3036
ssS'gzip'
p3037
(dp3038
g3019
I10
sg3024
L1L
sg3025
g3036
ssS'prefetch'
p3039
(dp3040
g3019
I10
sg3024
L1L
sg3025
g3036
ssS'cacheredir'
p3041
(dp3042
g3019
I1
sg3024
L0L
sg3025
g3029
ssS'parsheet'
p3043
(dp3044
g3019
I10
sg3024
L1L
sg3025
g3036
ssS'du'
p3045
(dp3046
g3019
I10
sg3024
L1L
sg3025
g3036
ssS'hostconn'
p3047
(dp3048
g3019
I10
sg3024
L6L
sg3025
g239
sssg3025
S'7/11'
p3049
ssS'iPhone 3'
p3050
(dp3051
S'total_runs'
p3052
L62L
sS'score'
p3053
I7
sS'results'
p3054
(dp3055
S'maxconn'
p3056
(dp3057
g3053
I10
sS'median'
p3058
L60L
sS'display'
p3059
S'60'
p3060
ssS'parscript'
p3061
(dp3062
g3053
I10
sg3058
L1L
sg3059
S'yes'
p3063
ssS'parcssjs'
p3064
(dp3065
g3053
I1
sg3058
L0L
sg3059
S'no'
p3066
ssS'cacheresredir'
p3067
(dp3068
g3053
I10
sg3058
L1L
sg3059
g3063
ssS'cacheexp'
p3069
(dp3070
g3053
I10
sg3058
L1L
sg3059
g3063
ssS'gzip'
p3071
(dp3072
g3053
I10
sg3058
L1L
sg3059
g3063
ssS'prefetch'
p3073
(dp3074
g3053
I1
sg3058
L0L
sg3059
g3066
ssS'cacheredir'
p3075
(dp3076
g3053
I1
sg3058
L0L
sg3059
g3066
ssS'parsheet'
p3077
(dp3078
g3053
I10
sg3058
L1L
sg3059
g3063
ssS'du'
p3079
(dp3080
g3053
I10
sg3058
L1L
sg3059
g3063
ssS'hostconn'
p3081
(dp3082
g3053
I10
sg3058
L6L
sg3059
g239
sssg3059
S'8/11'
p3083
ssS'iPhone 2'
p3084
(dp3085
S'total_runs'
p3086
L125L
sS'score'
p3087
I7
sS'results'
p3088
(dp3089
S'maxconn'
p3090
(dp3091
g3087
I10
sS'median'
p3092
L60L
sS'display'
p3093
S'60'
p3094
ssS'parscript'
p3095
(dp3096
g3087
I10
sg3092
L1L
sg3093
S'yes'
p3097
ssS'parcssjs'
p3098
(dp3099
g3087
I1
sg3092
L0L
sg3093
S'no'
p3100
ssS'cacheresredir'
p3101
(dp3102
g3087
I10
sg3092
L1L
sg3093
g3097
ssS'cacheexp'
p3103
(dp3104
g3087
I10
sg3092
L1L
sg3093
g3097
ssS'gzip'
p3105
(dp3106
g3087
I10
sg3092
L1L
sg3093
g3097
ssS'prefetch'
p3107
(dp3108
g3087
I1
sg3092
L0L
sg3093
g3100
ssS'cacheredir'
p3109
(dp3110
g3087
I1
sg3092
L0L
sg3093
g3100
ssS'parsheet'
p3111
(dp3112
g3087
I10
sg3092
L1L
sg3093
g3097
ssS'du'
p3113
(dp3114
g3087
I10
sg3092
L1L
sg3093
g3097
ssS'hostconn'
p3115
(dp3116
g3087
I10
sg3092
L4L
sg3093
g182
sssg3093
S'8/11'
p3117
ssS'Iron 0'
p3118
(dp3119
S'total_runs'
p3120
L18L
sS'score'
p3121
I8
sS'results'
p3122
(dp3123
S'maxconn'
p3124
(dp3125
g3121
I10
sS'median'
p3126
L60L
sS'display'
p3127
S'60'
p3128
ssS'parscript'
p3129
(dp3130
g3121
I10
sg3126
L1L
sg3127
S'yes'
p3131
ssS'parcssjs'
p3132
(dp3133
g3121
I1
sg3126
L0L
sg3127
S'no'
p3134
ssS'cacheresredir'
p3135
(dp3136
g3121
I10
sg3126
L1L
sg3127
g3131
ssS'cacheexp'
p3137
(dp3138
g3121
I10
sg3126
L1L
sg3127
g3131
ssS'gzip'
p3139
(dp3140
g3121
I10
sg3126
L1L
sg3127
g3131
ssS'prefetch'
p3141
(dp3142
g3121
I1
sg3126
L0L
sg3127
g3134
ssS'cacheredir'
p3143
(dp3144
g3121
I10
sg3126
L1L
sg3127
g3131
ssS'parsheet'
p3145
(dp3146
g3121
I10
sg3126
L1L
sg3127
g3131
ssS'du'
p3147
(dp3148
g3121
I10
sg3126
L1L
sg3127
g3131
ssS'hostconn'
p3149
(dp3150
g3121
I10
sg3126
L6L
sg3127
g239
sssg3127
S'9/11'
p3151
ssS'Iron 1'
p3152
(dp3153
S'total_runs'
p3154
L14L
sS'score'
p3155
I8
sS'results'
p3156
(dp3157
S'maxconn'
p3158
(dp3159
g3155
I10
sS'median'
p3160
L59L
sS'display'
p3161
S'59'
p3162
ssS'parscript'
p3163
(dp3164
g3155
I10
sg3160
L1L
sg3161
S'yes'
p3165
ssS'parcssjs'
p3166
(dp3167
g3155
I1
sg3160
L0L
sg3161
S'no'
p3168
ssS'cacheresredir'
p3169
(dp3170
g3155
I10
sg3160
L1L
sg3161
g3165
ssS'cacheexp'
p3171
(dp3172
g3155
I10
sg3160
L1L
sg3161
g3165
ssS'gzip'
p3173
(dp3174
g3155
I10
sg3160
L1L
sg3161
g3165
ssS'prefetch'
p3175
(dp3176
g3155
I1
sg3160
L0L
sg3161
g3168
ssS'cacheredir'
p3177
(dp3178
g3155
I10
sg3160
L1L
sg3161
g3165
ssS'parsheet'
p3179
(dp3180
g3155
I10
sg3160
L1L
sg3161
g3165
ssS'du'
p3181
(dp3182
g3155
I10
sg3160
L1L
sg3161
g3165
ssS'hostconn'
p3183
(dp3184
g3155
I10
sg3160
L6L
sg3161
g239
sssg3161
S'9/11'
p3185
ssS'Iron 2'
p3186
(dp3187
S'total_runs'
p3188
L22L
sS'score'
p3189
I8
sS'results'
p3190
(dp3191
S'maxconn'
p3192
(dp3193
g3189
I10
sS'median'
p3194
L60L
sS'display'
p3195
S'60'
p3196
ssS'parscript'
p3197
(dp3198
g3189
I10
sg3194
L1L
sg3195
S'yes'
p3199
ssS'parcssjs'
p3200
(dp3201
g3189
I1
sg3194
L0L
sg3195
S'no'
p3202
ssS'cacheresredir'
p3203
(dp3204
g3189
I10
sg3194
L1L
sg3195
g3199
ssS'cacheexp'
p3205
(dp3206
g3189
I10
sg3194
L1L
sg3195
g3199
ssS'gzip'
p3207
(dp3208
g3189
I10
sg3194
L1L
sg3195
g3199
ssS'prefetch'
p3209
(dp3210
g3189
I1
sg3194
L0L
sg3195
g3202
ssS'cacheredir'
p3211
(dp3212
g3189
I10
sg3194
L1L
sg3195
g3199
ssS'parsheet'
p3213
(dp3214
g3189
I10
sg3194
L1L
sg3195
g3199
ssS'du'
p3215
(dp3216
g3189
I10
sg3194
L1L
sg3195
g3199
ssS'hostconn'
p3217
(dp3218
g3189
I10
sg3194
L6L
sg3195
g239
sssg3195
S'9/11'
p3219
ssS'Iron 3'
p3220
(dp3221
S'total_runs'
p3222
L15L
sS'score'
p3223
I8
sS'results'
p3224
(dp3225
S'maxconn'
p3226
(dp3227
g3223
I10
sS'median'
p3228
L60L
sS'display'
p3229
S'60'
p3230
ssS'parscript'
p3231
(dp3232
g3223
I10
sg3228
L1L
sg3229
S'yes'
p3233
ssS'parcssjs'
p3234
(dp3235
g3223
I1
sg3228
L0L
sg3229
S'no'
p3236
ssS'cacheresredir'
p3237
(dp3238
g3223
I10
sg3228
L1L
sg3229
g3233
ssS'cacheexp'
p3239
(dp3240
g3223
I10
sg3228
L1L
sg3229
g3233
ssS'gzip'
p3241
(dp3242
g3223
I10
sg3228
L1L
sg3229
g3233
ssS'prefetch'
p3243
(dp3244
g3223
I1
sg3228
L0L
sg3229
g3236
ssS'cacheredir'
p3245
(dp3246
g3223
I10
sg3228
L1L
sg3229
g3233
ssS'parsheet'
p3247
(dp3248
g3223
I10
sg3228
L1L
sg3229
g3233
ssS'du'
p3249
(dp3250
g3223
I10
sg3228
L1L
sg3229
g3233
ssS'hostconn'
p3251
(dp3252
g3223
I10
sg3228
L6L
sg3229
g239
sssg3229
S'9/11'
p3253
ssS'Fluid 0'
p3254
(dp3255
S'total_runs'
p3256
L2L
sS'score'
p3257
I6
sS'results'
p3258
(dp3259
S'maxconn'
p3260
(dp3261
g3257
I10
sS'median'
p3262
L60L
sS'display'
p3263
S'60'
p3264
ssS'parscript'
p3265
(dp3266
g3257
I1
sg3262
L0L
sg3263
S'no'
p3267
ssS'parcssjs'
p3268
(dp3269
g3257
I1
sg3262
L0L
sg3263
g3267
ssS'cacheresredir'
p3270
(dp3271
g3257
I10
sg3262
L1L
sg3263
S'yes'
p3272
ssS'cacheexp'
p3273
(dp3274
g3257
I10
sg3262
L1L
sg3263
g3272
ssS'gzip'
p3275
(dp3276
g3257
I10
sg3262
L1L
sg3263
g3272
ssS'prefetch'
p3277
(dp3278
g3257
I1
sg3262
L0L
sg3263
g3267
ssS'cacheredir'
p3279
(dp3280
g3257
I1
sg3262
L0L
sg3263
g3267
ssS'parsheet'
p3281
(dp3282
g3257
I10
sg3262
L1L
sg3263
g3272
ssS'du'
p3283
(dp3284
g3257
I10
sg3262
L1L
sg3263
g3272
ssS'hostconn'
p3285
(dp3286
g3257
I10
sg3262
L4L
sg3263
g182
sssg3263
S'7/11'
p3287
ssS'Safari 3'
p3288
(dp3289
S'total_runs'
p3290
L811L
sS'score'
p3291
I6
sS'results'
p3292
(dp3293
S'maxconn'
p3294
(dp3295
g3291
I10
sS'median'
p3296
L60L
sS'display'
p3297
S'60'
p3298
ssS'parscript'
p3299
(dp3300
g3291
I1
sg3296
L0L
sg3297
S'no'
p3301
ssS'parcssjs'
p3302
(dp3303
g3291
I1
sg3296
L0L
sg3297
g3301
ssS'cacheresredir'
p3304
(dp3305
g3291
I10
sg3296
L1L
sg3297
S'yes'
p3306
ssS'cacheexp'
p3307
(dp3308
g3291
I10
sg3296
L1L
sg3297
g3306
ssS'gzip'
p3309
(dp3310
g3291
I10
sg3296
L1L
sg3297
g3306
ssS'prefetch'
p3311
(dp3312
g3291
I1
sg3296
L0L
sg3297
g3301
ssS'cacheredir'
p3313
(dp3314
g3291
I1
sg3296
L0L
sg3297
g3301
ssS'parsheet'
p3315
(dp3316
g3291
I10
sg3296
L1L
sg3297
g3306
ssS'du'
p3317
(dp3318
g3291
I10
sg3296
L1L
sg3297
g3306
ssS'hostconn'
p3319
(dp3320
g3291
I10
sg3296
L4L
sg3297
g182
sssg3297
S'7/11'
p3321
ssS'Firefox (Minefield) 3'
p3322
(dp3323
S'total_runs'
p3324
L752L
sS'score'
p3325
I9
sS'results'
p3326
(dp3327
S'maxconn'
p3328
(dp3329
g3325
I10
sS'median'
p3330
L30L
sS'display'
p3331
S'30'
p3332
ssS'parscript'
p3333
(dp3334
g3325
I10
sg3330
L1L
sg3331
S'yes'
p3335
ssS'parcssjs'
p3336
(dp3337
g3325
I1
sg3330
L0L
sg3331
S'no'
p3338
ssS'cacheresredir'
p3339
(dp3340
g3325
I10
sg3330
L1L
sg3331
g3335
ssS'cacheexp'
p3341
(dp3342
g3325
I10
sg3330
L1L
sg3331
g3335
ssS'gzip'
p3343
(dp3344
g3325
I10
sg3330
L1L
sg3331
g3335
ssS'prefetch'
p3345
(dp3346
g3325
I10
sg3330
L1L
sg3331
g3335
ssS'cacheredir'
p3347
(dp3348
g3325
I10
sg3330
L1L
sg3331
g3335
ssS'parsheet'
p3349
(dp3350
g3325
I10
sg3330
L1L
sg3331
g3335
ssS'du'
p3351
(dp3352
g3325
I10
sg3330
L1L
sg3331
g3335
ssS'hostconn'
p3353
(dp3354
g3325
I10
sg3330
L6L
sg3331
g239
sssg3331
S'10/11'
p3355
ssS'iCab 5'
p3356
(dp3357
S'total_runs'
p3358
L2L
sS'score'
p3359
I3
sS'results'
p3360
(dp3361
S'maxconn'
p3362
(dp3363
g3359
I5
sS'median'
p3364
L12L
sS'display'
p3365
S'12'
p3366
ssS'parscript'
p3367
(dp3368
g3359
I1
sg3364
L0L
sg3365
S'no'
p3369
ssS'parcssjs'
p3370
(dp3371
g3359
I1
sg3364
L0L
sg3365
g3369
ssS'cacheresredir'
p3372
(dp3373
g3359
I10
sg3364
L1L
sg3365
S'yes'
p3374
ssS'cacheexp'
p3375
(dp3376
g3359
I10
sg3364
L1L
sg3365
g3374
ssS'gzip'
p3377
(dp3378
g3359
I1
sg3364
L0L
sg3365
g3369
ssS'prefetch'
p3379
(dp3380
g3359
I1
sg3364
L0L
sg3365
g3369
ssS'cacheredir'
p3381
(dp3382
g3359
I1
sg3364
L0L
sg3365
g3369
ssS'parsheet'
p3383
(dp3384
g3359
I1
sg3364
L0L
sg3365
g3369
ssS'du'
p3385
(dp3386
g3359
I10
sg3364
L1L
sg3365
g3374
ssS'hostconn'
p3387
(dp3388
g3359
I10
sg3364
L12L
sg3365
S'12'
p3389
sssg3365
S'4/11'
p3390
ssS'Blackberry 8100'
p3391
(dp3392
S'total_runs'
p3393
L1L
sS'score'
p3394
I5
sS'results'
p3395
(dp3396
S'maxconn'
p3397
(dp3398
g3394
I0
sS'median'
p3399
L8L
sS'display'
p3400
g69
ssS'parscript'
p3401
(dp3402
g3394
I10
sg3399
L1L
sg3400
S'yes'
p3403
ssS'parcssjs'
p3404
(dp3405
g3394
I1
sg3399
L0L
sg3400
S'no'
p3406
ssS'cacheresredir'
p3407
(dp3408
g3394
I10
sg3399
L1L
sg3400
g3403
ssS'cacheexp'
p3409
(dp3410
g3394
I10
sg3399
L1L
sg3400
g3403
ssS'gzip'
p3411
(dp3412
g3394
I1
sg3399
L0L
sg3400
g3406
ssS'prefetch'
p3413
(dp3414
g3394
I10
sg3399
L1L
sg3400
g3403
ssS'cacheredir'
p3415
(dp3416
g3394
I1
sg3399
L0L
sg3400
g3406
ssS'parsheet'
p3417
(dp3418
g3394
I10
sg3399
L1L
sg3400
g3403
ssS'du'
p3419
(dp3420
g3394
I1
sg3399
L0L
sg3400
g3406
ssS'hostconn'
p3421
(dp3422
g3394
I10
sg3399
L8L
sg3400
g69
sssg3400
S'6/11'
p3423
ssS'Sleipnir 2'
p3424
(dp3425
S'total_runs'
p3426
L12L
sS'score'
p3427
I4
sS'results'
p3428
(dp3429
S'maxconn'
p3430
(dp3431
g3427
I10
sS'median'
p3432
L60L
sS'display'
p3433
S'60'
p3434
ssS'parscript'
p3435
(dp3436
g3427
I1
sg3432
L0L
sg3433
S'no'
p3437
ssS'parcssjs'
p3438
(dp3439
g3427
I1
sg3432
L0L
sg3433
g3437
ssS'cacheresredir'
p3440
(dp3441
g3427
I1
sg3432
L0L
sg3433
g3437
ssS'cacheexp'
p3442
(dp3443
g3427
I10
sg3432
L1L
sg3433
S'yes'
p3444
ssS'gzip'
p3445
(dp3446
g3427
I10
sg3432
L1L
sg3433
g3444
ssS'prefetch'
p3447
(dp3448
g3427
I1
sg3432
L0L
sg3433
g3437
ssS'cacheredir'
p3449
(dp3450
g3427
I1
sg3432
L0L
sg3433
g3437
ssS'parsheet'
p3451
(dp3452
g3427
I10
sg3432
L1L
sg3433
g3444
ssS'du'
p3453
(dp3454
g3427
I1
sg3432
L0L
sg3433
g3437
ssS'hostconn'
p3455
(dp3456
g3427
I10
sg3432
L6L
sg3433
g239
sssg3433
S'5/11'
p3457
ssS'Firefox (Minefield) 4'
p3458
(dp3459
S'total_runs'
p3460
L1L
sS'score'
p3461
I7
sS'results'
p3462
(dp3463
S'maxconn'
p3464
(dp3465
g3461
I10
sS'median'
p3466
L30L
sS'display'
p3467
S'30'
p3468
ssS'parscript'
p3469
(dp3470
g3461
I1
sg3466
L0L
sg3467
S'no'
p3471
ssS'parcssjs'
p3472
(dp3473
g3461
I1
sg3466
L0L
sg3467
g3471
ssS'cacheresredir'
p3474
(dp3475
g3461
I10
sg3466
L1L
sg3467
S'yes'
p3476
ssS'cacheexp'
p3477
(dp3478
g3461
I10
sg3466
L1L
sg3467
g3476
ssS'gzip'
p3479
(dp3480
g3461
I10
sg3466
L1L
sg3467
g3476
ssS'prefetch'
p3481
(dp3482
g3461
I10
sg3466
L1L
sg3467
g3476
ssS'cacheredir'
p3483
(dp3484
g3461
I1
sg3466
L0L
sg3467
g3471
ssS'parsheet'
p3485
(dp3486
g3461
I10
sg3466
L1L
sg3467
g3476
ssS'du'
p3487
(dp3488
g3461
I10
sg3466
L1L
sg3467
g3476
ssS'hostconn'
p3489
(dp3490
g3461
I10
sg3466
L6L
sg3467
g239
sssg3467
S'8/11'
p3491
ssS'Sunrise 1'
p3492
(dp3493
S'total_runs'
p3494
L3L
sS'score'
p3495
I6
sS'results'
p3496
(dp3497
S'maxconn'
p3498
(dp3499
g3495
I10
sS'median'
p3500
L60L
sS'display'
p3501
S'60'
p3502
ssS'parscript'
p3503
(dp3504
g3495
I1
sg3500
L0L
sg3501
S'no'
p3505
ssS'parcssjs'
p3506
(dp3507
g3495
I1
sg3500
L0L
sg3501
g3505
ssS'cacheresredir'
p3508
(dp3509
g3495
I10
sg3500
L1L
sg3501
S'yes'
p3510
ssS'cacheexp'
p3511
(dp3512
g3495
I10
sg3500
L1L
sg3501
g3510
ssS'gzip'
p3513
(dp3514
g3495
I10
sg3500
L1L
sg3501
g3510
ssS'prefetch'
p3515
(dp3516
g3495
I1
sg3500
L0L
sg3501
g3505
ssS'cacheredir'
p3517
(dp3518
g3495
I1
sg3500
L0L
sg3501
g3505
ssS'parsheet'
p3519
(dp3520
g3495
I10
sg3500
L1L
sg3501
g3510
ssS'du'
p3521
(dp3522
g3495
I10
sg3500
L1L
sg3501
g3510
ssS'hostconn'
p3523
(dp3524
g3495
I10
sg3500
L4L
sg3501
g182
sssg3501
S'7/11'
p3525
ssS'Android 0'
p3526
(dp3527
S'total_runs'
p3528
L1L
sS'score'
p3529
I3
sS'results'
p3530
(dp3531
S'maxconn'
p3532
(dp3533
g3529
I0
sS'median'
p3534
L2L
sS'display'
p3535
g34
ssS'parscript'
p3536
(dp3537
g3529
I1
sg3534
L0L
sg3535
S'no'
p3538
ssS'parcssjs'
p3539
(dp3540
g3529
I1
sg3534
L0L
sg3535
g3538
ssS'cacheresredir'
p3541
(dp3542
g3529
I1
sg3534
L0L
sg3535
g3538
ssS'cacheexp'
p3543
(dp3544
g3529
I10
sg3534
L1L
sg3535
S'yes'
p3545
ssS'gzip'
p3546
(dp3547
g3529
I10
sg3534
L1L
sg3535
g3545
ssS'prefetch'
p3548
(dp3549
g3529
I1
sg3534
L0L
sg3535
g3538
ssS'cacheredir'
p3550
(dp3551
g3529
I1
sg3534
L0L
sg3535
g3538
ssS'parsheet'
p3552
(dp3553
g3529
I10
sg3534
L1L
sg3535
g3545
ssS'du'
p3554
(dp3555
g3529
I10
sg3534
L1L
sg3535
g3545
ssS'hostconn'
p3556
(dp3557
g3529
I5
sg3534
L2L
sg3535
g34
sssg3535
S'4/11'
p3558
ssS'Android 1'
p3559
(dp3560
S'total_runs'
p3561
L46L
sS'score'
p3562
I7
sS'results'
p3563
(dp3564
S'maxconn'
p3565
(dp3566
g3562
I0
sS'median'
p3567
L4L
sS'display'
p3568
g182
ssS'parscript'
p3569
(dp3570
g3562
I10
sg3567
L1L
sg3568
S'yes'
p3571
ssS'parcssjs'
p3572
(dp3573
g3562
I1
sg3567
L0L
sg3568
S'no'
p3574
ssS'cacheresredir'
p3575
(dp3576
g3562
I10
sg3567
L1L
sg3568
g3571
ssS'cacheexp'
p3577
(dp3578
g3562
I10
sg3567
L1L
sg3568
g3571
ssS'gzip'
p3579
(dp3580
g3562
I10
sg3567
L1L
sg3568
g3571
ssS'prefetch'
p3581
(dp3582
g3562
I1
sg3567
L0L
sg3568
g3574
ssS'cacheredir'
p3583
(dp3584
g3562
I10
sg3567
L1L
sg3568
g3571
ssS'parsheet'
p3585
(dp3586
g3562
I10
sg3567
L1L
sg3568
g3571
ssS'du'
p3587
(dp3588
g3562
I10
sg3567
L1L
sg3568
g3571
ssS'hostconn'
p3589
(dp3590
g3562
I10
sg3567
L4L
sg3568
g182
sssg3568
S'8/11'
p3591
ssS'IceWeasel 3'
p3592
(dp3593
S'total_runs'
p3594
L1L
sS'score'
p3595
I8
sS'results'
p3596
(dp3597
S'maxconn'
p3598
(dp3599
g3595
I10
sS'median'
p3600
L30L
sS'display'
p3601
S'30'
p3602
ssS'parscript'
p3603
(dp3604
g3595
I10
sg3600
L1L
sg3601
S'yes'
p3605
ssS'parcssjs'
p3606
(dp3607
g3595
I1
sg3600
L0L
sg3601
S'no'
p3608
ssS'cacheresredir'
p3609
(dp3610
g3595
I10
sg3600
L1L
sg3601
g3605
ssS'cacheexp'
p3611
(dp3612
g3595
I10
sg3600
L1L
sg3601
g3605
ssS'gzip'
p3613
(dp3614
g3595
I10
sg3600
L1L
sg3601
g3605
ssS'prefetch'
p3615
(dp3616
g3595
I10
sg3600
L1L
sg3601
g3605
ssS'cacheredir'
p3617
(dp3618
g3595
I10
sg3600
L1L
sg3601
g3605
ssS'parsheet'
p3619
(dp3620
g3595
I10
sg3600
L1L
sg3601
g3605
ssS'du'
p3621
(dp3622
g3595
I10
sg3600
L1L
sg3601
g3605
ssS'hostconn'
p3623
(dp3624
g3595
I10
sg3600
L6L
sg3601
g239
sssg3601
S'10/11'
p3625
ssS'Kazehakase 0'
p3626
(dp3627
S'total_runs'
p3628
L6L
sS'score'
p3629
I6
sS'results'
p3630
(dp3631
S'maxconn'
p3632
(dp3633
g3629
I10
sS'median'
p3634
L29L
sS'display'
p3635
S'29'
p3636
ssS'parscript'
p3637
(dp3638
g3629
I1
sg3634
L0L
sg3635
S'no'
p3639
ssS'parcssjs'
p3640
(dp3641
g3629
I1
sg3634
L0L
sg3635
g3639
ssS'cacheresredir'
p3642
(dp3643
g3629
I1
sg3634
L0L
sg3635
g3639
ssS'cacheexp'
p3644
(dp3645
g3629
I10
sg3634
L1L
sg3635
S'yes'
p3646
ssS'gzip'
p3647
(dp3648
g3629
I10
sg3634
L1L
sg3635
g3646
ssS'prefetch'
p3649
(dp3650
g3629
I10
sg3634
L1L
sg3635
g3646
ssS'cacheredir'
p3651
(dp3652
g3629
I1
sg3634
L0L
sg3635
g3639
ssS'parsheet'
p3653
(dp3654
g3629
I10
sg3634
L1L
sg3635
g3646
ssS'du'
p3655
(dp3656
g3629
I10
sg3634
L1L
sg3635
g3646
ssS'hostconn'
p3657
(dp3658
g3629
I10
sg3634
L6L
sg3635
g239
sssg3635
S'7/11'
p3659
ssS'Polaris 6'
p3660
(dp3661
S'total_runs'
p3662
L1L
sS'score'
p3663
I8
sS'results'
p3664
(dp3665
S'maxconn'
p3666
(dp3667
g3663
I10
sS'median'
p3668
L50L
sS'display'
p3669
S'50'
p3670
ssS'parscript'
p3671
(dp3672
g3663
I10
sg3668
L1L
sg3669
S'yes'
p3673
ssS'parcssjs'
p3674
(dp3675
g3663
I1
sg3668
L0L
sg3669
S'no'
p3676
ssS'cacheresredir'
p3677
(dp3678
g3663
I10
sg3668
L1L
sg3669
g3673
ssS'cacheexp'
p3679
(dp3680
g3663
I10
sg3668
L1L
sg3669
g3673
ssS'gzip'
p3681
(dp3682
g3663
I10
sg3668
L1L
sg3669
g3673
ssS'prefetch'
p3683
(dp3684
g3663
I1
sg3668
L0L
sg3669
g3676
ssS'cacheredir'
p3685
(dp3686
g3663
I10
sg3668
L1L
sg3669
g3673
ssS'parsheet'
p3687
(dp3688
g3663
I10
sg3668
L1L
sg3669
g3673
ssS'du'
p3689
(dp3690
g3663
I10
sg3668
L1L
sg3669
g3673
ssS'hostconn'
p3691
(dp3692
g3663
I10
sg3668
L10L
sg3669
S'10'
p3693
sssg3669
S'9/11'
p3694
ssS'Other'
p3695
(dp3696
S'total_runs'
p3697
L72L
sS'score'
p3698
I6
sS'results'
p3699
(dp3700
S'maxconn'
p3701
(dp3702
g3698
I10
sS'median'
p3703
L29L
sS'display'
p3704
S'29'
p3705
ssS'parscript'
p3706
(dp3707
g3698
I10
sg3703
L1L
sg3704
S'yes'
p3708
ssS'parcssjs'
p3709
(dp3710
g3698
I1
sg3703
L0L
sg3704
S'no'
p3711
ssS'cacheresredir'
p3712
(dp3713
g3698
I10
sg3703
L1L
sg3704
g3708
ssS'cacheexp'
p3714
(dp3715
g3698
I10
sg3703
L1L
sg3704
g3708
ssS'gzip'
p3716
(dp3717
g3698
I10
sg3703
L1L
sg3704
g3708
ssS'prefetch'
p3718
(dp3719
g3698
I1
sg3703
L0L
sg3704
g3711
ssS'cacheredir'
p3720
(dp3721
g3698
I1
sg3703
L0L
sg3704
g3711
ssS'parsheet'
p3722
(dp3723
g3698
I10
sg3703
L1L
sg3704
g3708
ssS'du'
p3724
(dp3725
g3698
I10
sg3703
L1L
sg3704
g3708
ssS'hostconn'
p3726
(dp3727
g3698
I5
sg3703
L2L
sg3704
g34
sssg3704
S'7/11'
p3728
ssS'Vienna 2'
p3729
(dp3730
S'total_runs'
p3731
L5L
sS'score'
p3732
I6
sS'results'
p3733
(dp3734
S'maxconn'
p3735
(dp3736
g3732
I10
sS'median'
p3737
L60L
sS'display'
p3738
S'60'
p3739
ssS'parscript'
p3740
(dp3741
g3732
I1
sg3737
L0L
sg3738
S'no'
p3742
ssS'parcssjs'
p3743
(dp3744
g3732
I1
sg3737
L0L
sg3738
g3742
ssS'cacheresredir'
p3745
(dp3746
g3732
I10
sg3737
L1L
sg3738
S'yes'
p3747
ssS'cacheexp'
p3748
(dp3749
g3732
I10
sg3737
L1L
sg3738
g3747
ssS'gzip'
p3750
(dp3751
g3732
I10
sg3737
L1L
sg3738
g3747
ssS'prefetch'
p3752
(dp3753
g3732
I1
sg3737
L0L
sg3738
g3742
ssS'cacheredir'
p3754
(dp3755
g3732
I1
sg3737
L0L
sg3738
g3742
ssS'parsheet'
p3756
(dp3757
g3732
I10
sg3737
L1L
sg3738
g3747
ssS'du'
p3758
(dp3759
g3732
I10
sg3737
L1L
sg3738
g3747
ssS'hostconn'
p3760
(dp3761
g3732
I10
sg3737
L4L
sg3738
g182
sssg3738
S'7/11'
p3762
ssS'Crazy Browser 3'
p3763
(dp3764
S'total_runs'
p3765
L3L
sS'score'
p3766
I2
sS'results'
p3767
(dp3768
S'maxconn'
p3769
(dp3770
g3766
I5
sS'median'
p3771
L16L
sS'display'
p3772
S'16'
p3773
ssS'parscript'
p3774
(dp3775
g3766
I1
sg3771
L0L
sg3772
S'no'
p3776
ssS'parcssjs'
p3777
(dp3778
g3766
I1
sg3771
L0L
sg3772
g3776
ssS'cacheresredir'
p3779
(dp3780
g3766
I1
sg3771
L0L
sg3772
g3776
ssS'cacheexp'
p3781
(dp3782
g3766
I10
sg3771
L1L
sg3772
S'yes'
p3783
ssS'gzip'
p3784
(dp3785
g3766
I1
sg3771
L0L
sg3772
g3776
ssS'prefetch'
p3786
(dp3787
g3766
I1
sg3771
L0L
sg3772
g3776
ssS'cacheredir'
p3788
(dp3789
g3766
I1
sg3771
L0L
sg3772
g3776
ssS'parsheet'
p3790
(dp3791
g3766
I1
sg3771
L0L
sg3772
g3776
ssS'du'
p3792
(dp3793
g3766
I1
sg3771
L0L
sg3772
g3776
ssS'hostconn'
p3794
(dp3795
g3766
I10
sg3771
L12L
sg3772
S'12'
p3796
sssg3772
S'2/11'
p3797
ssS'Firefox (Namoroka) 3'
p3798
(dp3799
S'total_runs'
p3800
L6L
sS'score'
p3801
I10
sS'results'
p3802
(dp3803
S'maxconn'
p3804
(dp3805
g3801
I10
sS'median'
p3806
L30L
sS'display'
p3807
S'30'
p3808
ssS'parscript'
p3809
(dp3810
g3801
I10
sg3806
L1L
sg3807
S'yes'
p3811
ssS'parcssjs'
p3812
(dp3813
g3801
I10
sg3806
L1L
sg3807
g3811
ssS'cacheresredir'
p3814
(dp3815
g3801
I10
sg3806
L1L
sg3807
g3811
ssS'cacheexp'
p3816
(dp3817
g3801
I10
sg3806
L1L
sg3807
g3811
ssS'gzip'
p3818
(dp3819
g3801
I10
sg3806
L1L
sg3807
g3811
ssS'prefetch'
p3820
(dp3821
g3801
I10
sg3806
L1L
sg3807
g3811
ssS'cacheredir'
p3822
(dp3823
g3801
I10
sg3806
L1L
sg3807
g3811
ssS'parsheet'
p3824
(dp3825
g3801
I10
sg3806
L1L
sg3807
g3811
ssS'du'
p3826
(dp3827
g3801
I10
sg3806
L1L
sg3807
g3811
ssS'hostconn'
p3828
(dp3829
g3801
I10
sg3806
L6L
sg3807
g239
sssg3807
S'11/11'
p3830
ssS'My Internet Browser 3'
p3831
(dp3832
S'total_runs'
p3833
L1L
sS'score'
p3834
I6
sS'results'
p3835
(dp3836
S'maxconn'
p3837
(dp3838
g3834
I10
sS'median'
p3839
L30L
sS'display'
p3840
S'30'
p3841
ssS'parscript'
p3842
(dp3843
g3834
I1
sg3839
L0L
sg3840
S'no'
p3844
ssS'parcssjs'
p3845
(dp3846
g3834
I1
sg3839
L0L
sg3840
g3844
ssS'cacheresredir'
p3847
(dp3848
g3834
I1
sg3839
L0L
sg3840
g3844
ssS'cacheexp'
p3849
(dp3850
g3834
I10
sg3839
L1L
sg3840
S'yes'
p3851
ssS'gzip'
p3852
(dp3853
g3834
I10
sg3839
L1L
sg3840
g3851
ssS'prefetch'
p3854
(dp3855
g3834
I10
sg3839
L1L
sg3840
g3851
ssS'cacheredir'
p3856
(dp3857
g3834
I1
sg3839
L0L
sg3840
g3844
ssS'parsheet'
p3858
(dp3859
g3834
I10
sg3839
L1L
sg3840
g3851
ssS'du'
p3860
(dp3861
g3834
I10
sg3839
L1L
sg3840
g3851
ssS'hostconn'
p3862
(dp3863
g3834
I10
sg3839
L6L
sg3840
g239
sssg3840
S'7/11'
p3864
ssS'Opera 10'
p3865
(dp3866
S'total_runs'
p3867
L1265L
sS'score'
p3868
I6
sS'results'
p3869
(dp3870
S'maxconn'
p3871
(dp3872
g3868
I10
sS'median'
p3873
L49L
sS'display'
p3874
S'49'
p3875
ssS'parscript'
p3876
(dp3877
g3868
I1
sg3873
L0L
sg3874
S'no'
p3878
ssS'parcssjs'
p3879
(dp3880
g3868
I1
sg3873
L0L
sg3874
g3878
ssS'cacheresredir'
p3881
(dp3882
g3868
I10
sg3873
L1L
sg3874
S'yes'
p3883
ssS'cacheexp'
p3884
(dp3885
g3868
I10
sg3873
L1L
sg3874
g3883
ssS'gzip'
p3886
(dp3887
g3868
I10
sg3873
L1L
sg3874
g3883
ssS'prefetch'
p3888
(dp3889
g3868
I1
sg3873
L0L
sg3874
g3878
ssS'cacheredir'
p3890
(dp3891
g3868
I1
sg3873
L0L
sg3874
g3878
ssS'parsheet'
p3892
(dp3893
g3868
I10
sg3873
L1L
sg3874
g3883
ssS'du'
p3894
(dp3895
g3868
I10
sg3873
L1L
sg3874
g3883
ssS'hostconn'
p3896
(dp3897
g3868
I10
sg3873
L8L
sg3874
g69
sssg3874
S'7/11'
p3898
ssS'Uzbl 0'
p3899
(dp3900
S'total_runs'
p3901
L6L
sS'score'
p3902
I4
sS'results'
p3903
(dp3904
S'maxconn'
p3905
(dp3906
g3902
I5
sS'median'
p3907
L10L
sS'display'
p3908
S'10'
p3909
ssS'parscript'
p3910
(dp3911
g3902
I10
sg3907
L1L
sg3908
S'yes'
p3912
ssS'parcssjs'
p3913
(dp3914
g3902
I1
sg3907
L0L
sg3908
S'no'
p3915
ssS'cacheresredir'
p3916
(dp3917
g3902
I10
sg3907
L1L
sg3908
g3912
ssS'cacheexp'
p3918
(dp3919
g3902
I10
sg3907
L1L
sg3908
g3912
ssS'gzip'
p3920
(dp3921
g3902
I1
sg3907
L0L
sg3908
g3915
ssS'prefetch'
p3922
(dp3923
g3902
I1
sg3907
L0L
sg3908
g3915
ssS'cacheredir'
p3924
(dp3925
g3902
I1
sg3907
L0L
sg3908
g3915
ssS'parsheet'
p3926
(dp3927
g3902
I10
sg3907
L1L
sg3908
g3912
ssS'du'
p3928
(dp3929
g3902
I10
sg3907
L1L
sg3908
g3912
ssS'hostconn'
p3930
(dp3931
g3902
I5
sg3907
L2L
sg3908
g34
sssg3908
S'5/11'
p3932
ssS'Flock 0'
p3933
(dp3934
S'total_runs'
p3935
L1L
sS'score'
p3936
I6
sS'results'
p3937
(dp3938
S'maxconn'
p3939
(dp3940
g3936
I10
sS'median'
p3941
L24L
sS'display'
p3942
S'24'
p3943
ssS'parscript'
p3944
(dp3945
g3936
I1
sg3941
L0L
sg3942
S'no'
p3946
ssS'parcssjs'
p3947
(dp3948
g3936
I1
sg3941
L0L
sg3942
g3946
ssS'cacheresredir'
p3949
(dp3950
g3936
I10
sg3941
L1L
sg3942
S'yes'
p3951
ssS'cacheexp'
p3952
(dp3953
g3936
I10
sg3941
L1L
sg3942
g3951
ssS'gzip'
p3954
(dp3955
g3936
I10
sg3941
L1L
sg3942
g3951
ssS'prefetch'
p3956
(dp3957
g3936
I10
sg3941
L1L
sg3942
g3951
ssS'cacheredir'
p3958
(dp3959
g3936
I10
sg3941
L1L
sg3942
g3951
ssS'parsheet'
p3960
(dp3961
g3936
I1
sg3941
L0L
sg3942
g3946
ssS'du'
p3962
(dp3963
g3936
I10
sg3941
L1L
sg3942
g3951
ssS'hostconn'
p3964
(dp3965
g3936
I5
sg3941
L2L
sg3942
g34
sssg3942
S'7/11'
p3966
ssS'Flock 1'
p3967
(dp3968
S'total_runs'
p3969
L3L
sS'score'
p3970
I6
sS'results'
p3971
(dp3972
S'maxconn'
p3973
(dp3974
g3970
I10
sS'median'
p3975
L24L
sS'display'
p3976
S'24'
p3977
ssS'parscript'
p3978
(dp3979
g3970
I1
sg3975
L0L
sg3976
S'no'
p3980
ssS'parcssjs'
p3981
(dp3982
g3970
I1
sg3975
L0L
sg3976
g3980
ssS'cacheresredir'
p3983
(dp3984
g3970
I10
sg3975
L1L
sg3976
S'yes'
p3985
ssS'cacheexp'
p3986
(dp3987
g3970
I10
sg3975
L1L
sg3976
g3985
ssS'gzip'
p3988
(dp3989
g3970
I10
sg3975
L1L
sg3976
g3985
ssS'prefetch'
p3990
(dp3991
g3970
I10
sg3975
L1L
sg3976
g3985
ssS'cacheredir'
p3992
(dp3993
g3970
I10
sg3975
L1L
sg3976
g3985
ssS'parsheet'
p3994
(dp3995
g3970
I1
sg3975
L0L
sg3976
g3980
ssS'du'
p3996
(dp3997
g3970
I10
sg3975
L1L
sg3976
g3985
ssS'hostconn'
p3998
(dp3999
g3970
I5
sg3975
L2L
sg3976
g34
sssg3976
S'7/11'
p4000
ssS'Flock 2'
p4001
(dp4002
S'total_runs'
p4003
L24L
sS'score'
p4004
I7
sS'results'
p4005
(dp4006
S'maxconn'
p4007
(dp4008
g4004
I10
sS'median'
p4009
L31L
sS'display'
p4010
S'31'
p4011
ssS'parscript'
p4012
(dp4013
g4004
I1
sg4009
L0L
sg4010
S'no'
p4014
ssS'parcssjs'
p4015
(dp4016
g4004
I1
sg4009
L0L
sg4010
g4014
ssS'cacheresredir'
p4017
(dp4018
g4004
I10
sg4009
L1L
sg4010
S'yes'
p4019
ssS'cacheexp'
p4020
(dp4021
g4004
I10
sg4009
L1L
sg4010
g4019
ssS'gzip'
p4022
(dp4023
g4004
I10
sg4009
L1L
sg4010
g4019
ssS'prefetch'
p4024
(dp4025
g4004
I10
sg4009
L1L
sg4010
g4019
ssS'cacheredir'
p4026
(dp4027
g4004
I1
sg4009
L0L
sg4010
g4014
ssS'parsheet'
p4028
(dp4029
g4004
I10
sg4009
L1L
sg4010
g4019
ssS'du'
p4030
(dp4031
g4004
I10
sg4009
L1L
sg4010
g4019
ssS'hostconn'
p4032
(dp4033
g4004
I10
sg4009
L6L
sg4010
g239
sssg4010
S'8/11'
p4034
ssS'Links 2'
p4035
(dp4036
S'total_runs'
p4037
L1L
sS'score'
p4038
I7
sS'results'
p4039
(dp4040
S'maxconn'
p4041
(dp4042
g4038
I10
sS'median'
p4043
L30L
sS'display'
p4044
S'30'
p4045
ssS'parscript'
p4046
(dp4047
g4038
I0
sg4043
Nsg4044
g475
ssS'parcssjs'
p4048
(dp4049
g4038
I1
sg4043
L0L
sg4044
S'no'
p4050
ssS'cacheresredir'
p4051
(dp4052
g4038
I10
sg4043
L1L
sg4044
S'yes'
p4053
ssS'cacheexp'
p4054
(dp4055
g4038
I10
sg4043
L1L
sg4044
g4053
ssS'gzip'
p4056
(dp4057
g4038
I1
sg4043
L0L
sg4044
g4050
ssS'prefetch'
p4058
(dp4059
g4038
I10
sg4043
L1L
sg4044
g4053
ssS'cacheredir'
p4060
(dp4061
g4038
I10
sg4043
L1L
sg4044
g4053
ssS'parsheet'
p4062
(dp4063
g4038
I10
sg4043
L1L
sg4044
g4053
ssS'du'
p4064
(dp4065
g4038
I10
sg4043
L1L
sg4044
g4053
ssS'hostconn'
p4066
(dp4067
g4038
I10
sg4043
L15L
sg4044
S'15'
p4068
sssg4044
S'8/11'
p4069
ssS'Bolt 0'
p4070
(dp4071
S'total_runs'
p4072
L2L
sS'score'
p4073
I4
sS'results'
p4074
(dp4075
S'maxconn'
p4076
(dp4077
g4073
I0
sS'median'
p4078
L5L
sS'display'
p4079
g725
ssS'parscript'
p4080
(dp4081
g4073
I1
sg4078
L0L
sg4079
S'no'
p4082
ssS'parcssjs'
p4083
(dp4084
g4073
I1
sg4078
L0L
sg4079
g4082
ssS'cacheresredir'
p4085
(dp4086
g4073
I1
sg4078
L0L
sg4079
g4082
ssS'cacheexp'
p4087
(dp4088
g4073
I1
sg4078
L0L
sg4079
g4082
ssS'gzip'
p4089
(dp4090
g4073
I10
sg4078
L1L
sg4079
S'yes'
p4091
ssS'prefetch'
p4092
(dp4093
g4073
I1
sg4078
L0L
sg4079
g4082
ssS'cacheredir'
p4094
(dp4095
g4073
I10
sg4078
L1L
sg4079
g4091
ssS'parsheet'
p4096
(dp4097
g4073
I10
sg4078
L1L
sg4079
g4091
ssS'du'
p4098
(dp4099
g4073
I10
sg4078
L1L
sg4079
g4091
ssS'hostconn'
p4100
(dp4101
g4073
I10
sg4078
L5L
sg4079
g725
sssg4079
S'5/11'
p4102
ssS'Epiphany 2'
p4103
(dp4104
S'total_runs'
p4105
L44L
sS'score'
p4106
I7
sS'results'
p4107
(dp4108
S'maxconn'
p4109
(dp4110
g4106
I10
sS'median'
p4111
L30L
sS'display'
p4112
S'30'
p4113
ssS'parscript'
p4114
(dp4115
g4106
I1
sg4111
L0L
sg4112
S'no'
p4116
ssS'parcssjs'
p4117
(dp4118
g4106
I1
sg4111
L0L
sg4112
g4116
ssS'cacheresredir'
p4119
(dp4120
g4106
I10
sg4111
L1L
sg4112
S'yes'
p4121
ssS'cacheexp'
p4122
(dp4123
g4106
I10
sg4111
L1L
sg4112
g4121
ssS'gzip'
p4124
(dp4125
g4106
I10
sg4111
L1L
sg4112
g4121
ssS'prefetch'
p4126
(dp4127
g4106
I10
sg4111
L1L
sg4112
g4121
ssS'cacheredir'
p4128
(dp4129
g4106
I1
sg4111
L0L
sg4112
g4116
ssS'parsheet'
p4130
(dp4131
g4106
I10
sg4111
L1L
sg4112
g4121
ssS'du'
p4132
(dp4133
g4106
I10
sg4111
L1L
sg4112
g4121
ssS'hostconn'
p4134
(dp4135
g4106
I10
sg4111
L6L
sg4112
g239
sssg4112
S'8/11'
p4136
ssS'SeaMonkey 2'
p4137
(dp4138
S'total_runs'
p4139
L33L
sS'score'
p4140
I8
sS'results'
p4141
(dp4142
S'maxconn'
p4143
(dp4144
g4140
I10
sS'median'
p4145
L30L
sS'display'
p4146
S'30'
p4147
ssS'parscript'
p4148
(dp4149
g4140
I10
sg4145
L1L
sg4146
S'yes'
p4150
ssS'parcssjs'
p4151
(dp4152
g4140
I1
sg4145
L0L
sg4146
S'no'
p4153
ssS'cacheresredir'
p4154
(dp4155
g4140
I10
sg4145
L1L
sg4146
g4150
ssS'cacheexp'
p4156
(dp4157
g4140
I10
sg4145
L1L
sg4146
g4150
ssS'gzip'
p4158
(dp4159
g4140
I10
sg4145
L1L
sg4146
g4150
ssS'prefetch'
p4160
(dp4161
g4140
I10
sg4145
L1L
sg4146
g4150
ssS'cacheredir'
p4162
(dp4163
g4140
I10
sg4145
L1L
sg4146
g4150
ssS'parsheet'
p4164
(dp4165
g4140
I10
sg4145
L1L
sg4146
g4150
ssS'du'
p4166
(dp4167
g4140
I10
sg4145
L1L
sg4146
g4150
ssS'hostconn'
p4168
(dp4169
g4140
I10
sg4145
L6L
sg4146
g239
sssg4146
S'10/11'
p4170
ssS'NetFront 3'
p4171
(dp4172
S'total_runs'
p4173
L8L
sS'score'
p4174
I3
sS'results'
p4175
(dp4176
S'maxconn'
p4177
(dp4178
g4174
I0
sS'median'
p4179
L0L
sS'display'
p4180
g454
ssS'parscript'
p4181
(dp4182
g4174
I1
sg4179
L0L
sg4180
S'no'
p4183
ssS'parcssjs'
p4184
(dp4185
g4174
I1
sg4179
L0L
sg4180
g4183
ssS'cacheresredir'
p4186
(dp4187
g4174
I1
sg4179
L0L
sg4180
g4183
ssS'cacheexp'
p4188
(dp4189
g4174
I10
sg4179
L1L
sg4180
S'yes'
p4190
ssS'gzip'
p4191
(dp4192
g4174
I10
sg4179
L1L
sg4180
g4190
ssS'prefetch'
p4193
(dp4194
g4174
I1
sg4179
L0L
sg4180
g4183
ssS'cacheredir'
p4195
(dp4196
g4174
I1
sg4179
L0L
sg4180
g4183
ssS'parsheet'
p4197
(dp4198
g4174
I1
sg4179
L0L
sg4180
g4183
ssS'du'
p4199
(dp4200
g4174
I10
sg4179
L1L
sg4180
g4190
ssS'hostconn'
p4201
(dp4202
g4174
I0
sg4179
L0L
sg4180
g454
sssg4180
S'3/11'
p4203
ssS'OmniWeb 558'
p4204
(dp4205
S'total_runs'
p4206
L1L
sS'score'
p4207
I3
sS'results'
p4208
(dp4209
S'maxconn'
p4210
(dp4211
g4207
I5
sS'median'
p4212
L10L
sS'display'
p4213
S'10'
p4214
ssS'parscript'
p4215
(dp4216
g4207
I1
sg4212
L0L
sg4213
S'no'
p4217
ssS'parcssjs'
p4218
(dp4219
g4207
I1
sg4212
L0L
sg4213
g4217
ssS'cacheresredir'
p4220
(dp4221
g4207
I10
sg4212
L1L
sg4213
S'yes'
p4222
ssS'cacheexp'
p4223
(dp4224
g4207
I1
sg4212
L0L
sg4213
g4217
ssS'gzip'
p4225
(dp4226
g4207
I10
sg4212
L1L
sg4213
g4222
ssS'prefetch'
p4227
(dp4228
g4207
I1
sg4212
L0L
sg4213
g4217
ssS'cacheredir'
p4229
(dp4230
g4207
I1
sg4212
L0L
sg4213
g4217
ssS'parsheet'
p4231
(dp4232
g4207
I1
sg4212
L0L
sg4213
g4217
ssS'du'
p4233
(dp4234
g4207
I10
sg4212
L1L
sg4213
g4222
ssS'hostconn'
p4235
(dp4236
g4207
I10
sg4212
L4L
sg4213
g182
sssg4213
S'4/11'
p4237
ssS'Nokia 5800'
p4238
(dp4239
S'total_runs'
p4240
L2L
sS'score'
p4241
I8
sS'results'
p4242
(dp4243
S'maxconn'
p4244
(dp4245
g4241
I5
sS'median'
p4246
L16L
sS'display'
p4247
S'16'
p4248
ssS'parscript'
p4249
(dp4250
g4241
I10
sg4246
L1L
sg4247
S'yes'
p4251
ssS'parcssjs'
p4252
(dp4253
g4241
I1
sg4246
L0L
sg4247
S'no'
p4254
ssS'cacheresredir'
p4255
(dp4256
g4241
I10
sg4246
L1L
sg4247
g4251
ssS'cacheexp'
p4257
(dp4258
g4241
I10
sg4246
L1L
sg4247
g4251
ssS'gzip'
p4259
(dp4260
g4241
I10
sg4246
L1L
sg4247
g4251
ssS'prefetch'
p4261
(dp4262
g4241
I10
sg4246
L1L
sg4247
g4251
ssS'cacheredir'
p4263
(dp4264
g4241
I10
sg4246
L1L
sg4247
g4251
ssS'parsheet'
p4265
(dp4266
g4241
I10
sg4246
L1L
sg4247
g4251
ssS'du'
p4267
(dp4268
g4241
I10
sg4246
L1L
sg4247
g4251
ssS'hostconn'
p4269
(dp4270
g4241
I10
sg4246
L16L
sg4247
S'16'
p4271
sssg4247
S'9/11'
p4272
ssS'Blackberry 8120'
p4273
(dp4274
S'total_runs'
p4275
L1L
sS'score'
p4276
I5
sS'results'
p4277
(dp4278
S'maxconn'
p4279
(dp4280
g4276
I0
sS'median'
p4281
L0L
sS'display'
p4282
g454
ssS'parscript'
p4283
(dp4284
g4276
I1
sg4281
L0L
sg4282
S'no'
p4285
ssS'parcssjs'
p4286
(dp4287
g4276
I10
sg4281
L1L
sg4282
S'yes'
p4288
ssS'cacheresredir'
p4289
(dp4290
g4276
I10
sg4281
L1L
sg4282
g4288
ssS'cacheexp'
p4291
(dp4292
g4276
I10
sg4281
L1L
sg4282
g4288
ssS'gzip'
p4293
(dp4294
g4276
I10
sg4281
L1L
sg4282
g4288
ssS'prefetch'
p4295
(dp4296
g4276
I10
sg4281
L1L
sg4282
g4288
ssS'cacheredir'
p4297
(dp4298
g4276
I1
sg4281
L0L
sg4282
g4285
ssS'parsheet'
p4299
(dp4300
g4276
I10
sg4281
L1L
sg4282
g4288
ssS'du'
p4301
(dp4302
g4276
I1
sg4281
L0L
sg4282
g4285
ssS'hostconn'
p4303
(dp4304
g4276
I0
sg4281
L0L
sg4282
g454
sssg4282
S'6/11'
p4305
ssS'Konqueror 3'
p4306
(dp4307
S'total_runs'
p4308
L55L
sS'score'
p4309
I5
sS'results'
p4310
(dp4311
S'maxconn'
p4312
(dp4313
g4309
I0
sS'median'
p4314
L5L
sS'display'
p4315
g725
ssS'parscript'
p4316
(dp4317
g4309
I1
sg4314
L0L
sg4315
S'no'
p4318
ssS'parcssjs'
p4319
(dp4320
g4309
I1
sg4314
L0L
sg4315
g4318
ssS'cacheresredir'
p4321
(dp4322
g4309
I10
sg4314
L1L
sg4315
S'yes'
p4323
ssS'cacheexp'
p4324
(dp4325
g4309
I10
sg4314
L1L
sg4315
g4323
ssS'gzip'
p4326
(dp4327
g4309
I10
sg4314
L1L
sg4315
g4323
ssS'prefetch'
p4328
(dp4329
g4309
I1
sg4314
L0L
sg4315
g4318
ssS'cacheredir'
p4330
(dp4331
g4309
I1
sg4314
L0L
sg4315
g4318
ssS'parsheet'
p4332
(dp4333
g4309
I10
sg4314
L1L
sg4315
g4323
ssS'du'
p4334
(dp4335
g4309
I10
sg4314
L1L
sg4315
g4323
ssS'hostconn'
p4336
(dp4337
g4309
I10
sg4314
L5L
sg4315
g725
sssg4315
S'6/11'
p4338
ssS'Blackberry 8800'
p4339
(dp4340
S'total_runs'
p4341
L1L
sS'score'
p4342
I5
sS'results'
p4343
(dp4344
S'maxconn'
p4345
(dp4346
g4342
I0
sS'median'
p4347
L4L
sS'display'
p4348
g182
ssS'parscript'
p4349
(dp4350
g4342
I10
sg4347
L1L
sg4348
S'yes'
p4351
ssS'parcssjs'
p4352
(dp4353
g4342
I1
sg4347
L0L
sg4348
S'no'
p4354
ssS'cacheresredir'
p4355
(dp4356
g4342
I10
sg4347
L1L
sg4348
g4351
ssS'cacheexp'
p4357
(dp4358
g4342
I10
sg4347
L1L
sg4348
g4351
ssS'gzip'
p4359
(dp4360
g4342
I1
sg4347
L0L
sg4348
g4354
ssS'prefetch'
p4361
(dp4362
g4342
I10
sg4347
L1L
sg4348
g4351
ssS'cacheredir'
p4363
(dp4364
g4342
I1
sg4347
L0L
sg4348
g4354
ssS'parsheet'
p4365
(dp4366
g4342
I10
sg4347
L1L
sg4348
g4351
ssS'du'
p4367
(dp4368
g4342
I1
sg4347
L0L
sg4348
g4354
ssS'hostconn'
p4369
(dp4370
g4342
I10
sg4347
L4L
sg4348
g182
sssg4348
S'6/11'
p4371
ssS'Konqueror 4'
p4372
(dp4373
S'total_runs'
p4374
L61L
sS'score'
p4375
I6
sS'results'
p4376
(dp4377
S'maxconn'
p4378
(dp4379
g4375
I0
sS'median'
p4380
L5L
sS'display'
p4381
g725
ssS'parscript'
p4382
(dp4383
g4375
I10
sg4380
L1L
sg4381
S'yes'
p4384
ssS'parcssjs'
p4385
(dp4386
g4375
I1
sg4380
L0L
sg4381
S'no'
p4387
ssS'cacheresredir'
p4388
(dp4389
g4375
I10
sg4380
L1L
sg4381
g4384
ssS'cacheexp'
p4390
(dp4391
g4375
I10
sg4380
L1L
sg4381
g4384
ssS'gzip'
p4392
(dp4393
g4375
I10
sg4380
L1L
sg4381
g4384
ssS'prefetch'
p4394
(dp4395
g4375
I1
sg4380
L0L
sg4381
g4387
ssS'cacheredir'
p4396
(dp4397
g4375
I1
sg4380
L0L
sg4381
g4387
ssS'parsheet'
p4398
(dp4399
g4375
I10
sg4380
L1L
sg4381
g4384
ssS'du'
p4400
(dp4401
g4375
I10
sg4380
L1L
sg4381
g4384
ssS'hostconn'
p4402
(dp4403
g4375
I10
sg4380
L5L
sg4381
g725
sssg4381
S'7/11'
p4404
ssS'Camino 2'
p4405
(dp4406
S'total_runs'
p4407
L12L
sS'score'
p4408
I6
sS'results'
p4409
(dp4410
S'maxconn'
p4411
(dp4412
g4408
I10
sS'median'
p4413
L30L
sS'display'
p4414
S'30'
p4415
ssS'parscript'
p4416
(dp4417
g4408
I1
sg4413
L0L
sg4414
S'no'
p4418
ssS'parcssjs'
p4419
(dp4420
g4408
I1
sg4413
L0L
sg4414
g4418
ssS'cacheresredir'
p4421
(dp4422
g4408
I1
sg4413
L0L
sg4414
g4418
ssS'cacheexp'
p4423
(dp4424
g4408
I10
sg4413
L1L
sg4414
S'yes'
p4425
ssS'gzip'
p4426
(dp4427
g4408
I10
sg4413
L1L
sg4414
g4425
ssS'prefetch'
p4428
(dp4429
g4408
I10
sg4413
L1L
sg4414
g4425
ssS'cacheredir'
p4430
(dp4431
g4408
I1
sg4413
L0L
sg4414
g4418
ssS'parsheet'
p4432
(dp4433
g4408
I10
sg4413
L1L
sg4414
g4425
ssS'du'
p4434
(dp4435
g4408
I10
sg4413
L1L
sg4414
g4425
ssS'hostconn'
p4436
(dp4437
g4408
I10
sg4413
L6L
sg4414
g239
sssg4414
S'7/11'
p4438
ssS'Jasmine 0'
p4439
(dp4440
S'total_runs'
p4441
L1L
sS'score'
p4442
I4
sS'results'
p4443
(dp4444
S'maxconn'
p4445
(dp4446
g4442
I0
sS'median'
p4447
L1L
sS'display'
p4448
g319
ssS'parscript'
p4449
(dp4450
g4442
I1
sg4447
L0L
sg4448
S'no'
p4451
ssS'parcssjs'
p4452
(dp4453
g4442
I1
sg4447
L0L
sg4448
g4451
ssS'cacheresredir'
p4454
(dp4455
g4442
I1
sg4447
L0L
sg4448
g4451
ssS'cacheexp'
p4456
(dp4457
g4442
I10
sg4447
L1L
sg4448
S'yes'
p4458
ssS'gzip'
p4459
(dp4460
g4442
I10
sg4447
L1L
sg4448
g4458
ssS'prefetch'
p4461
(dp4462
g4442
I10
sg4447
L1L
sg4448
g4458
ssS'cacheredir'
p4463
(dp4464
g4442
I1
sg4447
L0L
sg4448
g4451
ssS'parsheet'
p4465
(dp4466
g4442
I10
sg4447
L1L
sg4448
g4458
ssS'du'
p4467
(dp4468
g4442
I10
sg4447
L1L
sg4448
g4458
ssS'hostconn'
p4469
(dp4470
g4442
I0
sg4447
L1L
sg4448
g319
sssg4448
S'5/11'
p4471
ssS'Jasmine 1'
p4472
(dp4473
S'total_runs'
p4474
L3L
sS'score'
p4475
I3
sS'results'
p4476
(dp4477
S'maxconn'
p4478
(dp4479
g4475
I0
sS'median'
p4480
L5L
sS'display'
p4481
g725
ssS'parscript'
p4482
(dp4483
g4475
I1
sg4480
L0L
sg4481
S'no'
p4484
ssS'parcssjs'
p4485
(dp4486
g4475
I1
sg4480
L0L
sg4481
g4484
ssS'cacheresredir'
p4487
(dp4488
g4475
I1
sg4480
L0L
sg4481
g4484
ssS'cacheexp'
p4489
(dp4490
g4475
I1
sg4480
L0L
sg4481
g4484
ssS'gzip'
p4491
(dp4492
g4475
I10
sg4480
L1L
sg4481
S'yes'
p4493
ssS'prefetch'
p4494
(dp4495
g4475
I1
sg4480
L0L
sg4481
g4484
ssS'cacheredir'
p4496
(dp4497
g4475
I1
sg4480
L0L
sg4481
g4484
ssS'parsheet'
p4498
(dp4499
g4475
I10
sg4480
L1L
sg4481
g4493
ssS'du'
p4500
(dp4501
g4475
I10
sg4480
L1L
sg4481
g4493
ssS'hostconn'
p4502
(dp4503
g4475
I10
sg4480
L5L
sg4481
g725
sssg4481
S'4/11'
p4504
ssS'Nokia 75'
p4505
(dp4506
S'total_runs'
p4507
L1L
sS'score'
p4508
I4
sS'results'
p4509
(dp4510
S'maxconn'
p4511
(dp4512
g4508
I5
sS'median'
p4513
L14L
sS'display'
p4514
S'14'
p4515
ssS'parscript'
p4516
(dp4517
g4508
I10
sg4513
L1L
sg4514
S'yes'
p4518
ssS'parcssjs'
p4519
(dp4520
g4508
I1
sg4513
L0L
sg4514
S'no'
p4521
ssS'cacheresredir'
p4522
(dp4523
g4508
I1
sg4513
L0L
sg4514
g4521
ssS'cacheexp'
p4524
(dp4525
g4508
I10
sg4513
L1L
sg4514
g4518
ssS'gzip'
p4526
(dp4527
g4508
I1
sg4513
L0L
sg4514
g4521
ssS'prefetch'
p4528
(dp4529
g4508
I1
sg4513
L0L
sg4514
g4521
ssS'cacheredir'
p4530
(dp4531
g4508
I1
sg4513
L0L
sg4514
g4521
ssS'parsheet'
p4532
(dp4533
g4508
I10
sg4513
L1L
sg4514
g4518
ssS'du'
p4534
(dp4535
g4508
I10
sg4513
L1L
sg4514
g4518
ssS'hostconn'
p4536
(dp4537
g4508
I10
sg4513
L12L
sg4514
S'12'
p4538
sssg4514
S'5/11'
p4539
ssS'Nokia 82'
p4540
(dp4541
S'total_runs'
p4542
L3L
sS'score'
p4543
I5
sS'results'
p4544
(dp4545
S'maxconn'
p4546
(dp4547
g4543
I0
sS'median'
p4548
L7L
sS'display'
p4549
g81
ssS'parscript'
p4550
(dp4551
g4543
I10
sg4548
L1L
sg4549
S'yes'
p4552
ssS'parcssjs'
p4553
(dp4554
g4543
I1
sg4548
L0L
sg4549
S'no'
p4555
ssS'cacheresredir'
p4556
(dp4557
g4543
I1
sg4548
L0L
sg4549
g4555
ssS'cacheexp'
p4558
(dp4559
g4543
I10
sg4548
L1L
sg4549
g4552
ssS'gzip'
p4560
(dp4561
g4543
I10
sg4548
L1L
sg4549
g4552
ssS'prefetch'
p4562
(dp4563
g4543
I10
sg4548
L1L
sg4549
g4552
ssS'cacheredir'
p4564
(dp4565
g4543
I1
sg4548
L0L
sg4549
g4555
ssS'parsheet'
p4566
(dp4567
g4543
I10
sg4548
L1L
sg4549
g4552
ssS'du'
p4568
(dp4569
g4543
I1
sg4548
L0L
sg4549
g4555
ssS'hostconn'
p4570
(dp4571
g4543
I10
sg4548
L7L
sg4549
g81
sssg4549
S'6/11'
p4572
ssS'Bon Echo 2'
p4573
(dp4574
S'total_runs'
p4575
L2L
sS'score'
p4576
I7
sS'results'
p4577
(dp4578
S'maxconn'
p4579
(dp4580
g4576
I10
sS'median'
p4581
L49L
sS'display'
p4582
S'49'
p4583
ssS'parscript'
p4584
(dp4585
g4576
I1
sg4581
L0L
sg4582
S'no'
p4586
ssS'parcssjs'
p4587
(dp4588
g4576
I1
sg4581
L0L
sg4582
g4586
ssS'cacheresredir'
p4589
(dp4590
g4576
I10
sg4581
L1L
sg4582
S'yes'
p4591
ssS'cacheexp'
p4592
(dp4593
g4576
I10
sg4581
L1L
sg4582
g4591
ssS'gzip'
p4594
(dp4595
g4576
I10
sg4581
L1L
sg4582
g4591
ssS'prefetch'
p4596
(dp4597
g4576
I10
sg4581
L1L
sg4582
g4591
ssS'cacheredir'
p4598
(dp4599
g4576
I10
sg4581
L1L
sg4582
g4591
ssS'parsheet'
p4600
(dp4601
g4576
I1
sg4581
L0L
sg4582
g4586
ssS'du'
p4602
(dp4603
g4576
I10
sg4581
L1L
sg4582
g4591
ssS'hostconn'
p4604
(dp4605
g4576
I10
sg4581
L8L
sg4582
g69
sssg4582
S'8/11'
p4606
ssS'Wii'
p4607
(dp4608
S'total_runs'
p4609
L6L
sS'score'
p4610
I4
sS'results'
p4611
(dp4612
S'maxconn'
p4613
(dp4614
g4610
I0
sS'median'
p4615
L3L
sS'display'
p4616
g1936
ssS'parscript'
p4617
(dp4618
g4610
I10
sg4615
L1L
sg4616
S'yes'
p4619
ssS'parcssjs'
p4620
(dp4621
g4610
I1
sg4615
L0L
sg4616
S'no'
p4622
ssS'cacheresredir'
p4623
(dp4624
g4610
I1
sg4615
L0L
sg4616
g4622
ssS'cacheexp'
p4625
(dp4626
g4610
I10
sg4615
L1L
sg4616
g4619
ssS'gzip'
p4627
(dp4628
g4610
I10
sg4615
L1L
sg4616
g4619
ssS'prefetch'
p4629
(dp4630
g4610
I1
sg4615
L0L
sg4616
g4622
ssS'cacheredir'
p4631
(dp4632
g4610
I1
sg4615
L0L
sg4616
g4622
ssS'parsheet'
p4633
(dp4634
g4610
I10
sg4615
L1L
sg4616
g4619
ssS'du'
p4635
(dp4636
g4610
I10
sg4615
L1L
sg4616
g4619
ssS'hostconn'
p4637
(dp4638
g4610
I5
sg4615
L2L
sg4616
g34
sssg4616
S'5/11'
p4639
ssS'Nokia 85'
p4640
(dp4641
S'total_runs'
p4642
L1L
sS'score'
p4643
I4
sS'results'
p4644
(dp4645
S'maxconn'
p4646
(dp4647
g4643
I0
sS'median'
p4648
L0L
sS'display'
p4649
g454
ssS'parscript'
p4650
(dp4651
g4643
I10
sg4648
L1L
sg4649
S'yes'
p4652
ssS'parcssjs'
p4653
(dp4654
g4643
I1
sg4648
L0L
sg4649
S'no'
p4655
ssS'cacheresredir'
p4656
(dp4657
g4643
I1
sg4648
L0L
sg4649
g4655
ssS'cacheexp'
p4658
(dp4659
g4643
I10
sg4648
L1L
sg4649
g4652
ssS'gzip'
p4660
(dp4661
g4643
I10
sg4648
L1L
sg4649
g4652
ssS'prefetch'
p4662
(dp4663
g4643
I1
sg4648
L0L
sg4649
g4655
ssS'cacheredir'
p4664
(dp4665
g4643
I1
sg4648
L0L
sg4649
g4655
ssS'parsheet'
p4666
(dp4667
g4643
I10
sg4648
L1L
sg4649
g4652
ssS'du'
p4668
(dp4669
g4643
I10
sg4648
L1L
sg4649
g4652
ssS'hostconn'
p4670
(dp4671
g4643
I0
sg4648
L0L
sg4649
g454
sssg4649
S'5/11'
p4672
ssS'Phoenix 0'
p4673
(dp4674
S'total_runs'
p4675
L2L
sS'score'
p4676
I4
sS'results'
p4677
(dp4678
S'maxconn'
p4679
(dp4680
g4676
I10
sS'median'
p4681
L24L
sS'display'
p4682
S'24'
p4683
ssS'parscript'
p4684
(dp4685
g4676
I1
sg4681
L0L
sg4682
S'no'
p4686
ssS'parcssjs'
p4687
(dp4688
g4676
I1
sg4681
L0L
sg4682
g4686
ssS'cacheresredir'
p4689
(dp4690
g4676
I10
sg4681
L1L
sg4682
S'yes'
p4691
ssS'cacheexp'
p4692
(dp4693
g4676
I10
sg4681
L1L
sg4682
g4691
ssS'gzip'
p4694
(dp4695
g4676
I10
sg4681
L1L
sg4682
g4691
ssS'prefetch'
p4696
(dp4697
g4676
I1
sg4681
L0L
sg4682
g4686
ssS'cacheredir'
p4698
(dp4699
g4676
I1
sg4681
L0L
sg4682
g4686
ssS'parsheet'
p4700
(dp4701
g4676
I1
sg4681
L0L
sg4682
g4686
ssS'du'
p4702
(dp4703
g4676
I10
sg4681
L1L
sg4682
g4691
ssS'hostconn'
p4704
(dp4705
g4676
I5
sg4681
L2L
sg4682
g34
sssg4682
S'5/11'
p4706
ssS'iCab 4'
p4707
(dp4708
S'total_runs'
p4709
L5L
sS'score'
p4710
I6
sS'results'
p4711
(dp4712
S'maxconn'
p4713
(dp4714
g4710
I10
sS'median'
p4715
L60L
sS'display'
p4716
S'60'
p4717
ssS'parscript'
p4718
(dp4719
g4710
I1
sg4715
L0L
sg4716
S'no'
p4720
ssS'parcssjs'
p4721
(dp4722
g4710
I1
sg4715
L0L
sg4716
g4720
ssS'cacheresredir'
p4723
(dp4724
g4710
I10
sg4715
L1L
sg4716
S'yes'
p4725
ssS'cacheexp'
p4726
(dp4727
g4710
I10
sg4715
L1L
sg4716
g4725
ssS'gzip'
p4728
(dp4729
g4710
I10
sg4715
L1L
sg4716
g4725
ssS'prefetch'
p4730
(dp4731
g4710
I1
sg4715
L0L
sg4716
g4720
ssS'cacheredir'
p4732
(dp4733
g4710
I1
sg4715
L0L
sg4716
g4720
ssS'parsheet'
p4734
(dp4735
g4710
I10
sg4715
L1L
sg4716
g4725
ssS'du'
p4736
(dp4737
g4710
I10
sg4715
L1L
sg4716
g4725
ssS'hostconn'
p4738
(dp4739
g4710
I10
sg4715
L4L
sg4716
g182
sssg4716
S'7/11'
p4740
ssS'Galeon 2'
p4741
(dp4742
S'total_runs'
p4743
L8L
sS'score'
p4744
I6
sS'results'
p4745
(dp4746
S'maxconn'
p4747
(dp4748
g4744
I10
sS'median'
p4749
L30L
sS'display'
p4750
S'30'
p4751
ssS'parscript'
p4752
(dp4753
g4744
I1
sg4749
L0L
sg4750
S'no'
p4754
ssS'parcssjs'
p4755
(dp4756
g4744
I1
sg4749
L0L
sg4750
g4754
ssS'cacheresredir'
p4757
(dp4758
g4744
I1
sg4749
L0L
sg4750
g4754
ssS'cacheexp'
p4759
(dp4760
g4744
I10
sg4749
L1L
sg4750
S'yes'
p4761
ssS'gzip'
p4762
(dp4763
g4744
I10
sg4749
L1L
sg4750
g4761
ssS'prefetch'
p4764
(dp4765
g4744
I10
sg4749
L1L
sg4750
g4761
ssS'cacheredir'
p4766
(dp4767
g4744
I1
sg4749
L0L
sg4750
g4754
ssS'parsheet'
p4768
(dp4769
g4744
I10
sg4749
L1L
sg4750
g4761
ssS'du'
p4770
(dp4771
g4744
I10
sg4749
L1L
sg4750
g4761
ssS'hostconn'
p4772
(dp4773
g4744
I10
sg4749
L6L
sg4750
g239
sssg4750
S'7/11'
p4774
ssS'QtWeb 1'
p4775
(dp4776
S'total_runs'
p4777
L1L
sS'score'
p4778
I6
sS'results'
p4779
(dp4780
S'maxconn'
p4781
(dp4782
g4778
I10
sS'median'
p4783
L60L
sS'display'
p4784
S'60'
p4785
ssS'parscript'
p4786
(dp4787
g4778
I10
sg4783
L1L
sg4784
S'yes'
p4788
ssS'parcssjs'
p4789
(dp4790
g4778
I1
sg4783
L0L
sg4784
S'no'
p4791
ssS'cacheresredir'
p4792
(dp4793
g4778
I10
sg4783
L1L
sg4784
g4788
ssS'cacheexp'
p4794
(dp4795
g4778
I10
sg4783
L1L
sg4784
g4788
ssS'gzip'
p4796
(dp4797
g4778
I10
sg4783
L1L
sg4784
g4788
ssS'prefetch'
p4798
(dp4799
g4778
I1
sg4783
L0L
sg4784
g4791
ssS'cacheredir'
p4800
(dp4801
g4778
I1
sg4783
L0L
sg4784
g4791
ssS'parsheet'
p4802
(dp4803
g4778
I10
sg4783
L1L
sg4784
g4788
ssS'du'
p4804
(dp4805
g4778
I10
sg4783
L1L
sg4784
g4788
ssS'hostconn'
p4806
(dp4807
g4778
I5
sg4783
L2L
sg4784
g34
sssg4784
S'7/11'
p4808
ssS'QtWeb 2'
p4809
(dp4810
S'total_runs'
p4811
L1L
sS'score'
p4812
I7
sS'results'
p4813
(dp4814
S'maxconn'
p4815
(dp4816
g4812
I10
sS'median'
p4817
L60L
sS'display'
p4818
S'60'
p4819
ssS'parscript'
p4820
(dp4821
g4812
I10
sg4817
L1L
sg4818
S'yes'
p4822
ssS'parcssjs'
p4823
(dp4824
g4812
I1
sg4817
L0L
sg4818
S'no'
p4825
ssS'cacheresredir'
p4826
(dp4827
g4812
I10
sg4817
L1L
sg4818
g4822
ssS'cacheexp'
p4828
(dp4829
g4812
I10
sg4817
L1L
sg4818
g4822
ssS'gzip'
p4830
(dp4831
g4812
I10
sg4817
L1L
sg4818
g4822
ssS'prefetch'
p4832
(dp4833
g4812
I1
sg4817
L0L
sg4818
g4825
ssS'cacheredir'
p4834
(dp4835
g4812
I10
sg4817
L1L
sg4818
g4822
ssS'parsheet'
p4836
(dp4837
g4812
I10
sg4817
L1L
sg4818
g4822
ssS'du'
p4838
(dp4839
g4812
I10
sg4817
L1L
sg4818
g4822
ssS'hostconn'
p4840
(dp4841
g4812
I5
sg4817
L2L
sg4818
g34
sssg4818
S'8/11'
p4842
ssS'QtWeb 3'
p4843
(dp4844
S'total_runs'
p4845
L2L
sS'score'
p4846
I6
sS'results'
p4847
(dp4848
S'maxconn'
p4849
(dp4850
g4846
I10
sS'median'
p4851
L60L
sS'display'
p4852
S'60'
p4853
ssS'parscript'
p4854
(dp4855
g4846
I10
sg4851
L1L
sg4852
S'yes'
p4856
ssS'parcssjs'
p4857
(dp4858
g4846
I1
sg4851
L0L
sg4852
S'no'
p4859
ssS'cacheresredir'
p4860
(dp4861
g4846
I10
sg4851
L1L
sg4852
g4856
ssS'cacheexp'
p4862
(dp4863
g4846
I10
sg4851
L1L
sg4852
g4856
ssS'gzip'
p4864
(dp4865
g4846
I10
sg4851
L1L
sg4852
g4856
ssS'prefetch'
p4866
(dp4867
g4846
I1
sg4851
L0L
sg4852
g4859
ssS'cacheredir'
p4868
(dp4869
g4846
I1
sg4851
L0L
sg4852
g4859
ssS'parsheet'
p4870
(dp4871
g4846
I10
sg4851
L1L
sg4852
g4856
ssS'du'
p4872
(dp4873
g4846
I10
sg4851
L1L
sg4852
g4856
ssS'hostconn'
p4874
(dp4875
g4846
I5
sg4851
L2L
sg4852
g34
sssg4852
S'7/11'
p4876
ssS'Blackberry 9500'
p4877
(dp4878
S'total_runs'
p4879
L3L
sS'score'
p4880
I4
sS'results'
p4881
(dp4882
S'maxconn'
p4883
(dp4884
g4880
I0
sS'median'
p4885
L5L
sS'display'
p4886
g725
ssS'parscript'
p4887
(dp4888
g4880
I1
sg4885
L0L
sg4886
S'no'
p4889
ssS'parcssjs'
p4890
(dp4891
g4880
I1
sg4885
L0L
sg4886
g4889
ssS'cacheresredir'
p4892
(dp4893
g4880
I10
sg4885
L1L
sg4886
S'yes'
p4894
ssS'cacheexp'
p4895
(dp4896
g4880
I10
sg4885
L1L
sg4886
g4894
ssS'gzip'
p4897
(dp4898
g4880
I10
sg4885
L1L
sg4886
g4894
ssS'prefetch'
p4899
(dp4900
g4880
I1
sg4885
L0L
sg4886
g4889
ssS'cacheredir'
p4901
(dp4902
g4880
I10
sg4885
L1L
sg4886
g4894
ssS'parsheet'
p4903
(dp4904
g4880
I1
sg4885
L0L
sg4886
g4889
ssS'du'
p4905
(dp4906
g4880
I1
sg4885
L0L
sg4886
g4889
ssS'hostconn'
p4907
(dp4908
g4880
I10
sg4885
L5L
sg4886
g725
sssg4886
S'5/11'
p4909
ssS'iRider 2'
p4910
(dp4911
S'total_runs'
p4912
L1L
sS'score'
p4913
I5
sS'results'
p4914
(dp4915
S'maxconn'
p4916
(dp4917
g4913
I10
sS'median'
p4918
L28L
sS'display'
p4919
S'28'
p4920
ssS'parscript'
p4921
(dp4922
g4913
I10
sg4918
L1L
sg4919
S'yes'
p4923
ssS'parcssjs'
p4924
(dp4925
g4913
I1
sg4918
L0L
sg4919
S'no'
p4926
ssS'cacheresredir'
p4927
(dp4928
g4913
I1
sg4918
L0L
sg4919
g4926
ssS'cacheexp'
p4929
(dp4930
g4913
I10
sg4918
L1L
sg4919
g4923
ssS'gzip'
p4931
(dp4932
g4913
I10
sg4918
L1L
sg4919
g4923
ssS'prefetch'
p4933
(dp4934
g4913
I1
sg4918
L0L
sg4919
g4926
ssS'cacheredir'
p4935
(dp4936
g4913
I1
sg4918
L0L
sg4919
g4926
ssS'parsheet'
p4937
(dp4938
g4913
I10
sg4918
L1L
sg4919
g4923
ssS'du'
p4939
(dp4940
g4913
I10
sg4918
L1L
sg4919
g4923
ssS'hostconn'
p4941
(dp4942
g4913
I5
sg4918
L2L
sg4919
g34
sssg4919
S'6/11'
p4943
ss.