(dp0
VNetscape 7
p1
(dp2
S'summary_display'
p3
S'5/14'
p4
sS'total_runs'
p5
L7L
sS'summary_score'
p6
I36
sS'results'
p7
(dp8
S'parscriptiframe'
p9
(dp10
S'score'
p11
I0
sS'raw_score'
p12
NsS'display'
p13
S''
p14
ssS'parscriptimage'
p15
(dp16
g11
I0
sg12
Nsg13
g14
ssS'cacheexp'
p17
(dp18
g11
I100
sg12
I1
sg13
S'yes'
p19
ssS'cacheresredir'
p20
(dp21
g11
I1
sg12
I0
sg13
S'no'
p22
ssS'parcssjs'
p23
(dp24
g11
I1
sg12
I0
sg13
g22
ssS'gzip'
p25
(dp26
g11
I100
sg12
I1
sg13
g19
ssS'du'
p27
(dp28
g11
I100
sg12
I1
sg13
g19
ssS'prefetch'
p29
(dp30
g11
I100
sg12
I1
sg13
g19
ssS'parscriptstylesheet'
p31
(dp32
g11
I0
sg12
Nsg13
g14
ssS'cacheredir'
p33
(dp34
g11
I1
sg12
I0
sg13
g22
ssS'parscriptscript'
p35
(dp36
g11
I0
sg12
Nsg13
g14
ssS'maxconn'
p37
(dp38
g11
I100
sg12
I24
sg13
S'24'
p39
ssS'parsheet'
p40
(dp41
g11
I1
sg12
I0
sg13
g22
ssS'hostconn'
p42
(dp43
g11
I50
sg12
I2
sg13
S'2'
p44
ssssVNetscape 6
p45
(dp46
S'summary_display'
p47
S'5/14'
p48
sS'total_runs'
p49
L1L
sS'summary_score'
p50
I36
sS'results'
p51
(dp52
S'parscriptiframe'
p53
(dp54
S'score'
p55
I0
sS'raw_score'
p56
NsS'display'
p57
g14
ssS'parscriptimage'
p58
(dp59
g55
I0
sg56
Nsg57
g14
ssS'cacheexp'
p60
(dp61
g55
I100
sg56
I1
sg57
S'yes'
p62
ssS'cacheresredir'
p63
(dp64
g55
I100
sg56
I1
sg57
g62
ssS'parcssjs'
p65
(dp66
g55
I1
sg56
I0
sg57
S'no'
p67
ssS'gzip'
p68
(dp69
g55
I100
sg56
I1
sg57
g62
ssS'du'
p70
(dp71
g55
I100
sg56
I1
sg57
g62
ssS'prefetch'
p72
(dp73
g55
I1
sg56
I0
sg57
g67
ssS'parscriptstylesheet'
p74
(dp75
g55
I0
sg56
Nsg57
g14
ssS'cacheredir'
p76
(dp77
g55
I1
sg56
I0
sg57
g67
ssS'parscriptscript'
p78
(dp79
g55
I0
sg56
Nsg57
g14
ssS'maxconn'
p80
(dp81
g55
I50
sg56
I16
sg57
S'16'
p82
ssS'parsheet'
p83
(dp84
g55
I1
sg56
I0
sg57
g67
ssS'hostconn'
p85
(dp86
g55
I100
sg56
I8
sg57
S'8'
p87
ssssVNokia 78
p88
(dp89
S'summary_display'
p90
S'5/14'
p91
sS'total_runs'
p92
L1L
sS'summary_score'
p93
I36
sS'results'
p94
(dp95
S'parscriptiframe'
p96
(dp97
S'score'
p98
I0
sS'raw_score'
p99
NsS'display'
p100
g14
ssS'parscriptimage'
p101
(dp102
g98
I0
sg99
Nsg100
g14
ssS'cacheexp'
p103
(dp104
g98
I100
sg99
I1
sg100
S'yes'
p105
ssS'cacheresredir'
p106
(dp107
g98
I1
sg99
I0
sg100
S'no'
p108
ssS'parcssjs'
p109
(dp110
g98
I1
sg99
I0
sg100
g108
ssS'gzip'
p111
(dp112
g98
I100
sg99
I1
sg100
g105
ssS'du'
p113
(dp114
g98
I100
sg99
I1
sg100
g105
ssS'prefetch'
p115
(dp116
g98
I1
sg99
I0
sg100
g108
ssS'parscriptstylesheet'
p117
(dp118
g98
I0
sg99
Nsg100
g14
ssS'cacheredir'
p119
(dp120
g98
I1
sg99
I0
sg100
g108
ssS'parscriptscript'
p121
(dp122
g98
I0
sg99
Nsg100
g14
ssS'maxconn'
p123
(dp124
g98
I1
sg99
I7
sg100
S'7'
p125
ssS'parsheet'
p126
(dp127
g98
I100
sg99
I1
sg100
g105
ssS'hostconn'
p128
(dp129
g98
I100
sg99
I7
sg100
g125
ssssVBlackberry 8330
p130
(dp131
S'summary_display'
p132
S'5/14'
p133
sS'total_runs'
p134
L1L
sS'summary_score'
p135
I36
sS'results'
p136
(dp137
S'parscriptiframe'
p138
(dp139
S'score'
p140
I0
sS'raw_score'
p141
NsS'display'
p142
g14
ssS'parscriptimage'
p143
(dp144
g140
I0
sg141
Nsg142
g14
ssS'cacheexp'
p145
(dp146
g140
I100
sg141
I1
sg142
S'yes'
p147
ssS'cacheresredir'
p148
(dp149
g140
I100
sg141
I1
sg142
g147
ssS'parcssjs'
p150
(dp151
g140
I1
sg141
I0
sg142
S'no'
p152
ssS'gzip'
p153
(dp154
g140
I1
sg141
I0
sg142
g152
ssS'du'
p155
(dp156
g140
I1
sg141
I0
sg142
g152
ssS'prefetch'
p157
(dp158
g140
I100
sg141
I1
sg142
g147
ssS'parscriptstylesheet'
p159
(dp160
g140
I0
sg141
Nsg142
g14
ssS'cacheredir'
p161
(dp162
g140
I1
sg141
I0
sg142
g152
ssS'parscriptscript'
p163
(dp164
g140
I0
sg141
Nsg142
g14
ssS'maxconn'
p165
(dp166
g140
I1
sg141
I8
sg142
g87
ssS'parsheet'
p167
(dp168
g140
I100
sg141
I1
sg142
g147
ssS'hostconn'
p169
(dp170
g140
I100
sg141
I8
sg142
g87
ssssVMaxthon 0
p171
(dp172
S'summary_display'
p173
S'5/14'
p174
sS'total_runs'
p175
L17L
sS'summary_score'
p176
I36
sS'results'
p177
(dp178
S'parscriptiframe'
p179
(dp180
S'score'
p181
I0
sS'raw_score'
p182
NsS'display'
p183
g14
ssS'parscriptimage'
p184
(dp185
g181
I0
sg182
Nsg183
g14
ssS'cacheexp'
p186
(dp187
g181
I100
sg182
I1
sg183
S'yes'
p188
ssS'cacheresredir'
p189
(dp190
g181
I1
sg182
I0
sg183
S'no'
p191
ssS'parcssjs'
p192
(dp193
g181
I1
sg182
I0
sg183
g191
ssS'gzip'
p194
(dp195
g181
I100
sg182
I1
sg183
g188
ssS'du'
p196
(dp197
g181
I1
sg182
I0
sg183
g191
ssS'prefetch'
p198
(dp199
g181
I1
sg182
I0
sg183
g191
ssS'parscriptstylesheet'
p200
(dp201
g181
I0
sg182
Nsg183
g14
ssS'cacheredir'
p202
(dp203
g181
I1
sg182
I0
sg183
g191
ssS'parscriptscript'
p204
(dp205
g181
I0
sg182
Nsg183
g14
ssS'maxconn'
p206
(dp207
g181
I100
sg182
I57
sg183
S'57'
p208
ssS'parsheet'
p209
(dp210
g181
I100
sg182
I1
sg183
g188
ssS'hostconn'
p211
(dp212
g181
I100
sg182
I9
sg183
S'9'
p213
ssssVBlackberry 8130
p214
(dp215
S'summary_display'
p216
S'5/14'
p217
sS'total_runs'
p218
L1L
sS'summary_score'
p219
I36
sS'results'
p220
(dp221
S'parscriptiframe'
p222
(dp223
S'score'
p224
I0
sS'raw_score'
p225
NsS'display'
p226
g14
ssS'parscriptimage'
p227
(dp228
g224
I0
sg225
Nsg226
g14
ssS'cacheexp'
p229
(dp230
g224
I100
sg225
I1
sg226
S'yes'
p231
ssS'cacheresredir'
p232
(dp233
g224
I100
sg225
I1
sg226
g231
ssS'parcssjs'
p234
(dp235
g224
I1
sg225
I0
sg226
S'no'
p236
ssS'gzip'
p237
(dp238
g224
I1
sg225
I0
sg226
g236
ssS'du'
p239
(dp240
g224
I1
sg225
I0
sg226
g236
ssS'prefetch'
p241
(dp242
g224
I100
sg225
I1
sg226
g231
ssS'parscriptstylesheet'
p243
(dp244
g224
I0
sg225
Nsg226
g14
ssS'cacheredir'
p245
(dp246
g224
I1
sg225
I0
sg226
g236
ssS'parscriptscript'
p247
(dp248
g224
I0
sg225
Nsg226
g14
ssS'maxconn'
p249
(dp250
g224
I1
sg225
I4
sg226
S'4'
p251
ssS'parsheet'
p252
(dp253
g224
I100
sg225
I1
sg226
g231
ssS'hostconn'
p254
(dp255
g224
I100
sg225
I4
sg226
g251
ssssVMaxthon 3
p256
(dp257
S'summary_display'
p258
S'11/14'
p259
sS'total_runs'
p260
L13L
sS'summary_score'
p261
I79
sS'results'
p262
(dp263
S'du'
p264
(dp265
S'score'
p266
I100
sS'raw_score'
p267
I1
sS'display'
p268
S'yes'
p269
ssS'parscriptimage'
p270
(dp271
g266
I100
sg267
I1
sg268
g269
ssS'parcssjs'
p272
(dp273
g266
I1
sg267
I0
sg268
S'no'
p274
ssS'cacheresredir'
p275
(dp276
g266
I100
sg267
I1
sg268
g269
ssS'cacheexp'
p277
(dp278
g266
I100
sg267
I1
sg268
g269
ssS'maxconn'
p279
(dp280
g266
I100
sg267
I60
sg268
S'60'
p281
ssS'cacheredir'
p282
(dp283
g266
I100
sg267
I1
sg268
g269
ssS'prefetch'
p284
(dp285
g266
I1
sg267
I0
sg268
g274
ssS'parscriptstylesheet'
p286
(dp287
g266
I100
sg267
I1
sg268
g269
ssS'gzip'
p288
(dp289
g266
I100
sg267
I1
sg268
g269
ssS'parscriptscript'
p290
(dp291
g266
I100
sg267
I1
sg268
g269
ssS'parscriptiframe'
p292
(dp293
g266
I1
sg267
I0
sg268
g274
ssS'parsheet'
p294
(dp295
g266
I100
sg267
I1
sg268
g269
ssS'hostconn'
p296
(dp297
g266
I100
sg267
I6
sg268
S'6'
p298
ssssVNetscape 9
p299
(dp300
S'summary_display'
p301
S'6/14'
p302
sS'total_runs'
p303
L12L
sS'summary_score'
p304
I43
sS'results'
p305
(dp306
S'parscriptiframe'
p307
(dp308
S'score'
p309
I0
sS'raw_score'
p310
NsS'display'
p311
g14
ssS'parscriptimage'
p312
(dp313
g309
I0
sg310
Nsg311
g14
ssS'cacheexp'
p314
(dp315
g309
I100
sg310
I1
sg311
S'yes'
p316
ssS'cacheresredir'
p317
(dp318
g309
I100
sg310
I1
sg311
g316
ssS'parcssjs'
p319
(dp320
g309
I1
sg310
I0
sg311
S'no'
p321
ssS'gzip'
p322
(dp323
g309
I100
sg310
I1
sg311
g316
ssS'du'
p324
(dp325
g309
I100
sg310
I1
sg311
g316
ssS'prefetch'
p326
(dp327
g309
I1
sg310
I0
sg311
g321
ssS'parscriptstylesheet'
p328
(dp329
g309
I0
sg310
Nsg311
g14
ssS'cacheredir'
p330
(dp331
g309
I100
sg310
I1
sg311
g316
ssS'parscriptscript'
p332
(dp333
g309
I0
sg310
Nsg311
g14
ssS'maxconn'
p334
(dp335
g309
I100
sg310
I24
sg311
S'24'
p336
ssS'parsheet'
p337
(dp338
g309
I1
sg310
I0
sg311
g321
ssS'hostconn'
p339
(dp340
g309
I50
sg310
I2
sg311
g44
ssssVNetscape 8
p341
(dp342
S'summary_display'
p343
S'6/14'
p344
sS'total_runs'
p345
L5L
sS'summary_score'
p346
I43
sS'results'
p347
(dp348
S'parscriptiframe'
p349
(dp350
S'score'
p351
I0
sS'raw_score'
p352
NsS'display'
p353
g14
ssS'parscriptimage'
p354
(dp355
g351
I0
sg352
Nsg353
g14
ssS'cacheexp'
p356
(dp357
g351
I100
sg352
I1
sg353
S'yes'
p358
ssS'cacheresredir'
p359
(dp360
g351
I100
sg352
I1
sg353
g358
ssS'parcssjs'
p361
(dp362
g351
I1
sg352
I0
sg353
S'no'
p363
ssS'gzip'
p364
(dp365
g351
I100
sg352
I1
sg353
g358
ssS'du'
p366
(dp367
g351
I100
sg352
I1
sg353
g358
ssS'prefetch'
p368
(dp369
g351
I100
sg352
I1
sg353
g358
ssS'parscriptstylesheet'
p370
(dp371
g351
I0
sg352
Nsg353
g14
ssS'cacheredir'
p372
(dp373
g351
I1
sg352
I0
sg353
g363
ssS'parscriptscript'
p374
(dp375
g351
I0
sg352
Nsg353
g14
ssS'maxconn'
p376
(dp377
g351
I100
sg352
I24
sg353
S'24'
p378
ssS'parsheet'
p379
(dp380
g351
I1
sg352
I0
sg353
g363
ssS'hostconn'
p381
(dp382
g351
I50
sg352
I2
sg353
g44
ssssVBlackberry 8520
p383
(dp384
S'summary_display'
p385
S'7/14'
p386
sS'total_runs'
p387
L1L
sS'summary_score'
p388
I50
sS'results'
p389
(dp390
S'parscriptiframe'
p391
(dp392
S'score'
p393
I0
sS'raw_score'
p394
NsS'display'
p395
g14
ssS'parscriptimage'
p396
(dp397
g393
I0
sg394
Nsg395
g14
ssS'cacheexp'
p398
(dp399
g393
I100
sg394
I1
sg395
S'yes'
p400
ssS'cacheresredir'
p401
(dp402
g393
I100
sg394
I1
sg395
g400
ssS'parcssjs'
p403
(dp404
g393
I1
sg394
I0
sg395
S'no'
p405
ssS'gzip'
p406
(dp407
g393
I1
sg394
I0
sg395
g405
ssS'du'
p408
(dp409
g393
I100
sg394
I1
sg395
g400
ssS'prefetch'
p410
(dp411
g393
I100
sg394
I1
sg395
g400
ssS'parscriptstylesheet'
p412
(dp413
g393
I0
sg394
Nsg395
g14
ssS'cacheredir'
p414
(dp415
g393
I100
sg394
I1
sg395
g400
ssS'parscriptscript'
p416
(dp417
g393
I0
sg394
Nsg395
g14
ssS'maxconn'
p418
(dp419
g393
I0
sg394
I1
sg395
S'1'
p420
ssS'parsheet'
p421
(dp422
g393
I100
sg394
I1
sg395
g400
ssS'hostconn'
p423
(dp424
g393
I100
sg394
I4
sg395
g251
ssssVIE 8
p425
(dp426
S'summary_display'
p427
S'8/14'
p428
sS'total_runs'
p429
L830L
sS'summary_score'
p430
I57
sS'results'
p431
(dp432
S'du'
p433
(dp434
S'score'
p435
I100
sS'raw_score'
p436
I1
sS'display'
p437
S'yes'
p438
ssS'parscriptimage'
p439
(dp440
g435
I1
sg436
I0
sg437
S'no'
p441
ssS'cacheexp'
p442
(dp443
g435
I100
sg436
I1
sg437
g438
ssS'cacheresredir'
p444
(dp445
g435
I1
sg436
I0
sg437
g441
ssS'parcssjs'
p446
(dp447
g435
I1
sg436
I0
sg437
g441
ssS'parscriptiframe'
p448
(dp449
g435
I1
sg436
I0
sg437
g441
ssS'gzip'
p450
(dp451
g435
I100
sg436
I1
sg437
g438
ssS'prefetch'
p452
(dp453
g435
I1
sg436
I0
sg437
g441
ssS'parscriptstylesheet'
p454
(dp455
g435
I100
sg436
I1
sg437
g438
ssS'cacheredir'
p456
(dp457
g435
I1
sg436
I0
sg437
g441
ssS'parscriptscript'
p458
(dp459
g435
I100
sg436
I1
sg437
g438
ssS'maxconn'
p460
(dp461
g435
I100
sg436
I60
sg437
S'60'
p462
ssS'parsheet'
p463
(dp464
g435
I100
sg436
I1
sg437
g438
ssS'hostconn'
p465
(dp466
g435
I100
sg436
I6
sg437
g298
ssssVIE 9
p467
(dp468
S'summary_display'
p469
S'4/14'
p470
sS'total_runs'
p471
L1L
sS'summary_score'
p472
I29
sS'results'
p473
(dp474
S'parscriptiframe'
p475
(dp476
S'score'
p477
I0
sS'raw_score'
p478
NsS'display'
p479
g14
ssS'parscriptimage'
p480
(dp481
g477
I0
sg478
Nsg479
g14
ssS'cacheexp'
p482
(dp483
g477
I100
sg478
I1
sg479
S'yes'
p484
ssS'cacheresredir'
p485
(dp486
g477
I1
sg478
I0
sg479
S'no'
p487
ssS'parcssjs'
p488
(dp489
g477
I1
sg478
I0
sg479
g487
ssS'gzip'
p490
(dp491
g477
I100
sg478
I1
sg479
g484
ssS'du'
p492
(dp493
g477
I1
sg478
I0
sg479
g487
ssS'prefetch'
p494
(dp495
g477
I1
sg478
I0
sg479
g487
ssS'parscriptstylesheet'
p496
(dp497
g477
I0
sg478
Nsg479
g14
ssS'cacheredir'
p498
(dp499
g477
I1
sg478
I0
sg479
g487
ssS'parscriptscript'
p500
(dp501
g477
I0
sg478
Nsg479
g14
ssS'maxconn'
p502
(dp503
g477
I100
sg478
I60
sg479
S'60'
p504
ssS'parsheet'
p505
(dp506
g477
I1
sg478
I0
sg479
g487
ssS'hostconn'
p507
(dp508
g477
I100
sg478
I8
sg479
g87
ssssVObigo 10
p509
(dp510
S'summary_display'
p511
S'5/14'
p512
sS'total_runs'
p513
L5L
sS'summary_score'
p514
I36
sS'results'
p515
(dp516
S'parscriptiframe'
p517
(dp518
S'score'
p519
I0
sS'raw_score'
p520
NsS'display'
p521
g14
ssS'parscriptimage'
p522
(dp523
g519
I0
sg520
Nsg521
g14
ssS'cacheexp'
p524
(dp525
g519
I100
sg520
I1
sg521
S'yes'
p526
ssS'cacheresredir'
p527
(dp528
g519
I1
sg520
I0
sg521
S'no'
p529
ssS'parcssjs'
p530
(dp531
g519
I1
sg520
I0
sg521
g529
ssS'gzip'
p532
(dp533
g519
I100
sg520
I1
sg521
g526
ssS'du'
p534
(dp535
g519
I100
sg520
I1
sg521
g526
ssS'prefetch'
p536
(dp537
g519
I1
sg520
I0
sg521
g529
ssS'parscriptstylesheet'
p538
(dp539
g519
I0
sg520
Nsg521
g14
ssS'cacheredir'
p540
(dp541
g519
I1
sg520
I0
sg521
g529
ssS'parscriptscript'
p542
(dp543
g519
I0
sg520
Nsg521
g14
ssS'maxconn'
p544
(dp545
g519
I1
sg520
I6
sg521
g298
ssS'parsheet'
p546
(dp547
g519
I100
sg520
I1
sg521
g526
ssS'hostconn'
p548
(dp549
g519
I100
sg520
I5
sg521
S'5'
p550
ssssVPlayStation 3
p551
(dp552
S'summary_display'
p553
S'4/14'
p554
sS'total_runs'
p555
L7L
sS'summary_score'
p556
I29
sS'results'
p557
(dp558
S'parscriptiframe'
p559
(dp560
S'score'
p561
I1
sS'raw_score'
p562
I0
sS'display'
p563
S'no'
p564
ssS'parscriptimage'
p565
(dp566
g561
I1
sg562
I0
sg563
g564
ssS'cacheexp'
p567
(dp568
g561
I100
sg562
I1
sg563
S'yes'
p569
ssS'cacheresredir'
p570
(dp571
g561
I1
sg562
I0
sg563
g564
ssS'parcssjs'
p572
(dp573
g561
I1
sg562
I0
sg563
g564
ssS'gzip'
p574
(dp575
g561
I1
sg562
I0
sg563
g564
ssS'du'
p576
(dp577
g561
I100
sg562
I1
sg563
g569
ssS'prefetch'
p578
(dp579
g561
I1
sg562
I0
sg563
g564
ssS'parscriptstylesheet'
p580
(dp581
g561
I1
sg562
I0
sg563
g564
ssS'cacheredir'
p582
(dp583
g561
I100
sg562
I1
sg563
g569
ssS'parscriptscript'
p584
(dp585
g561
I1
sg562
I0
sg563
g564
ssS'maxconn'
p586
(dp587
g561
I1
sg562
I4
sg563
g251
ssS'parsheet'
p588
(dp589
g561
I1
sg562
I0
sg563
g564
ssS'hostconn'
p590
(dp591
g561
I100
sg562
I4
sg563
g251
ssssVPalm Blazer 4
p592
(dp593
S'summary_display'
p594
S'2/14'
p595
sS'total_runs'
p596
L1L
sS'summary_score'
p597
I14
sS'results'
p598
(dp599
S'parscriptiframe'
p600
(dp601
S'score'
p602
I0
sS'raw_score'
p603
NsS'display'
p604
g14
ssS'parscriptimage'
p605
(dp606
g602
I0
sg603
Nsg604
g14
ssS'cacheexp'
p607
(dp608
g602
I1
sg603
I0
sg604
S'no'
p609
ssS'cacheresredir'
p610
(dp611
g602
I1
sg603
I0
sg604
g609
ssS'parcssjs'
p612
(dp613
g602
I1
sg603
I0
sg604
g609
ssS'gzip'
p614
(dp615
g602
I100
sg603
I1
sg604
S'yes'
p616
ssS'du'
p617
(dp618
g602
I0
sg603
Nsg604
g14
ssS'prefetch'
p619
(dp620
g602
I1
sg603
I0
sg604
g609
ssS'parscriptstylesheet'
p621
(dp622
g602
I0
sg603
Nsg604
g14
ssS'cacheredir'
p623
(dp624
g602
I100
sg603
I1
sg604
g616
ssS'parscriptscript'
p625
(dp626
g602
I0
sg603
Nsg604
g14
ssS'maxconn'
p627
(dp628
g602
I0
sg603
I0
sg604
S'0'
p629
ssS'parsheet'
p630
(dp631
g602
I1
sg603
I0
sg604
g609
ssS'hostconn'
p632
(dp633
g602
I0
sg603
I0
sg604
g629
ssssVIE 6
p634
(dp635
S'summary_display'
p636
S'4/14'
p637
sS'total_runs'
p638
L460L
sS'summary_score'
p639
I29
sS'results'
p640
(dp641
S'du'
p642
(dp643
S'score'
p644
I1
sS'raw_score'
p645
I0
sS'display'
p646
S'no'
p647
ssS'parscriptimage'
p648
(dp649
g644
I1
sg645
I0
sg646
g647
ssS'parcssjs'
p650
(dp651
g644
I1
sg645
I0
sg646
g647
ssS'cacheresredir'
p652
(dp653
g644
I1
sg645
I0
sg646
g647
ssS'cacheexp'
p654
(dp655
g644
I100
sg645
I1
sg646
S'yes'
p656
ssS'maxconn'
p657
(dp658
g644
I100
sg645
I58
sg646
S'58'
p659
ssS'cacheredir'
p660
(dp661
g644
I1
sg645
I0
sg646
g647
ssS'prefetch'
p662
(dp663
g644
I1
sg645
I0
sg646
g647
ssS'parscriptstylesheet'
p664
(dp665
g644
I1
sg645
I0
sg646
g647
ssS'gzip'
p666
(dp667
g644
I100
sg645
I1
sg646
g656
ssS'parscriptscript'
p668
(dp669
g644
I1
sg645
I0
sg646
g647
ssS'parscriptiframe'
p670
(dp671
g644
I1
sg645
I0
sg646
g647
ssS'parsheet'
p672
(dp673
g644
I100
sg645
I1
sg646
g656
ssS'hostconn'
p674
(dp675
g644
I50
sg645
I2
sg646
g44
ssssVIE 7
p676
(dp677
S'summary_display'
p678
S'6/14'
p679
sS'total_runs'
p680
L946L
sS'summary_score'
p681
I43
sS'results'
p682
(dp683
S'du'
p684
(dp685
S'score'
p686
I1
sS'raw_score'
p687
I0
sS'display'
p688
S'no'
p689
ssS'parscriptimage'
p690
(dp691
g686
I1
sg687
I0
sg688
g689
ssS'parcssjs'
p692
(dp693
g686
I1
sg687
I0
sg688
g689
ssS'cacheresredir'
p694
(dp695
g686
I1
sg687
I0
sg688
g689
ssS'cacheexp'
p696
(dp697
g686
I100
sg687
I1
sg688
S'yes'
p698
ssS'maxconn'
p699
(dp700
g686
I100
sg687
I60
sg688
S'60'
p701
ssS'cacheredir'
p702
(dp703
g686
I1
sg687
I0
sg688
g689
ssS'prefetch'
p704
(dp705
g686
I1
sg687
I0
sg688
g689
ssS'parscriptstylesheet'
p706
(dp707
g686
I100
sg687
I1
sg688
g698
ssS'gzip'
p708
(dp709
g686
I100
sg687
I1
sg688
g698
ssS'parscriptscript'
p710
(dp711
g686
I100
sg687
I1
sg688
g698
ssS'parscriptiframe'
p712
(dp713
g686
I1
sg687
I0
sg688
g689
ssS'parsheet'
p714
(dp715
g686
I100
sg687
I1
sg688
g698
ssS'hostconn'
p716
(dp717
g686
I50
sg687
I2
sg688
g44
ssssVIE 4
p718
(dp719
S'summary_display'
p720
S'9/14'
p721
sS'total_runs'
p722
L1L
sS'summary_score'
p723
I64
sS'results'
p724
(dp725
S'parscriptiframe'
p726
(dp727
S'score'
p728
I0
sS'raw_score'
p729
NsS'display'
p730
g14
ssS'parscriptimage'
p731
(dp732
g728
I0
sg729
Nsg730
g14
ssS'cacheexp'
p733
(dp734
g728
I100
sg729
I1
sg730
S'yes'
p735
ssS'cacheresredir'
p736
(dp737
g728
I100
sg729
I1
sg730
g735
ssS'parcssjs'
p738
(dp739
g728
I1
sg729
I0
sg730
S'no'
p740
ssS'gzip'
p741
(dp742
g728
I100
sg729
I1
sg730
g735
ssS'du'
p743
(dp744
g728
I100
sg729
I1
sg730
g735
ssS'prefetch'
p745
(dp746
g728
I100
sg729
I1
sg730
g735
ssS'parscriptstylesheet'
p747
(dp748
g728
I0
sg729
Nsg730
g14
ssS'cacheredir'
p749
(dp750
g728
I100
sg729
I1
sg730
g735
ssS'parscriptscript'
p751
(dp752
g728
I0
sg729
Nsg730
g14
ssS'maxconn'
p753
(dp754
g728
I100
sg729
I60
sg730
S'60'
p755
ssS'parsheet'
p756
(dp757
g728
I100
sg729
I1
sg730
g735
ssS'hostconn'
p758
(dp759
g728
I100
sg729
I14
sg730
S'14'
p760
ssssVIE 5
p761
(dp762
S'summary_display'
p763
S'4/14'
p764
sS'total_runs'
p765
L44L
sS'summary_score'
p766
I29
sS'results'
p767
(dp768
S'parscriptiframe'
p769
(dp770
S'score'
p771
I0
sS'raw_score'
p772
NsS'display'
p773
g14
ssS'parscriptimage'
p774
(dp775
g771
I0
sg772
Nsg773
g14
ssS'cacheexp'
p776
(dp777
g771
I100
sg772
I1
sg773
S'yes'
p778
ssS'cacheresredir'
p779
(dp780
g771
I1
sg772
I0
sg773
S'no'
p781
ssS'parcssjs'
p782
(dp783
g771
I1
sg772
I0
sg773
g781
ssS'gzip'
p784
(dp785
g771
I100
sg772
I1
sg773
g778
ssS'du'
p786
(dp787
g771
I1
sg772
I0
sg773
g781
ssS'prefetch'
p788
(dp789
g771
I1
sg772
I0
sg773
g781
ssS'parscriptstylesheet'
p790
(dp791
g771
I0
sg772
Nsg773
g14
ssS'cacheredir'
p792
(dp793
g771
I1
sg772
I0
sg773
g781
ssS'parscriptscript'
p794
(dp795
g771
I0
sg772
Nsg773
g14
ssS'maxconn'
p796
(dp797
g771
I100
sg772
I60
sg773
S'60'
p798
ssS'parsheet'
p799
(dp800
g771
I100
sg772
I1
sg773
g778
ssS'hostconn'
p801
(dp802
g771
I50
sg772
I2
sg773
g44
ssssVFirefox 2
p803
(dp804
S'summary_display'
p805
S'7/14'
p806
sS'total_runs'
p807
L510L
sS'summary_score'
p808
I50
sS'results'
p809
(dp810
S'parscriptiframe'
p811
(dp812
S'score'
p813
I1
sS'raw_score'
p814
I0
sS'display'
p815
S'no'
p816
ssS'parscriptimage'
p817
(dp818
g813
I1
sg814
I0
sg815
g816
ssS'cacheexp'
p819
(dp820
g813
I100
sg814
I1
sg815
S'yes'
p821
ssS'cacheresredir'
p822
(dp823
g813
I100
sg814
I1
sg815
g821
ssS'parcssjs'
p824
(dp825
g813
I1
sg814
I0
sg815
g816
ssS'gzip'
p826
(dp827
g813
I100
sg814
I1
sg815
g821
ssS'du'
p828
(dp829
g813
I100
sg814
I1
sg815
g821
ssS'prefetch'
p830
(dp831
g813
I100
sg814
I1
sg815
g821
ssS'parscriptstylesheet'
p832
(dp833
g813
I1
sg814
I0
sg815
g816
ssS'cacheredir'
p834
(dp835
g813
I100
sg814
I1
sg815
g821
ssS'parscriptscript'
p836
(dp837
g813
I1
sg814
I0
sg815
g816
ssS'maxconn'
p838
(dp839
g813
I100
sg814
I24
sg815
S'24'
p840
ssS'parsheet'
p841
(dp842
g813
I1
sg814
I0
sg815
g816
ssS'hostconn'
p843
(dp844
g813
I50
sg814
I2
sg815
g44
ssssVFirefox 3
p845
(dp846
S'summary_display'
p847
S'10/14'
p848
sS'total_runs'
p849
L11818L
sS'summary_score'
p850
I71
sS'results'
p851
(dp852
S'du'
p853
(dp854
S'score'
p855
I100
sS'raw_score'
p856
I1
sS'display'
p857
S'yes'
p858
ssS'parscriptimage'
p859
(dp860
g855
I1
sg856
I0
sg857
S'no'
p861
ssS'parcssjs'
p862
(dp863
g855
I1
sg856
I0
sg857
g861
ssS'cacheresredir'
p864
(dp865
g855
I100
sg856
I1
sg857
g858
ssS'cacheexp'
p866
(dp867
g855
I100
sg856
I1
sg857
g858
ssS'maxconn'
p868
(dp869
g855
I100
sg856
I30
sg857
S'30'
p870
ssS'cacheredir'
p871
(dp872
g855
I1
sg856
I0
sg857
g861
ssS'prefetch'
p873
(dp874
g855
I100
sg856
I1
sg857
g858
ssS'parscriptstylesheet'
p875
(dp876
g855
I100
sg856
I1
sg857
g858
ssS'gzip'
p877
(dp878
g855
I100
sg856
I1
sg857
g858
ssS'parscriptscript'
p879
(dp880
g855
I100
sg856
I1
sg857
g858
ssS'parscriptiframe'
p881
(dp882
g855
I1
sg856
I0
sg857
g861
ssS'parsheet'
p883
(dp884
g855
I100
sg856
I1
sg857
g858
ssS'hostconn'
p885
(dp886
g855
I100
sg856
I6
sg857
g298
ssssVFirefox 1
p887
(dp888
S'summary_display'
p889
S'7/14'
p890
sS'total_runs'
p891
L31L
sS'summary_score'
p892
I50
sS'results'
p893
(dp894
S'parscriptiframe'
p895
(dp896
S'score'
p897
I1
sS'raw_score'
p898
I0
sS'display'
p899
S'no'
p900
ssS'parscriptimage'
p901
(dp902
g897
I1
sg898
I0
sg899
g900
ssS'cacheexp'
p903
(dp904
g897
I100
sg898
I1
sg899
S'yes'
p905
ssS'cacheresredir'
p906
(dp907
g897
I100
sg898
I1
sg899
g905
ssS'parcssjs'
p908
(dp909
g897
I1
sg898
I0
sg899
g900
ssS'gzip'
p910
(dp911
g897
I100
sg898
I1
sg899
g905
ssS'du'
p912
(dp913
g897
I100
sg898
I1
sg899
g905
ssS'prefetch'
p914
(dp915
g897
I100
sg898
I1
sg899
g905
ssS'parscriptstylesheet'
p916
(dp917
g897
I1
sg898
I0
sg899
g900
ssS'cacheredir'
p918
(dp919
g897
I100
sg898
I1
sg899
g905
ssS'parscriptscript'
p920
(dp921
g897
I1
sg898
I0
sg899
g900
ssS'maxconn'
p922
(dp923
g897
I100
sg898
I24
sg899
S'24'
p924
ssS'parsheet'
p925
(dp926
g897
I1
sg898
I0
sg899
g900
ssS'hostconn'
p927
(dp928
g897
I50
sg898
I2
sg899
g44
ssssVNokia 95
p929
(dp930
S'summary_display'
p931
S'5/14'
p932
sS'total_runs'
p933
L27L
sS'summary_score'
p934
I36
sS'results'
p935
(dp936
S'parscriptiframe'
p937
(dp938
S'score'
p939
I0
sS'raw_score'
p940
NsS'display'
p941
g14
ssS'parscriptimage'
p942
(dp943
g939
I0
sg940
Nsg941
g14
ssS'cacheexp'
p944
(dp945
g939
I100
sg940
I1
sg941
S'yes'
p946
ssS'cacheresredir'
p947
(dp948
g939
I1
sg940
I0
sg941
S'no'
p949
ssS'parcssjs'
p950
(dp951
g939
I1
sg940
I0
sg941
g949
ssS'gzip'
p952
(dp953
g939
I100
sg940
I1
sg941
g946
ssS'du'
p954
(dp955
g939
I1
sg940
I0
sg941
g949
ssS'prefetch'
p956
(dp957
g939
I100
sg940
I1
sg941
g946
ssS'parscriptstylesheet'
p958
(dp959
g939
I0
sg940
Nsg941
g14
ssS'cacheredir'
p960
(dp961
g939
I1
sg940
I0
sg941
g949
ssS'parscriptscript'
p962
(dp963
g939
I0
sg940
Nsg941
g14
ssS'maxconn'
p964
(dp965
g939
I1
sg940
I7
sg941
g125
ssS'parsheet'
p966
(dp967
g939
I100
sg940
I1
sg941
g946
ssS'hostconn'
p968
(dp969
g939
I100
sg940
I7
sg941
g125
ssssVNokia 96
p970
(dp971
S'summary_display'
p972
S'5/14'
p973
sS'total_runs'
p974
L2L
sS'summary_score'
p975
I36
sS'results'
p976
(dp977
S'parscriptiframe'
p978
(dp979
S'score'
p980
I0
sS'raw_score'
p981
NsS'display'
p982
g14
ssS'parscriptimage'
p983
(dp984
g980
I0
sg981
Nsg982
g14
ssS'cacheexp'
p985
(dp986
g980
I100
sg981
I1
sg982
S'yes'
p987
ssS'cacheresredir'
p988
(dp989
g980
I1
sg981
I0
sg982
S'no'
p990
ssS'parcssjs'
p991
(dp992
g980
I1
sg981
I0
sg982
g990
ssS'gzip'
p993
(dp994
g980
I100
sg981
I1
sg982
g987
ssS'du'
p995
(dp996
g980
I100
sg981
I1
sg982
g987
ssS'prefetch'
p997
(dp998
g980
I1
sg981
I0
sg982
g990
ssS'parscriptstylesheet'
p999
(dp1000
g980
I0
sg981
Nsg982
g14
ssS'cacheredir'
p1001
(dp1002
g980
I1
sg981
I0
sg982
g990
ssS'parscriptscript'
p1003
(dp1004
g980
I0
sg981
Nsg982
g14
ssS'maxconn'
p1005
(dp1006
g980
I1
sg981
I7
sg982
g125
ssS'parsheet'
p1007
(dp1008
g980
I100
sg981
I1
sg982
g987
ssS'hostconn'
p1009
(dp1010
g980
I100
sg981
I7
sg982
g125
ssssVIE Mobile 7
p1011
(dp1012
S'summary_display'
p1013
S'5/14'
p1014
sS'total_runs'
p1015
L6L
sS'summary_score'
p1016
I36
sS'results'
p1017
(dp1018
S'parscriptiframe'
p1019
(dp1020
S'score'
p1021
I0
sS'raw_score'
p1022
NsS'display'
p1023
g14
ssS'parscriptimage'
p1024
(dp1025
g1021
I0
sg1022
Nsg1023
g14
ssS'cacheexp'
p1026
(dp1027
g1021
I100
sg1022
I1
sg1023
S'yes'
p1028
ssS'cacheresredir'
p1029
(dp1030
g1021
I100
sg1022
I1
sg1023
g1028
ssS'parcssjs'
p1031
(dp1032
g1021
I1
sg1022
I0
sg1023
S'no'
p1033
ssS'gzip'
p1034
(dp1035
g1021
I100
sg1022
I1
sg1023
g1028
ssS'du'
p1036
(dp1037
g1021
I1
sg1022
I0
sg1023
g1033
ssS'prefetch'
p1038
(dp1039
g1021
I100
sg1022
I1
sg1023
g1028
ssS'parscriptstylesheet'
p1040
(dp1041
g1021
I0
sg1022
Nsg1023
g14
ssS'cacheredir'
p1042
(dp1043
g1021
I1
sg1022
I0
sg1023
g1033
ssS'parscriptscript'
p1044
(dp1045
g1021
I0
sg1022
Nsg1023
g14
ssS'maxconn'
p1046
(dp1047
g1021
I0
sg1022
I0
sg1023
g629
ssS'parsheet'
p1048
(dp1049
g1021
I100
sg1022
I1
sg1023
g1028
ssS'hostconn'
p1050
(dp1051
g1021
I0
sg1022
I0
sg1023
g629
ssssVIE Mobile 6
p1052
(dp1053
S'summary_display'
p1054
S'4/14'
p1055
sS'total_runs'
p1056
L2L
sS'summary_score'
p1057
I29
sS'results'
p1058
(dp1059
S'parscriptiframe'
p1060
(dp1061
S'score'
p1062
I0
sS'raw_score'
p1063
NsS'display'
p1064
g14
ssS'parscriptimage'
p1065
(dp1066
g1062
I0
sg1063
Nsg1064
g14
ssS'cacheexp'
p1067
(dp1068
g1062
I100
sg1063
I1
sg1064
S'yes'
p1069
ssS'cacheresredir'
p1070
(dp1071
g1062
I1
sg1063
I0
sg1064
S'no'
p1072
ssS'parcssjs'
p1073
(dp1074
g1062
I1
sg1063
I0
sg1064
g1072
ssS'gzip'
p1075
(dp1076
g1062
I100
sg1063
I1
sg1064
g1069
ssS'du'
p1077
(dp1078
g1062
I1
sg1063
I0
sg1064
g1072
ssS'prefetch'
p1079
(dp1080
g1062
I1
sg1063
I0
sg1064
g1072
ssS'parscriptstylesheet'
p1081
(dp1082
g1062
I0
sg1063
Nsg1064
g14
ssS'cacheredir'
p1083
(dp1084
g1062
I1
sg1063
I0
sg1064
g1072
ssS'parscriptscript'
p1085
(dp1086
g1062
I0
sg1063
Nsg1064
g14
ssS'maxconn'
p1087
(dp1088
g1062
I100
sg1063
I43
sg1064
S'43'
p1089
ssS'parsheet'
p1090
(dp1091
g1062
I100
sg1063
I1
sg1064
g1069
ssS'hostconn'
p1092
(dp1093
g1062
I50
sg1063
I2
sg1064
g44
ssssVMaemo Browser 1
p1094
(dp1095
S'summary_display'
p1096
S'8/14'
p1097
sS'total_runs'
p1098
L1L
sS'summary_score'
p1099
I57
sS'results'
p1100
(dp1101
S'parscriptiframe'
p1102
(dp1103
S'score'
p1104
I0
sS'raw_score'
p1105
NsS'display'
p1106
g14
ssS'parscriptimage'
p1107
(dp1108
g1104
I0
sg1105
Nsg1106
g14
ssS'cacheexp'
p1109
(dp1110
g1104
I100
sg1105
I1
sg1106
S'yes'
p1111
ssS'cacheresredir'
p1112
(dp1113
g1104
I100
sg1105
I1
sg1106
g1111
ssS'parcssjs'
p1114
(dp1115
g1104
I1
sg1105
I0
sg1106
S'no'
p1116
ssS'gzip'
p1117
(dp1118
g1104
I100
sg1105
I1
sg1106
g1111
ssS'du'
p1119
(dp1120
g1104
I100
sg1105
I1
sg1106
g1111
ssS'prefetch'
p1121
(dp1122
g1104
I1
sg1105
I0
sg1106
g1116
ssS'parscriptstylesheet'
p1123
(dp1124
g1104
I0
sg1105
Nsg1106
g14
ssS'cacheredir'
p1125
(dp1126
g1104
I100
sg1105
I1
sg1106
g1111
ssS'parscriptscript'
p1127
(dp1128
g1104
I0
sg1105
Nsg1106
g14
ssS'maxconn'
p1129
(dp1130
g1104
I100
sg1105
I30
sg1106
S'30'
p1131
ssS'parsheet'
p1132
(dp1133
g1104
I100
sg1105
I1
sg1106
g1111
ssS'hostconn'
p1134
(dp1135
g1104
I100
sg1105
I6
sg1106
g298
ssssVBlackberry 9530
p1136
(dp1137
S'summary_display'
p1138
S'6/14'
p1139
sS'total_runs'
p1140
L3L
sS'summary_score'
p1141
I43
sS'results'
p1142
(dp1143
S'parscriptiframe'
p1144
(dp1145
S'score'
p1146
I0
sS'raw_score'
p1147
NsS'display'
p1148
g14
ssS'parscriptimage'
p1149
(dp1150
g1146
I0
sg1147
Nsg1148
g14
ssS'cacheexp'
p1151
(dp1152
g1146
I100
sg1147
I1
sg1148
S'yes'
p1153
ssS'cacheresredir'
p1154
(dp1155
g1146
I100
sg1147
I1
sg1148
g1153
ssS'parcssjs'
p1156
(dp1157
g1146
I1
sg1147
I0
sg1148
S'no'
p1158
ssS'gzip'
p1159
(dp1160
g1146
I1
sg1147
I0
sg1148
g1158
ssS'du'
p1161
(dp1162
g1146
I1
sg1147
I0
sg1148
g1158
ssS'prefetch'
p1163
(dp1164
g1146
I100
sg1147
I1
sg1148
g1153
ssS'parscriptstylesheet'
p1165
(dp1166
g1146
I0
sg1147
Nsg1148
g14
ssS'cacheredir'
p1167
(dp1168
g1146
I100
sg1147
I1
sg1148
g1153
ssS'parscriptscript'
p1169
(dp1170
g1146
I0
sg1147
Nsg1148
g14
ssS'maxconn'
p1171
(dp1172
g1146
I1
sg1147
I4
sg1148
g251
ssS'parsheet'
p1173
(dp1174
g1146
I100
sg1147
I1
sg1148
g1153
ssS'hostconn'
p1175
(dp1176
g1146
I100
sg1147
I5
sg1148
g550
ssssVWii 9
p1177
(dp1178
S'summary_display'
p1179
S'5/14'
p1180
sS'total_runs'
p1181
L8L
sS'summary_score'
p1182
I36
sS'results'
p1183
(dp1184
S'parscriptiframe'
p1185
(dp1186
S'score'
p1187
I1
sS'raw_score'
p1188
I0
sS'display'
p1189
S'no'
p1190
ssS'parscriptimage'
p1191
(dp1192
g1187
I1
sg1188
I0
sg1189
g1190
ssS'cacheexp'
p1193
(dp1194
g1187
I100
sg1188
I1
sg1189
S'yes'
p1195
ssS'cacheresredir'
p1196
(dp1197
g1187
I1
sg1188
I0
sg1189
g1190
ssS'parcssjs'
p1198
(dp1199
g1187
I1
sg1188
I0
sg1189
g1190
ssS'gzip'
p1200
(dp1201
g1187
I100
sg1188
I1
sg1189
g1195
ssS'du'
p1202
(dp1203
g1187
I100
sg1188
I1
sg1189
g1195
ssS'prefetch'
p1204
(dp1205
g1187
I1
sg1188
I0
sg1189
g1190
ssS'parscriptstylesheet'
p1206
(dp1207
g1187
I1
sg1188
I0
sg1189
g1190
ssS'cacheredir'
p1208
(dp1209
g1187
I1
sg1188
I0
sg1189
g1190
ssS'parscriptscript'
p1210
(dp1211
g1187
I100
sg1188
I1
sg1189
g1195
ssS'maxconn'
p1212
(dp1213
g1187
I1
sg1188
I3
sg1189
S'3'
p1214
ssS'parsheet'
p1215
(dp1216
g1187
I100
sg1188
I1
sg1189
g1195
ssS'hostconn'
p1217
(dp1218
g1187
I50
sg1188
I2
sg1189
g44
ssssVSwiftfox 3
p1219
(dp1220
S'summary_display'
p1221
S'9/14'
p1222
sS'total_runs'
p1223
L18L
sS'summary_score'
p1224
I64
sS'results'
p1225
(dp1226
S'parscriptiframe'
p1227
(dp1228
S'score'
p1229
I0
sS'raw_score'
p1230
NsS'display'
p1231
g14
ssS'parscriptimage'
p1232
(dp1233
g1229
I0
sg1230
Nsg1231
g14
ssS'cacheexp'
p1234
(dp1235
g1229
I100
sg1230
I1
sg1231
S'yes'
p1236
ssS'cacheresredir'
p1237
(dp1238
g1229
I100
sg1230
I1
sg1231
g1236
ssS'parcssjs'
p1239
(dp1240
g1229
I1
sg1230
I0
sg1231
S'no'
p1241
ssS'gzip'
p1242
(dp1243
g1229
I100
sg1230
I1
sg1231
g1236
ssS'du'
p1244
(dp1245
g1229
I100
sg1230
I1
sg1231
g1236
ssS'prefetch'
p1246
(dp1247
g1229
I100
sg1230
I1
sg1231
g1236
ssS'parscriptstylesheet'
p1248
(dp1249
g1229
I0
sg1230
Nsg1231
g14
ssS'cacheredir'
p1250
(dp1251
g1229
I100
sg1230
I1
sg1231
g1236
ssS'parscriptscript'
p1252
(dp1253
g1229
I0
sg1230
Nsg1231
g14
ssS'maxconn'
p1254
(dp1255
g1229
I100
sg1230
I32
sg1231
S'32'
p1256
ssS'parsheet'
p1257
(dp1258
g1229
I100
sg1230
I1
sg1231
g1236
ssS'hostconn'
p1259
(dp1260
g1229
I100
sg1230
I6
sg1231
g298
ssssVMaxthon 2
p1261
(dp1262
S'summary_display'
p1263
S'4/14'
p1264
sS'total_runs'
p1265
L51L
sS'summary_score'
p1266
I29
sS'results'
p1267
(dp1268
S'parscriptiframe'
p1269
(dp1270
S'score'
p1271
I1
sS'raw_score'
p1272
I0
sS'display'
p1273
S'no'
p1274
ssS'parscriptimage'
p1275
(dp1276
g1271
I1
sg1272
I0
sg1273
g1274
ssS'cacheexp'
p1277
(dp1278
g1271
I100
sg1272
I1
sg1273
S'yes'
p1279
ssS'cacheresredir'
p1280
(dp1281
g1271
I1
sg1272
I0
sg1273
g1274
ssS'parcssjs'
p1282
(dp1283
g1271
I1
sg1272
I0
sg1273
g1274
ssS'gzip'
p1284
(dp1285
g1271
I100
sg1272
I1
sg1273
g1279
ssS'du'
p1286
(dp1287
g1271
I1
sg1272
I0
sg1273
g1274
ssS'prefetch'
p1288
(dp1289
g1271
I1
sg1272
I0
sg1273
g1274
ssS'parscriptstylesheet'
p1290
(dp1291
g1271
I1
sg1272
I0
sg1273
g1274
ssS'cacheredir'
p1292
(dp1293
g1271
I1
sg1272
I0
sg1273
g1274
ssS'parscriptscript'
p1294
(dp1295
g1271
I1
sg1272
I0
sg1273
g1274
ssS'maxconn'
p1296
(dp1297
g1271
I100
sg1272
I60
sg1273
S'60'
p1298
ssS'parsheet'
p1299
(dp1300
g1271
I1
sg1272
I0
sg1273
g1274
ssS'hostconn'
p1301
(dp1302
g1271
I100
sg1272
I8
sg1273
g87
ssssVIceweasel 3
p1303
(dp1304
S'summary_display'
p1305
S'9/14'
p1306
sS'total_runs'
p1307
L144L
sS'summary_score'
p1308
I64
sS'results'
p1309
(dp1310
S'parscriptiframe'
p1311
(dp1312
S'score'
p1313
I1
sS'raw_score'
p1314
I0
sS'display'
p1315
S'no'
p1316
ssS'parscriptimage'
p1317
(dp1318
g1313
I1
sg1314
I0
sg1315
g1316
ssS'cacheexp'
p1319
(dp1320
g1313
I100
sg1314
I1
sg1315
S'yes'
p1321
ssS'cacheresredir'
p1322
(dp1323
g1313
I1
sg1314
I0
sg1315
g1316
ssS'parcssjs'
p1324
(dp1325
g1313
I1
sg1314
I0
sg1315
g1316
ssS'gzip'
p1326
(dp1327
g1313
I100
sg1314
I1
sg1315
g1321
ssS'du'
p1328
(dp1329
g1313
I100
sg1314
I1
sg1315
g1321
ssS'prefetch'
p1330
(dp1331
g1313
I100
sg1314
I1
sg1315
g1321
ssS'parscriptstylesheet'
p1332
(dp1333
g1313
I100
sg1314
I1
sg1315
g1321
ssS'cacheredir'
p1334
(dp1335
g1313
I1
sg1314
I0
sg1315
g1316
ssS'parscriptscript'
p1336
(dp1337
g1313
I100
sg1314
I1
sg1315
g1321
ssS'maxconn'
p1338
(dp1339
g1313
I100
sg1314
I30
sg1315
S'30'
p1340
ssS'parsheet'
p1341
(dp1342
g1313
I100
sg1314
I1
sg1315
g1321
ssS'hostconn'
p1343
(dp1344
g1313
I100
sg1314
I6
sg1315
g298
ssssVIceweasel 2
p1345
(dp1346
S'summary_display'
p1347
S'7/14'
p1348
sS'total_runs'
p1349
L14L
sS'summary_score'
p1350
I50
sS'results'
p1351
(dp1352
S'parscriptiframe'
p1353
(dp1354
S'score'
p1355
I0
sS'raw_score'
p1356
NsS'display'
p1357
g14
ssS'parscriptimage'
p1358
(dp1359
g1355
I0
sg1356
Nsg1357
g14
ssS'cacheexp'
p1360
(dp1361
g1355
I100
sg1356
I1
sg1357
S'yes'
p1362
ssS'cacheresredir'
p1363
(dp1364
g1355
I100
sg1356
I1
sg1357
g1362
ssS'parcssjs'
p1365
(dp1366
g1355
I1
sg1356
I0
sg1357
S'no'
p1367
ssS'gzip'
p1368
(dp1369
g1355
I100
sg1356
I1
sg1357
g1362
ssS'du'
p1370
(dp1371
g1355
I100
sg1356
I1
sg1357
g1362
ssS'prefetch'
p1372
(dp1373
g1355
I100
sg1356
I1
sg1357
g1362
ssS'parscriptstylesheet'
p1374
(dp1375
g1355
I0
sg1356
Nsg1357
g14
ssS'cacheredir'
p1376
(dp1377
g1355
I100
sg1356
I1
sg1357
g1362
ssS'parscriptscript'
p1378
(dp1379
g1355
I0
sg1356
Nsg1357
g14
ssS'maxconn'
p1380
(dp1381
g1355
I100
sg1356
I23
sg1357
S'23'
p1382
ssS'parsheet'
p1383
(dp1384
g1355
I1
sg1356
I0
sg1357
g1367
ssS'hostconn'
p1385
(dp1386
g1355
I50
sg1356
I2
sg1357
g44
ssssVBlackberry 9000
p1387
(dp1388
S'summary_display'
p1389
S'6/14'
p1390
sS'total_runs'
p1391
L5L
sS'summary_score'
p1392
I43
sS'results'
p1393
(dp1394
S'parscriptiframe'
p1395
(dp1396
S'score'
p1397
I0
sS'raw_score'
p1398
NsS'display'
p1399
g14
ssS'parscriptimage'
p1400
(dp1401
g1397
I0
sg1398
Nsg1399
g14
ssS'cacheexp'
p1402
(dp1403
g1397
I100
sg1398
I1
sg1399
S'yes'
p1404
ssS'cacheresredir'
p1405
(dp1406
g1397
I100
sg1398
I1
sg1399
g1404
ssS'parcssjs'
p1407
(dp1408
g1397
I1
sg1398
I0
sg1399
S'no'
p1409
ssS'gzip'
p1410
(dp1411
g1397
I1
sg1398
I0
sg1399
g1409
ssS'du'
p1412
(dp1413
g1397
I1
sg1398
I0
sg1399
g1409
ssS'prefetch'
p1414
(dp1415
g1397
I100
sg1398
I1
sg1399
g1404
ssS'parscriptstylesheet'
p1416
(dp1417
g1397
I0
sg1398
Nsg1399
g14
ssS'cacheredir'
p1418
(dp1419
g1397
I100
sg1398
I1
sg1399
g1404
ssS'parscriptscript'
p1420
(dp1421
g1397
I0
sg1398
Nsg1399
g14
ssS'maxconn'
p1422
(dp1423
g1397
I1
sg1398
I4
sg1399
g251
ssS'parsheet'
p1424
(dp1425
g1397
I100
sg1398
I1
sg1399
g1404
ssS'hostconn'
p1426
(dp1427
g1397
I100
sg1398
I6
sg1399
g298
ssssVOpera Mini 3
p1428
(dp1429
S'summary_display'
p1430
S'6/14'
p1431
sS'total_runs'
p1432
L6L
sS'summary_score'
p1433
I43
sS'results'
p1434
(dp1435
S'parscriptiframe'
p1436
(dp1437
S'score'
p1438
I0
sS'raw_score'
p1439
NsS'display'
p1440
g14
ssS'parscriptimage'
p1441
(dp1442
g1438
I0
sg1439
Nsg1440
g14
ssS'cacheexp'
p1443
(dp1444
g1438
I100
sg1439
I1
sg1440
S'yes'
p1445
ssS'cacheresredir'
p1446
(dp1447
g1438
I1
sg1439
I0
sg1440
S'no'
p1448
ssS'parcssjs'
p1449
(dp1450
g1438
I1
sg1439
I0
sg1440
g1448
ssS'gzip'
p1451
(dp1452
g1438
I100
sg1439
I1
sg1440
g1445
ssS'du'
p1453
(dp1454
g1438
I100
sg1439
I1
sg1440
g1445
ssS'prefetch'
p1455
(dp1456
g1438
I1
sg1439
I0
sg1440
g1448
ssS'parscriptstylesheet'
p1457
(dp1458
g1438
I0
sg1439
Nsg1440
g14
ssS'cacheredir'
p1459
(dp1460
g1438
I1
sg1439
I0
sg1440
g1448
ssS'parscriptscript'
p1461
(dp1462
g1438
I0
sg1439
Nsg1440
g14
ssS'maxconn'
p1463
(dp1464
g1438
I100
sg1439
I60
sg1440
S'60'
p1465
ssS'parsheet'
p1466
(dp1467
g1438
I100
sg1439
I1
sg1440
g1445
ssS'hostconn'
p1468
(dp1469
g1438
I100
sg1439
I10
sg1440
S'10'
p1470
ssssVSeaMonkey 1
p1471
(dp1472
S'summary_display'
p1473
S'7/14'
p1474
sS'total_runs'
p1475
L63L
sS'summary_score'
p1476
I50
sS'results'
p1477
(dp1478
S'parscriptiframe'
p1479
(dp1480
S'score'
p1481
I1
sS'raw_score'
p1482
I0
sS'display'
p1483
S'no'
p1484
ssS'parscriptimage'
p1485
(dp1486
g1481
I1
sg1482
I0
sg1483
g1484
ssS'cacheexp'
p1487
(dp1488
g1481
I100
sg1482
I1
sg1483
S'yes'
p1489
ssS'cacheresredir'
p1490
(dp1491
g1481
I100
sg1482
I1
sg1483
g1489
ssS'parcssjs'
p1492
(dp1493
g1481
I1
sg1482
I0
sg1483
g1484
ssS'gzip'
p1494
(dp1495
g1481
I100
sg1482
I1
sg1483
g1489
ssS'du'
p1496
(dp1497
g1481
I100
sg1482
I1
sg1483
g1489
ssS'prefetch'
p1498
(dp1499
g1481
I100
sg1482
I1
sg1483
g1489
ssS'parscriptstylesheet'
p1500
(dp1501
g1481
I1
sg1482
I0
sg1483
g1484
ssS'cacheredir'
p1502
(dp1503
g1481
I100
sg1482
I1
sg1483
g1489
ssS'parscriptscript'
p1504
(dp1505
g1481
I1
sg1482
I0
sg1483
g1484
ssS'maxconn'
p1506
(dp1507
g1481
I100
sg1482
I24
sg1483
S'24'
p1508
ssS'parsheet'
p1509
(dp1510
g1481
I1
sg1482
I0
sg1483
g1484
ssS'hostconn'
p1511
(dp1512
g1481
I50
sg1482
I2
sg1483
g44
ssssVFennec 1
p1513
(dp1514
S'summary_display'
p1515
S'8/14'
p1516
sS'total_runs'
p1517
L11L
sS'summary_score'
p1518
I57
sS'results'
p1519
(dp1520
S'parscriptiframe'
p1521
(dp1522
S'score'
p1523
I0
sS'raw_score'
p1524
NsS'display'
p1525
g14
ssS'parscriptimage'
p1526
(dp1527
g1523
I0
sg1524
Nsg1525
g14
ssS'cacheexp'
p1528
(dp1529
g1523
I100
sg1524
I1
sg1525
S'yes'
p1530
ssS'cacheresredir'
p1531
(dp1532
g1523
I100
sg1524
I1
sg1525
g1530
ssS'parcssjs'
p1533
(dp1534
g1523
I1
sg1524
I0
sg1525
S'no'
p1535
ssS'gzip'
p1536
(dp1537
g1523
I100
sg1524
I1
sg1525
g1530
ssS'du'
p1538
(dp1539
g1523
I100
sg1524
I1
sg1525
g1530
ssS'prefetch'
p1540
(dp1541
g1523
I100
sg1524
I1
sg1525
g1530
ssS'parscriptstylesheet'
p1542
(dp1543
g1523
I0
sg1524
Nsg1525
g14
ssS'cacheredir'
p1544
(dp1545
g1523
I100
sg1524
I1
sg1525
g1530
ssS'parscriptscript'
p1546
(dp1547
g1523
I0
sg1524
Nsg1525
g14
ssS'maxconn'
p1548
(dp1549
g1523
I1
sg1524
I6
sg1525
g298
ssS'parsheet'
p1550
(dp1551
g1523
I100
sg1524
I1
sg1525
g1530
ssS'hostconn'
p1552
(dp1553
g1523
I100
sg1524
I4
sg1525
g251
ssssVFennec 0
p1554
(dp1555
S'summary_display'
p1556
S'8/14'
p1557
sS'total_runs'
p1558
L3L
sS'summary_score'
p1559
I57
sS'results'
p1560
(dp1561
S'parscriptiframe'
p1562
(dp1563
S'score'
p1564
I0
sS'raw_score'
p1565
NsS'display'
p1566
g14
ssS'parscriptimage'
p1567
(dp1568
g1564
I0
sg1565
Nsg1566
g14
ssS'cacheexp'
p1569
(dp1570
g1564
I100
sg1565
I1
sg1566
S'yes'
p1571
ssS'cacheresredir'
p1572
(dp1573
g1564
I100
sg1565
I1
sg1566
g1571
ssS'parcssjs'
p1574
(dp1575
g1564
I1
sg1565
I0
sg1566
S'no'
p1576
ssS'gzip'
p1577
(dp1578
g1564
I100
sg1565
I1
sg1566
g1571
ssS'du'
p1579
(dp1580
g1564
I100
sg1565
I1
sg1566
g1571
ssS'prefetch'
p1581
(dp1582
g1564
I100
sg1565
I1
sg1566
g1571
ssS'parscriptstylesheet'
p1583
(dp1584
g1564
I0
sg1565
Nsg1566
g14
ssS'cacheredir'
p1585
(dp1586
g1564
I100
sg1565
I1
sg1566
g1571
ssS'parscriptscript'
p1587
(dp1588
g1564
I0
sg1565
Nsg1566
g14
ssS'maxconn'
p1589
(dp1590
g1564
I1
sg1565
I6
sg1566
g298
ssS'parsheet'
p1591
(dp1592
g1564
I100
sg1565
I1
sg1566
g1571
ssS'hostconn'
p1593
(dp1594
g1564
I100
sg1565
I4
sg1566
g251
ssssVBlackberry 8900
p1595
(dp1596
S'summary_display'
p1597
S'6/14'
p1598
sS'total_runs'
p1599
L2L
sS'summary_score'
p1600
I43
sS'results'
p1601
(dp1602
S'parscriptiframe'
p1603
(dp1604
S'score'
p1605
I0
sS'raw_score'
p1606
NsS'display'
p1607
g14
ssS'parscriptimage'
p1608
(dp1609
g1605
I0
sg1606
Nsg1607
g14
ssS'cacheexp'
p1610
(dp1611
g1605
I100
sg1606
I1
sg1607
S'yes'
p1612
ssS'cacheresredir'
p1613
(dp1614
g1605
I100
sg1606
I1
sg1607
g1612
ssS'parcssjs'
p1615
(dp1616
g1605
I1
sg1606
I0
sg1607
S'no'
p1617
ssS'gzip'
p1618
(dp1619
g1605
I1
sg1606
I0
sg1607
g1617
ssS'du'
p1620
(dp1621
g1605
I1
sg1606
I0
sg1607
g1617
ssS'prefetch'
p1622
(dp1623
g1605
I100
sg1606
I1
sg1607
g1612
ssS'parscriptstylesheet'
p1624
(dp1625
g1605
I0
sg1606
Nsg1607
g14
ssS'cacheredir'
p1626
(dp1627
g1605
I100
sg1606
I1
sg1607
g1612
ssS'parscriptscript'
p1628
(dp1629
g1605
I0
sg1606
Nsg1607
g14
ssS'maxconn'
p1630
(dp1631
g1605
I50
sg1606
I11
sg1607
S'11'
p1632
ssS'parsheet'
p1633
(dp1634
g1605
I100
sg1606
I1
sg1607
g1612
ssS'hostconn'
p1635
(dp1636
g1605
I100
sg1606
I12
sg1607
S'12'
p1637
ssssVArora 0
p1638
(dp1639
S'summary_display'
p1640
S'10/14'
p1641
sS'total_runs'
p1642
L30L
sS'summary_score'
p1643
I71
sS'results'
p1644
(dp1645
S'parscriptiframe'
p1646
(dp1647
S'score'
p1648
I1
sS'raw_score'
p1649
I0
sS'display'
p1650
S'no'
p1651
ssS'parscriptimage'
p1652
(dp1653
g1648
I100
sg1649
I1
sg1650
S'yes'
p1654
ssS'cacheexp'
p1655
(dp1656
g1648
I100
sg1649
I1
sg1650
g1654
ssS'cacheresredir'
p1657
(dp1658
g1648
I100
sg1649
I1
sg1650
g1654
ssS'parcssjs'
p1659
(dp1660
g1648
I1
sg1649
I0
sg1650
g1651
ssS'gzip'
p1661
(dp1662
g1648
I100
sg1649
I1
sg1650
g1654
ssS'du'
p1663
(dp1664
g1648
I100
sg1649
I1
sg1650
g1654
ssS'prefetch'
p1665
(dp1666
g1648
I1
sg1649
I0
sg1650
g1651
ssS'parscriptstylesheet'
p1667
(dp1668
g1648
I100
sg1649
I1
sg1650
g1654
ssS'cacheredir'
p1669
(dp1670
g1648
I100
sg1649
I1
sg1650
g1654
ssS'parscriptscript'
p1671
(dp1672
g1648
I100
sg1649
I1
sg1650
g1654
ssS'maxconn'
p1673
(dp1674
g1648
I100
sg1649
I42
sg1650
S'42'
p1675
ssS'parsheet'
p1676
(dp1677
g1648
I100
sg1649
I1
sg1650
g1654
ssS'hostconn'
p1678
(dp1679
g1648
I50
sg1649
I2
sg1650
g44
ssssVAvant 1
p1680
(dp1681
S'summary_display'
p1682
S'4/14'
p1683
sS'total_runs'
p1684
L49L
sS'summary_score'
p1685
I29
sS'results'
p1686
(dp1687
S'parscriptiframe'
p1688
(dp1689
S'score'
p1690
I1
sS'raw_score'
p1691
I0
sS'display'
p1692
S'no'
p1693
ssS'parscriptimage'
p1694
(dp1695
g1690
I1
sg1691
I0
sg1692
g1693
ssS'cacheexp'
p1696
(dp1697
g1690
I100
sg1691
I1
sg1692
S'yes'
p1698
ssS'cacheresredir'
p1699
(dp1700
g1690
I1
sg1691
I0
sg1692
g1693
ssS'parcssjs'
p1701
(dp1702
g1690
I1
sg1691
I0
sg1692
g1693
ssS'gzip'
p1703
(dp1704
g1690
I100
sg1691
I1
sg1692
g1698
ssS'du'
p1705
(dp1706
g1690
I1
sg1691
I0
sg1692
g1693
ssS'prefetch'
p1707
(dp1708
g1690
I1
sg1691
I0
sg1692
g1693
ssS'parscriptstylesheet'
p1709
(dp1710
g1690
I1
sg1691
I0
sg1692
g1693
ssS'cacheredir'
p1711
(dp1712
g1690
I1
sg1691
I0
sg1692
g1693
ssS'parscriptscript'
p1713
(dp1714
g1690
I1
sg1691
I0
sg1692
g1693
ssS'maxconn'
p1715
(dp1716
g1690
I100
sg1691
I60
sg1692
S'60'
p1717
ssS'parsheet'
p1718
(dp1719
g1690
I100
sg1691
I1
sg1692
g1698
ssS'hostconn'
p1720
(dp1721
g1690
I50
sg1691
I2
sg1692
g44
ssssVMyIE2 0
p1722
(dp1723
S'summary_display'
p1724
S'6/14'
p1725
sS'total_runs'
p1726
L7L
sS'summary_score'
p1727
I43
sS'results'
p1728
(dp1729
S'parscriptiframe'
p1730
(dp1731
S'score'
p1732
I0
sS'raw_score'
p1733
NsS'display'
p1734
g14
ssS'parscriptimage'
p1735
(dp1736
g1732
I0
sg1733
Nsg1734
g14
ssS'cacheexp'
p1737
(dp1738
g1732
I100
sg1733
I1
sg1734
S'yes'
p1739
ssS'cacheresredir'
p1740
(dp1741
g1732
I1
sg1733
I0
sg1734
S'no'
p1742
ssS'parcssjs'
p1743
(dp1744
g1732
I1
sg1733
I0
sg1734
g1742
ssS'gzip'
p1745
(dp1746
g1732
I100
sg1733
I1
sg1734
g1739
ssS'du'
p1747
(dp1748
g1732
I100
sg1733
I1
sg1734
g1739
ssS'prefetch'
p1749
(dp1750
g1732
I1
sg1733
I0
sg1734
g1742
ssS'parscriptstylesheet'
p1751
(dp1752
g1732
I0
sg1733
Nsg1734
g14
ssS'cacheredir'
p1753
(dp1754
g1732
I1
sg1733
I0
sg1734
g1742
ssS'parscriptscript'
p1755
(dp1756
g1732
I0
sg1733
Nsg1734
g14
ssS'maxconn'
p1757
(dp1758
g1732
I100
sg1733
I60
sg1734
S'60'
p1759
ssS'parsheet'
p1760
(dp1761
g1732
I100
sg1733
I1
sg1734
g1739
ssS'hostconn'
p1762
(dp1763
g1732
I100
sg1733
I10
sg1734
S'10'
p1764
ssssVOpera Mini 4
p1765
(dp1766
S'summary_display'
p1767
S'5/14'
p1768
sS'total_runs'
p1769
L53L
sS'summary_score'
p1770
I36
sS'results'
p1771
(dp1772
S'parscriptiframe'
p1773
(dp1774
S'score'
p1775
I1
sS'raw_score'
p1776
I0
sS'display'
p1777
S'no'
p1778
ssS'parscriptimage'
p1779
(dp1780
g1775
I1
sg1776
I0
sg1777
g1778
ssS'cacheexp'
p1781
(dp1782
g1775
I1
sg1776
I0
sg1777
g1778
ssS'cacheresredir'
p1783
(dp1784
g1775
I1
sg1776
I0
sg1777
g1778
ssS'parcssjs'
p1785
(dp1786
g1775
I1
sg1776
I0
sg1777
g1778
ssS'gzip'
p1787
(dp1788
g1775
I100
sg1776
I1
sg1777
S'yes'
p1789
ssS'du'
p1790
(dp1791
g1775
I100
sg1776
I1
sg1777
g1789
ssS'prefetch'
p1792
(dp1793
g1775
I1
sg1776
I0
sg1777
g1778
ssS'parscriptstylesheet'
p1794
(dp1795
g1775
I1
sg1776
I0
sg1777
g1778
ssS'cacheredir'
p1796
(dp1797
g1775
I1
sg1776
I0
sg1777
g1778
ssS'parscriptscript'
p1798
(dp1799
g1775
I1
sg1776
I0
sg1777
g1778
ssS'maxconn'
p1800
(dp1801
g1775
I100
sg1776
I60
sg1777
S'60'
p1802
ssS'parsheet'
p1803
(dp1804
g1775
I100
sg1776
I1
sg1777
g1789
ssS'hostconn'
p1805
(dp1806
g1775
I100
sg1776
I10
sg1777
S'10'
p1807
ssssVNokia 66
p1808
(dp1809
S'summary_display'
p1810
S'5/14'
p1811
sS'total_runs'
p1812
L2L
sS'summary_score'
p1813
I36
sS'results'
p1814
(dp1815
S'parscriptiframe'
p1816
(dp1817
S'score'
p1818
I0
sS'raw_score'
p1819
NsS'display'
p1820
g14
ssS'parscriptimage'
p1821
(dp1822
g1818
I0
sg1819
Nsg1820
g14
ssS'cacheexp'
p1823
(dp1824
g1818
I100
sg1819
I1
sg1820
S'yes'
p1825
ssS'cacheresredir'
p1826
(dp1827
g1818
I1
sg1819
I0
sg1820
S'no'
p1828
ssS'parcssjs'
p1829
(dp1830
g1818
I1
sg1819
I0
sg1820
g1828
ssS'gzip'
p1831
(dp1832
g1818
I100
sg1819
I1
sg1820
g1825
ssS'du'
p1833
(dp1834
g1818
I1
sg1819
I0
sg1820
g1828
ssS'prefetch'
p1835
(dp1836
g1818
I100
sg1819
I1
sg1820
g1825
ssS'parscriptstylesheet'
p1837
(dp1838
g1818
I0
sg1819
Nsg1820
g14
ssS'cacheredir'
p1839
(dp1840
g1818
I1
sg1819
I0
sg1820
g1828
ssS'parscriptscript'
p1841
(dp1842
g1818
I0
sg1819
Nsg1820
g14
ssS'maxconn'
p1843
(dp1844
g1818
I1
sg1819
I7
sg1820
g125
ssS'parsheet'
p1845
(dp1846
g1818
I100
sg1819
I1
sg1820
g1825
ssS'hostconn'
p1847
(dp1848
g1818
I100
sg1819
I7
sg1820
g125
ssssVLunascape 6
p1849
(dp1850
S'summary_display'
p1851
S'11/14'
p1852
sS'total_runs'
p1853
L27L
sS'summary_score'
p1854
I79
sS'results'
p1855
(dp1856
S'parscriptiframe'
p1857
(dp1858
S'score'
p1859
I1
sS'raw_score'
p1860
I0
sS'display'
p1861
S'no'
p1862
ssS'parscriptimage'
p1863
(dp1864
g1859
I1
sg1860
I0
sg1861
g1862
ssS'cacheexp'
p1865
(dp1866
g1859
I100
sg1860
I1
sg1861
S'yes'
p1867
ssS'cacheresredir'
p1868
(dp1869
g1859
I100
sg1860
I1
sg1861
g1867
ssS'parcssjs'
p1870
(dp1871
g1859
I1
sg1860
I0
sg1861
g1862
ssS'gzip'
p1872
(dp1873
g1859
I100
sg1860
I1
sg1861
g1867
ssS'du'
p1874
(dp1875
g1859
I100
sg1860
I1
sg1861
g1867
ssS'prefetch'
p1876
(dp1877
g1859
I100
sg1860
I1
sg1861
g1867
ssS'parscriptstylesheet'
p1878
(dp1879
g1859
I100
sg1860
I1
sg1861
g1867
ssS'cacheredir'
p1880
(dp1881
g1859
I100
sg1860
I1
sg1861
g1867
ssS'parscriptscript'
p1882
(dp1883
g1859
I100
sg1860
I1
sg1861
g1867
ssS'maxconn'
p1884
(dp1885
g1859
I100
sg1860
I30
sg1861
S'30'
p1886
ssS'parsheet'
p1887
(dp1888
g1859
I100
sg1860
I1
sg1861
g1867
ssS'hostconn'
p1889
(dp1890
g1859
I100
sg1860
I6
sg1861
g298
ssssVOpera Mini 5
p1891
(dp1892
S'summary_display'
p1893
S'7/14'
p1894
sS'total_runs'
p1895
L1L
sS'summary_score'
p1896
I50
sS'results'
p1897
(dp1898
S'parscriptiframe'
p1899
(dp1900
S'score'
p1901
I0
sS'raw_score'
p1902
NsS'display'
p1903
g14
ssS'parscriptimage'
p1904
(dp1905
g1901
I0
sg1902
Nsg1903
g14
ssS'cacheexp'
p1906
(dp1907
g1901
I100
sg1902
I1
sg1903
S'yes'
p1908
ssS'cacheresredir'
p1909
(dp1910
g1901
I1
sg1902
I0
sg1903
S'no'
p1911
ssS'parcssjs'
p1912
(dp1913
g1901
I1
sg1902
I0
sg1903
g1911
ssS'gzip'
p1914
(dp1915
g1901
I100
sg1902
I1
sg1903
g1908
ssS'du'
p1916
(dp1917
g1901
I100
sg1902
I1
sg1903
g1908
ssS'prefetch'
p1918
(dp1919
g1901
I1
sg1902
I0
sg1903
g1911
ssS'parscriptstylesheet'
p1920
(dp1921
g1901
I0
sg1902
Nsg1903
g14
ssS'cacheredir'
p1922
(dp1923
g1901
I100
sg1902
I1
sg1903
g1908
ssS'parscriptscript'
p1924
(dp1925
g1901
I0
sg1902
Nsg1903
g14
ssS'maxconn'
p1926
(dp1927
g1901
I100
sg1902
I31
sg1903
S'31'
p1928
ssS'parsheet'
p1929
(dp1930
g1901
I100
sg1902
I1
sg1903
g1908
ssS'hostconn'
p1931
(dp1932
g1901
I100
sg1902
I11
sg1903
S'11'
p1933
ssssVLunascape 5
p1934
(dp1935
S'summary_display'
p1936
S'7/14'
p1937
sS'total_runs'
p1938
L55L
sS'summary_score'
p1939
I50
sS'results'
p1940
(dp1941
S'parscriptiframe'
p1942
(dp1943
S'score'
p1944
I0
sS'raw_score'
p1945
NsS'display'
p1946
g14
ssS'parscriptimage'
p1947
(dp1948
g1944
I0
sg1945
Nsg1946
g14
ssS'cacheexp'
p1949
(dp1950
g1944
I100
sg1945
I1
sg1946
S'yes'
p1951
ssS'cacheresredir'
p1952
(dp1953
g1944
I100
sg1945
I1
sg1946
g1951
ssS'parcssjs'
p1954
(dp1955
g1944
I1
sg1945
I0
sg1946
S'no'
p1956
ssS'gzip'
p1957
(dp1958
g1944
I100
sg1945
I1
sg1946
g1951
ssS'du'
p1959
(dp1960
g1944
I100
sg1945
I1
sg1946
g1951
ssS'prefetch'
p1961
(dp1962
g1944
I1
sg1945
I0
sg1946
g1956
ssS'parscriptstylesheet'
p1963
(dp1964
g1944
I0
sg1945
Nsg1946
g14
ssS'cacheredir'
p1965
(dp1966
g1944
I1
sg1945
I0
sg1946
g1956
ssS'parscriptscript'
p1967
(dp1968
g1944
I0
sg1945
Nsg1946
g14
ssS'maxconn'
p1969
(dp1970
g1944
I100
sg1945
I30
sg1946
S'30'
p1971
ssS'parsheet'
p1972
(dp1973
g1944
I100
sg1945
I1
sg1946
g1951
ssS'hostconn'
p1974
(dp1975
g1944
I100
sg1945
I4
sg1946
g251
ssssVLunascape 4
p1976
(dp1977
S'summary_display'
p1978
S'9/14'
p1979
sS'total_runs'
p1980
L78L
sS'summary_score'
p1981
I64
sS'results'
p1982
(dp1983
S'parscriptiframe'
p1984
(dp1985
S'score'
p1986
I0
sS'raw_score'
p1987
NsS'display'
p1988
g14
ssS'parscriptimage'
p1989
(dp1990
g1986
I0
sg1987
Nsg1988
g14
ssS'cacheexp'
p1991
(dp1992
g1986
I100
sg1987
I1
sg1988
S'yes'
p1993
ssS'cacheresredir'
p1994
(dp1995
g1986
I100
sg1987
I1
sg1988
g1993
ssS'parcssjs'
p1996
(dp1997
g1986
I1
sg1987
I0
sg1988
S'no'
p1998
ssS'gzip'
p1999
(dp2000
g1986
I100
sg1987
I1
sg1988
g1993
ssS'du'
p2001
(dp2002
g1986
I100
sg1987
I1
sg1988
g1993
ssS'prefetch'
p2003
(dp2004
g1986
I100
sg1987
I1
sg1988
g1993
ssS'parscriptstylesheet'
p2005
(dp2006
g1986
I0
sg1987
Nsg1988
g14
ssS'cacheredir'
p2007
(dp2008
g1986
I100
sg1987
I1
sg1988
g1993
ssS'parscriptscript'
p2009
(dp2010
g1986
I0
sg1987
Nsg1988
g14
ssS'maxconn'
p2011
(dp2012
g1986
I100
sg1987
I30
sg1988
S'30'
p2013
ssS'parsheet'
p2014
(dp2015
g1986
I100
sg1987
I1
sg1988
g1993
ssS'hostconn'
p2016
(dp2017
g1986
I100
sg1987
I6
sg1988
g298
ssssVMicroB 0
p2018
(dp2019
S'summary_display'
p2020
S'8/14'
p2021
sS'total_runs'
p2022
L6L
sS'summary_score'
p2023
I57
sS'results'
p2024
(dp2025
S'parscriptiframe'
p2026
(dp2027
S'score'
p2028
I0
sS'raw_score'
p2029
NsS'display'
p2030
g14
ssS'parscriptimage'
p2031
(dp2032
g2028
I0
sg2029
Nsg2030
g14
ssS'cacheexp'
p2033
(dp2034
g2028
I100
sg2029
I1
sg2030
S'yes'
p2035
ssS'cacheresredir'
p2036
(dp2037
g2028
I100
sg2029
I1
sg2030
g2035
ssS'parcssjs'
p2038
(dp2039
g2028
I1
sg2029
I0
sg2030
S'no'
p2040
ssS'gzip'
p2041
(dp2042
g2028
I100
sg2029
I1
sg2030
g2035
ssS'du'
p2043
(dp2044
g2028
I100
sg2029
I1
sg2030
g2035
ssS'prefetch'
p2045
(dp2046
g2028
I100
sg2029
I1
sg2030
g2035
ssS'parscriptstylesheet'
p2047
(dp2048
g2028
I0
sg2029
Nsg2030
g14
ssS'cacheredir'
p2049
(dp2050
g2028
I1
sg2029
I0
sg2030
g2040
ssS'parscriptscript'
p2051
(dp2052
g2028
I0
sg2029
Nsg2030
g14
ssS'maxconn'
p2053
(dp2054
g2028
I100
sg2029
I23
sg2030
S'23'
p2055
ssS'parsheet'
p2056
(dp2057
g2028
I100
sg2029
I1
sg2030
g2035
ssS'hostconn'
p2058
(dp2059
g2028
I100
sg2029
I4
sg2030
g251
ssssVMicroB 1
p2060
(dp2061
S'summary_display'
p2062
S'9/14'
p2063
sS'total_runs'
p2064
L1L
sS'summary_score'
p2065
I64
sS'results'
p2066
(dp2067
S'parscriptiframe'
p2068
(dp2069
S'score'
p2070
I0
sS'raw_score'
p2071
NsS'display'
p2072
g14
ssS'parscriptimage'
p2073
(dp2074
g2070
I0
sg2071
Nsg2072
g14
ssS'cacheexp'
p2075
(dp2076
g2070
I100
sg2071
I1
sg2072
S'yes'
p2077
ssS'cacheresredir'
p2078
(dp2079
g2070
I100
sg2071
I1
sg2072
g2077
ssS'parcssjs'
p2080
(dp2081
g2070
I1
sg2071
I0
sg2072
S'no'
p2082
ssS'gzip'
p2083
(dp2084
g2070
I100
sg2071
I1
sg2072
g2077
ssS'du'
p2085
(dp2086
g2070
I100
sg2071
I1
sg2072
g2077
ssS'prefetch'
p2087
(dp2088
g2070
I100
sg2071
I1
sg2072
g2077
ssS'parscriptstylesheet'
p2089
(dp2090
g2070
I0
sg2071
Nsg2072
g14
ssS'cacheredir'
p2091
(dp2092
g2070
I100
sg2071
I1
sg2072
g2077
ssS'parscriptscript'
p2093
(dp2094
g2070
I0
sg2071
Nsg2072
g14
ssS'maxconn'
p2095
(dp2096
g2070
I100
sg2071
I30
sg2072
S'30'
p2097
ssS'parsheet'
p2098
(dp2099
g2070
I100
sg2071
I1
sg2072
g2077
ssS'hostconn'
p2100
(dp2101
g2070
I100
sg2071
I6
sg2072
g298
ssssVSleipnir 2
p2102
(dp2103
S'summary_display'
p2104
S'8/14'
p2105
sS'total_runs'
p2106
L34L
sS'summary_score'
p2107
I57
sS'results'
p2108
(dp2109
S'parscriptiframe'
p2110
(dp2111
S'score'
p2112
I1
sS'raw_score'
p2113
I0
sS'display'
p2114
S'no'
p2115
ssS'parscriptimage'
p2116
(dp2117
g2112
I1
sg2113
I0
sg2114
g2115
ssS'cacheexp'
p2118
(dp2119
g2112
I100
sg2113
I1
sg2114
S'yes'
p2120
ssS'cacheresredir'
p2121
(dp2122
g2112
I1
sg2113
I0
sg2114
g2115
ssS'parcssjs'
p2123
(dp2124
g2112
I1
sg2113
I0
sg2114
g2115
ssS'gzip'
p2125
(dp2126
g2112
I100
sg2113
I1
sg2114
g2120
ssS'du'
p2127
(dp2128
g2112
I100
sg2113
I1
sg2114
g2120
ssS'prefetch'
p2129
(dp2130
g2112
I1
sg2113
I0
sg2114
g2115
ssS'parscriptstylesheet'
p2131
(dp2132
g2112
I100
sg2113
I1
sg2114
g2120
ssS'cacheredir'
p2133
(dp2134
g2112
I1
sg2113
I0
sg2114
g2115
ssS'parscriptscript'
p2135
(dp2136
g2112
I100
sg2113
I1
sg2114
g2120
ssS'maxconn'
p2137
(dp2138
g2112
I100
sg2113
I60
sg2114
S'60'
p2139
ssS'parsheet'
p2140
(dp2141
g2112
I100
sg2113
I1
sg2114
g2120
ssS'hostconn'
p2142
(dp2143
g2112
I100
sg2113
I6
sg2114
g298
ssssVOLPC 0
p2144
(dp2145
S'summary_display'
p2146
S'7/14'
p2147
sS'total_runs'
p2148
L1L
sS'summary_score'
p2149
I50
sS'results'
p2150
(dp2151
S'parscriptiframe'
p2152
(dp2153
S'score'
p2154
I0
sS'raw_score'
p2155
NsS'display'
p2156
g14
ssS'parscriptimage'
p2157
(dp2158
g2154
I0
sg2155
Nsg2156
g14
ssS'cacheexp'
p2159
(dp2160
g2154
I100
sg2155
I1
sg2156
S'yes'
p2161
ssS'cacheresredir'
p2162
(dp2163
g2154
I100
sg2155
I1
sg2156
g2161
ssS'parcssjs'
p2164
(dp2165
g2154
I1
sg2155
I0
sg2156
S'no'
p2166
ssS'gzip'
p2167
(dp2168
g2154
I100
sg2155
I1
sg2156
g2161
ssS'du'
p2169
(dp2170
g2154
I100
sg2155
I1
sg2156
g2161
ssS'prefetch'
p2171
(dp2172
g2154
I100
sg2155
I1
sg2156
g2161
ssS'parscriptstylesheet'
p2173
(dp2174
g2154
I0
sg2155
Nsg2156
g14
ssS'cacheredir'
p2175
(dp2176
g2154
I1
sg2155
I0
sg2156
g2166
ssS'parscriptscript'
p2177
(dp2178
g2154
I0
sg2155
Nsg2156
g14
ssS'maxconn'
p2179
(dp2180
g2154
I100
sg2155
I24
sg2156
S'24'
p2181
ssS'parsheet'
p2182
(dp2183
g2154
I100
sg2155
I1
sg2156
g2161
ssS'hostconn'
p2184
(dp2185
g2154
I50
sg2155
I2
sg2156
g44
ssssVIceape 1
p2186
(dp2187
S'summary_display'
p2188
S'7/14'
p2189
sS'total_runs'
p2190
L6L
sS'summary_score'
p2191
I50
sS'results'
p2192
(dp2193
S'parscriptiframe'
p2194
(dp2195
S'score'
p2196
I0
sS'raw_score'
p2197
NsS'display'
p2198
g14
ssS'parscriptimage'
p2199
(dp2200
g2196
I0
sg2197
Nsg2198
g14
ssS'cacheexp'
p2201
(dp2202
g2196
I100
sg2197
I1
sg2198
S'yes'
p2203
ssS'cacheresredir'
p2204
(dp2205
g2196
I100
sg2197
I1
sg2198
g2203
ssS'parcssjs'
p2206
(dp2207
g2196
I1
sg2197
I0
sg2198
S'no'
p2208
ssS'gzip'
p2209
(dp2210
g2196
I100
sg2197
I1
sg2198
g2203
ssS'du'
p2211
(dp2212
g2196
I100
sg2197
I1
sg2198
g2203
ssS'prefetch'
p2213
(dp2214
g2196
I100
sg2197
I1
sg2198
g2203
ssS'parscriptstylesheet'
p2215
(dp2216
g2196
I0
sg2197
Nsg2198
g14
ssS'cacheredir'
p2217
(dp2218
g2196
I100
sg2197
I1
sg2198
g2203
ssS'parscriptscript'
p2219
(dp2220
g2196
I0
sg2197
Nsg2198
g14
ssS'maxconn'
p2221
(dp2222
g2196
I100
sg2197
I24
sg2198
S'24'
p2223
ssS'parsheet'
p2224
(dp2225
g2196
I1
sg2197
I0
sg2198
g2208
ssS'hostconn'
p2226
(dp2227
g2196
I50
sg2197
I2
sg2198
g44
ssssVTeleca Q7
p2228
(dp2229
S'summary_display'
p2230
S'4/14'
p2231
sS'total_runs'
p2232
L2L
sS'summary_score'
p2233
I29
sS'results'
p2234
(dp2235
S'parscriptiframe'
p2236
(dp2237
S'score'
p2238
I0
sS'raw_score'
p2239
NsS'display'
p2240
g14
ssS'parscriptimage'
p2241
(dp2242
g2238
I0
sg2239
Nsg2240
g14
ssS'cacheexp'
p2243
(dp2244
g2238
I100
sg2239
I1
sg2240
S'yes'
p2245
ssS'cacheresredir'
p2246
(dp2247
g2238
I1
sg2239
I0
sg2240
S'no'
p2248
ssS'parcssjs'
p2249
(dp2250
g2238
I1
sg2239
I0
sg2240
g2248
ssS'gzip'
p2251
(dp2252
g2238
I100
sg2239
I1
sg2240
g2245
ssS'du'
p2253
(dp2254
g2238
I100
sg2239
I1
sg2240
g2245
ssS'prefetch'
p2255
(dp2256
g2238
I1
sg2239
I0
sg2240
g2248
ssS'parscriptstylesheet'
p2257
(dp2258
g2238
I0
sg2239
Nsg2240
g14
ssS'cacheredir'
p2259
(dp2260
g2238
I1
sg2239
I0
sg2240
g2248
ssS'parscriptscript'
p2261
(dp2262
g2238
I0
sg2239
Nsg2240
g14
ssS'maxconn'
p2263
(dp2264
g2238
I1
sg2239
I4
sg2240
g251
ssS'parsheet'
p2265
(dp2266
g2238
I1
sg2239
I0
sg2240
g2248
ssS'hostconn'
p2267
(dp2268
g2238
I100
sg2239
I4
sg2240
g251
ssssVOmniWeb 622
p2269
(dp2270
S'summary_display'
p2271
S'12/14'
p2272
sS'total_runs'
p2273
L14L
sS'summary_score'
p2274
I86
sS'results'
p2275
(dp2276
S'parscriptiframe'
p2277
(dp2278
S'score'
p2279
I100
sS'raw_score'
p2280
I1
sS'display'
p2281
S'yes'
p2282
ssS'parscriptimage'
p2283
(dp2284
g2279
I100
sg2280
I1
sg2281
g2282
ssS'cacheexp'
p2285
(dp2286
g2279
I100
sg2280
I1
sg2281
g2282
ssS'cacheresredir'
p2287
(dp2288
g2279
I100
sg2280
I1
sg2281
g2282
ssS'parcssjs'
p2289
(dp2290
g2279
I1
sg2280
I0
sg2281
S'no'
p2291
ssS'gzip'
p2292
(dp2293
g2279
I100
sg2280
I1
sg2281
g2282
ssS'du'
p2294
(dp2295
g2279
I100
sg2280
I1
sg2281
g2282
ssS'prefetch'
p2296
(dp2297
g2279
I1
sg2280
I0
sg2281
g2291
ssS'parscriptstylesheet'
p2298
(dp2299
g2279
I100
sg2280
I1
sg2281
g2282
ssS'cacheredir'
p2300
(dp2301
g2279
I100
sg2280
I1
sg2281
g2282
ssS'parscriptscript'
p2302
(dp2303
g2279
I100
sg2280
I1
sg2281
g2282
ssS'maxconn'
p2304
(dp2305
g2279
I100
sg2280
I60
sg2281
S'60'
p2306
ssS'parsheet'
p2307
(dp2308
g2279
I100
sg2280
I1
sg2281
g2282
ssS'hostconn'
p2309
(dp2310
g2279
I100
sg2280
I4
sg2281
g251
ssssVShiira 0
p2311
(dp2312
S'summary_display'
p2313
S'10/14'
p2314
sS'total_runs'
p2315
L9L
sS'summary_score'
p2316
I71
sS'results'
p2317
(dp2318
S'parscriptiframe'
p2319
(dp2320
S'score'
p2321
I1
sS'raw_score'
p2322
I0
sS'display'
p2323
S'no'
p2324
ssS'parscriptimage'
p2325
(dp2326
g2321
I100
sg2322
I1
sg2323
S'yes'
p2327
ssS'cacheexp'
p2328
(dp2329
g2321
I100
sg2322
I1
sg2323
g2327
ssS'cacheresredir'
p2330
(dp2331
g2321
I100
sg2322
I1
sg2323
g2327
ssS'parcssjs'
p2332
(dp2333
g2321
I1
sg2322
I0
sg2323
g2324
ssS'gzip'
p2334
(dp2335
g2321
I100
sg2322
I1
sg2323
g2327
ssS'du'
p2336
(dp2337
g2321
I100
sg2322
I1
sg2323
g2327
ssS'prefetch'
p2338
(dp2339
g2321
I1
sg2322
I0
sg2323
g2324
ssS'parscriptstylesheet'
p2340
(dp2341
g2321
I100
sg2322
I1
sg2323
g2327
ssS'cacheredir'
p2342
(dp2343
g2321
I1
sg2322
I0
sg2323
g2324
ssS'parscriptscript'
p2344
(dp2345
g2321
I100
sg2322
I1
sg2323
g2327
ssS'maxconn'
p2346
(dp2347
g2321
I100
sg2322
I60
sg2323
S'60'
p2348
ssS'parsheet'
p2349
(dp2350
g2321
I100
sg2322
I1
sg2323
g2327
ssS'hostconn'
p2351
(dp2352
g2321
I100
sg2322
I4
sg2323
g251
ssssVChrome Frame (IE 8) 4
p2353
(dp2354
S'summary_display'
p2355
S'7/14'
p2356
sS'total_runs'
p2357
L8L
sS'summary_score'
p2358
I50
sS'results'
p2359
(dp2360
S'parscriptiframe'
p2361
(dp2362
S'score'
p2363
I0
sS'raw_score'
p2364
NsS'display'
p2365
g14
ssS'parscriptimage'
p2366
(dp2367
g2363
I0
sg2364
Nsg2365
g14
ssS'cacheexp'
p2368
(dp2369
g2363
I100
sg2364
I1
sg2365
S'yes'
p2370
ssS'cacheresredir'
p2371
(dp2372
g2363
I100
sg2364
I1
sg2365
g2370
ssS'parcssjs'
p2373
(dp2374
g2363
I1
sg2364
I0
sg2365
S'no'
p2375
ssS'gzip'
p2376
(dp2377
g2363
I100
sg2364
I1
sg2365
g2370
ssS'du'
p2378
(dp2379
g2363
I100
sg2364
I1
sg2365
g2370
ssS'prefetch'
p2380
(dp2381
g2363
I1
sg2364
I0
sg2365
g2375
ssS'parscriptstylesheet'
p2382
(dp2383
g2363
I0
sg2364
Nsg2365
g14
ssS'cacheredir'
p2384
(dp2385
g2363
I1
sg2364
I0
sg2365
g2375
ssS'parscriptscript'
p2386
(dp2387
g2363
I0
sg2364
Nsg2365
g14
ssS'maxconn'
p2388
(dp2389
g2363
I100
sg2364
I60
sg2365
S'60'
p2390
ssS'parsheet'
p2391
(dp2392
g2363
I100
sg2364
I1
sg2365
g2370
ssS'hostconn'
p2393
(dp2394
g2363
I100
sg2364
I4
sg2365
g251
ssssVPalm Pre 1
p2395
(dp2396
S'summary_display'
p2397
S'9/14'
p2398
sS'total_runs'
p2399
L29L
sS'summary_score'
p2400
I64
sS'results'
p2401
(dp2402
S'parscriptiframe'
p2403
(dp2404
S'score'
p2405
I1
sS'raw_score'
p2406
I0
sS'display'
p2407
S'no'
p2408
ssS'parscriptimage'
p2409
(dp2410
g2405
I100
sg2406
I1
sg2407
S'yes'
p2411
ssS'cacheexp'
p2412
(dp2413
g2405
I100
sg2406
I1
sg2407
g2411
ssS'cacheresredir'
p2414
(dp2415
g2405
I100
sg2406
I1
sg2407
g2411
ssS'parcssjs'
p2416
(dp2417
g2405
I1
sg2406
I0
sg2407
g2408
ssS'gzip'
p2418
(dp2419
g2405
I100
sg2406
I1
sg2407
g2411
ssS'du'
p2420
(dp2421
g2405
I100
sg2406
I1
sg2407
g2411
ssS'prefetch'
p2422
(dp2423
g2405
I1
sg2406
I0
sg2407
g2408
ssS'parscriptstylesheet'
p2424
(dp2425
g2405
I100
sg2406
I1
sg2407
g2411
ssS'cacheredir'
p2426
(dp2427
g2405
I1
sg2406
I0
sg2407
g2408
ssS'parscriptscript'
p2428
(dp2429
g2405
I100
sg2406
I1
sg2407
g2411
ssS'maxconn'
p2430
(dp2431
g2405
I50
sg2406
I10
sg2407
S'10'
p2432
ssS'parsheet'
p2433
(dp2434
g2405
I100
sg2406
I1
sg2407
g2411
ssS'hostconn'
p2435
(dp2436
g2405
I100
sg2406
I10
sg2407
S'10'
p2437
ssssVNokia 6103
p2438
(dp2439
S'summary_display'
p2440
S'6/14'
p2441
sS'total_runs'
p2442
L1L
sS'summary_score'
p2443
I43
sS'results'
p2444
(dp2445
S'parscriptiframe'
p2446
(dp2447
S'score'
p2448
I0
sS'raw_score'
p2449
NsS'display'
p2450
g14
ssS'parscriptimage'
p2451
(dp2452
g2448
I0
sg2449
Nsg2450
g14
ssS'cacheexp'
p2453
(dp2454
g2448
I100
sg2449
I1
sg2450
S'yes'
p2455
ssS'cacheresredir'
p2456
(dp2457
g2448
I100
sg2449
I1
sg2450
g2455
ssS'parcssjs'
p2458
(dp2459
g2448
I1
sg2449
I0
sg2450
S'no'
p2460
ssS'gzip'
p2461
(dp2462
g2448
I1
sg2449
I0
sg2450
g2460
ssS'du'
p2463
(dp2464
g2448
I100
sg2449
I1
sg2450
g2455
ssS'prefetch'
p2465
(dp2466
g2448
I100
sg2449
I1
sg2450
g2455
ssS'parscriptstylesheet'
p2467
(dp2468
g2448
I0
sg2449
Nsg2450
g14
ssS'cacheredir'
p2469
(dp2470
g2448
I1
sg2449
I0
sg2450
g2460
ssS'parscriptscript'
p2471
(dp2472
g2448
I0
sg2449
Nsg2450
g14
ssS'maxconn'
p2473
(dp2474
g2448
I100
sg2449
I30
sg2450
S'30'
p2475
ssS'parsheet'
p2476
(dp2477
g2448
I100
sg2449
I1
sg2450
g2455
ssS'hostconn'
p2478
(dp2479
g2448
I50
sg2449
I2
sg2450
g44
ssssVNokia 72
p2480
(dp2481
S'summary_display'
p2482
S'4/14'
p2483
sS'total_runs'
p2484
L1L
sS'summary_score'
p2485
I29
sS'results'
p2486
(dp2487
S'parscriptiframe'
p2488
(dp2489
S'score'
p2490
I0
sS'raw_score'
p2491
NsS'display'
p2492
g14
ssS'parscriptimage'
p2493
(dp2494
g2490
I0
sg2491
Nsg2492
g14
ssS'cacheexp'
p2495
(dp2496
g2490
I100
sg2491
I1
sg2492
S'yes'
p2497
ssS'cacheresredir'
p2498
(dp2499
g2490
I1
sg2491
I0
sg2492
S'no'
p2500
ssS'parcssjs'
p2501
(dp2502
g2490
I1
sg2491
I0
sg2492
g2500
ssS'gzip'
p2503
(dp2504
g2490
I100
sg2491
I1
sg2492
g2497
ssS'du'
p2505
(dp2506
g2490
I100
sg2491
I1
sg2492
g2497
ssS'prefetch'
p2507
(dp2508
g2490
I1
sg2491
I0
sg2492
g2500
ssS'parscriptstylesheet'
p2509
(dp2510
g2490
I0
sg2491
Nsg2492
g14
ssS'cacheredir'
p2511
(dp2512
g2490
I1
sg2491
I0
sg2492
g2500
ssS'parscriptscript'
p2513
(dp2514
g2490
I0
sg2491
Nsg2492
g14
ssS'maxconn'
p2515
(dp2516
g2490
I1
sg2491
I7
sg2492
g125
ssS'parsheet'
p2517
(dp2518
g2490
I1
sg2491
I0
sg2492
g2500
ssS'hostconn'
p2519
(dp2520
g2490
I100
sg2491
I7
sg2492
g125
ssssVChrome 4
p2521
(dp2522
S'summary_display'
p2523
S'11/14'
p2524
sS'total_runs'
p2525
L955L
sS'summary_score'
p2526
I79
sS'results'
p2527
(dp2528
S'parscriptiframe'
p2529
(dp2530
S'score'
p2531
I1
sS'raw_score'
p2532
I0
sS'display'
p2533
S'no'
p2534
ssS'parscriptimage'
p2535
(dp2536
g2531
I100
sg2532
I1
sg2533
S'yes'
p2537
ssS'cacheexp'
p2538
(dp2539
g2531
I100
sg2532
I1
sg2533
g2537
ssS'cacheresredir'
p2540
(dp2541
g2531
I100
sg2532
I1
sg2533
g2537
ssS'parcssjs'
p2542
(dp2543
g2531
I1
sg2532
I0
sg2533
g2534
ssS'gzip'
p2544
(dp2545
g2531
I100
sg2532
I1
sg2533
g2537
ssS'du'
p2546
(dp2547
g2531
I100
sg2532
I1
sg2533
g2537
ssS'prefetch'
p2548
(dp2549
g2531
I1
sg2532
I0
sg2533
g2534
ssS'parscriptstylesheet'
p2550
(dp2551
g2531
I100
sg2532
I1
sg2533
g2537
ssS'cacheredir'
p2552
(dp2553
g2531
I100
sg2532
I1
sg2533
g2537
ssS'parscriptscript'
p2554
(dp2555
g2531
I100
sg2532
I1
sg2533
g2537
ssS'maxconn'
p2556
(dp2557
g2531
I100
sg2532
I60
sg2533
S'60'
p2558
ssS'parsheet'
p2559
(dp2560
g2531
I100
sg2532
I1
sg2533
g2537
ssS'hostconn'
p2561
(dp2562
g2531
I100
sg2532
I4
sg2533
g251
ssssVChrome 2
p2563
(dp2564
S'summary_display'
p2565
S'8/14'
p2566
sS'total_runs'
p2567
L667L
sS'summary_score'
p2568
I57
sS'results'
p2569
(dp2570
S'parscriptiframe'
p2571
(dp2572
S'score'
p2573
I0
sS'raw_score'
p2574
NsS'display'
p2575
g14
ssS'parscriptimage'
p2576
(dp2577
g2573
I0
sg2574
Nsg2575
g14
ssS'cacheexp'
p2578
(dp2579
g2573
I100
sg2574
I1
sg2575
S'yes'
p2580
ssS'cacheresredir'
p2581
(dp2582
g2573
I100
sg2574
I1
sg2575
g2580
ssS'parcssjs'
p2583
(dp2584
g2573
I1
sg2574
I0
sg2575
S'no'
p2585
ssS'gzip'
p2586
(dp2587
g2573
I100
sg2574
I1
sg2575
g2580
ssS'du'
p2588
(dp2589
g2573
I100
sg2574
I1
sg2575
g2580
ssS'prefetch'
p2590
(dp2591
g2573
I1
sg2574
I0
sg2575
g2585
ssS'parscriptstylesheet'
p2592
(dp2593
g2573
I0
sg2574
Nsg2575
g14
ssS'cacheredir'
p2594
(dp2595
g2573
I100
sg2574
I1
sg2575
g2580
ssS'parscriptscript'
p2596
(dp2597
g2573
I0
sg2574
Nsg2575
g14
ssS'maxconn'
p2598
(dp2599
g2573
I100
sg2574
I60
sg2575
S'60'
p2600
ssS'parsheet'
p2601
(dp2602
g2573
I100
sg2574
I1
sg2575
g2580
ssS'hostconn'
p2603
(dp2604
g2573
I100
sg2574
I6
sg2575
g298
ssssVChrome 3
p2605
(dp2606
S'summary_display'
p2607
S'11/14'
p2608
sS'total_runs'
p2609
L725L
sS'summary_score'
p2610
I79
sS'results'
p2611
(dp2612
S'parscriptiframe'
p2613
(dp2614
S'score'
p2615
I1
sS'raw_score'
p2616
I0
sS'display'
p2617
S'no'
p2618
ssS'parscriptimage'
p2619
(dp2620
g2615
I100
sg2616
I1
sg2617
S'yes'
p2621
ssS'parcssjs'
p2622
(dp2623
g2615
I1
sg2616
I0
sg2617
g2618
ssS'cacheresredir'
p2624
(dp2625
g2615
I100
sg2616
I1
sg2617
g2621
ssS'cacheexp'
p2626
(dp2627
g2615
I100
sg2616
I1
sg2617
g2621
ssS'maxconn'
p2628
(dp2629
g2615
I100
sg2616
I60
sg2617
S'60'
p2630
ssS'cacheredir'
p2631
(dp2632
g2615
I100
sg2616
I1
sg2617
g2621
ssS'prefetch'
p2633
(dp2634
g2615
I1
sg2616
I0
sg2617
g2618
ssS'parscriptstylesheet'
p2635
(dp2636
g2615
I100
sg2616
I1
sg2617
g2621
ssS'gzip'
p2637
(dp2638
g2615
I100
sg2616
I1
sg2617
g2621
ssS'parscriptscript'
p2639
(dp2640
g2615
I100
sg2616
I1
sg2617
g2621
ssS'du'
p2641
(dp2642
g2615
I100
sg2616
I1
sg2617
g2621
ssS'parsheet'
p2643
(dp2644
g2615
I100
sg2616
I1
sg2617
g2621
ssS'hostconn'
p2645
(dp2646
g2615
I100
sg2616
I4
sg2617
g251
ssssVChrome 0
p2647
(dp2648
S'summary_display'
p2649
S'8/14'
p2650
sS'total_runs'
p2651
L1200L
sS'summary_score'
p2652
I57
sS'results'
p2653
(dp2654
S'parscriptiframe'
p2655
(dp2656
S'score'
p2657
I0
sS'raw_score'
p2658
NsS'display'
p2659
g14
ssS'parscriptimage'
p2660
(dp2661
g2657
I0
sg2658
Nsg2659
g14
ssS'cacheexp'
p2662
(dp2663
g2657
I100
sg2658
I1
sg2659
S'yes'
p2664
ssS'cacheresredir'
p2665
(dp2666
g2657
I100
sg2658
I1
sg2659
g2664
ssS'parcssjs'
p2667
(dp2668
g2657
I1
sg2658
I0
sg2659
S'no'
p2669
ssS'gzip'
p2670
(dp2671
g2657
I100
sg2658
I1
sg2659
g2664
ssS'du'
p2672
(dp2673
g2657
I100
sg2658
I1
sg2659
g2664
ssS'prefetch'
p2674
(dp2675
g2657
I1
sg2658
I0
sg2659
g2669
ssS'parscriptstylesheet'
p2676
(dp2677
g2657
I0
sg2658
Nsg2659
g14
ssS'cacheredir'
p2678
(dp2679
g2657
I100
sg2658
I1
sg2659
g2664
ssS'parscriptscript'
p2680
(dp2681
g2657
I0
sg2658
Nsg2659
g14
ssS'maxconn'
p2682
(dp2683
g2657
I100
sg2658
I60
sg2659
S'60'
p2684
ssS'parsheet'
p2685
(dp2686
g2657
I100
sg2658
I1
sg2659
g2664
ssS'hostconn'
p2687
(dp2688
g2657
I100
sg2658
I6
sg2659
g298
ssssVChrome 1
p2689
(dp2690
S'summary_display'
p2691
S'8/14'
p2692
sS'total_runs'
p2693
L435L
sS'summary_score'
p2694
I57
sS'results'
p2695
(dp2696
S'parscriptiframe'
p2697
(dp2698
S'score'
p2699
I1
sS'raw_score'
p2700
I0
sS'display'
p2701
S'no'
p2702
ssS'parscriptimage'
p2703
(dp2704
g2699
I1
sg2700
I0
sg2701
g2702
ssS'cacheexp'
p2705
(dp2706
g2699
I100
sg2700
I1
sg2701
S'yes'
p2707
ssS'cacheresredir'
p2708
(dp2709
g2699
I100
sg2700
I1
sg2701
g2707
ssS'parcssjs'
p2710
(dp2711
g2699
I1
sg2700
I0
sg2701
g2702
ssS'gzip'
p2712
(dp2713
g2699
I100
sg2700
I1
sg2701
g2707
ssS'du'
p2714
(dp2715
g2699
I100
sg2700
I1
sg2701
g2707
ssS'prefetch'
p2716
(dp2717
g2699
I1
sg2700
I0
sg2701
g2702
ssS'parscriptstylesheet'
p2718
(dp2719
g2699
I1
sg2700
I0
sg2701
g2702
ssS'cacheredir'
p2720
(dp2721
g2699
I100
sg2700
I1
sg2701
g2707
ssS'parscriptscript'
p2722
(dp2723
g2699
I1
sg2700
I0
sg2701
g2702
ssS'maxconn'
p2724
(dp2725
g2699
I100
sg2700
I60
sg2701
S'60'
p2726
ssS'parsheet'
p2727
(dp2728
g2699
I100
sg2700
I1
sg2701
g2707
ssS'hostconn'
p2729
(dp2730
g2699
I100
sg2700
I6
sg2701
g298
ssssVNetNewsWire 2
p2731
(dp2732
S'summary_display'
p2733
S'7/14'
p2734
sS'total_runs'
p2735
L1L
sS'summary_score'
p2736
I50
sS'results'
p2737
(dp2738
S'parscriptiframe'
p2739
(dp2740
S'score'
p2741
I0
sS'raw_score'
p2742
NsS'display'
p2743
g14
ssS'parscriptimage'
p2744
(dp2745
g2741
I0
sg2742
Nsg2743
g14
ssS'cacheexp'
p2746
(dp2747
g2741
I100
sg2742
I1
sg2743
S'yes'
p2748
ssS'cacheresredir'
p2749
(dp2750
g2741
I100
sg2742
I1
sg2743
g2748
ssS'parcssjs'
p2751
(dp2752
g2741
I1
sg2742
I0
sg2743
S'no'
p2753
ssS'gzip'
p2754
(dp2755
g2741
I100
sg2742
I1
sg2743
g2748
ssS'du'
p2756
(dp2757
g2741
I100
sg2742
I1
sg2743
g2748
ssS'prefetch'
p2758
(dp2759
g2741
I1
sg2742
I0
sg2743
g2753
ssS'parscriptstylesheet'
p2760
(dp2761
g2741
I0
sg2742
Nsg2743
g14
ssS'cacheredir'
p2762
(dp2763
g2741
I1
sg2742
I0
sg2743
g2753
ssS'parscriptscript'
p2764
(dp2765
g2741
I0
sg2742
Nsg2743
g14
ssS'maxconn'
p2766
(dp2767
g2741
I100
sg2742
I31
sg2743
S'31'
p2768
ssS'parsheet'
p2769
(dp2770
g2741
I100
sg2742
I1
sg2743
g2748
ssS'hostconn'
p2771
(dp2772
g2741
I100
sg2742
I3
sg2743
g1214
ssssVNetNewsWire 3
p2773
(dp2774
S'summary_display'
p2775
S'7/14'
p2776
sS'total_runs'
p2777
L32L
sS'summary_score'
p2778
I50
sS'results'
p2779
(dp2780
S'parscriptiframe'
p2781
(dp2782
S'score'
p2783
I0
sS'raw_score'
p2784
NsS'display'
p2785
g14
ssS'parscriptimage'
p2786
(dp2787
g2783
I0
sg2784
Nsg2785
g14
ssS'cacheexp'
p2788
(dp2789
g2783
I100
sg2784
I1
sg2785
S'yes'
p2790
ssS'cacheresredir'
p2791
(dp2792
g2783
I100
sg2784
I1
sg2785
g2790
ssS'parcssjs'
p2793
(dp2794
g2783
I1
sg2784
I0
sg2785
S'no'
p2795
ssS'gzip'
p2796
(dp2797
g2783
I100
sg2784
I1
sg2785
g2790
ssS'du'
p2798
(dp2799
g2783
I100
sg2784
I1
sg2785
g2790
ssS'prefetch'
p2800
(dp2801
g2783
I1
sg2784
I0
sg2785
g2795
ssS'parscriptstylesheet'
p2802
(dp2803
g2783
I0
sg2784
Nsg2785
g14
ssS'cacheredir'
p2804
(dp2805
g2783
I1
sg2784
I0
sg2785
g2795
ssS'parscriptscript'
p2806
(dp2807
g2783
I0
sg2784
Nsg2785
g14
ssS'maxconn'
p2808
(dp2809
g2783
I100
sg2784
I60
sg2785
S'60'
p2810
ssS'parsheet'
p2811
(dp2812
g2783
I100
sg2784
I1
sg2785
g2790
ssS'hostconn'
p2813
(dp2814
g2783
I100
sg2784
I4
sg2785
g251
ssssVNokia 79
p2815
(dp2816
S'summary_display'
p2817
S'5/14'
p2818
sS'total_runs'
p2819
L1L
sS'summary_score'
p2820
I36
sS'results'
p2821
(dp2822
S'parscriptiframe'
p2823
(dp2824
S'score'
p2825
I0
sS'raw_score'
p2826
NsS'display'
p2827
g14
ssS'parscriptimage'
p2828
(dp2829
g2825
I0
sg2826
Nsg2827
g14
ssS'cacheexp'
p2830
(dp2831
g2825
I100
sg2826
I1
sg2827
S'yes'
p2832
ssS'cacheresredir'
p2833
(dp2834
g2825
I1
sg2826
I0
sg2827
S'no'
p2835
ssS'parcssjs'
p2836
(dp2837
g2825
I1
sg2826
I0
sg2827
g2835
ssS'gzip'
p2838
(dp2839
g2825
I100
sg2826
I1
sg2827
g2832
ssS'du'
p2840
(dp2841
g2825
I100
sg2826
I1
sg2827
g2832
ssS'prefetch'
p2842
(dp2843
g2825
I1
sg2826
I0
sg2827
g2835
ssS'parscriptstylesheet'
p2844
(dp2845
g2825
I0
sg2826
Nsg2827
g14
ssS'cacheredir'
p2846
(dp2847
g2825
I1
sg2826
I0
sg2827
g2835
ssS'parscriptscript'
p2848
(dp2849
g2825
I0
sg2826
Nsg2827
g14
ssS'maxconn'
p2850
(dp2851
g2825
I1
sg2826
I7
sg2827
g125
ssS'parsheet'
p2852
(dp2853
g2825
I100
sg2826
I1
sg2827
g2832
ssS'hostconn'
p2854
(dp2855
g2825
I100
sg2826
I7
sg2827
g125
ssssVNetFront 3
p2856
(dp2857
S'summary_display'
p2858
S'6/14'
p2859
sS'total_runs'
p2860
L44L
sS'summary_score'
p2861
I43
sS'results'
p2862
(dp2863
S'parscriptiframe'
p2864
(dp2865
S'score'
p2866
I1
sS'raw_score'
p2867
I0
sS'display'
p2868
S'no'
p2869
ssS'parscriptimage'
p2870
(dp2871
g2866
I1
sg2867
I0
sg2868
g2869
ssS'cacheexp'
p2872
(dp2873
g2866
I100
sg2867
I1
sg2868
S'yes'
p2874
ssS'cacheresredir'
p2875
(dp2876
g2866
I100
sg2867
I1
sg2868
g2874
ssS'parcssjs'
p2877
(dp2878
g2866
I1
sg2867
I0
sg2868
g2869
ssS'gzip'
p2879
(dp2880
g2866
I100
sg2867
I1
sg2868
g2874
ssS'du'
p2881
(dp2882
g2866
I100
sg2867
I1
sg2868
g2874
ssS'prefetch'
p2883
(dp2884
g2866
I100
sg2867
I1
sg2868
g2874
ssS'parscriptstylesheet'
p2885
(dp2886
g2866
I1
sg2867
I0
sg2868
g2869
ssS'cacheredir'
p2887
(dp2888
g2866
I1
sg2867
I0
sg2868
g2869
ssS'parscriptscript'
p2889
(dp2890
g2866
I1
sg2867
I0
sg2868
g2869
ssS'maxconn'
p2891
(dp2892
g2866
I0
sg2867
I0
sg2868
g629
ssS'parsheet'
p2893
(dp2894
g2866
I100
sg2867
I1
sg2868
g2874
ssS'hostconn'
p2895
(dp2896
g2866
I0
sg2867
I0
sg2868
g629
ssssVSafari 4
p2897
(dp2898
S'summary_display'
p2899
S'10/14'
p2900
sS'total_runs'
p2901
L1355L
sS'summary_score'
p2902
I71
sS'results'
p2903
(dp2904
S'du'
p2905
(dp2906
S'score'
p2907
I100
sS'raw_score'
p2908
I1
sS'display'
p2909
S'yes'
p2910
ssS'parscriptimage'
p2911
(dp2912
g2907
I100
sg2908
I1
sg2909
g2910
ssS'cacheexp'
p2913
(dp2914
g2907
I100
sg2908
I1
sg2909
g2910
ssS'cacheresredir'
p2915
(dp2916
g2907
I100
sg2908
I1
sg2909
g2910
ssS'parcssjs'
p2917
(dp2918
g2907
I1
sg2908
I0
sg2909
S'no'
p2919
ssS'parscriptiframe'
p2920
(dp2921
g2907
I1
sg2908
I0
sg2909
g2919
ssS'gzip'
p2922
(dp2923
g2907
I100
sg2908
I1
sg2909
g2910
ssS'prefetch'
p2924
(dp2925
g2907
I1
sg2908
I0
sg2909
g2919
ssS'parscriptstylesheet'
p2926
(dp2927
g2907
I100
sg2908
I1
sg2909
g2910
ssS'cacheredir'
p2928
(dp2929
g2907
I1
sg2908
I0
sg2909
g2919
ssS'parscriptscript'
p2930
(dp2931
g2907
I100
sg2908
I1
sg2909
g2910
ssS'maxconn'
p2932
(dp2933
g2907
I100
sg2908
I60
sg2909
S'60'
p2934
ssS'parsheet'
p2935
(dp2936
g2907
I100
sg2908
I1
sg2909
g2910
ssS'hostconn'
p2937
(dp2938
g2907
I100
sg2908
I4
sg2909
g251
ssssVVodafone 1
p2939
(dp2940
S'summary_display'
p2941
S'8/14'
p2942
sS'total_runs'
p2943
L4L
sS'summary_score'
p2944
I57
sS'results'
p2945
(dp2946
S'parscriptiframe'
p2947
(dp2948
S'score'
p2949
I0
sS'raw_score'
p2950
NsS'display'
p2951
g14
ssS'parscriptimage'
p2952
(dp2953
g2949
I0
sg2950
Nsg2951
g14
ssS'cacheexp'
p2954
(dp2955
g2949
I100
sg2950
I1
sg2951
S'yes'
p2956
ssS'cacheresredir'
p2957
(dp2958
g2949
I100
sg2950
I1
sg2951
g2956
ssS'parcssjs'
p2959
(dp2960
g2949
I1
sg2950
I0
sg2951
S'no'
p2961
ssS'gzip'
p2962
(dp2963
g2949
I100
sg2950
I1
sg2951
g2956
ssS'du'
p2964
(dp2965
g2949
I100
sg2950
I1
sg2951
g2956
ssS'prefetch'
p2966
(dp2967
g2949
I100
sg2950
I1
sg2951
g2956
ssS'parscriptstylesheet'
p2968
(dp2969
g2949
I0
sg2950
Nsg2951
g14
ssS'cacheredir'
p2970
(dp2971
g2949
I100
sg2950
I1
sg2951
g2956
ssS'parscriptscript'
p2972
(dp2973
g2949
I0
sg2950
Nsg2951
g14
ssS'maxconn'
p2974
(dp2975
g2949
I50
sg2950
I17
sg2951
S'17'
p2976
ssS'parsheet'
p2977
(dp2978
g2949
I100
sg2950
I1
sg2951
g2956
ssS'hostconn'
p2979
(dp2980
g2949
I100
sg2950
I5
sg2951
g550
ssssVObigo 1
p2981
(dp2982
S'summary_display'
p2983
S'7/14'
p2984
sS'total_runs'
p2985
L1L
sS'summary_score'
p2986
I50
sS'results'
p2987
(dp2988
S'parscriptiframe'
p2989
(dp2990
S'score'
p2991
I0
sS'raw_score'
p2992
NsS'display'
p2993
g14
ssS'parscriptimage'
p2994
(dp2995
g2991
I0
sg2992
Nsg2993
g14
ssS'cacheexp'
p2996
(dp2997
g2991
I100
sg2992
I1
sg2993
S'yes'
p2998
ssS'cacheresredir'
p2999
(dp3000
g2991
I1
sg2992
I0
sg2993
S'no'
p3001
ssS'parcssjs'
p3002
(dp3003
g2991
I1
sg2992
I0
sg2993
g3001
ssS'gzip'
p3004
(dp3005
g2991
I100
sg2992
I1
sg2993
g2998
ssS'du'
p3006
(dp3007
g2991
I100
sg2992
I1
sg2993
g2998
ssS'prefetch'
p3008
(dp3009
g2991
I100
sg2992
I1
sg2993
g2998
ssS'parscriptstylesheet'
p3010
(dp3011
g2991
I0
sg2992
Nsg2993
g14
ssS'cacheredir'
p3012
(dp3013
g2991
I1
sg2992
I0
sg2993
g3001
ssS'parscriptscript'
p3014
(dp3015
g2991
I0
sg2992
Nsg2993
g14
ssS'maxconn'
p3016
(dp3017
g2991
I100
sg2992
I30
sg2993
S'30'
p3018
ssS'parsheet'
p3019
(dp3020
g2991
I100
sg2992
I1
sg2993
g2998
ssS'hostconn'
p3021
(dp3022
g2991
I100
sg2992
I6
sg2993
g298
ssssVFirefox (Shiretoko) 3
p3023
(dp3024
S'summary_display'
p3025
S'11/14'
p3026
sS'total_runs'
p3027
L345L
sS'summary_score'
p3028
I79
sS'results'
p3029
(dp3030
S'parscriptiframe'
p3031
(dp3032
S'score'
p3033
I1
sS'raw_score'
p3034
I0
sS'display'
p3035
S'no'
p3036
ssS'parscriptimage'
p3037
(dp3038
g3033
I1
sg3034
I0
sg3035
g3036
ssS'cacheexp'
p3039
(dp3040
g3033
I100
sg3034
I1
sg3035
S'yes'
p3041
ssS'cacheresredir'
p3042
(dp3043
g3033
I100
sg3034
I1
sg3035
g3041
ssS'parcssjs'
p3044
(dp3045
g3033
I1
sg3034
I0
sg3035
g3036
ssS'gzip'
p3046
(dp3047
g3033
I100
sg3034
I1
sg3035
g3041
ssS'du'
p3048
(dp3049
g3033
I100
sg3034
I1
sg3035
g3041
ssS'prefetch'
p3050
(dp3051
g3033
I100
sg3034
I1
sg3035
g3041
ssS'parscriptstylesheet'
p3052
(dp3053
g3033
I100
sg3034
I1
sg3035
g3041
ssS'cacheredir'
p3054
(dp3055
g3033
I100
sg3034
I1
sg3035
g3041
ssS'parscriptscript'
p3056
(dp3057
g3033
I100
sg3034
I1
sg3035
g3041
ssS'maxconn'
p3058
(dp3059
g3033
I100
sg3034
I30
sg3035
S'30'
p3060
ssS'parsheet'
p3061
(dp3062
g3033
I100
sg3034
I1
sg3035
g3041
ssS'hostconn'
p3063
(dp3064
g3033
I100
sg3034
I6
sg3035
g298
ssssVObigo 2
p3065
(dp3066
S'summary_display'
p3067
S'3/14'
p3068
sS'total_runs'
p3069
L7L
sS'summary_score'
p3070
I21
sS'results'
p3071
(dp3072
S'parscriptiframe'
p3073
(dp3074
S'score'
p3075
I0
sS'raw_score'
p3076
NsS'display'
p3077
g14
ssS'parscriptimage'
p3078
(dp3079
g3075
I0
sg3076
Nsg3077
g14
ssS'cacheexp'
p3080
(dp3081
g3075
I100
sg3076
I1
sg3077
S'yes'
p3082
ssS'cacheresredir'
p3083
(dp3084
g3075
I1
sg3076
I0
sg3077
S'no'
p3085
ssS'parcssjs'
p3086
(dp3087
g3075
I1
sg3076
I0
sg3077
g3085
ssS'gzip'
p3088
(dp3089
g3075
I1
sg3076
I0
sg3077
g3085
ssS'du'
p3090
(dp3091
g3075
I100
sg3076
I1
sg3077
g3082
ssS'prefetch'
p3092
(dp3093
g3075
I100
sg3076
I1
sg3077
g3082
ssS'parscriptstylesheet'
p3094
(dp3095
g3075
I0
sg3076
Nsg3077
g14
ssS'cacheredir'
p3096
(dp3097
g3075
I1
sg3076
I0
sg3077
g3085
ssS'parscriptscript'
p3098
(dp3099
g3075
I0
sg3076
Nsg3077
g14
ssS'maxconn'
p3100
(dp3101
g3075
I1
sg3076
I4
sg3077
g251
ssS'parsheet'
p3102
(dp3103
g3075
I1
sg3076
I0
sg3077
g3085
ssS'hostconn'
p3104
(dp3105
g3075
I50
sg3076
I2
sg3077
g44
ssssVObigo 7
p3106
(dp3107
S'summary_display'
p3108
S'3/14'
p3109
sS'total_runs'
p3110
L2L
sS'summary_score'
p3111
I21
sS'results'
p3112
(dp3113
S'parscriptiframe'
p3114
(dp3115
S'score'
p3116
I0
sS'raw_score'
p3117
NsS'display'
p3118
g14
ssS'parscriptimage'
p3119
(dp3120
g3116
I0
sg3117
Nsg3118
g14
ssS'cacheexp'
p3121
(dp3122
g3116
I100
sg3117
I1
sg3118
S'yes'
p3123
ssS'cacheresredir'
p3124
(dp3125
g3116
I1
sg3117
I0
sg3118
S'no'
p3126
ssS'parcssjs'
p3127
(dp3128
g3116
I1
sg3117
I0
sg3118
g3126
ssS'gzip'
p3129
(dp3130
g3116
I100
sg3117
I1
sg3118
g3123
ssS'du'
p3131
(dp3132
g3116
I1
sg3117
I0
sg3118
g3126
ssS'prefetch'
p3133
(dp3134
g3116
I1
sg3117
I0
sg3118
g3126
ssS'parscriptstylesheet'
p3135
(dp3136
g3116
I0
sg3117
Nsg3118
g14
ssS'cacheredir'
p3137
(dp3138
g3116
I1
sg3117
I0
sg3118
g3126
ssS'parscriptscript'
p3139
(dp3140
g3116
I0
sg3117
Nsg3118
g14
ssS'maxconn'
p3141
(dp3142
g3116
I1
sg3117
I8
sg3118
g87
ssS'parsheet'
p3143
(dp3144
g3116
I1
sg3117
I0
sg3118
g3126
ssS'hostconn'
p3145
(dp3146
g3116
I100
sg3117
I6
sg3118
g298
ssssVNokia 6620
p3147
(dp3148
S'summary_display'
p3149
S'9/14'
p3150
sS'total_runs'
p3151
L1L
sS'summary_score'
p3152
I64
sS'results'
p3153
(dp3154
S'parscriptiframe'
p3155
(dp3156
S'score'
p3157
I0
sS'raw_score'
p3158
NsS'display'
p3159
g14
ssS'parscriptimage'
p3160
(dp3161
g3157
I0
sg3158
Nsg3159
g14
ssS'cacheexp'
p3162
(dp3163
g3157
I100
sg3158
I1
sg3159
S'yes'
p3164
ssS'cacheresredir'
p3165
(dp3166
g3157
I100
sg3158
I1
sg3159
g3164
ssS'parcssjs'
p3167
(dp3168
g3157
I1
sg3158
I0
sg3159
S'no'
p3169
ssS'gzip'
p3170
(dp3171
g3157
I100
sg3158
I1
sg3159
g3164
ssS'du'
p3172
(dp3173
g3157
I100
sg3158
I1
sg3159
g3164
ssS'prefetch'
p3174
(dp3175
g3157
I100
sg3158
I1
sg3159
g3164
ssS'parscriptstylesheet'
p3176
(dp3177
g3157
I0
sg3158
Nsg3159
g14
ssS'cacheredir'
p3178
(dp3179
g3157
I100
sg3158
I1
sg3159
g3164
ssS'parscriptscript'
p3180
(dp3181
g3157
I0
sg3158
Nsg3159
g14
ssS'maxconn'
p3182
(dp3183
g3157
I100
sg3158
I30
sg3159
S'30'
p3184
ssS'parsheet'
p3185
(dp3186
g3157
I100
sg3158
I1
sg3159
g3164
ssS'hostconn'
p3187
(dp3188
g3157
I100
sg3158
I4
sg3159
g251
ssssVIE Mobile 8
p3189
(dp3190
S'summary_display'
p3191
S'4/14'
p3192
sS'total_runs'
p3193
L2L
sS'summary_score'
p3194
I29
sS'results'
p3195
(dp3196
S'parscriptiframe'
p3197
(dp3198
S'score'
p3199
I0
sS'raw_score'
p3200
NsS'display'
p3201
g14
ssS'parscriptimage'
p3202
(dp3203
g3199
I0
sg3200
Nsg3201
g14
ssS'cacheexp'
p3204
(dp3205
g3199
I100
sg3200
I1
sg3201
S'yes'
p3206
ssS'cacheresredir'
p3207
(dp3208
g3199
I1
sg3200
I0
sg3201
S'no'
p3209
ssS'parcssjs'
p3210
(dp3211
g3199
I1
sg3200
I0
sg3201
g3209
ssS'gzip'
p3212
(dp3213
g3199
I100
sg3200
I1
sg3201
g3206
ssS'du'
p3214
(dp3215
g3199
I1
sg3200
I0
sg3201
g3209
ssS'prefetch'
p3216
(dp3217
g3199
I1
sg3200
I0
sg3201
g3209
ssS'parscriptstylesheet'
p3218
(dp3219
g3199
I0
sg3200
Nsg3201
g14
ssS'cacheredir'
p3220
(dp3221
g3199
I1
sg3200
I0
sg3201
g3209
ssS'parscriptscript'
p3222
(dp3223
g3199
I0
sg3200
Nsg3201
g14
ssS'maxconn'
p3224
(dp3225
g3199
I50
sg3200
I15
sg3201
S'15'
p3226
ssS'parsheet'
p3227
(dp3228
g3199
I100
sg3200
I1
sg3201
g3206
ssS'hostconn'
p3229
(dp3230
g3199
I100
sg3200
I4
sg3201
g251
ssssVOmniWeb 613
p3231
(dp3232
S'summary_display'
p3233
S'7/14'
p3234
sS'total_runs'
p3235
L1L
sS'summary_score'
p3236
I50
sS'results'
p3237
(dp3238
S'parscriptiframe'
p3239
(dp3240
S'score'
p3241
I0
sS'raw_score'
p3242
NsS'display'
p3243
g14
ssS'parscriptimage'
p3244
(dp3245
g3241
I0
sg3242
Nsg3243
g14
ssS'cacheexp'
p3246
(dp3247
g3241
I100
sg3242
I1
sg3243
S'yes'
p3248
ssS'cacheresredir'
p3249
(dp3250
g3241
I100
sg3242
I1
sg3243
g3248
ssS'parcssjs'
p3251
(dp3252
g3241
I1
sg3242
I0
sg3243
S'no'
p3253
ssS'gzip'
p3254
(dp3255
g3241
I100
sg3242
I1
sg3243
g3248
ssS'du'
p3256
(dp3257
g3241
I100
sg3242
I1
sg3243
g3248
ssS'prefetch'
p3258
(dp3259
g3241
I1
sg3242
I0
sg3243
g3253
ssS'parscriptstylesheet'
p3260
(dp3261
g3241
I0
sg3242
Nsg3243
g14
ssS'cacheredir'
p3262
(dp3263
g3241
I1
sg3242
I0
sg3243
g3253
ssS'parscriptscript'
p3264
(dp3265
g3241
I0
sg3242
Nsg3243
g14
ssS'maxconn'
p3266
(dp3267
g3241
I100
sg3242
I60
sg3243
S'60'
p3268
ssS'parsheet'
p3269
(dp3270
g3241
I100
sg3242
I1
sg3243
g3248
ssS'hostconn'
p3271
(dp3272
g3241
I100
sg3242
I4
sg3243
g251
ssssVNokia 71
p3273
(dp3274
S'summary_display'
p3275
S'4/14'
p3276
sS'total_runs'
p3277
L15L
sS'summary_score'
p3278
I29
sS'results'
p3279
(dp3280
S'parscriptiframe'
p3281
(dp3282
S'score'
p3283
I0
sS'raw_score'
p3284
NsS'display'
p3285
g14
ssS'parscriptimage'
p3286
(dp3287
g3283
I0
sg3284
Nsg3285
g14
ssS'cacheexp'
p3288
(dp3289
g3283
I100
sg3284
I1
sg3285
S'yes'
p3290
ssS'cacheresredir'
p3291
(dp3292
g3283
I1
sg3284
I0
sg3285
S'no'
p3293
ssS'parcssjs'
p3294
(dp3295
g3283
I1
sg3284
I0
sg3285
g3293
ssS'gzip'
p3296
(dp3297
g3283
I100
sg3284
I1
sg3285
g3290
ssS'du'
p3298
(dp3299
g3283
I1
sg3284
I0
sg3285
g3293
ssS'prefetch'
p3300
(dp3301
g3283
I100
sg3284
I1
sg3285
g3290
ssS'parscriptstylesheet'
p3302
(dp3303
g3283
I0
sg3284
Nsg3285
g14
ssS'cacheredir'
p3304
(dp3305
g3283
I1
sg3284
I0
sg3285
g3293
ssS'parscriptscript'
p3306
(dp3307
g3283
I0
sg3284
Nsg3285
g14
ssS'maxconn'
p3308
(dp3309
g3283
I1
sg3284
I7
sg3285
g125
ssS'parsheet'
p3310
(dp3311
g3283
I100
sg3284
I1
sg3285
g3290
ssS'hostconn'
p3312
(dp3313
g3283
I0
sg3284
I0
sg3285
g629
ssssVDemeter 1
p3314
(dp3315
S'summary_display'
p3316
S'7/14'
p3317
sS'total_runs'
p3318
L1L
sS'summary_score'
p3319
I50
sS'results'
p3320
(dp3321
S'parscriptiframe'
p3322
(dp3323
S'score'
p3324
I0
sS'raw_score'
p3325
NsS'display'
p3326
g14
ssS'parscriptimage'
p3327
(dp3328
g3324
I0
sg3325
Nsg3326
g14
ssS'cacheexp'
p3329
(dp3330
g3324
I100
sg3325
I1
sg3326
S'yes'
p3331
ssS'cacheresredir'
p3332
(dp3333
g3324
I100
sg3325
I1
sg3326
g3331
ssS'parcssjs'
p3334
(dp3335
g3324
I1
sg3325
I0
sg3326
S'no'
p3336
ssS'gzip'
p3337
(dp3338
g3324
I100
sg3325
I1
sg3326
g3331
ssS'du'
p3339
(dp3340
g3324
I100
sg3325
I1
sg3326
g3331
ssS'prefetch'
p3341
(dp3342
g3324
I1
sg3325
I0
sg3326
g3336
ssS'parscriptstylesheet'
p3343
(dp3344
g3324
I0
sg3325
Nsg3326
g14
ssS'cacheredir'
p3345
(dp3346
g3324
I1
sg3325
I0
sg3326
g3336
ssS'parscriptscript'
p3347
(dp3348
g3324
I0
sg3325
Nsg3326
g14
ssS'maxconn'
p3349
(dp3350
g3324
I100
sg3325
I60
sg3326
S'60'
p3351
ssS'parsheet'
p3352
(dp3353
g3324
I100
sg3325
I1
sg3326
g3331
ssS'hostconn'
p3354
(dp3355
g3324
I100
sg3325
I4
sg3326
g251
ssssVK-Meleon 1
p3356
(dp3357
S'summary_display'
p3358
S'7/14'
p3359
sS'total_runs'
p3360
L26L
sS'summary_score'
p3361
I50
sS'results'
p3362
(dp3363
S'parscriptiframe'
p3364
(dp3365
S'score'
p3366
I1
sS'raw_score'
p3367
I0
sS'display'
p3368
S'no'
p3369
ssS'parscriptimage'
p3370
(dp3371
g3366
I1
sg3367
I0
sg3368
g3369
ssS'cacheexp'
p3372
(dp3373
g3366
I100
sg3367
I1
sg3368
S'yes'
p3374
ssS'cacheresredir'
p3375
(dp3376
g3366
I100
sg3367
I1
sg3368
g3374
ssS'parcssjs'
p3377
(dp3378
g3366
I1
sg3367
I0
sg3368
g3369
ssS'gzip'
p3379
(dp3380
g3366
I100
sg3367
I1
sg3368
g3374
ssS'du'
p3381
(dp3382
g3366
I100
sg3367
I1
sg3368
g3374
ssS'prefetch'
p3383
(dp3384
g3366
I100
sg3367
I1
sg3368
g3374
ssS'parscriptstylesheet'
p3385
(dp3386
g3366
I1
sg3367
I0
sg3368
g3369
ssS'cacheredir'
p3387
(dp3388
g3366
I100
sg3367
I1
sg3368
g3374
ssS'parscriptscript'
p3389
(dp3390
g3366
I1
sg3367
I0
sg3368
g3369
ssS'maxconn'
p3391
(dp3392
g3366
I100
sg3367
I24
sg3368
S'24'
p3393
ssS'parsheet'
p3394
(dp3395
g3366
I1
sg3367
I0
sg3368
g3369
ssS'hostconn'
p3396
(dp3397
g3366
I50
sg3367
I2
sg3368
g44
ssssVSeaMonkey 2
p3398
(dp3399
S'summary_display'
p3400
S'11/14'
p3401
sS'total_runs'
p3402
L59L
sS'summary_score'
p3403
I79
sS'results'
p3404
(dp3405
S'parscriptiframe'
p3406
(dp3407
S'score'
p3408
I1
sS'raw_score'
p3409
I0
sS'display'
p3410
S'no'
p3411
ssS'parscriptimage'
p3412
(dp3413
g3408
I1
sg3409
I0
sg3410
g3411
ssS'cacheexp'
p3414
(dp3415
g3408
I100
sg3409
I1
sg3410
S'yes'
p3416
ssS'cacheresredir'
p3417
(dp3418
g3408
I100
sg3409
I1
sg3410
g3416
ssS'parcssjs'
p3419
(dp3420
g3408
I1
sg3409
I0
sg3410
g3411
ssS'gzip'
p3421
(dp3422
g3408
I100
sg3409
I1
sg3410
g3416
ssS'du'
p3423
(dp3424
g3408
I100
sg3409
I1
sg3410
g3416
ssS'prefetch'
p3425
(dp3426
g3408
I100
sg3409
I1
sg3410
g3416
ssS'parscriptstylesheet'
p3427
(dp3428
g3408
I100
sg3409
I1
sg3410
g3416
ssS'cacheredir'
p3429
(dp3430
g3408
I100
sg3409
I1
sg3410
g3416
ssS'parscriptscript'
p3431
(dp3432
g3408
I100
sg3409
I1
sg3410
g3416
ssS'maxconn'
p3433
(dp3434
g3408
I100
sg3409
I30
sg3410
S'30'
p3435
ssS'parsheet'
p3436
(dp3437
g3408
I100
sg3409
I1
sg3410
g3416
ssS'hostconn'
p3438
(dp3439
g3408
I100
sg3409
I6
sg3410
g298
ssssVOpera 6
p3440
(dp3441
S'summary_display'
p3442
S'4/14'
p3443
sS'total_runs'
p3444
L1L
sS'summary_score'
p3445
I29
sS'results'
p3446
(dp3447
S'parscriptiframe'
p3448
(dp3449
S'score'
p3450
I0
sS'raw_score'
p3451
NsS'display'
p3452
g14
ssS'parscriptimage'
p3453
(dp3454
g3450
I0
sg3451
Nsg3452
g14
ssS'cacheexp'
p3455
(dp3456
g3450
I1
sg3451
I0
sg3452
S'no'
p3457
ssS'cacheresredir'
p3458
(dp3459
g3450
I1
sg3451
I0
sg3452
g3457
ssS'parcssjs'
p3460
(dp3461
g3450
I1
sg3451
I0
sg3452
g3457
ssS'gzip'
p3462
(dp3463
g3450
I100
sg3451
I1
sg3452
S'yes'
p3464
ssS'du'
p3465
(dp3466
g3450
I1
sg3451
I0
sg3452
g3457
ssS'prefetch'
p3467
(dp3468
g3450
I1
sg3451
I0
sg3452
g3457
ssS'parscriptstylesheet'
p3469
(dp3470
g3450
I0
sg3451
Nsg3452
g14
ssS'cacheredir'
p3471
(dp3472
g3450
I100
sg3451
I1
sg3452
g3464
ssS'parscriptscript'
p3473
(dp3474
g3450
I0
sg3451
Nsg3452
g14
ssS'maxconn'
p3475
(dp3476
g3450
I50
sg3451
I20
sg3452
S'20'
p3477
ssS'parsheet'
p3478
(dp3479
g3450
I100
sg3451
I1
sg3452
g3464
ssS'hostconn'
p3480
(dp3481
g3450
I100
sg3451
I4
sg3452
g251
ssssVOpera 7
p3482
(dp3483
S'summary_display'
p3484
S'3/14'
p3485
sS'total_runs'
p3486
L5L
sS'summary_score'
p3487
I21
sS'results'
p3488
(dp3489
S'parscriptiframe'
p3490
(dp3491
S'score'
p3492
I0
sS'raw_score'
p3493
NsS'display'
p3494
g14
ssS'parscriptimage'
p3495
(dp3496
g3492
I0
sg3493
Nsg3494
g14
ssS'cacheexp'
p3497
(dp3498
g3492
I1
sg3493
I0
sg3494
S'no'
p3499
ssS'cacheresredir'
p3500
(dp3501
g3492
I1
sg3493
I0
sg3494
g3499
ssS'parcssjs'
p3502
(dp3503
g3492
I1
sg3493
I0
sg3494
g3499
ssS'gzip'
p3504
(dp3505
g3492
I100
sg3493
I1
sg3494
S'yes'
p3506
ssS'du'
p3507
(dp3508
g3492
I1
sg3493
I0
sg3494
g3499
ssS'prefetch'
p3509
(dp3510
g3492
I1
sg3493
I0
sg3494
g3499
ssS'parscriptstylesheet'
p3511
(dp3512
g3492
I0
sg3493
Nsg3494
g14
ssS'cacheredir'
p3513
(dp3514
g3492
I1
sg3493
I0
sg3494
g3499
ssS'parscriptscript'
p3515
(dp3516
g3492
I0
sg3493
Nsg3494
g14
ssS'maxconn'
p3517
(dp3518
g3492
I50
sg3493
I20
sg3494
S'20'
p3519
ssS'parsheet'
p3520
(dp3521
g3492
I100
sg3493
I1
sg3494
g3506
ssS'hostconn'
p3522
(dp3523
g3492
I100
sg3493
I4
sg3494
g251
ssssVOpera 5
p3524
(dp3525
S'summary_display'
p3526
S'4/14'
p3527
sS'total_runs'
p3528
L1L
sS'summary_score'
p3529
I29
sS'results'
p3530
(dp3531
S'parscriptiframe'
p3532
(dp3533
S'score'
p3534
I0
sS'raw_score'
p3535
NsS'display'
p3536
g14
ssS'parscriptimage'
p3537
(dp3538
g3534
I0
sg3535
Nsg3536
g14
ssS'cacheexp'
p3539
(dp3540
g3534
I1
sg3535
I0
sg3536
S'no'
p3541
ssS'cacheresredir'
p3542
(dp3543
g3534
I100
sg3535
I1
sg3536
S'yes'
p3544
ssS'parcssjs'
p3545
(dp3546
g3534
I1
sg3535
I0
sg3536
g3541
ssS'gzip'
p3547
(dp3548
g3534
I100
sg3535
I1
sg3536
g3544
ssS'du'
p3549
(dp3550
g3534
I1
sg3535
I0
sg3536
g3541
ssS'prefetch'
p3551
(dp3552
g3534
I1
sg3535
I0
sg3536
g3541
ssS'parscriptstylesheet'
p3553
(dp3554
g3534
I0
sg3535
Nsg3536
g14
ssS'cacheredir'
p3555
(dp3556
g3534
I1
sg3535
I0
sg3536
g3541
ssS'parscriptscript'
p3557
(dp3558
g3534
I0
sg3535
Nsg3536
g14
ssS'maxconn'
p3559
(dp3560
g3534
I50
sg3535
I20
sg3536
S'20'
p3561
ssS'parsheet'
p3562
(dp3563
g3534
I100
sg3535
I1
sg3536
g3544
ssS'hostconn'
p3564
(dp3565
g3534
I100
sg3535
I4
sg3536
g251
ssssVOpera 8
p3566
(dp3567
S'summary_display'
p3568
S'5/14'
p3569
sS'total_runs'
p3570
L23L
sS'summary_score'
p3571
I36
sS'results'
p3572
(dp3573
S'parscriptiframe'
p3574
(dp3575
S'score'
p3576
I0
sS'raw_score'
p3577
NsS'display'
p3578
g14
ssS'parscriptimage'
p3579
(dp3580
g3576
I0
sg3577
Nsg3578
g14
ssS'cacheexp'
p3581
(dp3582
g3576
I100
sg3577
I1
sg3578
S'yes'
p3583
ssS'cacheresredir'
p3584
(dp3585
g3576
I1
sg3577
I0
sg3578
S'no'
p3586
ssS'parcssjs'
p3587
(dp3588
g3576
I1
sg3577
I0
sg3578
g3586
ssS'gzip'
p3589
(dp3590
g3576
I100
sg3577
I1
sg3578
g3583
ssS'du'
p3591
(dp3592
g3576
I100
sg3577
I1
sg3578
g3583
ssS'prefetch'
p3593
(dp3594
g3576
I1
sg3577
I0
sg3578
g3586
ssS'parscriptstylesheet'
p3595
(dp3596
g3576
I0
sg3577
Nsg3578
g14
ssS'cacheredir'
p3597
(dp3598
g3576
I1
sg3577
I0
sg3578
g3586
ssS'parscriptscript'
p3599
(dp3600
g3576
I0
sg3577
Nsg3578
g14
ssS'maxconn'
p3601
(dp3602
g3576
I50
sg3577
I20
sg3578
S'20'
p3603
ssS'parsheet'
p3604
(dp3605
g3576
I100
sg3577
I1
sg3578
g3583
ssS'hostconn'
p3606
(dp3607
g3576
I100
sg3577
I8
sg3578
g87
ssssVOpera 9
p3608
(dp3609
S'summary_display'
p3610
S'5/14'
p3611
sS'total_runs'
p3612
L3882L
sS'summary_score'
p3613
I36
sS'results'
p3614
(dp3615
S'parscriptiframe'
p3616
(dp3617
S'score'
p3618
I1
sS'raw_score'
p3619
I0
sS'display'
p3620
S'no'
p3621
ssS'parscriptimage'
p3622
(dp3623
g3618
I1
sg3619
I0
sg3620
g3621
ssS'cacheexp'
p3624
(dp3625
g3618
I100
sg3619
I1
sg3620
S'yes'
p3626
ssS'cacheresredir'
p3627
(dp3628
g3618
I1
sg3619
I0
sg3620
g3621
ssS'parcssjs'
p3629
(dp3630
g3618
I1
sg3619
I0
sg3620
g3621
ssS'gzip'
p3631
(dp3632
g3618
I100
sg3619
I1
sg3620
g3626
ssS'du'
p3633
(dp3634
g3618
I100
sg3619
I1
sg3620
g3626
ssS'prefetch'
p3635
(dp3636
g3618
I1
sg3619
I0
sg3620
g3621
ssS'parscriptstylesheet'
p3637
(dp3638
g3618
I1
sg3619
I0
sg3620
g3621
ssS'cacheredir'
p3639
(dp3640
g3618
I1
sg3619
I0
sg3620
g3621
ssS'parscriptscript'
p3641
(dp3642
g3618
I1
sg3619
I0
sg3620
g3621
ssS'maxconn'
p3643
(dp3644
g3618
I50
sg3619
I20
sg3620
S'20'
p3645
ssS'parsheet'
p3646
(dp3647
g3618
I100
sg3619
I1
sg3620
g3626
ssS'hostconn'
p3648
(dp3649
g3618
I100
sg3619
I4
sg3620
g251
ssssVGranParadiso 3
p3650
(dp3651
S'summary_display'
p3652
S'7/14'
p3653
sS'total_runs'
p3654
L47L
sS'summary_score'
p3655
I50
sS'results'
p3656
(dp3657
S'parscriptiframe'
p3658
(dp3659
S'score'
p3660
I1
sS'raw_score'
p3661
I0
sS'display'
p3662
S'no'
p3663
ssS'parscriptimage'
p3664
(dp3665
g3660
I1
sg3661
I0
sg3662
g3663
ssS'cacheexp'
p3666
(dp3667
g3660
I100
sg3661
I1
sg3662
S'yes'
p3668
ssS'cacheresredir'
p3669
(dp3670
g3660
I1
sg3661
I0
sg3662
g3663
ssS'parcssjs'
p3671
(dp3672
g3660
I1
sg3661
I0
sg3662
g3663
ssS'gzip'
p3673
(dp3674
g3660
I100
sg3661
I1
sg3662
g3668
ssS'du'
p3675
(dp3676
g3660
I100
sg3661
I1
sg3662
g3668
ssS'prefetch'
p3677
(dp3678
g3660
I100
sg3661
I1
sg3662
g3668
ssS'parscriptstylesheet'
p3679
(dp3680
g3660
I1
sg3661
I0
sg3662
g3663
ssS'cacheredir'
p3681
(dp3682
g3660
I1
sg3661
I0
sg3662
g3663
ssS'parscriptscript'
p3683
(dp3684
g3660
I1
sg3661
I0
sg3662
g3663
ssS'maxconn'
p3685
(dp3686
g3660
I100
sg3661
I30
sg3662
S'30'
p3687
ssS'parsheet'
p3688
(dp3689
g3660
I100
sg3661
I1
sg3662
g3668
ssS'hostconn'
p3690
(dp3691
g3660
I100
sg3661
I6
sg3662
g298
ssssVSony Ericsson K800i
p3692
(dp3693
S'summary_display'
p3694
S'8/14'
p3695
sS'total_runs'
p3696
L11L
sS'summary_score'
p3697
I57
sS'results'
p3698
(dp3699
S'parscriptiframe'
p3700
(dp3701
S'score'
p3702
I0
sS'raw_score'
p3703
NsS'display'
p3704
g14
ssS'parscriptimage'
p3705
(dp3706
g3702
I0
sg3703
Nsg3704
g14
ssS'cacheexp'
p3707
(dp3708
g3702
I100
sg3703
I1
sg3704
S'yes'
p3709
ssS'cacheresredir'
p3710
(dp3711
g3702
I100
sg3703
I1
sg3704
g3709
ssS'parcssjs'
p3712
(dp3713
g3702
I1
sg3703
I0
sg3704
S'no'
p3714
ssS'gzip'
p3715
(dp3716
g3702
I100
sg3703
I1
sg3704
g3709
ssS'du'
p3717
(dp3718
g3702
I100
sg3703
I1
sg3704
g3709
ssS'prefetch'
p3719
(dp3720
g3702
I1
sg3703
I0
sg3704
g3714
ssS'parscriptstylesheet'
p3721
(dp3722
g3702
I0
sg3703
Nsg3704
g14
ssS'cacheredir'
p3723
(dp3724
g3702
I100
sg3703
I1
sg3704
g3709
ssS'parscriptscript'
p3725
(dp3726
g3702
I0
sg3703
Nsg3704
g14
ssS'maxconn'
p3727
(dp3728
g3702
I100
sg3703
I60
sg3704
S'60'
p3729
ssS'parsheet'
p3730
(dp3731
g3702
I100
sg3703
I1
sg3704
g3709
ssS'hostconn'
p3732
(dp3733
g3702
I100
sg3703
I24
sg3704
S'24'
p3734
ssssVWebPilot 8
p3735
(dp3736
S'summary_display'
p3737
S'5/14'
p3738
sS'total_runs'
p3739
L1L
sS'summary_score'
p3740
I36
sS'results'
p3741
(dp3742
S'parscriptiframe'
p3743
(dp3744
S'score'
p3745
I0
sS'raw_score'
p3746
NsS'display'
p3747
g14
ssS'parscriptimage'
p3748
(dp3749
g3745
I0
sg3746
Nsg3747
g14
ssS'cacheexp'
p3750
(dp3751
g3745
I100
sg3746
I1
sg3747
S'yes'
p3752
ssS'cacheresredir'
p3753
(dp3754
g3745
I1
sg3746
I0
sg3747
S'no'
p3755
ssS'parcssjs'
p3756
(dp3757
g3745
I1
sg3746
I0
sg3747
g3755
ssS'gzip'
p3758
(dp3759
g3745
I100
sg3746
I1
sg3747
g3752
ssS'du'
p3760
(dp3761
g3745
I1
sg3746
I0
sg3747
g3755
ssS'prefetch'
p3762
(dp3763
g3745
I1
sg3746
I0
sg3747
g3755
ssS'parscriptstylesheet'
p3764
(dp3765
g3745
I0
sg3746
Nsg3747
g14
ssS'cacheredir'
p3766
(dp3767
g3745
I1
sg3746
I0
sg3747
g3755
ssS'parscriptscript'
p3768
(dp3769
g3745
I0
sg3746
Nsg3747
g14
ssS'maxconn'
p3770
(dp3771
g3745
I100
sg3746
I48
sg3747
S'48'
p3772
ssS'parsheet'
p3773
(dp3774
g3745
I100
sg3746
I1
sg3747
g3752
ssS'hostconn'
p3775
(dp3776
g3745
I100
sg3746
I16
sg3747
S'16'
p3777
ssssVSamsung SGHi560
p3778
(dp3779
S'summary_display'
p3780
S'4/14'
p3781
sS'total_runs'
p3782
L1L
sS'summary_score'
p3783
I29
sS'results'
p3784
(dp3785
S'parscriptiframe'
p3786
(dp3787
S'score'
p3788
I0
sS'raw_score'
p3789
NsS'display'
p3790
g14
ssS'parscriptimage'
p3791
(dp3792
g3788
I0
sg3789
Nsg3790
g14
ssS'cacheexp'
p3793
(dp3794
g3788
I100
sg3789
I1
sg3790
S'yes'
p3795
ssS'cacheresredir'
p3796
(dp3797
g3788
I1
sg3789
I0
sg3790
S'no'
p3798
ssS'parcssjs'
p3799
(dp3800
g3788
I1
sg3789
I0
sg3790
g3798
ssS'gzip'
p3801
(dp3802
g3788
I1
sg3789
I0
sg3790
g3798
ssS'du'
p3803
(dp3804
g3788
I1
sg3789
I0
sg3790
g3798
ssS'prefetch'
p3805
(dp3806
g3788
I100
sg3789
I1
sg3790
g3795
ssS'parscriptstylesheet'
p3807
(dp3808
g3788
I0
sg3789
Nsg3790
g14
ssS'cacheredir'
p3809
(dp3810
g3788
I1
sg3789
I0
sg3790
g3798
ssS'parscriptscript'
p3811
(dp3812
g3788
I0
sg3789
Nsg3790
g14
ssS'maxconn'
p3813
(dp3814
g3788
I50
sg3789
I14
sg3790
S'14'
p3815
ssS'parsheet'
p3816
(dp3817
g3788
I100
sg3789
I1
sg3790
g3795
ssS'hostconn'
p3818
(dp3819
g3788
I100
sg3789
I7
sg3790
g125
ssssVPolaris 6
p3820
(dp3821
S'summary_display'
p3822
S'8/14'
p3823
sS'total_runs'
p3824
L1L
sS'summary_score'
p3825
I57
sS'results'
p3826
(dp3827
S'parscriptiframe'
p3828
(dp3829
S'score'
p3830
I0
sS'raw_score'
p3831
NsS'display'
p3832
g14
ssS'parscriptimage'
p3833
(dp3834
g3830
I0
sg3831
Nsg3832
g14
ssS'cacheexp'
p3835
(dp3836
g3830
I100
sg3831
I1
sg3832
S'yes'
p3837
ssS'cacheresredir'
p3838
(dp3839
g3830
I100
sg3831
I1
sg3832
g3837
ssS'parcssjs'
p3840
(dp3841
g3830
I1
sg3831
I0
sg3832
S'no'
p3842
ssS'gzip'
p3843
(dp3844
g3830
I100
sg3831
I1
sg3832
g3837
ssS'du'
p3845
(dp3846
g3830
I100
sg3831
I1
sg3832
g3837
ssS'prefetch'
p3847
(dp3848
g3830
I1
sg3831
I0
sg3832
g3842
ssS'parscriptstylesheet'
p3849
(dp3850
g3830
I0
sg3831
Nsg3832
g14
ssS'cacheredir'
p3851
(dp3852
g3830
I100
sg3831
I1
sg3832
g3837
ssS'parscriptscript'
p3853
(dp3854
g3830
I0
sg3831
Nsg3832
g14
ssS'maxconn'
p3855
(dp3856
g3830
I100
sg3831
I50
sg3832
S'50'
p3857
ssS'parsheet'
p3858
(dp3859
g3830
I100
sg3831
I1
sg3832
g3837
ssS'hostconn'
p3860
(dp3861
g3830
I100
sg3831
I10
sg3832
S'10'
p3862
ssssVOmniWeb 607
p3863
(dp3864
S'summary_display'
p3865
S'7/14'
p3866
sS'total_runs'
p3867
L1L
sS'summary_score'
p3868
I50
sS'results'
p3869
(dp3870
S'parscriptiframe'
p3871
(dp3872
S'score'
p3873
I0
sS'raw_score'
p3874
NsS'display'
p3875
g14
ssS'parscriptimage'
p3876
(dp3877
g3873
I0
sg3874
Nsg3875
g14
ssS'cacheexp'
p3878
(dp3879
g3873
I100
sg3874
I1
sg3875
S'yes'
p3880
ssS'cacheresredir'
p3881
(dp3882
g3873
I100
sg3874
I1
sg3875
g3880
ssS'parcssjs'
p3883
(dp3884
g3873
I1
sg3874
I0
sg3875
S'no'
p3885
ssS'gzip'
p3886
(dp3887
g3873
I100
sg3874
I1
sg3875
g3880
ssS'du'
p3888
(dp3889
g3873
I100
sg3874
I1
sg3875
g3880
ssS'prefetch'
p3890
(dp3891
g3873
I1
sg3874
I0
sg3875
g3885
ssS'parscriptstylesheet'
p3892
(dp3893
g3873
I0
sg3874
Nsg3875
g14
ssS'cacheredir'
p3894
(dp3895
g3873
I1
sg3874
I0
sg3875
g3885
ssS'parscriptscript'
p3896
(dp3897
g3873
I0
sg3874
Nsg3875
g14
ssS'maxconn'
p3898
(dp3899
g3873
I100
sg3874
I60
sg3875
S'60'
p3900
ssS'parsheet'
p3901
(dp3902
g3873
I100
sg3874
I1
sg3875
g3880
ssS'hostconn'
p3903
(dp3904
g3873
I100
sg3874
I4
sg3875
g251
ssssVOmniWeb 563
p3905
(dp3906
S'summary_display'
p3907
S'5/14'
p3908
sS'total_runs'
p3909
L2L
sS'summary_score'
p3910
I36
sS'results'
p3911
(dp3912
S'parscriptiframe'
p3913
(dp3914
S'score'
p3915
I0
sS'raw_score'
p3916
NsS'display'
p3917
g14
ssS'parscriptimage'
p3918
(dp3919
g3915
I0
sg3916
Nsg3917
g14
ssS'cacheexp'
p3920
(dp3921
g3915
I100
sg3916
I1
sg3917
S'yes'
p3922
ssS'cacheresredir'
p3923
(dp3924
g3915
I100
sg3916
I1
sg3917
g3922
ssS'parcssjs'
p3925
(dp3926
g3915
I1
sg3916
I0
sg3917
S'no'
p3927
ssS'gzip'
p3928
(dp3929
g3915
I100
sg3916
I1
sg3917
g3922
ssS'du'
p3930
(dp3931
g3915
I100
sg3916
I1
sg3917
g3922
ssS'prefetch'
p3932
(dp3933
g3915
I1
sg3916
I0
sg3917
g3927
ssS'parscriptstylesheet'
p3934
(dp3935
g3915
I0
sg3916
Nsg3917
g14
ssS'cacheredir'
p3936
(dp3937
g3915
I1
sg3916
I0
sg3917
g3927
ssS'parscriptscript'
p3938
(dp3939
g3915
I0
sg3916
Nsg3917
g14
ssS'maxconn'
p3940
(dp3941
g3915
I50
sg3916
I10
sg3917
S'10'
p3942
ssS'parsheet'
p3943
(dp3944
g3915
I1
sg3916
I0
sg3917
g3927
ssS'hostconn'
p3945
(dp3946
g3915
I100
sg3916
I4
sg3917
g251
ssssVSafari 1
p3947
(dp3948
S'summary_display'
p3949
S'9/14'
p3950
sS'total_runs'
p3951
L8L
sS'summary_score'
p3952
I64
sS'results'
p3953
(dp3954
S'parscriptiframe'
p3955
(dp3956
S'score'
p3957
I1
sS'raw_score'
p3958
I0
sS'display'
p3959
S'no'
p3960
ssS'parscriptimage'
p3961
(dp3962
g3957
I100
sg3958
I1
sg3959
S'yes'
p3963
ssS'cacheexp'
p3964
(dp3965
g3957
I100
sg3958
I1
sg3959
g3963
ssS'cacheresredir'
p3966
(dp3967
g3957
I100
sg3958
I1
sg3959
g3963
ssS'parcssjs'
p3968
(dp3969
g3957
I1
sg3958
I0
sg3959
g3960
ssS'gzip'
p3970
(dp3971
g3957
I100
sg3958
I1
sg3959
g3963
ssS'du'
p3972
(dp3973
g3957
I100
sg3958
I1
sg3959
g3963
ssS'prefetch'
p3974
(dp3975
g3957
I1
sg3958
I0
sg3959
g3960
ssS'parscriptstylesheet'
p3976
(dp3977
g3957
I100
sg3958
I1
sg3959
g3963
ssS'cacheredir'
p3978
(dp3979
g3957
I1
sg3958
I0
sg3959
g3960
ssS'parscriptscript'
p3980
(dp3981
g3957
I100
sg3958
I1
sg3959
g3963
ssS'maxconn'
p3982
(dp3983
g3957
I50
sg3958
I10
sg3959
S'10'
p3984
ssS'parsheet'
p3985
(dp3986
g3957
I100
sg3958
I1
sg3959
g3963
ssS'hostconn'
p3987
(dp3988
g3957
I100
sg3958
I11
sg3959
S'11'
p3989
ssssVObigo 05
p3990
(dp3991
S'summary_display'
p3992
S'4/14'
p3993
sS'total_runs'
p3994
L1L
sS'summary_score'
p3995
I29
sS'results'
p3996
(dp3997
S'parscriptiframe'
p3998
(dp3999
S'score'
p4000
I0
sS'raw_score'
p4001
NsS'display'
p4002
g14
ssS'parscriptimage'
p4003
(dp4004
g4000
I0
sg4001
Nsg4002
g14
ssS'cacheexp'
p4005
(dp4006
g4000
I100
sg4001
I1
sg4002
S'yes'
p4007
ssS'cacheresredir'
p4008
(dp4009
g4000
I1
sg4001
I0
sg4002
S'no'
p4010
ssS'parcssjs'
p4011
(dp4012
g4000
I1
sg4001
I0
sg4002
g4010
ssS'gzip'
p4013
(dp4014
g4000
I100
sg4001
I1
sg4002
g4007
ssS'du'
p4015
(dp4016
g4000
I100
sg4001
I1
sg4002
g4007
ssS'prefetch'
p4017
(dp4018
g4000
I1
sg4001
I0
sg4002
g4010
ssS'parscriptstylesheet'
p4019
(dp4020
g4000
I0
sg4001
Nsg4002
g14
ssS'cacheredir'
p4021
(dp4022
g4000
I1
sg4001
I0
sg4002
g4010
ssS'parscriptscript'
p4023
(dp4024
g4000
I0
sg4001
Nsg4002
g14
ssS'maxconn'
p4025
(dp4026
g4000
I50
sg4001
I10
sg4002
S'10'
p4027
ssS'parsheet'
p4028
(dp4029
g4000
I1
sg4001
I0
sg4002
g4010
ssS'hostconn'
p4030
(dp4031
g4000
I100
sg4001
I9
sg4002
g213
ssssVMidori 0
p4032
(dp4033
S'summary_display'
p4034
S'7/14'
p4035
sS'total_runs'
p4036
L26L
sS'summary_score'
p4037
I50
sS'results'
p4038
(dp4039
S'parscriptiframe'
p4040
(dp4041
S'score'
p4042
I1
sS'raw_score'
p4043
I0
sS'display'
p4044
S'no'
p4045
ssS'parscriptimage'
p4046
(dp4047
g4042
I100
sg4043
I1
sg4044
S'yes'
p4048
ssS'cacheexp'
p4049
(dp4050
g4042
I100
sg4043
I1
sg4044
g4048
ssS'cacheresredir'
p4051
(dp4052
g4042
I100
sg4043
I1
sg4044
g4048
ssS'parcssjs'
p4053
(dp4054
g4042
I1
sg4043
I0
sg4044
g4045
ssS'gzip'
p4055
(dp4056
g4042
I1
sg4043
I0
sg4044
g4045
ssS'du'
p4057
(dp4058
g4042
I100
sg4043
I1
sg4044
g4048
ssS'prefetch'
p4059
(dp4060
g4042
I1
sg4043
I0
sg4044
g4045
ssS'parscriptstylesheet'
p4061
(dp4062
g4042
I100
sg4043
I1
sg4044
g4048
ssS'cacheredir'
p4063
(dp4064
g4042
I1
sg4043
I0
sg4044
g4045
ssS'parscriptscript'
p4065
(dp4066
g4042
I100
sg4043
I1
sg4044
g4048
ssS'maxconn'
p4067
(dp4068
g4042
I50
sg4043
I10
sg4044
S'10'
p4069
ssS'parsheet'
p4070
(dp4071
g4042
I100
sg4043
I1
sg4044
g4048
ssS'hostconn'
p4072
(dp4073
g4042
I50
sg4043
I2
sg4044
g44
ssssVNokia 51
p4074
(dp4075
S'summary_display'
p4076
S'4/14'
p4077
sS'total_runs'
p4078
L4L
sS'summary_score'
p4079
I29
sS'results'
p4080
(dp4081
S'parscriptiframe'
p4082
(dp4083
S'score'
p4084
I0
sS'raw_score'
p4085
NsS'display'
p4086
g14
ssS'parscriptimage'
p4087
(dp4088
g4084
I0
sg4085
Nsg4086
g14
ssS'cacheexp'
p4089
(dp4090
g4084
I100
sg4085
I1
sg4086
S'yes'
p4091
ssS'cacheresredir'
p4092
(dp4093
g4084
I1
sg4085
I0
sg4086
S'no'
p4094
ssS'parcssjs'
p4095
(dp4096
g4084
I1
sg4085
I0
sg4086
g4094
ssS'gzip'
p4097
(dp4098
g4084
I100
sg4085
I1
sg4086
g4091
ssS'du'
p4099
(dp4100
g4084
I1
sg4085
I0
sg4086
g4094
ssS'prefetch'
p4101
(dp4102
g4084
I100
sg4085
I1
sg4086
g4091
ssS'parscriptstylesheet'
p4103
(dp4104
g4084
I0
sg4085
Nsg4086
g14
ssS'cacheredir'
p4105
(dp4106
g4084
I1
sg4085
I0
sg4086
g4094
ssS'parscriptscript'
p4107
(dp4108
g4084
I0
sg4085
Nsg4086
g14
ssS'maxconn'
p4109
(dp4110
g4084
I1
sg4085
I7
sg4086
g125
ssS'parsheet'
p4111
(dp4112
g4084
I100
sg4085
I1
sg4086
g4091
ssS'hostconn'
p4113
(dp4114
g4084
I0
sg4085
I0
sg4086
g629
ssssVBlackberry 8830
p4115
(dp4116
S'summary_display'
p4117
S'5/14'
p4118
sS'total_runs'
p4119
L5L
sS'summary_score'
p4120
I36
sS'results'
p4121
(dp4122
S'parscriptiframe'
p4123
(dp4124
S'score'
p4125
I0
sS'raw_score'
p4126
NsS'display'
p4127
g14
ssS'parscriptimage'
p4128
(dp4129
g4125
I0
sg4126
Nsg4127
g14
ssS'cacheexp'
p4130
(dp4131
g4125
I100
sg4126
I1
sg4127
S'yes'
p4132
ssS'cacheresredir'
p4133
(dp4134
g4125
I100
sg4126
I1
sg4127
g4132
ssS'parcssjs'
p4135
(dp4136
g4125
I1
sg4126
I0
sg4127
S'no'
p4137
ssS'gzip'
p4138
(dp4139
g4125
I1
sg4126
I0
sg4127
g4137
ssS'du'
p4140
(dp4141
g4125
I1
sg4126
I0
sg4127
g4137
ssS'prefetch'
p4142
(dp4143
g4125
I100
sg4126
I1
sg4127
g4132
ssS'parscriptstylesheet'
p4144
(dp4145
g4125
I0
sg4126
Nsg4127
g14
ssS'cacheredir'
p4146
(dp4147
g4125
I1
sg4126
I0
sg4127
g4137
ssS'parscriptscript'
p4148
(dp4149
g4125
I0
sg4126
Nsg4127
g14
ssS'maxconn'
p4150
(dp4151
g4125
I1
sg4126
I8
sg4127
g87
ssS'parsheet'
p4152
(dp4153
g4125
I100
sg4126
I1
sg4127
g4132
ssS'hostconn'
p4154
(dp4155
g4125
I100
sg4126
I8
sg4127
g87
ssssVJasmine 0
p4156
(dp4157
S'summary_display'
p4158
S'8/14'
p4159
sS'total_runs'
p4160
L2L
sS'summary_score'
p4161
I57
sS'results'
p4162
(dp4163
S'parscriptiframe'
p4164
(dp4165
S'score'
p4166
I0
sS'raw_score'
p4167
NsS'display'
p4168
g14
ssS'parscriptimage'
p4169
(dp4170
g4166
I0
sg4167
Nsg4168
g14
ssS'cacheexp'
p4171
(dp4172
g4166
I100
sg4167
I1
sg4168
S'yes'
p4173
ssS'cacheresredir'
p4174
(dp4175
g4166
I100
sg4167
I1
sg4168
g4173
ssS'parcssjs'
p4176
(dp4177
g4166
I1
sg4167
I0
sg4168
S'no'
p4178
ssS'gzip'
p4179
(dp4180
g4166
I100
sg4167
I1
sg4168
g4173
ssS'du'
p4181
(dp4182
g4166
I100
sg4167
I1
sg4168
g4173
ssS'prefetch'
p4183
(dp4184
g4166
I100
sg4167
I1
sg4168
g4173
ssS'parscriptstylesheet'
p4185
(dp4186
g4166
I0
sg4167
Nsg4168
g14
ssS'cacheredir'
p4187
(dp4188
g4166
I1
sg4167
I0
sg4168
g4178
ssS'parscriptscript'
p4189
(dp4190
g4166
I0
sg4167
Nsg4168
g14
ssS'maxconn'
p4191
(dp4192
g4166
I100
sg4167
I30
sg4168
S'30'
p4193
ssS'parsheet'
p4194
(dp4195
g4166
I100
sg4167
I1
sg4168
g4173
ssS'hostconn'
p4196
(dp4197
g4166
I100
sg4167
I6
sg4168
g298
ssssVBlackberry 7130
p4198
(dp4199
S'summary_display'
p4200
S'6/14'
p4201
sS'total_runs'
p4202
L1L
sS'summary_score'
p4203
I43
sS'results'
p4204
(dp4205
S'parscriptiframe'
p4206
(dp4207
S'score'
p4208
I0
sS'raw_score'
p4209
NsS'display'
p4210
g14
ssS'parscriptimage'
p4211
(dp4212
g4208
I0
sg4209
Nsg4210
g14
ssS'cacheexp'
p4213
(dp4214
g4208
I100
sg4209
I1
sg4210
S'yes'
p4215
ssS'cacheresredir'
p4216
(dp4217
g4208
I100
sg4209
I1
sg4210
g4215
ssS'parcssjs'
p4218
(dp4219
g4208
I100
sg4209
I1
sg4210
g4215
ssS'gzip'
p4220
(dp4221
g4208
I100
sg4209
I1
sg4210
g4215
ssS'du'
p4222
(dp4223
g4208
I1
sg4209
I0
sg4210
S'no'
p4224
ssS'prefetch'
p4225
(dp4226
g4208
I100
sg4209
I1
sg4210
g4215
ssS'parscriptstylesheet'
p4227
(dp4228
g4208
I0
sg4209
Nsg4210
g14
ssS'cacheredir'
p4229
(dp4230
g4208
I1
sg4209
I0
sg4210
g4224
ssS'parscriptscript'
p4231
(dp4232
g4208
I0
sg4209
Nsg4210
g14
ssS'maxconn'
p4233
(dp4234
g4208
I0
sg4209
I0
sg4210
g629
ssS'parsheet'
p4235
(dp4236
g4208
I100
sg4209
I1
sg4210
g4215
ssS'hostconn'
p4237
(dp4238
g4208
I0
sg4209
I0
sg4210
g629
ssssViPhone 3
p4239
(dp4240
S'summary_display'
p4241
S'10/14'
p4242
sS'total_runs'
p4243
L167L
sS'summary_score'
p4244
I71
sS'results'
p4245
(dp4246
S'parscriptiframe'
p4247
(dp4248
S'score'
p4249
I1
sS'raw_score'
p4250
I0
sS'display'
p4251
S'no'
p4252
ssS'parscriptimage'
p4253
(dp4254
g4249
I100
sg4250
I1
sg4251
S'yes'
p4255
ssS'cacheexp'
p4256
(dp4257
g4249
I100
sg4250
I1
sg4251
g4255
ssS'cacheresredir'
p4258
(dp4259
g4249
I100
sg4250
I1
sg4251
g4255
ssS'parcssjs'
p4260
(dp4261
g4249
I1
sg4250
I0
sg4251
g4252
ssS'gzip'
p4262
(dp4263
g4249
I100
sg4250
I1
sg4251
g4255
ssS'du'
p4264
(dp4265
g4249
I100
sg4250
I1
sg4251
g4255
ssS'prefetch'
p4266
(dp4267
g4249
I1
sg4250
I0
sg4251
g4252
ssS'parscriptstylesheet'
p4268
(dp4269
g4249
I100
sg4250
I1
sg4251
g4255
ssS'cacheredir'
p4270
(dp4271
g4249
I1
sg4250
I0
sg4251
g4252
ssS'parscriptscript'
p4272
(dp4273
g4249
I100
sg4250
I1
sg4251
g4255
ssS'maxconn'
p4274
(dp4275
g4249
I100
sg4250
I60
sg4251
S'60'
p4276
ssS'parsheet'
p4277
(dp4278
g4249
I100
sg4250
I1
sg4251
g4255
ssS'hostconn'
p4279
(dp4280
g4249
I100
sg4250
I6
sg4251
g298
ssssVCamino 0
p4281
(dp4282
S'summary_display'
p4283
S'6/14'
p4284
sS'total_runs'
p4285
L1L
sS'summary_score'
p4286
I43
sS'results'
p4287
(dp4288
S'parscriptiframe'
p4289
(dp4290
S'score'
p4291
I0
sS'raw_score'
p4292
NsS'display'
p4293
g14
ssS'parscriptimage'
p4294
(dp4295
g4291
I0
sg4292
Nsg4293
g14
ssS'cacheexp'
p4296
(dp4297
g4291
I100
sg4292
I1
sg4293
S'yes'
p4298
ssS'cacheresredir'
p4299
(dp4300
g4291
I100
sg4292
I1
sg4293
g4298
ssS'parcssjs'
p4301
(dp4302
g4291
I1
sg4292
I0
sg4293
S'no'
p4303
ssS'gzip'
p4304
(dp4305
g4291
I100
sg4292
I1
sg4293
g4298
ssS'du'
p4306
(dp4307
g4291
I100
sg4292
I1
sg4293
g4298
ssS'prefetch'
p4308
(dp4309
g4291
I100
sg4292
I1
sg4293
g4298
ssS'parscriptstylesheet'
p4310
(dp4311
g4291
I0
sg4292
Nsg4293
g14
ssS'cacheredir'
p4312
(dp4313
g4291
I1
sg4292
I0
sg4293
g4303
ssS'parscriptscript'
p4314
(dp4315
g4291
I0
sg4292
Nsg4293
g14
ssS'maxconn'
p4316
(dp4317
g4291
I1
sg4292
I4
sg4293
g251
ssS'parsheet'
p4318
(dp4319
g4291
I1
sg4292
I0
sg4293
g4303
ssS'hostconn'
p4320
(dp4321
g4291
I100
sg4292
I4
sg4293
g251
ssssVANTGalio 2
p4322
(dp4323
S'summary_display'
p4324
S'3/14'
p4325
sS'total_runs'
p4326
L2L
sS'summary_score'
p4327
I21
sS'results'
p4328
(dp4329
S'parscriptiframe'
p4330
(dp4331
S'score'
p4332
I0
sS'raw_score'
p4333
NsS'display'
p4334
g14
ssS'parscriptimage'
p4335
(dp4336
g4332
I0
sg4333
Nsg4334
g14
ssS'cacheexp'
p4337
(dp4338
g4332
I1
sg4333
I0
sg4334
S'no'
p4339
ssS'cacheresredir'
p4340
(dp4341
g4332
I1
sg4333
I0
sg4334
g4339
ssS'parcssjs'
p4342
(dp4343
g4332
I1
sg4333
I0
sg4334
g4339
ssS'gzip'
p4344
(dp4345
g4332
I1
sg4333
I0
sg4334
g4339
ssS'du'
p4346
(dp4347
g4332
I100
sg4333
I1
sg4334
S'yes'
p4348
ssS'prefetch'
p4349
(dp4350
g4332
I1
sg4333
I0
sg4334
g4339
ssS'parscriptstylesheet'
p4351
(dp4352
g4332
I0
sg4333
Nsg4334
g14
ssS'cacheredir'
p4353
(dp4354
g4332
I1
sg4333
I0
sg4334
g4339
ssS'parscriptscript'
p4355
(dp4356
g4332
I0
sg4333
Nsg4334
g14
ssS'maxconn'
p4357
(dp4358
g4332
I100
sg4333
I53
sg4334
S'53'
p4359
ssS'parsheet'
p4360
(dp4361
g4332
I1
sg4333
I0
sg4334
g4339
ssS'hostconn'
p4362
(dp4363
g4332
I100
sg4333
I7
sg4334
g125
ssssVFresco 4
p4364
(dp4365
S'summary_display'
p4366
S'7/14'
p4367
sS'total_runs'
p4368
L1L
sS'summary_score'
p4369
I50
sS'results'
p4370
(dp4371
S'parscriptiframe'
p4372
(dp4373
S'score'
p4374
I0
sS'raw_score'
p4375
NsS'display'
p4376
g14
ssS'parscriptimage'
p4377
(dp4378
g4374
I0
sg4375
Nsg4376
g14
ssS'cacheexp'
p4379
(dp4380
g4374
I100
sg4375
I1
sg4376
S'yes'
p4381
ssS'cacheresredir'
p4382
(dp4383
g4374
I1
sg4375
I0
sg4376
S'no'
p4384
ssS'parcssjs'
p4385
(dp4386
g4374
I1
sg4375
I0
sg4376
g4384
ssS'gzip'
p4387
(dp4388
g4374
I100
sg4375
I1
sg4376
g4381
ssS'du'
p4389
(dp4390
g4374
I100
sg4375
I1
sg4376
g4381
ssS'prefetch'
p4391
(dp4392
g4374
I100
sg4375
I1
sg4376
g4381
ssS'parscriptstylesheet'
p4393
(dp4394
g4374
I0
sg4375
Nsg4376
g14
ssS'cacheredir'
p4395
(dp4396
g4374
I1
sg4375
I0
sg4376
g4384
ssS'parscriptscript'
p4397
(dp4398
g4374
I0
sg4375
Nsg4376
g14
ssS'maxconn'
p4399
(dp4400
g4374
I100
sg4375
I30
sg4376
S'30'
p4401
ssS'parsheet'
p4402
(dp4403
g4374
I100
sg4375
I1
sg4376
g4381
ssS'hostconn'
p4404
(dp4405
g4374
I100
sg4375
I6
sg4376
g298
ssssVIron 4
p4406
(dp4407
S'summary_display'
p4408
S'11/14'
p4409
sS'total_runs'
p4410
L11L
sS'summary_score'
p4411
I79
sS'results'
p4412
(dp4413
S'parscriptiframe'
p4414
(dp4415
S'score'
p4416
I1
sS'raw_score'
p4417
I0
sS'display'
p4418
S'no'
p4419
ssS'parscriptimage'
p4420
(dp4421
g4416
I100
sg4417
I1
sg4418
S'yes'
p4422
ssS'cacheexp'
p4423
(dp4424
g4416
I100
sg4417
I1
sg4418
g4422
ssS'cacheresredir'
p4425
(dp4426
g4416
I100
sg4417
I1
sg4418
g4422
ssS'parcssjs'
p4427
(dp4428
g4416
I1
sg4417
I0
sg4418
g4419
ssS'gzip'
p4429
(dp4430
g4416
I100
sg4417
I1
sg4418
g4422
ssS'du'
p4431
(dp4432
g4416
I100
sg4417
I1
sg4418
g4422
ssS'prefetch'
p4433
(dp4434
g4416
I1
sg4417
I0
sg4418
g4419
ssS'parscriptstylesheet'
p4435
(dp4436
g4416
I100
sg4417
I1
sg4418
g4422
ssS'cacheredir'
p4437
(dp4438
g4416
I100
sg4417
I1
sg4418
g4422
ssS'parscriptscript'
p4439
(dp4440
g4416
I100
sg4417
I1
sg4418
g4422
ssS'maxconn'
p4441
(dp4442
g4416
I100
sg4417
I53
sg4418
S'53'
p4443
ssS'parsheet'
p4444
(dp4445
g4416
I100
sg4417
I1
sg4418
g4422
ssS'hostconn'
p4446
(dp4447
g4416
I100
sg4417
I6
sg4418
g298
ssssViPhone 2
p4448
(dp4449
S'summary_display'
p4450
S'7/14'
p4451
sS'total_runs'
p4452
L185L
sS'summary_score'
p4453
I50
sS'results'
p4454
(dp4455
S'parscriptiframe'
p4456
(dp4457
S'score'
p4458
I0
sS'raw_score'
p4459
NsS'display'
p4460
g14
ssS'parscriptimage'
p4461
(dp4462
g4458
I0
sg4459
Nsg4460
g14
ssS'cacheexp'
p4463
(dp4464
g4458
I100
sg4459
I1
sg4460
S'yes'
p4465
ssS'cacheresredir'
p4466
(dp4467
g4458
I100
sg4459
I1
sg4460
g4465
ssS'parcssjs'
p4468
(dp4469
g4458
I1
sg4459
I0
sg4460
S'no'
p4470
ssS'gzip'
p4471
(dp4472
g4458
I100
sg4459
I1
sg4460
g4465
ssS'du'
p4473
(dp4474
g4458
I100
sg4459
I1
sg4460
g4465
ssS'prefetch'
p4475
(dp4476
g4458
I1
sg4459
I0
sg4460
g4470
ssS'parscriptstylesheet'
p4477
(dp4478
g4458
I0
sg4459
Nsg4460
g14
ssS'cacheredir'
p4479
(dp4480
g4458
I1
sg4459
I0
sg4460
g4470
ssS'parscriptscript'
p4481
(dp4482
g4458
I0
sg4459
Nsg4460
g14
ssS'maxconn'
p4483
(dp4484
g4458
I100
sg4459
I60
sg4460
S'60'
p4485
ssS'parsheet'
p4486
(dp4487
g4458
I100
sg4459
I1
sg4460
g4465
ssS'hostconn'
p4488
(dp4489
g4458
I100
sg4459
I4
sg4460
g251
ssssVChrome Frame (IE 6) 4
p4490
(dp4491
S'summary_display'
p4492
S'6/14'
p4493
sS'total_runs'
p4494
L3L
sS'summary_score'
p4495
I43
sS'results'
p4496
(dp4497
S'parscriptiframe'
p4498
(dp4499
S'score'
p4500
I0
sS'raw_score'
p4501
NsS'display'
p4502
g14
ssS'parscriptimage'
p4503
(dp4504
g4500
I0
sg4501
Nsg4502
g14
ssS'cacheexp'
p4505
(dp4506
g4500
I100
sg4501
I1
sg4502
S'yes'
p4507
ssS'cacheresredir'
p4508
(dp4509
g4500
I100
sg4501
I1
sg4502
g4507
ssS'parcssjs'
p4510
(dp4511
g4500
I1
sg4501
I0
sg4502
S'no'
p4512
ssS'gzip'
p4513
(dp4514
g4500
I100
sg4501
I1
sg4502
g4507
ssS'du'
p4515
(dp4516
g4500
I100
sg4501
I1
sg4502
g4507
ssS'prefetch'
p4517
(dp4518
g4500
I1
sg4501
I0
sg4502
g4512
ssS'parscriptstylesheet'
p4519
(dp4520
g4500
I0
sg4501
Nsg4502
g14
ssS'cacheredir'
p4521
(dp4522
g4500
I1
sg4501
I0
sg4502
g4512
ssS'parscriptscript'
p4523
(dp4524
g4500
I0
sg4501
Nsg4502
g14
ssS'maxconn'
p4525
(dp4526
g4500
I100
sg4501
I48
sg4502
S'48'
p4527
ssS'parsheet'
p4528
(dp4529
g4500
I100
sg4501
I1
sg4502
g4507
ssS'hostconn'
p4530
(dp4531
g4500
I50
sg4501
I2
sg4502
g44
ssssVIron 0
p4532
(dp4533
S'summary_display'
p4534
S'8/14'
p4535
sS'total_runs'
p4536
L18L
sS'summary_score'
p4537
I57
sS'results'
p4538
(dp4539
S'parscriptiframe'
p4540
(dp4541
S'score'
p4542
I0
sS'raw_score'
p4543
NsS'display'
p4544
g14
ssS'parscriptimage'
p4545
(dp4546
g4542
I0
sg4543
Nsg4544
g14
ssS'cacheexp'
p4547
(dp4548
g4542
I100
sg4543
I1
sg4544
S'yes'
p4549
ssS'cacheresredir'
p4550
(dp4551
g4542
I100
sg4543
I1
sg4544
g4549
ssS'parcssjs'
p4552
(dp4553
g4542
I1
sg4543
I0
sg4544
S'no'
p4554
ssS'gzip'
p4555
(dp4556
g4542
I100
sg4543
I1
sg4544
g4549
ssS'du'
p4557
(dp4558
g4542
I100
sg4543
I1
sg4544
g4549
ssS'prefetch'
p4559
(dp4560
g4542
I1
sg4543
I0
sg4544
g4554
ssS'parscriptstylesheet'
p4561
(dp4562
g4542
I0
sg4543
Nsg4544
g14
ssS'cacheredir'
p4563
(dp4564
g4542
I100
sg4543
I1
sg4544
g4549
ssS'parscriptscript'
p4565
(dp4566
g4542
I0
sg4543
Nsg4544
g14
ssS'maxconn'
p4567
(dp4568
g4542
I100
sg4543
I60
sg4544
S'60'
p4569
ssS'parsheet'
p4570
(dp4571
g4542
I100
sg4543
I1
sg4544
g4549
ssS'hostconn'
p4572
(dp4573
g4542
I100
sg4543
I6
sg4544
g298
ssssVIron 1
p4574
(dp4575
S'summary_display'
p4576
S'8/14'
p4577
sS'total_runs'
p4578
L15L
sS'summary_score'
p4579
I57
sS'results'
p4580
(dp4581
S'parscriptiframe'
p4582
(dp4583
S'score'
p4584
I0
sS'raw_score'
p4585
NsS'display'
p4586
g14
ssS'parscriptimage'
p4587
(dp4588
g4584
I0
sg4585
Nsg4586
g14
ssS'cacheexp'
p4589
(dp4590
g4584
I100
sg4585
I1
sg4586
S'yes'
p4591
ssS'cacheresredir'
p4592
(dp4593
g4584
I100
sg4585
I1
sg4586
g4591
ssS'parcssjs'
p4594
(dp4595
g4584
I1
sg4585
I0
sg4586
S'no'
p4596
ssS'gzip'
p4597
(dp4598
g4584
I100
sg4585
I1
sg4586
g4591
ssS'du'
p4599
(dp4600
g4584
I100
sg4585
I1
sg4586
g4591
ssS'prefetch'
p4601
(dp4602
g4584
I1
sg4585
I0
sg4586
g4596
ssS'parscriptstylesheet'
p4603
(dp4604
g4584
I0
sg4585
Nsg4586
g14
ssS'cacheredir'
p4605
(dp4606
g4584
I100
sg4585
I1
sg4586
g4591
ssS'parscriptscript'
p4607
(dp4608
g4584
I0
sg4585
Nsg4586
g14
ssS'maxconn'
p4609
(dp4610
g4584
I100
sg4585
I59
sg4586
S'59'
p4611
ssS'parsheet'
p4612
(dp4613
g4584
I100
sg4585
I1
sg4586
g4591
ssS'hostconn'
p4614
(dp4615
g4584
I100
sg4585
I6
sg4586
g298
ssssVIron 2
p4616
(dp4617
S'summary_display'
p4618
S'8/14'
p4619
sS'total_runs'
p4620
L29L
sS'summary_score'
p4621
I57
sS'results'
p4622
(dp4623
S'parscriptiframe'
p4624
(dp4625
S'score'
p4626
I0
sS'raw_score'
p4627
NsS'display'
p4628
g14
ssS'parscriptimage'
p4629
(dp4630
g4626
I0
sg4627
Nsg4628
g14
ssS'cacheexp'
p4631
(dp4632
g4626
I100
sg4627
I1
sg4628
S'yes'
p4633
ssS'cacheresredir'
p4634
(dp4635
g4626
I100
sg4627
I1
sg4628
g4633
ssS'parcssjs'
p4636
(dp4637
g4626
I1
sg4627
I0
sg4628
S'no'
p4638
ssS'gzip'
p4639
(dp4640
g4626
I100
sg4627
I1
sg4628
g4633
ssS'du'
p4641
(dp4642
g4626
I100
sg4627
I1
sg4628
g4633
ssS'prefetch'
p4643
(dp4644
g4626
I1
sg4627
I0
sg4628
g4638
ssS'parscriptstylesheet'
p4645
(dp4646
g4626
I0
sg4627
Nsg4628
g14
ssS'cacheredir'
p4647
(dp4648
g4626
I100
sg4627
I1
sg4628
g4633
ssS'parscriptscript'
p4649
(dp4650
g4626
I0
sg4627
Nsg4628
g14
ssS'maxconn'
p4651
(dp4652
g4626
I100
sg4627
I60
sg4628
S'60'
p4653
ssS'parsheet'
p4654
(dp4655
g4626
I100
sg4627
I1
sg4628
g4633
ssS'hostconn'
p4656
(dp4657
g4626
I100
sg4627
I6
sg4628
g298
ssssVIron 3
p4658
(dp4659
S'summary_display'
p4660
S'11/14'
p4661
sS'total_runs'
p4662
L73L
sS'summary_score'
p4663
I79
sS'results'
p4664
(dp4665
S'parscriptiframe'
p4666
(dp4667
S'score'
p4668
I1
sS'raw_score'
p4669
I0
sS'display'
p4670
S'no'
p4671
ssS'parscriptimage'
p4672
(dp4673
g4668
I100
sg4669
I1
sg4670
S'yes'
p4674
ssS'cacheexp'
p4675
(dp4676
g4668
I100
sg4669
I1
sg4670
g4674
ssS'cacheresredir'
p4677
(dp4678
g4668
I100
sg4669
I1
sg4670
g4674
ssS'parcssjs'
p4679
(dp4680
g4668
I1
sg4669
I0
sg4670
g4671
ssS'gzip'
p4681
(dp4682
g4668
I100
sg4669
I1
sg4670
g4674
ssS'du'
p4683
(dp4684
g4668
I100
sg4669
I1
sg4670
g4674
ssS'prefetch'
p4685
(dp4686
g4668
I1
sg4669
I0
sg4670
g4671
ssS'parscriptstylesheet'
p4687
(dp4688
g4668
I100
sg4669
I1
sg4670
g4674
ssS'cacheredir'
p4689
(dp4690
g4668
I100
sg4669
I1
sg4670
g4674
ssS'parscriptscript'
p4691
(dp4692
g4668
I100
sg4669
I1
sg4670
g4674
ssS'maxconn'
p4693
(dp4694
g4668
I100
sg4669
I60
sg4670
S'60'
p4695
ssS'parsheet'
p4696
(dp4697
g4668
I100
sg4669
I1
sg4670
g4674
ssS'hostconn'
p4698
(dp4699
g4668
I100
sg4669
I4
sg4670
g251
ssssVFluid 0
p4700
(dp4701
S'summary_display'
p4702
S'7/14'
p4703
sS'total_runs'
p4704
L3L
sS'summary_score'
p4705
I50
sS'results'
p4706
(dp4707
S'parscriptiframe'
p4708
(dp4709
S'score'
p4710
I0
sS'raw_score'
p4711
NsS'display'
p4712
g14
ssS'parscriptimage'
p4713
(dp4714
g4710
I0
sg4711
Nsg4712
g14
ssS'cacheexp'
p4715
(dp4716
g4710
I100
sg4711
I1
sg4712
S'yes'
p4717
ssS'cacheresredir'
p4718
(dp4719
g4710
I100
sg4711
I1
sg4712
g4717
ssS'parcssjs'
p4720
(dp4721
g4710
I1
sg4711
I0
sg4712
S'no'
p4722
ssS'gzip'
p4723
(dp4724
g4710
I100
sg4711
I1
sg4712
g4717
ssS'du'
p4725
(dp4726
g4710
I100
sg4711
I1
sg4712
g4717
ssS'prefetch'
p4727
(dp4728
g4710
I1
sg4711
I0
sg4712
g4722
ssS'parscriptstylesheet'
p4729
(dp4730
g4710
I0
sg4711
Nsg4712
g14
ssS'cacheredir'
p4731
(dp4732
g4710
I1
sg4711
I0
sg4712
g4722
ssS'parscriptscript'
p4733
(dp4734
g4710
I0
sg4711
Nsg4712
g14
ssS'maxconn'
p4735
(dp4736
g4710
I100
sg4711
I60
sg4712
S'60'
p4737
ssS'parsheet'
p4738
(dp4739
g4710
I100
sg4711
I1
sg4712
g4717
ssS'hostconn'
p4740
(dp4741
g4710
I100
sg4711
I4
sg4712
g251
ssssVSafari 3
p4742
(dp4743
S'summary_display'
p4744
S'8/14'
p4745
sS'total_runs'
p4746
L984L
sS'summary_score'
p4747
I57
sS'results'
p4748
(dp4749
S'parscriptiframe'
p4750
(dp4751
S'score'
p4752
I1
sS'raw_score'
p4753
I0
sS'display'
p4754
S'no'
p4755
ssS'parscriptimage'
p4756
(dp4757
g4752
I1
sg4753
I0
sg4754
g4755
ssS'cacheexp'
p4758
(dp4759
g4752
I100
sg4753
I1
sg4754
S'yes'
p4760
ssS'cacheresredir'
p4761
(dp4762
g4752
I100
sg4753
I1
sg4754
g4760
ssS'parcssjs'
p4763
(dp4764
g4752
I1
sg4753
I0
sg4754
g4755
ssS'gzip'
p4765
(dp4766
g4752
I100
sg4753
I1
sg4754
g4760
ssS'du'
p4767
(dp4768
g4752
I100
sg4753
I1
sg4754
g4760
ssS'prefetch'
p4769
(dp4770
g4752
I1
sg4753
I0
sg4754
g4755
ssS'parscriptstylesheet'
p4771
(dp4772
g4752
I1
sg4753
I0
sg4754
g4755
ssS'cacheredir'
p4773
(dp4774
g4752
I1
sg4753
I0
sg4754
g4755
ssS'parscriptscript'
p4775
(dp4776
g4752
I100
sg4753
I1
sg4754
g4760
ssS'maxconn'
p4777
(dp4778
g4752
I100
sg4753
I60
sg4754
S'60'
p4779
ssS'parsheet'
p4780
(dp4781
g4752
I100
sg4753
I1
sg4754
g4760
ssS'hostconn'
p4782
(dp4783
g4752
I100
sg4753
I4
sg4754
g251
ssssVShiira 1
p4784
(dp4785
S'summary_display'
p4786
S'7/14'
p4787
sS'total_runs'
p4788
L7L
sS'summary_score'
p4789
I50
sS'results'
p4790
(dp4791
S'parscriptiframe'
p4792
(dp4793
S'score'
p4794
I0
sS'raw_score'
p4795
NsS'display'
p4796
g14
ssS'parscriptimage'
p4797
(dp4798
g4794
I0
sg4795
Nsg4796
g14
ssS'cacheexp'
p4799
(dp4800
g4794
I100
sg4795
I1
sg4796
S'yes'
p4801
ssS'cacheresredir'
p4802
(dp4803
g4794
I100
sg4795
I1
sg4796
g4801
ssS'parcssjs'
p4804
(dp4805
g4794
I1
sg4795
I0
sg4796
S'no'
p4806
ssS'gzip'
p4807
(dp4808
g4794
I100
sg4795
I1
sg4796
g4801
ssS'du'
p4809
(dp4810
g4794
I100
sg4795
I1
sg4796
g4801
ssS'prefetch'
p4811
(dp4812
g4794
I1
sg4795
I0
sg4796
g4806
ssS'parscriptstylesheet'
p4813
(dp4814
g4794
I0
sg4795
Nsg4796
g14
ssS'cacheredir'
p4815
(dp4816
g4794
I1
sg4795
I0
sg4796
g4806
ssS'parscriptscript'
p4817
(dp4818
g4794
I0
sg4795
Nsg4796
g14
ssS'maxconn'
p4819
(dp4820
g4794
I100
sg4795
I60
sg4796
S'60'
p4821
ssS'parsheet'
p4822
(dp4823
g4794
I100
sg4795
I1
sg4796
g4801
ssS'hostconn'
p4824
(dp4825
g4794
I100
sg4795
I4
sg4796
g251
ssssVFirefox (Minefield) 3
p4826
(dp4827
S'summary_display'
p4828
S'12/14'
p4829
sS'total_runs'
p4830
L988L
sS'summary_score'
p4831
I86
sS'results'
p4832
(dp4833
S'du'
p4834
(dp4835
S'score'
p4836
I100
sS'raw_score'
p4837
I1
sS'display'
p4838
S'yes'
p4839
ssS'parscriptimage'
p4840
(dp4841
g4836
I100
sg4837
I1
sg4838
g4839
ssS'parcssjs'
p4842
(dp4843
g4836
I1
sg4837
I0
sg4838
S'no'
p4844
ssS'cacheresredir'
p4845
(dp4846
g4836
I100
sg4837
I1
sg4838
g4839
ssS'cacheexp'
p4847
(dp4848
g4836
I100
sg4837
I1
sg4838
g4839
ssS'maxconn'
p4849
(dp4850
g4836
I100
sg4837
I30
sg4838
S'30'
p4851
ssS'cacheredir'
p4852
(dp4853
g4836
I100
sg4837
I1
sg4838
g4839
ssS'prefetch'
p4854
(dp4855
g4836
I100
sg4837
I1
sg4838
g4839
ssS'parscriptstylesheet'
p4856
(dp4857
g4836
I100
sg4837
I1
sg4838
g4839
ssS'gzip'
p4858
(dp4859
g4836
I100
sg4837
I1
sg4838
g4839
ssS'parscriptscript'
p4860
(dp4861
g4836
I100
sg4837
I1
sg4838
g4839
ssS'parscriptiframe'
p4862
(dp4863
g4836
I1
sg4837
I0
sg4838
g4844
ssS'parsheet'
p4864
(dp4865
g4836
I100
sg4837
I1
sg4838
g4839
ssS'hostconn'
p4866
(dp4867
g4836
I100
sg4837
I6
sg4838
g298
ssssViCab 5
p4868
(dp4869
S'summary_display'
p4870
S'4/14'
p4871
sS'total_runs'
p4872
L2L
sS'summary_score'
p4873
I29
sS'results'
p4874
(dp4875
S'parscriptiframe'
p4876
(dp4877
S'score'
p4878
I0
sS'raw_score'
p4879
NsS'display'
p4880
g14
ssS'parscriptimage'
p4881
(dp4882
g4878
I0
sg4879
Nsg4880
g14
ssS'cacheexp'
p4883
(dp4884
g4878
I100
sg4879
I1
sg4880
S'yes'
p4885
ssS'cacheresredir'
p4886
(dp4887
g4878
I100
sg4879
I1
sg4880
g4885
ssS'parcssjs'
p4888
(dp4889
g4878
I1
sg4879
I0
sg4880
S'no'
p4890
ssS'gzip'
p4891
(dp4892
g4878
I1
sg4879
I0
sg4880
g4890
ssS'du'
p4893
(dp4894
g4878
I100
sg4879
I1
sg4880
g4885
ssS'prefetch'
p4895
(dp4896
g4878
I1
sg4879
I0
sg4880
g4890
ssS'parscriptstylesheet'
p4897
(dp4898
g4878
I0
sg4879
Nsg4880
g14
ssS'cacheredir'
p4899
(dp4900
g4878
I1
sg4879
I0
sg4880
g4890
ssS'parscriptscript'
p4901
(dp4902
g4878
I0
sg4879
Nsg4880
g14
ssS'maxconn'
p4903
(dp4904
g4878
I50
sg4879
I12
sg4880
S'12'
p4905
ssS'parsheet'
p4906
(dp4907
g4878
I1
sg4879
I0
sg4880
g4890
ssS'hostconn'
p4908
(dp4909
g4878
I100
sg4879
I12
sg4880
S'12'
p4910
ssssViCab 4
p4911
(dp4912
S'summary_display'
p4913
S'7/14'
p4914
sS'total_runs'
p4915
L7L
sS'summary_score'
p4916
I50
sS'results'
p4917
(dp4918
S'parscriptiframe'
p4919
(dp4920
S'score'
p4921
I0
sS'raw_score'
p4922
NsS'display'
p4923
g14
ssS'parscriptimage'
p4924
(dp4925
g4921
I0
sg4922
Nsg4923
g14
ssS'cacheexp'
p4926
(dp4927
g4921
I100
sg4922
I1
sg4923
S'yes'
p4928
ssS'cacheresredir'
p4929
(dp4930
g4921
I100
sg4922
I1
sg4923
g4928
ssS'parcssjs'
p4931
(dp4932
g4921
I1
sg4922
I0
sg4923
S'no'
p4933
ssS'gzip'
p4934
(dp4935
g4921
I100
sg4922
I1
sg4923
g4928
ssS'du'
p4936
(dp4937
g4921
I100
sg4922
I1
sg4923
g4928
ssS'prefetch'
p4938
(dp4939
g4921
I1
sg4922
I0
sg4923
g4933
ssS'parscriptstylesheet'
p4940
(dp4941
g4921
I0
sg4922
Nsg4923
g14
ssS'cacheredir'
p4942
(dp4943
g4921
I1
sg4922
I0
sg4923
g4933
ssS'parscriptscript'
p4944
(dp4945
g4921
I0
sg4922
Nsg4923
g14
ssS'maxconn'
p4946
(dp4947
g4921
I100
sg4922
I60
sg4923
S'60'
p4948
ssS'parsheet'
p4949
(dp4950
g4921
I100
sg4922
I1
sg4923
g4928
ssS'hostconn'
p4951
(dp4952
g4921
I100
sg4922
I4
sg4923
g251
ssssVAndroid 2
p4953
(dp4954
S'summary_display'
p4955
S'9/14'
p4956
sS'total_runs'
p4957
L12L
sS'summary_score'
p4958
I64
sS'results'
p4959
(dp4960
S'parscriptiframe'
p4961
(dp4962
S'score'
p4963
I1
sS'raw_score'
p4964
I0
sS'display'
p4965
S'no'
p4966
ssS'parscriptimage'
p4967
(dp4968
g4963
I100
sg4964
I1
sg4965
S'yes'
p4969
ssS'cacheexp'
p4970
(dp4971
g4963
I100
sg4964
I1
sg4965
g4969
ssS'cacheresredir'
p4972
(dp4973
g4963
I100
sg4964
I1
sg4965
g4969
ssS'parcssjs'
p4974
(dp4975
g4963
I1
sg4964
I0
sg4965
g4966
ssS'gzip'
p4976
(dp4977
g4963
I100
sg4964
I1
sg4965
g4969
ssS'du'
p4978
(dp4979
g4963
I100
sg4964
I1
sg4965
g4969
ssS'prefetch'
p4980
(dp4981
g4963
I1
sg4964
I0
sg4965
g4966
ssS'parscriptstylesheet'
p4982
(dp4983
g4963
I100
sg4964
I1
sg4965
g4969
ssS'cacheredir'
p4984
(dp4985
g4963
I1
sg4964
I0
sg4965
g4966
ssS'parscriptscript'
p4986
(dp4987
g4963
I100
sg4964
I1
sg4965
g4969
ssS'maxconn'
p4988
(dp4989
g4963
I1
sg4964
I4
sg4965
g251
ssS'parsheet'
p4990
(dp4991
g4963
I100
sg4964
I1
sg4965
g4969
ssS'hostconn'
p4992
(dp4993
g4963
I100
sg4964
I4
sg4965
g251
ssssVFirefox (Minefield) 4
p4994
(dp4995
S'summary_display'
p4996
S'8/14'
p4997
sS'total_runs'
p4998
L1L
sS'summary_score'
p4999
I57
sS'results'
p5000
(dp5001
S'parscriptiframe'
p5002
(dp5003
S'score'
p5004
I0
sS'raw_score'
p5005
NsS'display'
p5006
g14
ssS'parscriptimage'
p5007
(dp5008
g5004
I0
sg5005
Nsg5006
g14
ssS'cacheexp'
p5009
(dp5010
g5004
I100
sg5005
I1
sg5006
S'yes'
p5011
ssS'cacheresredir'
p5012
(dp5013
g5004
I100
sg5005
I1
sg5006
g5011
ssS'parcssjs'
p5014
(dp5015
g5004
I1
sg5005
I0
sg5006
S'no'
p5016
ssS'gzip'
p5017
(dp5018
g5004
I100
sg5005
I1
sg5006
g5011
ssS'du'
p5019
(dp5020
g5004
I100
sg5005
I1
sg5006
g5011
ssS'prefetch'
p5021
(dp5022
g5004
I100
sg5005
I1
sg5006
g5011
ssS'parscriptstylesheet'
p5023
(dp5024
g5004
I0
sg5005
Nsg5006
g14
ssS'cacheredir'
p5025
(dp5026
g5004
I1
sg5005
I0
sg5006
g5016
ssS'parscriptscript'
p5027
(dp5028
g5004
I0
sg5005
Nsg5006
g14
ssS'maxconn'
p5029
(dp5030
g5004
I100
sg5005
I30
sg5006
S'30'
p5031
ssS'parsheet'
p5032
(dp5033
g5004
I100
sg5005
I1
sg5006
g5011
ssS'hostconn'
p5034
(dp5035
g5004
I100
sg5005
I6
sg5006
g298
ssssVSunrise 1
p5036
(dp5037
S'summary_display'
p5038
S'7/14'
p5039
sS'total_runs'
p5040
L3L
sS'summary_score'
p5041
I50
sS'results'
p5042
(dp5043
S'parscriptiframe'
p5044
(dp5045
S'score'
p5046
I0
sS'raw_score'
p5047
NsS'display'
p5048
g14
ssS'parscriptimage'
p5049
(dp5050
g5046
I0
sg5047
Nsg5048
g14
ssS'cacheexp'
p5051
(dp5052
g5046
I100
sg5047
I1
sg5048
S'yes'
p5053
ssS'cacheresredir'
p5054
(dp5055
g5046
I100
sg5047
I1
sg5048
g5053
ssS'parcssjs'
p5056
(dp5057
g5046
I1
sg5047
I0
sg5048
S'no'
p5058
ssS'gzip'
p5059
(dp5060
g5046
I100
sg5047
I1
sg5048
g5053
ssS'du'
p5061
(dp5062
g5046
I100
sg5047
I1
sg5048
g5053
ssS'prefetch'
p5063
(dp5064
g5046
I1
sg5047
I0
sg5048
g5058
ssS'parscriptstylesheet'
p5065
(dp5066
g5046
I0
sg5047
Nsg5048
g14
ssS'cacheredir'
p5067
(dp5068
g5046
I1
sg5047
I0
sg5048
g5058
ssS'parscriptscript'
p5069
(dp5070
g5046
I0
sg5047
Nsg5048
g14
ssS'maxconn'
p5071
(dp5072
g5046
I100
sg5047
I60
sg5048
S'60'
p5073
ssS'parsheet'
p5074
(dp5075
g5046
I100
sg5047
I1
sg5048
g5053
ssS'hostconn'
p5076
(dp5077
g5046
I100
sg5047
I4
sg5048
g251
ssssVStainless 0
p5078
(dp5079
S'summary_display'
p5080
S'10/14'
p5081
sS'total_runs'
p5082
L7L
sS'summary_score'
p5083
I71
sS'results'
p5084
(dp5085
S'parscriptiframe'
p5086
(dp5087
S'score'
p5088
I1
sS'raw_score'
p5089
I0
sS'display'
p5090
S'no'
p5091
ssS'parscriptimage'
p5092
(dp5093
g5088
I100
sg5089
I1
sg5090
S'yes'
p5094
ssS'cacheexp'
p5095
(dp5096
g5088
I100
sg5089
I1
sg5090
g5094
ssS'cacheresredir'
p5097
(dp5098
g5088
I100
sg5089
I1
sg5090
g5094
ssS'parcssjs'
p5099
(dp5100
g5088
I1
sg5089
I0
sg5090
g5091
ssS'gzip'
p5101
(dp5102
g5088
I100
sg5089
I1
sg5090
g5094
ssS'du'
p5103
(dp5104
g5088
I100
sg5089
I1
sg5090
g5094
ssS'prefetch'
p5105
(dp5106
g5088
I1
sg5089
I0
sg5090
g5091
ssS'parscriptstylesheet'
p5107
(dp5108
g5088
I100
sg5089
I1
sg5090
g5094
ssS'cacheredir'
p5109
(dp5110
g5088
I1
sg5089
I0
sg5090
g5091
ssS'parscriptscript'
p5111
(dp5112
g5088
I100
sg5089
I1
sg5090
g5094
ssS'maxconn'
p5113
(dp5114
g5088
I100
sg5089
I60
sg5090
S'60'
p5115
ssS'parsheet'
p5116
(dp5117
g5088
I100
sg5089
I1
sg5090
g5094
ssS'hostconn'
p5118
(dp5119
g5088
I100
sg5089
I6
sg5090
g298
ssssVAndroid 0
p5120
(dp5121
S'summary_display'
p5122
S'5/14'
p5123
sS'total_runs'
p5124
L3L
sS'summary_score'
p5125
I36
sS'results'
p5126
(dp5127
S'parscriptiframe'
p5128
(dp5129
S'score'
p5130
I0
sS'raw_score'
p5131
NsS'display'
p5132
g14
ssS'parscriptimage'
p5133
(dp5134
g5130
I0
sg5131
Nsg5132
g14
ssS'cacheexp'
p5135
(dp5136
g5130
I100
sg5131
I1
sg5132
S'yes'
p5137
ssS'cacheresredir'
p5138
(dp5139
g5130
I1
sg5131
I0
sg5132
S'no'
p5140
ssS'parcssjs'
p5141
(dp5142
g5130
I1
sg5131
I0
sg5132
g5140
ssS'gzip'
p5143
(dp5144
g5130
I100
sg5131
I1
sg5132
g5137
ssS'du'
p5145
(dp5146
g5130
I100
sg5131
I1
sg5132
g5137
ssS'prefetch'
p5147
(dp5148
g5130
I1
sg5131
I0
sg5132
g5140
ssS'parscriptstylesheet'
p5149
(dp5150
g5130
I0
sg5131
Nsg5132
g14
ssS'cacheredir'
p5151
(dp5152
g5130
I100
sg5131
I1
sg5132
g5137
ssS'parscriptscript'
p5153
(dp5154
g5130
I0
sg5131
Nsg5132
g14
ssS'maxconn'
p5155
(dp5156
g5130
I1
sg5131
I2
sg5132
g44
ssS'parsheet'
p5157
(dp5158
g5130
I100
sg5131
I1
sg5132
g5137
ssS'hostconn'
p5159
(dp5160
g5130
I50
sg5131
I2
sg5132
g44
ssssVAndroid 1
p5161
(dp5162
S'summary_display'
p5163
S'10/14'
p5164
sS'total_runs'
p5165
L100L
sS'summary_score'
p5166
I71
sS'results'
p5167
(dp5168
S'parscriptiframe'
p5169
(dp5170
S'score'
p5171
I1
sS'raw_score'
p5172
I0
sS'display'
p5173
S'no'
p5174
ssS'parscriptimage'
p5175
(dp5176
g5171
I100
sg5172
I1
sg5173
S'yes'
p5177
ssS'cacheexp'
p5178
(dp5179
g5171
I100
sg5172
I1
sg5173
g5177
ssS'cacheresredir'
p5180
(dp5181
g5171
I100
sg5172
I1
sg5173
g5177
ssS'parcssjs'
p5182
(dp5183
g5171
I1
sg5172
I0
sg5173
g5174
ssS'gzip'
p5184
(dp5185
g5171
I100
sg5172
I1
sg5173
g5177
ssS'du'
p5186
(dp5187
g5171
I100
sg5172
I1
sg5173
g5177
ssS'prefetch'
p5188
(dp5189
g5171
I1
sg5172
I0
sg5173
g5174
ssS'parscriptstylesheet'
p5190
(dp5191
g5171
I100
sg5172
I1
sg5173
g5177
ssS'cacheredir'
p5192
(dp5193
g5171
I100
sg5172
I1
sg5173
g5177
ssS'parscriptscript'
p5194
(dp5195
g5171
I100
sg5172
I1
sg5173
g5177
ssS'maxconn'
p5196
(dp5197
g5171
I1
sg5172
I4
sg5173
g251
ssS'parsheet'
p5198
(dp5199
g5171
I100
sg5172
I1
sg5173
g5177
ssS'hostconn'
p5200
(dp5201
g5171
I100
sg5172
I4
sg5173
g251
ssssVIceWeasel 3
p5202
(dp5203
S'summary_display'
p5204
S'9/14'
p5205
sS'total_runs'
p5206
L2L
sS'summary_score'
p5207
I64
sS'results'
p5208
(dp5209
S'parscriptiframe'
p5210
(dp5211
S'score'
p5212
I1
sS'raw_score'
p5213
I0
sS'display'
p5214
S'no'
p5215
ssS'parscriptimage'
p5216
(dp5217
g5212
I1
sg5213
I0
sg5214
g5215
ssS'cacheexp'
p5218
(dp5219
g5212
I100
sg5213
I1
sg5214
S'yes'
p5220
ssS'cacheresredir'
p5221
(dp5222
g5212
I100
sg5213
I1
sg5214
g5220
ssS'parcssjs'
p5223
(dp5224
g5212
I1
sg5213
I0
sg5214
g5215
ssS'gzip'
p5225
(dp5226
g5212
I100
sg5213
I1
sg5214
g5220
ssS'du'
p5227
(dp5228
g5212
I100
sg5213
I1
sg5214
g5220
ssS'prefetch'
p5229
(dp5230
g5212
I100
sg5213
I1
sg5214
g5220
ssS'parscriptstylesheet'
p5231
(dp5232
g5212
I1
sg5213
I0
sg5214
g5215
ssS'cacheredir'
p5233
(dp5234
g5212
I100
sg5213
I1
sg5214
g5220
ssS'parscriptscript'
p5235
(dp5236
g5212
I1
sg5213
I0
sg5214
g5215
ssS'maxconn'
p5237
(dp5238
g5212
I100
sg5213
I48
sg5214
S'48'
p5239
ssS'parsheet'
p5240
(dp5241
g5212
I100
sg5213
I1
sg5214
g5220
ssS'hostconn'
p5242
(dp5243
g5212
I100
sg5213
I8
sg5214
g87
ssssVKazehakase 0
p5244
(dp5245
S'summary_display'
p5246
S'8/14'
p5247
sS'total_runs'
p5248
L8L
sS'summary_score'
p5249
I57
sS'results'
p5250
(dp5251
S'parscriptiframe'
p5252
(dp5253
S'score'
p5254
I0
sS'raw_score'
p5255
NsS'display'
p5256
g14
ssS'parscriptimage'
p5257
(dp5258
g5254
I0
sg5255
Nsg5256
g14
ssS'cacheexp'
p5259
(dp5260
g5254
I100
sg5255
I1
sg5256
S'yes'
p5261
ssS'cacheresredir'
p5262
(dp5263
g5254
I100
sg5255
I1
sg5256
g5261
ssS'parcssjs'
p5264
(dp5265
g5254
I1
sg5255
I0
sg5256
S'no'
p5266
ssS'gzip'
p5267
(dp5268
g5254
I100
sg5255
I1
sg5256
g5261
ssS'du'
p5269
(dp5270
g5254
I100
sg5255
I1
sg5256
g5261
ssS'prefetch'
p5271
(dp5272
g5254
I100
sg5255
I1
sg5256
g5261
ssS'parscriptstylesheet'
p5273
(dp5274
g5254
I0
sg5255
Nsg5256
g14
ssS'cacheredir'
p5275
(dp5276
g5254
I1
sg5255
I0
sg5256
g5266
ssS'parscriptscript'
p5277
(dp5278
g5254
I0
sg5255
Nsg5256
g14
ssS'maxconn'
p5279
(dp5280
g5254
I100
sg5255
I29
sg5256
S'29'
p5281
ssS'parsheet'
p5282
(dp5283
g5254
I100
sg5255
I1
sg5256
g5261
ssS'hostconn'
p5284
(dp5285
g5254
I100
sg5255
I6
sg5256
g298
ssssVChrome Frame (IE 7) 4
p5286
(dp5287
S'summary_display'
p5288
S'7/14'
p5289
sS'total_runs'
p5290
L3L
sS'summary_score'
p5291
I50
sS'results'
p5292
(dp5293
S'parscriptiframe'
p5294
(dp5295
S'score'
p5296
I0
sS'raw_score'
p5297
NsS'display'
p5298
g14
ssS'parscriptimage'
p5299
(dp5300
g5296
I0
sg5297
Nsg5298
g14
ssS'cacheexp'
p5301
(dp5302
g5296
I100
sg5297
I1
sg5298
S'yes'
p5303
ssS'cacheresredir'
p5304
(dp5305
g5296
I100
sg5297
I1
sg5298
g5303
ssS'parcssjs'
p5306
(dp5307
g5296
I1
sg5297
I0
sg5298
S'no'
p5308
ssS'gzip'
p5309
(dp5310
g5296
I100
sg5297
I1
sg5298
g5303
ssS'du'
p5311
(dp5312
g5296
I100
sg5297
I1
sg5298
g5303
ssS'prefetch'
p5313
(dp5314
g5296
I1
sg5297
I0
sg5298
g5308
ssS'parscriptstylesheet'
p5315
(dp5316
g5296
I0
sg5297
Nsg5298
g14
ssS'cacheredir'
p5317
(dp5318
g5296
I1
sg5297
I0
sg5298
g5308
ssS'parscriptscript'
p5319
(dp5320
g5296
I0
sg5297
Nsg5298
g14
ssS'maxconn'
p5321
(dp5322
g5296
I100
sg5297
I59
sg5298
S'59'
p5323
ssS'parsheet'
p5324
(dp5325
g5296
I100
sg5297
I1
sg5298
g5303
ssS'hostconn'
p5326
(dp5327
g5296
I100
sg5297
I3
sg5298
g1214
ssssVOther
p5328
(dp5329
S'summary_display'
p5330
S'10/14'
p5331
sS'total_runs'
p5332
L132L
sS'summary_score'
p5333
I71
sS'results'
p5334
(dp5335
S'parscriptiframe'
p5336
(dp5337
S'score'
p5338
I1
sS'raw_score'
p5339
I0
sS'display'
p5340
S'no'
p5341
ssS'parscriptimage'
p5342
(dp5343
g5338
I100
sg5339
I1
sg5340
S'yes'
p5344
ssS'cacheexp'
p5345
(dp5346
g5338
I100
sg5339
I1
sg5340
g5344
ssS'cacheresredir'
p5347
(dp5348
g5338
I100
sg5339
I1
sg5340
g5344
ssS'parcssjs'
p5349
(dp5350
g5338
I1
sg5339
I0
sg5340
g5341
ssS'gzip'
p5351
(dp5352
g5338
I100
sg5339
I1
sg5340
g5344
ssS'du'
p5353
(dp5354
g5338
I100
sg5339
I1
sg5340
g5344
ssS'prefetch'
p5355
(dp5356
g5338
I1
sg5339
I0
sg5340
g5341
ssS'parscriptstylesheet'
p5357
(dp5358
g5338
I100
sg5339
I1
sg5340
g5344
ssS'cacheredir'
p5359
(dp5360
g5338
I1
sg5339
I0
sg5340
g5341
ssS'parscriptscript'
p5361
(dp5362
g5338
I100
sg5339
I1
sg5340
g5344
ssS'maxconn'
p5363
(dp5364
g5338
I100
sg5339
I30
sg5340
S'30'
p5365
ssS'parsheet'
p5366
(dp5367
g5338
I100
sg5339
I1
sg5340
g5344
ssS'hostconn'
p5368
(dp5369
g5338
I100
sg5339
I4
sg5340
g251
ssssVVienna 2
p5370
(dp5371
S'summary_display'
p5372
S'7/14'
p5373
sS'total_runs'
p5374
L7L
sS'summary_score'
p5375
I50
sS'results'
p5376
(dp5377
S'parscriptiframe'
p5378
(dp5379
S'score'
p5380
I0
sS'raw_score'
p5381
NsS'display'
p5382
g14
ssS'parscriptimage'
p5383
(dp5384
g5380
I0
sg5381
Nsg5382
g14
ssS'cacheexp'
p5385
(dp5386
g5380
I100
sg5381
I1
sg5382
S'yes'
p5387
ssS'cacheresredir'
p5388
(dp5389
g5380
I100
sg5381
I1
sg5382
g5387
ssS'parcssjs'
p5390
(dp5391
g5380
I1
sg5381
I0
sg5382
S'no'
p5392
ssS'gzip'
p5393
(dp5394
g5380
I100
sg5381
I1
sg5382
g5387
ssS'du'
p5395
(dp5396
g5380
I100
sg5381
I1
sg5382
g5387
ssS'prefetch'
p5397
(dp5398
g5380
I1
sg5381
I0
sg5382
g5392
ssS'parscriptstylesheet'
p5399
(dp5400
g5380
I0
sg5381
Nsg5382
g14
ssS'cacheredir'
p5401
(dp5402
g5380
I1
sg5381
I0
sg5382
g5392
ssS'parscriptscript'
p5403
(dp5404
g5380
I0
sg5381
Nsg5382
g14
ssS'maxconn'
p5405
(dp5406
g5380
I100
sg5381
I60
sg5382
S'60'
p5407
ssS'parsheet'
p5408
(dp5409
g5380
I100
sg5381
I1
sg5382
g5387
ssS'hostconn'
p5410
(dp5411
g5380
I100
sg5381
I4
sg5382
g251
ssssVUzbl 0
p5412
(dp5413
S'summary_display'
p5414
S'9/14'
p5415
sS'total_runs'
p5416
L31L
sS'summary_score'
p5417
I64
sS'results'
p5418
(dp5419
S'du'
p5420
(dp5421
S'score'
p5422
I100
sS'raw_score'
p5423
I1
sS'display'
p5424
S'yes'
p5425
ssS'parscriptimage'
p5426
(dp5427
g5422
I100
sg5423
I1
sg5424
g5425
ssS'parcssjs'
p5428
(dp5429
g5422
I1
sg5423
I0
sg5424
S'no'
p5430
ssS'cacheresredir'
p5431
(dp5432
g5422
I100
sg5423
I1
sg5424
g5425
ssS'cacheexp'
p5433
(dp5434
g5422
I100
sg5423
I1
sg5424
g5425
ssS'maxconn'
p5435
(dp5436
g5422
I100
sg5423
I41
sg5424
S'41'
p5437
ssS'cacheredir'
p5438
(dp5439
g5422
I1
sg5423
I0
sg5424
g5430
ssS'prefetch'
p5440
(dp5441
g5422
I1
sg5423
I0
sg5424
g5430
ssS'parscriptstylesheet'
p5442
(dp5443
g5422
I100
sg5423
I1
sg5424
g5425
ssS'gzip'
p5444
(dp5445
g5422
I1
sg5423
I0
sg5424
g5430
ssS'parscriptscript'
p5446
(dp5447
g5422
I100
sg5423
I1
sg5424
g5425
ssS'parscriptiframe'
p5448
(dp5449
g5422
I1
sg5423
I0
sg5424
g5430
ssS'parsheet'
p5450
(dp5451
g5422
I100
sg5423
I1
sg5424
g5425
ssS'hostconn'
p5452
(dp5453
g5422
I100
sg5423
I6
sg5424
g298
ssssVCrazy Browser 3
p5454
(dp5455
S'summary_display'
p5456
S'2/14'
p5457
sS'total_runs'
p5458
L3L
sS'summary_score'
p5459
I14
sS'results'
p5460
(dp5461
S'parscriptiframe'
p5462
(dp5463
S'score'
p5464
I0
sS'raw_score'
p5465
NsS'display'
p5466
g14
ssS'parscriptimage'
p5467
(dp5468
g5464
I0
sg5465
Nsg5466
g14
ssS'cacheexp'
p5469
(dp5470
g5464
I100
sg5465
I1
sg5466
S'yes'
p5471
ssS'cacheresredir'
p5472
(dp5473
g5464
I1
sg5465
I0
sg5466
S'no'
p5474
ssS'parcssjs'
p5475
(dp5476
g5464
I1
sg5465
I0
sg5466
g5474
ssS'gzip'
p5477
(dp5478
g5464
I1
sg5465
I0
sg5466
g5474
ssS'du'
p5479
(dp5480
g5464
I1
sg5465
I0
sg5466
g5474
ssS'prefetch'
p5481
(dp5482
g5464
I1
sg5465
I0
sg5466
g5474
ssS'parscriptstylesheet'
p5483
(dp5484
g5464
I0
sg5465
Nsg5466
g14
ssS'cacheredir'
p5485
(dp5486
g5464
I1
sg5465
I0
sg5466
g5474
ssS'parscriptscript'
p5487
(dp5488
g5464
I0
sg5465
Nsg5466
g14
ssS'maxconn'
p5489
(dp5490
g5464
I50
sg5465
I16
sg5466
S'16'
p5491
ssS'parsheet'
p5492
(dp5493
g5464
I1
sg5465
I0
sg5466
g5474
ssS'hostconn'
p5494
(dp5495
g5464
I100
sg5465
I12
sg5466
S'12'
p5496
ssssVFirefox (Namoroka) 3
p5497
(dp5498
S'summary_display'
p5499
S'13/14'
p5500
sS'total_runs'
p5501
L57L
sS'summary_score'
p5502
I93
sS'results'
p5503
(dp5504
S'parscriptiframe'
p5505
(dp5506
S'score'
p5507
I1
sS'raw_score'
p5508
I0
sS'display'
p5509
S'no'
p5510
ssS'parscriptimage'
p5511
(dp5512
g5507
I100
sg5508
I1
sg5509
S'yes'
p5513
ssS'cacheexp'
p5514
(dp5515
g5507
I100
sg5508
I1
sg5509
g5513
ssS'cacheresredir'
p5516
(dp5517
g5507
I100
sg5508
I1
sg5509
g5513
ssS'parcssjs'
p5518
(dp5519
g5507
I100
sg5508
I1
sg5509
g5513
ssS'gzip'
p5520
(dp5521
g5507
I100
sg5508
I1
sg5509
g5513
ssS'du'
p5522
(dp5523
g5507
I100
sg5508
I1
sg5509
g5513
ssS'prefetch'
p5524
(dp5525
g5507
I100
sg5508
I1
sg5509
g5513
ssS'parscriptstylesheet'
p5526
(dp5527
g5507
I100
sg5508
I1
sg5509
g5513
ssS'cacheredir'
p5528
(dp5529
g5507
I100
sg5508
I1
sg5509
g5513
ssS'parscriptscript'
p5530
(dp5531
g5507
I100
sg5508
I1
sg5509
g5513
ssS'maxconn'
p5532
(dp5533
g5507
I100
sg5508
I30
sg5509
S'30'
p5534
ssS'parsheet'
p5535
(dp5536
g5507
I100
sg5508
I1
sg5509
g5513
ssS'hostconn'
p5537
(dp5538
g5507
I100
sg5508
I6
sg5509
g298
ssssVMy Internet Browser 3
p5539
(dp5540
S'summary_display'
p5541
S'7/14'
p5542
sS'total_runs'
p5543
L1L
sS'summary_score'
p5544
I50
sS'results'
p5545
(dp5546
S'parscriptiframe'
p5547
(dp5548
S'score'
p5549
I0
sS'raw_score'
p5550
NsS'display'
p5551
g14
ssS'parscriptimage'
p5552
(dp5553
g5549
I0
sg5550
Nsg5551
g14
ssS'cacheexp'
p5554
(dp5555
g5549
I100
sg5550
I1
sg5551
S'yes'
p5556
ssS'cacheresredir'
p5557
(dp5558
g5549
I1
sg5550
I0
sg5551
S'no'
p5559
ssS'parcssjs'
p5560
(dp5561
g5549
I1
sg5550
I0
sg5551
g5559
ssS'gzip'
p5562
(dp5563
g5549
I100
sg5550
I1
sg5551
g5556
ssS'du'
p5564
(dp5565
g5549
I100
sg5550
I1
sg5551
g5556
ssS'prefetch'
p5566
(dp5567
g5549
I100
sg5550
I1
sg5551
g5556
ssS'parscriptstylesheet'
p5568
(dp5569
g5549
I0
sg5550
Nsg5551
g14
ssS'cacheredir'
p5570
(dp5571
g5549
I1
sg5550
I0
sg5551
g5559
ssS'parscriptscript'
p5572
(dp5573
g5549
I0
sg5550
Nsg5551
g14
ssS'maxconn'
p5574
(dp5575
g5549
I100
sg5550
I30
sg5551
S'30'
p5576
ssS'parsheet'
p5577
(dp5578
g5549
I100
sg5550
I1
sg5551
g5556
ssS'hostconn'
p5579
(dp5580
g5549
I100
sg5550
I6
sg5551
g298
ssssVOpera 10
p5581
(dp5582
S'summary_display'
p5583
S'6/14'
p5584
sS'total_runs'
p5585
L2435L
sS'summary_score'
p5586
I43
sS'results'
p5587
(dp5588
S'parscriptiframe'
p5589
(dp5590
S'score'
p5591
I1
sS'raw_score'
p5592
I0
sS'display'
p5593
S'no'
p5594
ssS'parscriptimage'
p5595
(dp5596
g5591
I1
sg5592
I0
sg5593
g5594
ssS'cacheexp'
p5597
(dp5598
g5591
I100
sg5592
I1
sg5593
S'yes'
p5599
ssS'cacheresredir'
p5600
(dp5601
g5591
I100
sg5592
I1
sg5593
g5599
ssS'parcssjs'
p5602
(dp5603
g5591
I1
sg5592
I0
sg5593
g5594
ssS'gzip'
p5604
(dp5605
g5591
I100
sg5592
I1
sg5593
g5599
ssS'du'
p5606
(dp5607
g5591
I100
sg5592
I1
sg5593
g5599
ssS'prefetch'
p5608
(dp5609
g5591
I1
sg5592
I0
sg5593
g5594
ssS'parscriptstylesheet'
p5610
(dp5611
g5591
I1
sg5592
I0
sg5593
g5594
ssS'cacheredir'
p5612
(dp5613
g5591
I1
sg5592
I0
sg5593
g5594
ssS'parscriptscript'
p5614
(dp5615
g5591
I1
sg5592
I0
sg5593
g5594
ssS'maxconn'
p5616
(dp5617
g5591
I50
sg5592
I20
sg5593
S'20'
p5618
ssS'parsheet'
p5619
(dp5620
g5591
I100
sg5592
I1
sg5593
g5599
ssS'hostconn'
p5621
(dp5622
g5591
I100
sg5592
I4
sg5593
g251
ssssVSpace Bison 0
p5623
(dp5624
S'summary_display'
p5625
S'6/14'
p5626
sS'total_runs'
p5627
L7L
sS'summary_score'
p5628
I43
sS'results'
p5629
(dp5630
S'parscriptiframe'
p5631
(dp5632
S'score'
p5633
I0
sS'raw_score'
p5634
NsS'display'
p5635
g14
ssS'parscriptimage'
p5636
(dp5637
g5633
I0
sg5634
Nsg5635
g14
ssS'cacheexp'
p5638
(dp5639
g5633
I100
sg5634
I1
sg5635
S'yes'
p5640
ssS'cacheresredir'
p5641
(dp5642
g5633
I1
sg5634
I0
sg5635
S'no'
p5643
ssS'parcssjs'
p5644
(dp5645
g5633
I1
sg5634
I0
sg5635
g5643
ssS'gzip'
p5646
(dp5647
g5633
I100
sg5634
I1
sg5635
g5640
ssS'du'
p5648
(dp5649
g5633
I100
sg5634
I1
sg5635
g5640
ssS'prefetch'
p5650
(dp5651
g5633
I1
sg5634
I0
sg5635
g5643
ssS'parscriptstylesheet'
p5652
(dp5653
g5633
I0
sg5634
Nsg5635
g14
ssS'cacheredir'
p5654
(dp5655
g5633
I1
sg5634
I0
sg5635
g5643
ssS'parscriptscript'
p5656
(dp5657
g5633
I0
sg5634
Nsg5635
g14
ssS'maxconn'
p5658
(dp5659
g5633
I100
sg5634
I59
sg5635
S'59'
p5660
ssS'parsheet'
p5661
(dp5662
g5633
I100
sg5634
I1
sg5635
g5640
ssS'hostconn'
p5663
(dp5664
g5633
I100
sg5634
I9
sg5635
g213
ssssVFlock 0
p5665
(dp5666
S'summary_display'
p5667
S'7/14'
p5668
sS'total_runs'
p5669
L1L
sS'summary_score'
p5670
I50
sS'results'
p5671
(dp5672
S'parscriptiframe'
p5673
(dp5674
S'score'
p5675
I0
sS'raw_score'
p5676
NsS'display'
p5677
g14
ssS'parscriptimage'
p5678
(dp5679
g5675
I0
sg5676
Nsg5677
g14
ssS'cacheexp'
p5680
(dp5681
g5675
I100
sg5676
I1
sg5677
S'yes'
p5682
ssS'cacheresredir'
p5683
(dp5684
g5675
I100
sg5676
I1
sg5677
g5682
ssS'parcssjs'
p5685
(dp5686
g5675
I1
sg5676
I0
sg5677
S'no'
p5687
ssS'gzip'
p5688
(dp5689
g5675
I100
sg5676
I1
sg5677
g5682
ssS'du'
p5690
(dp5691
g5675
I100
sg5676
I1
sg5677
g5682
ssS'prefetch'
p5692
(dp5693
g5675
I100
sg5676
I1
sg5677
g5682
ssS'parscriptstylesheet'
p5694
(dp5695
g5675
I0
sg5676
Nsg5677
g14
ssS'cacheredir'
p5696
(dp5697
g5675
I100
sg5676
I1
sg5677
g5682
ssS'parscriptscript'
p5698
(dp5699
g5675
I0
sg5676
Nsg5677
g14
ssS'maxconn'
p5700
(dp5701
g5675
I100
sg5676
I24
sg5677
S'24'
p5702
ssS'parsheet'
p5703
(dp5704
g5675
I1
sg5676
I0
sg5677
g5687
ssS'hostconn'
p5705
(dp5706
g5675
I50
sg5676
I2
sg5677
g44
ssssVFlock 1
p5707
(dp5708
S'summary_display'
p5709
S'7/14'
p5710
sS'total_runs'
p5711
L9L
sS'summary_score'
p5712
I50
sS'results'
p5713
(dp5714
S'parscriptiframe'
p5715
(dp5716
S'score'
p5717
I0
sS'raw_score'
p5718
NsS'display'
p5719
g14
ssS'parscriptimage'
p5720
(dp5721
g5717
I0
sg5718
Nsg5719
g14
ssS'cacheexp'
p5722
(dp5723
g5717
I100
sg5718
I1
sg5719
S'yes'
p5724
ssS'cacheresredir'
p5725
(dp5726
g5717
I100
sg5718
I1
sg5719
g5724
ssS'parcssjs'
p5727
(dp5728
g5717
I1
sg5718
I0
sg5719
S'no'
p5729
ssS'gzip'
p5730
(dp5731
g5717
I100
sg5718
I1
sg5719
g5724
ssS'du'
p5732
(dp5733
g5717
I100
sg5718
I1
sg5719
g5724
ssS'prefetch'
p5734
(dp5735
g5717
I100
sg5718
I1
sg5719
g5724
ssS'parscriptstylesheet'
p5736
(dp5737
g5717
I0
sg5718
Nsg5719
g14
ssS'cacheredir'
p5738
(dp5739
g5717
I100
sg5718
I1
sg5719
g5724
ssS'parscriptscript'
p5740
(dp5741
g5717
I0
sg5718
Nsg5719
g14
ssS'maxconn'
p5742
(dp5743
g5717
I100
sg5718
I31
sg5719
S'31'
p5744
ssS'parsheet'
p5745
(dp5746
g5717
I1
sg5718
I0
sg5719
g5729
ssS'hostconn'
p5747
(dp5748
g5717
I50
sg5718
I2
sg5719
g44
ssssVFlock 2
p5749
(dp5750
S'summary_display'
p5751
S'7/14'
p5752
sS'total_runs'
p5753
L37L
sS'summary_score'
p5754
I50
sS'results'
p5755
(dp5756
S'parscriptiframe'
p5757
(dp5758
S'score'
p5759
I1
sS'raw_score'
p5760
I0
sS'display'
p5761
S'no'
p5762
ssS'parscriptimage'
p5763
(dp5764
g5759
I1
sg5760
I0
sg5761
g5762
ssS'cacheexp'
p5765
(dp5766
g5759
I100
sg5760
I1
sg5761
S'yes'
p5767
ssS'cacheresredir'
p5768
(dp5769
g5759
I1
sg5760
I0
sg5761
g5762
ssS'parcssjs'
p5770
(dp5771
g5759
I1
sg5760
I0
sg5761
g5762
ssS'gzip'
p5772
(dp5773
g5759
I100
sg5760
I1
sg5761
g5767
ssS'du'
p5774
(dp5775
g5759
I100
sg5760
I1
sg5761
g5767
ssS'prefetch'
p5776
(dp5777
g5759
I100
sg5760
I1
sg5761
g5767
ssS'parscriptstylesheet'
p5778
(dp5779
g5759
I1
sg5760
I0
sg5761
g5762
ssS'cacheredir'
p5780
(dp5781
g5759
I1
sg5760
I0
sg5761
g5762
ssS'parscriptscript'
p5782
(dp5783
g5759
I1
sg5760
I0
sg5761
g5762
ssS'maxconn'
p5784
(dp5785
g5759
I100
sg5760
I32
sg5761
S'32'
p5786
ssS'parsheet'
p5787
(dp5788
g5759
I100
sg5760
I1
sg5761
g5767
ssS'hostconn'
p5789
(dp5790
g5759
I100
sg5760
I6
sg5761
g298
ssssVOrca 1
p5791
(dp5792
S'summary_display'
p5793
S'11/14'
p5794
sS'total_runs'
p5795
L2L
sS'summary_score'
p5796
I79
sS'results'
p5797
(dp5798
S'parscriptiframe'
p5799
(dp5800
S'score'
p5801
I1
sS'raw_score'
p5802
I0
sS'display'
p5803
S'no'
p5804
ssS'parscriptimage'
p5805
(dp5806
g5801
I1
sg5802
I0
sg5803
g5804
ssS'cacheexp'
p5807
(dp5808
g5801
I100
sg5802
I1
sg5803
S'yes'
p5809
ssS'cacheresredir'
p5810
(dp5811
g5801
I100
sg5802
I1
sg5803
g5809
ssS'parcssjs'
p5812
(dp5813
g5801
I1
sg5802
I0
sg5803
g5804
ssS'gzip'
p5814
(dp5815
g5801
I100
sg5802
I1
sg5803
g5809
ssS'du'
p5816
(dp5817
g5801
I100
sg5802
I1
sg5803
g5809
ssS'prefetch'
p5818
(dp5819
g5801
I100
sg5802
I1
sg5803
g5809
ssS'parscriptstylesheet'
p5820
(dp5821
g5801
I100
sg5802
I1
sg5803
g5809
ssS'cacheredir'
p5822
(dp5823
g5801
I100
sg5802
I1
sg5803
g5809
ssS'parscriptscript'
p5824
(dp5825
g5801
I100
sg5802
I1
sg5803
g5809
ssS'maxconn'
p5826
(dp5827
g5801
I100
sg5802
I50
sg5803
S'50'
p5828
ssS'parsheet'
p5829
(dp5830
g5801
I100
sg5802
I1
sg5803
g5809
ssS'hostconn'
p5831
(dp5832
g5801
I100
sg5802
I12
sg5803
S'12'
p5833
ssssVLinks 2
p5834
(dp5835
S'summary_display'
p5836
S'8/14'
p5837
sS'total_runs'
p5838
L1L
sS'summary_score'
p5839
I57
sS'results'
p5840
(dp5841
S'parscriptiframe'
p5842
(dp5843
S'score'
p5844
I0
sS'raw_score'
p5845
NsS'display'
p5846
g14
ssS'parscriptimage'
p5847
(dp5848
g5844
I0
sg5845
Nsg5846
g14
ssS'cacheexp'
p5849
(dp5850
g5844
I100
sg5845
I1
sg5846
S'yes'
p5851
ssS'cacheresredir'
p5852
(dp5853
g5844
I100
sg5845
I1
sg5846
g5851
ssS'parcssjs'
p5854
(dp5855
g5844
I1
sg5845
I0
sg5846
S'no'
p5856
ssS'gzip'
p5857
(dp5858
g5844
I1
sg5845
I0
sg5846
g5856
ssS'du'
p5859
(dp5860
g5844
I100
sg5845
I1
sg5846
g5851
ssS'prefetch'
p5861
(dp5862
g5844
I100
sg5845
I1
sg5846
g5851
ssS'parscriptstylesheet'
p5863
(dp5864
g5844
I0
sg5845
Nsg5846
g14
ssS'cacheredir'
p5865
(dp5866
g5844
I100
sg5845
I1
sg5846
g5851
ssS'parscriptscript'
p5867
(dp5868
g5844
I0
sg5845
Nsg5846
g14
ssS'maxconn'
p5869
(dp5870
g5844
I100
sg5845
I30
sg5846
S'30'
p5871
ssS'parsheet'
p5872
(dp5873
g5844
I100
sg5845
I1
sg5846
g5851
ssS'hostconn'
p5874
(dp5875
g5844
I100
sg5845
I15
sg5846
S'15'
p5876
ssssVBolt 0
p5877
(dp5878
S'summary_display'
p5879
S'5/14'
p5880
sS'total_runs'
p5881
L2L
sS'summary_score'
p5882
I36
sS'results'
p5883
(dp5884
S'parscriptiframe'
p5885
(dp5886
S'score'
p5887
I0
sS'raw_score'
p5888
NsS'display'
p5889
g14
ssS'parscriptimage'
p5890
(dp5891
g5887
I0
sg5888
Nsg5889
g14
ssS'cacheexp'
p5892
(dp5893
g5887
I1
sg5888
I0
sg5889
S'no'
p5894
ssS'cacheresredir'
p5895
(dp5896
g5887
I1
sg5888
I0
sg5889
g5894
ssS'parcssjs'
p5897
(dp5898
g5887
I1
sg5888
I0
sg5889
g5894
ssS'gzip'
p5899
(dp5900
g5887
I100
sg5888
I1
sg5889
S'yes'
p5901
ssS'du'
p5902
(dp5903
g5887
I100
sg5888
I1
sg5889
g5901
ssS'prefetch'
p5904
(dp5905
g5887
I1
sg5888
I0
sg5889
g5894
ssS'parscriptstylesheet'
p5906
(dp5907
g5887
I0
sg5888
Nsg5889
g14
ssS'cacheredir'
p5908
(dp5909
g5887
I100
sg5888
I1
sg5889
g5901
ssS'parscriptscript'
p5910
(dp5911
g5887
I0
sg5888
Nsg5889
g14
ssS'maxconn'
p5912
(dp5913
g5887
I1
sg5888
I5
sg5889
g550
ssS'parsheet'
p5914
(dp5915
g5887
I100
sg5888
I1
sg5889
g5901
ssS'hostconn'
p5916
(dp5917
g5887
I100
sg5888
I5
sg5889
g550
ssssVEpiphany 2
p5918
(dp5919
S'summary_display'
p5920
S'8/14'
p5921
sS'total_runs'
p5922
L54L
sS'summary_score'
p5923
I57
sS'results'
p5924
(dp5925
S'parscriptiframe'
p5926
(dp5927
S'score'
p5928
I0
sS'raw_score'
p5929
NsS'display'
p5930
g14
ssS'parscriptimage'
p5931
(dp5932
g5928
I0
sg5929
Nsg5930
g14
ssS'cacheexp'
p5933
(dp5934
g5928
I100
sg5929
I1
sg5930
S'yes'
p5935
ssS'cacheresredir'
p5936
(dp5937
g5928
I100
sg5929
I1
sg5930
g5935
ssS'parcssjs'
p5938
(dp5939
g5928
I1
sg5929
I0
sg5930
S'no'
p5940
ssS'gzip'
p5941
(dp5942
g5928
I100
sg5929
I1
sg5930
g5935
ssS'du'
p5943
(dp5944
g5928
I100
sg5929
I1
sg5930
g5935
ssS'prefetch'
p5945
(dp5946
g5928
I100
sg5929
I1
sg5930
g5935
ssS'parscriptstylesheet'
p5947
(dp5948
g5928
I0
sg5929
Nsg5930
g14
ssS'cacheredir'
p5949
(dp5950
g5928
I1
sg5929
I0
sg5930
g5940
ssS'parscriptscript'
p5951
(dp5952
g5928
I0
sg5929
Nsg5930
g14
ssS'maxconn'
p5953
(dp5954
g5928
I100
sg5929
I30
sg5930
S'30'
p5955
ssS'parsheet'
p5956
(dp5957
g5928
I100
sg5929
I1
sg5930
g5935
ssS'hostconn'
p5958
(dp5959
g5928
I100
sg5929
I6
sg5930
g298
ssssS'total_runs'
p5960
L31133L
sVPlayStation Portable 2
p5961
(dp5962
S'summary_display'
p5963
S'0/14'
p5964
sS'total_runs'
p5965
L2L
sS'summary_score'
p5966
I0
sS'results'
p5967
(dp5968
S'parscriptiframe'
p5969
(dp5970
S'score'
p5971
I0
sS'raw_score'
p5972
NsS'display'
p5973
g14
ssS'parscriptimage'
p5974
(dp5975
g5971
I0
sg5972
Nsg5973
g14
ssS'cacheexp'
p5976
(dp5977
g5971
I1
sg5972
I0
sg5973
S'no'
p5978
ssS'cacheresredir'
p5979
(dp5980
g5971
I1
sg5972
I0
sg5973
g5978
ssS'parcssjs'
p5981
(dp5982
g5971
I1
sg5972
I0
sg5973
g5978
ssS'gzip'
p5983
(dp5984
g5971
I1
sg5972
I0
sg5973
g5978
ssS'du'
p5985
(dp5986
g5971
I1
sg5972
I0
sg5973
g5978
ssS'prefetch'
p5987
(dp5988
g5971
I1
sg5972
I0
sg5973
g5978
ssS'parscriptstylesheet'
p5989
(dp5990
g5971
I0
sg5972
Nsg5973
g14
ssS'cacheredir'
p5991
(dp5992
g5971
I1
sg5972
I0
sg5973
g5978
ssS'parscriptscript'
p5993
(dp5994
g5971
I0
sg5972
Nsg5973
g14
ssS'maxconn'
p5995
(dp5996
g5971
I0
sg5972
I0
sg5973
g629
ssS'parsheet'
p5997
(dp5998
g5971
I1
sg5972
I0
sg5973
g5978
ssS'hostconn'
p5999
(dp6000
g5971
I0
sg5972
I0
sg5973
g629
ssssVBlackberry 8320
p6001
(dp6002
S'summary_display'
p6003
S'5/14'
p6004
sS'total_runs'
p6005
L2L
sS'summary_score'
p6006
I36
sS'results'
p6007
(dp6008
S'parscriptiframe'
p6009
(dp6010
S'score'
p6011
I0
sS'raw_score'
p6012
NsS'display'
p6013
g14
ssS'parscriptimage'
p6014
(dp6015
g6011
I0
sg6012
Nsg6013
g14
ssS'cacheexp'
p6016
(dp6017
g6011
I100
sg6012
I1
sg6013
S'yes'
p6018
ssS'cacheresredir'
p6019
(dp6020
g6011
I100
sg6012
I1
sg6013
g6018
ssS'parcssjs'
p6021
(dp6022
g6011
I1
sg6012
I0
sg6013
S'no'
p6023
ssS'gzip'
p6024
(dp6025
g6011
I1
sg6012
I0
sg6013
g6023
ssS'du'
p6026
(dp6027
g6011
I1
sg6012
I0
sg6013
g6023
ssS'prefetch'
p6028
(dp6029
g6011
I100
sg6012
I1
sg6013
g6018
ssS'parscriptstylesheet'
p6030
(dp6031
g6011
I0
sg6012
Nsg6013
g14
ssS'cacheredir'
p6032
(dp6033
g6011
I1
sg6012
I0
sg6013
g6023
ssS'parscriptscript'
p6034
(dp6035
g6011
I0
sg6012
Nsg6013
g14
ssS'maxconn'
p6036
(dp6037
g6011
I1
sg6012
I8
sg6013
g87
ssS'parsheet'
p6038
(dp6039
g6011
I100
sg6012
I1
sg6013
g6018
ssS'hostconn'
p6040
(dp6041
g6011
I100
sg6012
I8
sg6013
g87
ssssVOmniWeb 558
p6042
(dp6043
S'summary_display'
p6044
S'4/14'
p6045
sS'total_runs'
p6046
L1L
sS'summary_score'
p6047
I29
sS'results'
p6048
(dp6049
S'parscriptiframe'
p6050
(dp6051
S'score'
p6052
I0
sS'raw_score'
p6053
NsS'display'
p6054
g14
ssS'parscriptimage'
p6055
(dp6056
g6052
I0
sg6053
Nsg6054
g14
ssS'cacheexp'
p6057
(dp6058
g6052
I1
sg6053
I0
sg6054
S'no'
p6059
ssS'cacheresredir'
p6060
(dp6061
g6052
I100
sg6053
I1
sg6054
S'yes'
p6062
ssS'parcssjs'
p6063
(dp6064
g6052
I1
sg6053
I0
sg6054
g6059
ssS'gzip'
p6065
(dp6066
g6052
I100
sg6053
I1
sg6054
g6062
ssS'du'
p6067
(dp6068
g6052
I100
sg6053
I1
sg6054
g6062
ssS'prefetch'
p6069
(dp6070
g6052
I1
sg6053
I0
sg6054
g6059
ssS'parscriptstylesheet'
p6071
(dp6072
g6052
I0
sg6053
Nsg6054
g14
ssS'cacheredir'
p6073
(dp6074
g6052
I1
sg6053
I0
sg6054
g6059
ssS'parscriptscript'
p6075
(dp6076
g6052
I0
sg6053
Nsg6054
g14
ssS'maxconn'
p6077
(dp6078
g6052
I50
sg6053
I10
sg6054
S'10'
p6079
ssS'parsheet'
p6080
(dp6081
g6052
I1
sg6053
I0
sg6054
g6059
ssS'hostconn'
p6082
(dp6083
g6052
I100
sg6053
I4
sg6054
g251
ssssVNokia 5800
p6084
(dp6085
S'summary_display'
p6086
S'7/14'
p6087
sS'total_runs'
p6088
L4L
sS'summary_score'
p6089
I50
sS'results'
p6090
(dp6091
S'parscriptiframe'
p6092
(dp6093
S'score'
p6094
I0
sS'raw_score'
p6095
NsS'display'
p6096
g14
ssS'parscriptimage'
p6097
(dp6098
g6094
I0
sg6095
Nsg6096
g14
ssS'cacheexp'
p6099
(dp6100
g6094
I100
sg6095
I1
sg6096
S'yes'
p6101
ssS'cacheresredir'
p6102
(dp6103
g6094
I100
sg6095
I1
sg6096
g6101
ssS'parcssjs'
p6104
(dp6105
g6094
I1
sg6095
I0
sg6096
S'no'
p6106
ssS'gzip'
p6107
(dp6108
g6094
I100
sg6095
I1
sg6096
g6101
ssS'du'
p6109
(dp6110
g6094
I100
sg6095
I1
sg6096
g6101
ssS'prefetch'
p6111
(dp6112
g6094
I100
sg6095
I1
sg6096
g6101
ssS'parscriptstylesheet'
p6113
(dp6114
g6094
I0
sg6095
Nsg6096
g14
ssS'cacheredir'
p6115
(dp6116
g6094
I100
sg6095
I1
sg6096
g6101
ssS'parscriptscript'
p6117
(dp6118
g6094
I0
sg6095
Nsg6096
g14
ssS'maxconn'
p6119
(dp6120
g6094
I1
sg6095
I8
sg6096
g87
ssS'parsheet'
p6121
(dp6122
g6094
I1
sg6095
I0
sg6096
g6106
ssS'hostconn'
p6123
(dp6124
g6094
I100
sg6095
I8
sg6096
g87
ssssVBlackberry 8120
p6125
(dp6126
S'summary_display'
p6127
S'6/14'
p6128
sS'total_runs'
p6129
L1L
sS'summary_score'
p6130
I43
sS'results'
p6131
(dp6132
S'parscriptiframe'
p6133
(dp6134
S'score'
p6135
I0
sS'raw_score'
p6136
NsS'display'
p6137
g14
ssS'parscriptimage'
p6138
(dp6139
g6135
I0
sg6136
Nsg6137
g14
ssS'cacheexp'
p6140
(dp6141
g6135
I100
sg6136
I1
sg6137
S'yes'
p6142
ssS'cacheresredir'
p6143
(dp6144
g6135
I100
sg6136
I1
sg6137
g6142
ssS'parcssjs'
p6145
(dp6146
g6135
I100
sg6136
I1
sg6137
g6142
ssS'gzip'
p6147
(dp6148
g6135
I100
sg6136
I1
sg6137
g6142
ssS'du'
p6149
(dp6150
g6135
I1
sg6136
I0
sg6137
S'no'
p6151
ssS'prefetch'
p6152
(dp6153
g6135
I100
sg6136
I1
sg6137
g6142
ssS'parscriptstylesheet'
p6154
(dp6155
g6135
I0
sg6136
Nsg6137
g14
ssS'cacheredir'
p6156
(dp6157
g6135
I1
sg6136
I0
sg6137
g6151
ssS'parscriptscript'
p6158
(dp6159
g6135
I0
sg6136
Nsg6137
g14
ssS'maxconn'
p6160
(dp6161
g6135
I0
sg6136
I0
sg6137
g629
ssS'parsheet'
p6162
(dp6163
g6135
I100
sg6136
I1
sg6137
g6142
ssS'hostconn'
p6164
(dp6165
g6135
I0
sg6136
I0
sg6137
g629
ssssVKonqueror 3
p6166
(dp6167
S'summary_display'
p6168
S'6/14'
p6169
sS'total_runs'
p6170
L76L
sS'summary_score'
p6171
I43
sS'results'
p6172
(dp6173
S'parscriptiframe'
p6174
(dp6175
S'score'
p6176
I0
sS'raw_score'
p6177
NsS'display'
p6178
g14
ssS'parscriptimage'
p6179
(dp6180
g6176
I0
sg6177
Nsg6178
g14
ssS'cacheexp'
p6181
(dp6182
g6176
I100
sg6177
I1
sg6178
S'yes'
p6183
ssS'cacheresredir'
p6184
(dp6185
g6176
I100
sg6177
I1
sg6178
g6183
ssS'parcssjs'
p6186
(dp6187
g6176
I1
sg6177
I0
sg6178
S'no'
p6188
ssS'gzip'
p6189
(dp6190
g6176
I100
sg6177
I1
sg6178
g6183
ssS'du'
p6191
(dp6192
g6176
I100
sg6177
I1
sg6178
g6183
ssS'prefetch'
p6193
(dp6194
g6176
I1
sg6177
I0
sg6178
g6188
ssS'parscriptstylesheet'
p6195
(dp6196
g6176
I0
sg6177
Nsg6178
g14
ssS'cacheredir'
p6197
(dp6198
g6176
I1
sg6177
I0
sg6178
g6188
ssS'parscriptscript'
p6199
(dp6200
g6176
I0
sg6177
Nsg6178
g14
ssS'maxconn'
p6201
(dp6202
g6176
I1
sg6177
I5
sg6178
g550
ssS'parsheet'
p6203
(dp6204
g6176
I100
sg6177
I1
sg6178
g6183
ssS'hostconn'
p6205
(dp6206
g6176
I100
sg6177
I5
sg6178
g550
ssssVBlackberry 8800
p6207
(dp6208
S'summary_display'
p6209
S'5/14'
p6210
sS'total_runs'
p6211
L1L
sS'summary_score'
p6212
I36
sS'results'
p6213
(dp6214
S'parscriptiframe'
p6215
(dp6216
S'score'
p6217
I0
sS'raw_score'
p6218
NsS'display'
p6219
g14
ssS'parscriptimage'
p6220
(dp6221
g6217
I0
sg6218
Nsg6219
g14
ssS'cacheexp'
p6222
(dp6223
g6217
I100
sg6218
I1
sg6219
S'yes'
p6224
ssS'cacheresredir'
p6225
(dp6226
g6217
I100
sg6218
I1
sg6219
g6224
ssS'parcssjs'
p6227
(dp6228
g6217
I1
sg6218
I0
sg6219
S'no'
p6229
ssS'gzip'
p6230
(dp6231
g6217
I1
sg6218
I0
sg6219
g6229
ssS'du'
p6232
(dp6233
g6217
I1
sg6218
I0
sg6219
g6229
ssS'prefetch'
p6234
(dp6235
g6217
I100
sg6218
I1
sg6219
g6224
ssS'parscriptstylesheet'
p6236
(dp6237
g6217
I0
sg6218
Nsg6219
g14
ssS'cacheredir'
p6238
(dp6239
g6217
I1
sg6218
I0
sg6219
g6229
ssS'parscriptscript'
p6240
(dp6241
g6217
I0
sg6218
Nsg6219
g14
ssS'maxconn'
p6242
(dp6243
g6217
I1
sg6218
I4
sg6219
g251
ssS'parsheet'
p6244
(dp6245
g6217
I100
sg6218
I1
sg6219
g6224
ssS'hostconn'
p6246
(dp6247
g6217
I100
sg6218
I4
sg6219
g251
ssssVKonqueror 4
p6248
(dp6249
S'summary_display'
p6250
S'6/14'
p6251
sS'total_runs'
p6252
L124L
sS'summary_score'
p6253
I43
sS'results'
p6254
(dp6255
S'parscriptiframe'
p6256
(dp6257
S'score'
p6258
I0
sS'raw_score'
p6259
NsS'display'
p6260
g14
ssS'parscriptimage'
p6261
(dp6262
g6258
I0
sg6259
Nsg6260
g14
ssS'cacheexp'
p6263
(dp6264
g6258
I100
sg6259
I1
sg6260
S'yes'
p6265
ssS'cacheresredir'
p6266
(dp6267
g6258
I100
sg6259
I1
sg6260
g6265
ssS'parcssjs'
p6268
(dp6269
g6258
I1
sg6259
I0
sg6260
S'no'
p6270
ssS'gzip'
p6271
(dp6272
g6258
I100
sg6259
I1
sg6260
g6265
ssS'du'
p6273
(dp6274
g6258
I100
sg6259
I1
sg6260
g6265
ssS'prefetch'
p6275
(dp6276
g6258
I1
sg6259
I0
sg6260
g6270
ssS'parscriptstylesheet'
p6277
(dp6278
g6258
I0
sg6259
Nsg6260
g14
ssS'cacheredir'
p6279
(dp6280
g6258
I1
sg6259
I0
sg6260
g6270
ssS'parscriptscript'
p6281
(dp6282
g6258
I0
sg6259
Nsg6260
g14
ssS'maxconn'
p6283
(dp6284
g6258
I1
sg6259
I5
sg6260
g550
ssS'parsheet'
p6285
(dp6286
g6258
I100
sg6259
I1
sg6260
g6265
ssS'hostconn'
p6287
(dp6288
g6258
I100
sg6259
I5
sg6260
g550
ssssVCamino 2
p6289
(dp6290
S'summary_display'
p6291
S'7/14'
p6292
sS'total_runs'
p6293
L18L
sS'summary_score'
p6294
I50
sS'results'
p6295
(dp6296
S'parscriptiframe'
p6297
(dp6298
S'score'
p6299
I1
sS'raw_score'
p6300
I0
sS'display'
p6301
S'no'
p6302
ssS'parscriptimage'
p6303
(dp6304
g6299
I1
sg6300
I0
sg6301
g6302
ssS'cacheexp'
p6305
(dp6306
g6299
I100
sg6300
I1
sg6301
S'yes'
p6307
ssS'cacheresredir'
p6308
(dp6309
g6299
I1
sg6300
I0
sg6301
g6302
ssS'parcssjs'
p6310
(dp6311
g6299
I1
sg6300
I0
sg6301
g6302
ssS'gzip'
p6312
(dp6313
g6299
I100
sg6300
I1
sg6301
g6307
ssS'du'
p6314
(dp6315
g6299
I100
sg6300
I1
sg6301
g6307
ssS'prefetch'
p6316
(dp6317
g6299
I100
sg6300
I1
sg6301
g6307
ssS'parscriptstylesheet'
p6318
(dp6319
g6299
I1
sg6300
I0
sg6301
g6302
ssS'cacheredir'
p6320
(dp6321
g6299
I1
sg6300
I0
sg6301
g6302
ssS'parscriptscript'
p6322
(dp6323
g6299
I1
sg6300
I0
sg6301
g6302
ssS'maxconn'
p6324
(dp6325
g6299
I100
sg6300
I30
sg6301
S'30'
p6326
ssS'parsheet'
p6327
(dp6328
g6299
I100
sg6300
I1
sg6301
g6307
ssS'hostconn'
p6329
(dp6330
g6299
I100
sg6300
I6
sg6301
g298
ssssVCamino 1
p6331
(dp6332
S'summary_display'
p6333
S'7/14'
p6334
sS'total_runs'
p6335
L55L
sS'summary_score'
p6336
I50
sS'results'
p6337
(dp6338
S'parscriptiframe'
p6339
(dp6340
S'score'
p6341
I0
sS'raw_score'
p6342
NsS'display'
p6343
g14
ssS'parscriptimage'
p6344
(dp6345
g6341
I0
sg6342
Nsg6343
g14
ssS'cacheexp'
p6346
(dp6347
g6341
I100
sg6342
I1
sg6343
S'yes'
p6348
ssS'cacheresredir'
p6349
(dp6350
g6341
I100
sg6342
I1
sg6343
g6348
ssS'parcssjs'
p6351
(dp6352
g6341
I1
sg6342
I0
sg6343
S'no'
p6353
ssS'gzip'
p6354
(dp6355
g6341
I100
sg6342
I1
sg6343
g6348
ssS'du'
p6356
(dp6357
g6341
I100
sg6342
I1
sg6343
g6348
ssS'prefetch'
p6358
(dp6359
g6341
I100
sg6342
I1
sg6343
g6348
ssS'parscriptstylesheet'
p6360
(dp6361
g6341
I0
sg6342
Nsg6343
g14
ssS'cacheredir'
p6362
(dp6363
g6341
I100
sg6342
I1
sg6343
g6348
ssS'parscriptscript'
p6364
(dp6365
g6341
I0
sg6342
Nsg6343
g14
ssS'maxconn'
p6366
(dp6367
g6341
I100
sg6342
I24
sg6343
S'24'
p6368
ssS'parsheet'
p6369
(dp6370
g6341
I1
sg6342
I0
sg6343
g6353
ssS'hostconn'
p6371
(dp6372
g6341
I50
sg6342
I2
sg6343
g44
ssssVJasmine 1
p6373
(dp6374
S'summary_display'
p6375
S'5/14'
p6376
sS'total_runs'
p6377
L7L
sS'summary_score'
p6378
I36
sS'results'
p6379
(dp6380
S'parscriptiframe'
p6381
(dp6382
S'score'
p6383
I0
sS'raw_score'
p6384
NsS'display'
p6385
g14
ssS'parscriptimage'
p6386
(dp6387
g6383
I0
sg6384
Nsg6385
g14
ssS'cacheexp'
p6388
(dp6389
g6383
I100
sg6384
I1
sg6385
S'yes'
p6390
ssS'cacheresredir'
p6391
(dp6392
g6383
I1
sg6384
I0
sg6385
S'no'
p6393
ssS'parcssjs'
p6394
(dp6395
g6383
I1
sg6384
I0
sg6385
g6393
ssS'gzip'
p6396
(dp6397
g6383
I100
sg6384
I1
sg6385
g6390
ssS'du'
p6398
(dp6399
g6383
I100
sg6384
I1
sg6385
g6390
ssS'prefetch'
p6400
(dp6401
g6383
I1
sg6384
I0
sg6385
g6393
ssS'parscriptstylesheet'
p6402
(dp6403
g6383
I0
sg6384
Nsg6385
g14
ssS'cacheredir'
p6404
(dp6405
g6383
I1
sg6384
I0
sg6385
g6393
ssS'parscriptscript'
p6406
(dp6407
g6383
I0
sg6384
Nsg6385
g14
ssS'maxconn'
p6408
(dp6409
g6383
I1
sg6384
I5
sg6385
g550
ssS'parsheet'
p6410
(dp6411
g6383
I100
sg6384
I1
sg6385
g6390
ssS'hostconn'
p6412
(dp6413
g6383
I100
sg6384
I5
sg6385
g550
ssssVNokia 3250
p6414
(dp6415
S'summary_display'
p6416
S'4/14'
p6417
sS'total_runs'
p6418
L3L
sS'summary_score'
p6419
I29
sS'results'
p6420
(dp6421
S'parscriptiframe'
p6422
(dp6423
S'score'
p6424
I0
sS'raw_score'
p6425
NsS'display'
p6426
g14
ssS'parscriptimage'
p6427
(dp6428
g6424
I0
sg6425
Nsg6426
g14
ssS'cacheexp'
p6429
(dp6430
g6424
I100
sg6425
I1
sg6426
S'yes'
p6431
ssS'cacheresredir'
p6432
(dp6433
g6424
I1
sg6425
I0
sg6426
S'no'
p6434
ssS'parcssjs'
p6435
(dp6436
g6424
I1
sg6425
I0
sg6426
g6434
ssS'gzip'
p6437
(dp6438
g6424
I100
sg6425
I1
sg6426
g6431
ssS'du'
p6439
(dp6440
g6424
I100
sg6425
I1
sg6426
g6431
ssS'prefetch'
p6441
(dp6442
g6424
I1
sg6425
I0
sg6426
g6434
ssS'parscriptstylesheet'
p6443
(dp6444
g6424
I0
sg6425
Nsg6426
g14
ssS'cacheredir'
p6445
(dp6446
g6424
I1
sg6425
I0
sg6426
g6434
ssS'parscriptscript'
p6447
(dp6448
g6424
I0
sg6425
Nsg6426
g14
ssS'maxconn'
p6449
(dp6450
g6424
I1
sg6425
I7
sg6426
g125
ssS'parsheet'
p6451
(dp6452
g6424
I1
sg6425
I0
sg6426
g6434
ssS'hostconn'
p6453
(dp6454
g6424
I100
sg6425
I7
sg6426
g125
ssssVNokia 75
p6455
(dp6456
S'summary_display'
p6457
S'4/14'
p6458
sS'total_runs'
p6459
L1L
sS'summary_score'
p6460
I29
sS'results'
p6461
(dp6462
S'parscriptiframe'
p6463
(dp6464
S'score'
p6465
I0
sS'raw_score'
p6466
NsS'display'
p6467
g14
ssS'parscriptimage'
p6468
(dp6469
g6465
I0
sg6466
Nsg6467
g14
ssS'cacheexp'
p6470
(dp6471
g6465
I100
sg6466
I1
sg6467
S'yes'
p6472
ssS'cacheresredir'
p6473
(dp6474
g6465
I1
sg6466
I0
sg6467
S'no'
p6475
ssS'parcssjs'
p6476
(dp6477
g6465
I1
sg6466
I0
sg6467
g6475
ssS'gzip'
p6478
(dp6479
g6465
I1
sg6466
I0
sg6467
g6475
ssS'du'
p6480
(dp6481
g6465
I100
sg6466
I1
sg6467
g6472
ssS'prefetch'
p6482
(dp6483
g6465
I1
sg6466
I0
sg6467
g6475
ssS'parscriptstylesheet'
p6484
(dp6485
g6465
I0
sg6466
Nsg6467
g14
ssS'cacheredir'
p6486
(dp6487
g6465
I1
sg6466
I0
sg6467
g6475
ssS'parscriptscript'
p6488
(dp6489
g6465
I0
sg6466
Nsg6467
g14
ssS'maxconn'
p6490
(dp6491
g6465
I50
sg6466
I14
sg6467
S'14'
p6492
ssS'parsheet'
p6493
(dp6494
g6465
I100
sg6466
I1
sg6467
g6472
ssS'hostconn'
p6495
(dp6496
g6465
I100
sg6466
I12
sg6467
S'12'
p6497
ssssVNokia 82
p6498
(dp6499
S'summary_display'
p6500
S'5/14'
p6501
sS'total_runs'
p6502
L3L
sS'summary_score'
p6503
I36
sS'results'
p6504
(dp6505
S'parscriptiframe'
p6506
(dp6507
S'score'
p6508
I0
sS'raw_score'
p6509
NsS'display'
p6510
g14
ssS'parscriptimage'
p6511
(dp6512
g6508
I0
sg6509
Nsg6510
g14
ssS'cacheexp'
p6513
(dp6514
g6508
I100
sg6509
I1
sg6510
S'yes'
p6515
ssS'cacheresredir'
p6516
(dp6517
g6508
I1
sg6509
I0
sg6510
S'no'
p6518
ssS'parcssjs'
p6519
(dp6520
g6508
I1
sg6509
I0
sg6510
g6518
ssS'gzip'
p6521
(dp6522
g6508
I100
sg6509
I1
sg6510
g6515
ssS'du'
p6523
(dp6524
g6508
I1
sg6509
I0
sg6510
g6518
ssS'prefetch'
p6525
(dp6526
g6508
I100
sg6509
I1
sg6510
g6515
ssS'parscriptstylesheet'
p6527
(dp6528
g6508
I0
sg6509
Nsg6510
g14
ssS'cacheredir'
p6529
(dp6530
g6508
I1
sg6509
I0
sg6510
g6518
ssS'parscriptscript'
p6531
(dp6532
g6508
I0
sg6509
Nsg6510
g14
ssS'maxconn'
p6533
(dp6534
g6508
I1
sg6509
I7
sg6510
g125
ssS'parsheet'
p6535
(dp6536
g6508
I100
sg6509
I1
sg6510
g6515
ssS'hostconn'
p6537
(dp6538
g6508
I100
sg6509
I7
sg6510
g125
ssssVBon Echo 2
p6539
(dp6540
S'summary_display'
p6541
S'8/14'
p6542
sS'total_runs'
p6543
L2L
sS'summary_score'
p6544
I57
sS'results'
p6545
(dp6546
S'parscriptiframe'
p6547
(dp6548
S'score'
p6549
I0
sS'raw_score'
p6550
NsS'display'
p6551
g14
ssS'parscriptimage'
p6552
(dp6553
g6549
I0
sg6550
Nsg6551
g14
ssS'cacheexp'
p6554
(dp6555
g6549
I100
sg6550
I1
sg6551
S'yes'
p6556
ssS'cacheresredir'
p6557
(dp6558
g6549
I100
sg6550
I1
sg6551
g6556
ssS'parcssjs'
p6559
(dp6560
g6549
I1
sg6550
I0
sg6551
S'no'
p6561
ssS'gzip'
p6562
(dp6563
g6549
I100
sg6550
I1
sg6551
g6556
ssS'du'
p6564
(dp6565
g6549
I100
sg6550
I1
sg6551
g6556
ssS'prefetch'
p6566
(dp6567
g6549
I100
sg6550
I1
sg6551
g6556
ssS'parscriptstylesheet'
p6568
(dp6569
g6549
I0
sg6550
Nsg6551
g14
ssS'cacheredir'
p6570
(dp6571
g6549
I100
sg6550
I1
sg6551
g6556
ssS'parscriptscript'
p6572
(dp6573
g6549
I0
sg6550
Nsg6551
g14
ssS'maxconn'
p6574
(dp6575
g6549
I100
sg6550
I49
sg6551
S'49'
p6576
ssS'parsheet'
p6577
(dp6578
g6549
I1
sg6550
I0
sg6551
g6561
ssS'hostconn'
p6579
(dp6580
g6549
I100
sg6550
I8
sg6551
g87
ssssVNokia 85
p6581
(dp6582
S'summary_display'
p6583
S'4/14'
p6584
sS'total_runs'
p6585
L1L
sS'summary_score'
p6586
I29
sS'results'
p6587
(dp6588
S'parscriptiframe'
p6589
(dp6590
S'score'
p6591
I0
sS'raw_score'
p6592
NsS'display'
p6593
g14
ssS'parscriptimage'
p6594
(dp6595
g6591
I0
sg6592
Nsg6593
g14
ssS'cacheexp'
p6596
(dp6597
g6591
I100
sg6592
I1
sg6593
S'yes'
p6598
ssS'cacheresredir'
p6599
(dp6600
g6591
I1
sg6592
I0
sg6593
S'no'
p6601
ssS'parcssjs'
p6602
(dp6603
g6591
I1
sg6592
I0
sg6593
g6601
ssS'gzip'
p6604
(dp6605
g6591
I100
sg6592
I1
sg6593
g6598
ssS'du'
p6606
(dp6607
g6591
I100
sg6592
I1
sg6593
g6598
ssS'prefetch'
p6608
(dp6609
g6591
I1
sg6592
I0
sg6593
g6601
ssS'parscriptstylesheet'
p6610
(dp6611
g6591
I0
sg6592
Nsg6593
g14
ssS'cacheredir'
p6612
(dp6613
g6591
I1
sg6592
I0
sg6593
g6601
ssS'parscriptscript'
p6614
(dp6615
g6591
I0
sg6592
Nsg6593
g14
ssS'maxconn'
p6616
(dp6617
g6591
I0
sg6592
I0
sg6593
g629
ssS'parsheet'
p6618
(dp6619
g6591
I100
sg6592
I1
sg6593
g6598
ssS'hostconn'
p6620
(dp6621
g6591
I0
sg6592
I0
sg6593
g629
ssssVPhoenix 0
p6622
(dp6623
S'summary_display'
p6624
S'5/14'
p6625
sS'total_runs'
p6626
L2L
sS'summary_score'
p6627
I36
sS'results'
p6628
(dp6629
S'parscriptiframe'
p6630
(dp6631
S'score'
p6632
I0
sS'raw_score'
p6633
NsS'display'
p6634
g14
ssS'parscriptimage'
p6635
(dp6636
g6632
I0
sg6633
Nsg6634
g14
ssS'cacheexp'
p6637
(dp6638
g6632
I100
sg6633
I1
sg6634
S'yes'
p6639
ssS'cacheresredir'
p6640
(dp6641
g6632
I100
sg6633
I1
sg6634
g6639
ssS'parcssjs'
p6642
(dp6643
g6632
I1
sg6633
I0
sg6634
S'no'
p6644
ssS'gzip'
p6645
(dp6646
g6632
I100
sg6633
I1
sg6634
g6639
ssS'du'
p6647
(dp6648
g6632
I100
sg6633
I1
sg6634
g6639
ssS'prefetch'
p6649
(dp6650
g6632
I1
sg6633
I0
sg6634
g6644
ssS'parscriptstylesheet'
p6651
(dp6652
g6632
I0
sg6633
Nsg6634
g14
ssS'cacheredir'
p6653
(dp6654
g6632
I1
sg6633
I0
sg6634
g6644
ssS'parscriptscript'
p6655
(dp6656
g6632
I0
sg6633
Nsg6634
g14
ssS'maxconn'
p6657
(dp6658
g6632
I100
sg6633
I24
sg6634
S'24'
p6659
ssS'parsheet'
p6660
(dp6661
g6632
I1
sg6633
I0
sg6634
g6644
ssS'hostconn'
p6662
(dp6663
g6632
I50
sg6633
I2
sg6634
g44
ssssVBlackberry 8100
p6664
(dp6665
S'summary_display'
p6666
S'5/14'
p6667
sS'total_runs'
p6668
L1L
sS'summary_score'
p6669
I36
sS'results'
p6670
(dp6671
S'parscriptiframe'
p6672
(dp6673
S'score'
p6674
I0
sS'raw_score'
p6675
NsS'display'
p6676
g14
ssS'parscriptimage'
p6677
(dp6678
g6674
I0
sg6675
Nsg6676
g14
ssS'cacheexp'
p6679
(dp6680
g6674
I100
sg6675
I1
sg6676
S'yes'
p6681
ssS'cacheresredir'
p6682
(dp6683
g6674
I100
sg6675
I1
sg6676
g6681
ssS'parcssjs'
p6684
(dp6685
g6674
I1
sg6675
I0
sg6676
S'no'
p6686
ssS'gzip'
p6687
(dp6688
g6674
I1
sg6675
I0
sg6676
g6686
ssS'du'
p6689
(dp6690
g6674
I1
sg6675
I0
sg6676
g6686
ssS'prefetch'
p6691
(dp6692
g6674
I100
sg6675
I1
sg6676
g6681
ssS'parscriptstylesheet'
p6693
(dp6694
g6674
I0
sg6675
Nsg6676
g14
ssS'cacheredir'
p6695
(dp6696
g6674
I1
sg6675
I0
sg6676
g6686
ssS'parscriptscript'
p6697
(dp6698
g6674
I0
sg6675
Nsg6676
g14
ssS'maxconn'
p6699
(dp6700
g6674
I1
sg6675
I8
sg6676
g87
ssS'parsheet'
p6701
(dp6702
g6674
I100
sg6675
I1
sg6676
g6681
ssS'hostconn'
p6703
(dp6704
g6674
I100
sg6675
I8
sg6676
g87
ssssVGaleon 2
p6705
(dp6706
S'summary_display'
p6707
S'7/14'
p6708
sS'total_runs'
p6709
L11L
sS'summary_score'
p6710
I50
sS'results'
p6711
(dp6712
S'parscriptiframe'
p6713
(dp6714
S'score'
p6715
I0
sS'raw_score'
p6716
NsS'display'
p6717
g14
ssS'parscriptimage'
p6718
(dp6719
g6715
I0
sg6716
Nsg6717
g14
ssS'cacheexp'
p6720
(dp6721
g6715
I100
sg6716
I1
sg6717
S'yes'
p6722
ssS'cacheresredir'
p6723
(dp6724
g6715
I1
sg6716
I0
sg6717
S'no'
p6725
ssS'parcssjs'
p6726
(dp6727
g6715
I1
sg6716
I0
sg6717
g6725
ssS'gzip'
p6728
(dp6729
g6715
I100
sg6716
I1
sg6717
g6722
ssS'du'
p6730
(dp6731
g6715
I100
sg6716
I1
sg6717
g6722
ssS'prefetch'
p6732
(dp6733
g6715
I100
sg6716
I1
sg6717
g6722
ssS'parscriptstylesheet'
p6734
(dp6735
g6715
I0
sg6716
Nsg6717
g14
ssS'cacheredir'
p6736
(dp6737
g6715
I1
sg6716
I0
sg6717
g6725
ssS'parscriptscript'
p6738
(dp6739
g6715
I0
sg6716
Nsg6717
g14
ssS'maxconn'
p6740
(dp6741
g6715
I100
sg6716
I30
sg6717
S'30'
p6742
ssS'parsheet'
p6743
(dp6744
g6715
I100
sg6716
I1
sg6717
g6722
ssS'hostconn'
p6745
(dp6746
g6715
I100
sg6716
I6
sg6717
g298
ssssVQtWeb 1
p6747
(dp6748
S'summary_display'
p6749
S'6/14'
p6750
sS'total_runs'
p6751
L1L
sS'summary_score'
p6752
I43
sS'results'
p6753
(dp6754
S'parscriptiframe'
p6755
(dp6756
S'score'
p6757
I0
sS'raw_score'
p6758
NsS'display'
p6759
g14
ssS'parscriptimage'
p6760
(dp6761
g6757
I0
sg6758
Nsg6759
g14
ssS'cacheexp'
p6762
(dp6763
g6757
I100
sg6758
I1
sg6759
S'yes'
p6764
ssS'cacheresredir'
p6765
(dp6766
g6757
I100
sg6758
I1
sg6759
g6764
ssS'parcssjs'
p6767
(dp6768
g6757
I1
sg6758
I0
sg6759
S'no'
p6769
ssS'gzip'
p6770
(dp6771
g6757
I100
sg6758
I1
sg6759
g6764
ssS'du'
p6772
(dp6773
g6757
I100
sg6758
I1
sg6759
g6764
ssS'prefetch'
p6774
(dp6775
g6757
I1
sg6758
I0
sg6759
g6769
ssS'parscriptstylesheet'
p6776
(dp6777
g6757
I0
sg6758
Nsg6759
g14
ssS'cacheredir'
p6778
(dp6779
g6757
I1
sg6758
I0
sg6759
g6769
ssS'parscriptscript'
p6780
(dp6781
g6757
I0
sg6758
Nsg6759
g14
ssS'maxconn'
p6782
(dp6783
g6757
I100
sg6758
I60
sg6759
S'60'
p6784
ssS'parsheet'
p6785
(dp6786
g6757
I100
sg6758
I1
sg6759
g6764
ssS'hostconn'
p6787
(dp6788
g6757
I50
sg6758
I2
sg6759
g44
ssssVQtWeb 2
p6789
(dp6790
S'summary_display'
p6791
S'7/14'
p6792
sS'total_runs'
p6793
L1L
sS'summary_score'
p6794
I50
sS'results'
p6795
(dp6796
S'parscriptiframe'
p6797
(dp6798
S'score'
p6799
I0
sS'raw_score'
p6800
NsS'display'
p6801
g14
ssS'parscriptimage'
p6802
(dp6803
g6799
I0
sg6800
Nsg6801
g14
ssS'cacheexp'
p6804
(dp6805
g6799
I100
sg6800
I1
sg6801
S'yes'
p6806
ssS'cacheresredir'
p6807
(dp6808
g6799
I100
sg6800
I1
sg6801
g6806
ssS'parcssjs'
p6809
(dp6810
g6799
I1
sg6800
I0
sg6801
S'no'
p6811
ssS'gzip'
p6812
(dp6813
g6799
I100
sg6800
I1
sg6801
g6806
ssS'du'
p6814
(dp6815
g6799
I100
sg6800
I1
sg6801
g6806
ssS'prefetch'
p6816
(dp6817
g6799
I1
sg6800
I0
sg6801
g6811
ssS'parscriptstylesheet'
p6818
(dp6819
g6799
I0
sg6800
Nsg6801
g14
ssS'cacheredir'
p6820
(dp6821
g6799
I100
sg6800
I1
sg6801
g6806
ssS'parscriptscript'
p6822
(dp6823
g6799
I0
sg6800
Nsg6801
g14
ssS'maxconn'
p6824
(dp6825
g6799
I100
sg6800
I60
sg6801
S'60'
p6826
ssS'parsheet'
p6827
(dp6828
g6799
I100
sg6800
I1
sg6801
g6806
ssS'hostconn'
p6829
(dp6830
g6799
I50
sg6800
I2
sg6801
g44
ssssVQtWeb 3
p6831
(dp6832
S'summary_display'
p6833
S'6/14'
p6834
sS'total_runs'
p6835
L3L
sS'summary_score'
p6836
I43
sS'results'
p6837
(dp6838
S'parscriptiframe'
p6839
(dp6840
S'score'
p6841
I0
sS'raw_score'
p6842
NsS'display'
p6843
g14
ssS'parscriptimage'
p6844
(dp6845
g6841
I0
sg6842
Nsg6843
g14
ssS'cacheexp'
p6846
(dp6847
g6841
I100
sg6842
I1
sg6843
S'yes'
p6848
ssS'cacheresredir'
p6849
(dp6850
g6841
I100
sg6842
I1
sg6843
g6848
ssS'parcssjs'
p6851
(dp6852
g6841
I1
sg6842
I0
sg6843
S'no'
p6853
ssS'gzip'
p6854
(dp6855
g6841
I100
sg6842
I1
sg6843
g6848
ssS'du'
p6856
(dp6857
g6841
I100
sg6842
I1
sg6843
g6848
ssS'prefetch'
p6858
(dp6859
g6841
I1
sg6842
I0
sg6843
g6853
ssS'parscriptstylesheet'
p6860
(dp6861
g6841
I0
sg6842
Nsg6843
g14
ssS'cacheredir'
p6862
(dp6863
g6841
I1
sg6842
I0
sg6843
g6853
ssS'parscriptscript'
p6864
(dp6865
g6841
I0
sg6842
Nsg6843
g14
ssS'maxconn'
p6866
(dp6867
g6841
I100
sg6842
I60
sg6843
S'60'
p6868
ssS'parsheet'
p6869
(dp6870
g6841
I100
sg6842
I1
sg6843
g6848
ssS'hostconn'
p6871
(dp6872
g6841
I50
sg6842
I2
sg6843
g44
ssssVBlackberry 9500
p6873
(dp6874
S'summary_display'
p6875
S'5/14'
p6876
sS'total_runs'
p6877
L3L
sS'summary_score'
p6878
I36
sS'results'
p6879
(dp6880
S'parscriptiframe'
p6881
(dp6882
S'score'
p6883
I0
sS'raw_score'
p6884
NsS'display'
p6885
g14
ssS'parscriptimage'
p6886
(dp6887
g6883
I0
sg6884
Nsg6885
g14
ssS'cacheexp'
p6888
(dp6889
g6883
I100
sg6884
I1
sg6885
S'yes'
p6890
ssS'cacheresredir'
p6891
(dp6892
g6883
I100
sg6884
I1
sg6885
g6890
ssS'parcssjs'
p6893
(dp6894
g6883
I1
sg6884
I0
sg6885
S'no'
p6895
ssS'gzip'
p6896
(dp6897
g6883
I100
sg6884
I1
sg6885
g6890
ssS'du'
p6898
(dp6899
g6883
I1
sg6884
I0
sg6885
g6895
ssS'prefetch'
p6900
(dp6901
g6883
I1
sg6884
I0
sg6885
g6895
ssS'parscriptstylesheet'
p6902
(dp6903
g6883
I0
sg6884
Nsg6885
g14
ssS'cacheredir'
p6904
(dp6905
g6883
I100
sg6884
I1
sg6885
g6890
ssS'parscriptscript'
p6906
(dp6907
g6883
I0
sg6884
Nsg6885
g14
ssS'maxconn'
p6908
(dp6909
g6883
I1
sg6884
I5
sg6885
g550
ssS'parsheet'
p6910
(dp6911
g6883
I1
sg6884
I0
sg6885
g6895
ssS'hostconn'
p6912
(dp6913
g6883
I100
sg6884
I5
sg6885
g550
ssssViRider 2
p6914
(dp6915
S'summary_display'
p6916
S'5/14'
p6917
sS'total_runs'
p6918
L1L
sS'summary_score'
p6919
I36
sS'results'
p6920
(dp6921
S'parscriptiframe'
p6922
(dp6923
S'score'
p6924
I0
sS'raw_score'
p6925
NsS'display'
p6926
g14
ssS'parscriptimage'
p6927
(dp6928
g6924
I0
sg6925
Nsg6926
g14
ssS'cacheexp'
p6929
(dp6930
g6924
I100
sg6925
I1
sg6926
S'yes'
p6931
ssS'cacheresredir'
p6932
(dp6933
g6924
I1
sg6925
I0
sg6926
S'no'
p6934
ssS'parcssjs'
p6935
(dp6936
g6924
I1
sg6925
I0
sg6926
g6934
ssS'gzip'
p6937
(dp6938
g6924
I100
sg6925
I1
sg6926
g6931
ssS'du'
p6939
(dp6940
g6924
I100
sg6925
I1
sg6926
g6931
ssS'prefetch'
p6941
(dp6942
g6924
I1
sg6925
I0
sg6926
g6934
ssS'parscriptstylesheet'
p6943
(dp6944
g6924
I0
sg6925
Nsg6926
g14
ssS'cacheredir'
p6945
(dp6946
g6924
I1
sg6925
I0
sg6926
g6934
ssS'parscriptscript'
p6947
(dp6948
g6924
I0
sg6925
Nsg6926
g14
ssS'maxconn'
p6949
(dp6950
g6924
I100
sg6925
I28
sg6926
S'28'
p6951
ssS'parsheet'
p6952
(dp6953
g6924
I100
sg6925
I1
sg6926
g6931
ssS'hostconn'
p6954
(dp6955
g6924
I50
sg6925
I2
sg6926
g44
ssss.