(dp0
S'Chrome 4'
p1
(dp2
S'total_runs'
p3
L35L
sS'score'
p4
I8
sS'results'
p5
(dp6
S'maxconn'
p7
(dp8
g4
I10
sS'median'
p9
L60L
sS'display'
p10
S'60'
p11
ssS'parscript'
p12
(dp13
g4
I10
sg9
L1L
sg10
S'yes'
p14
ssS'parcssjs'
p15
(dp16
g4
I1
sg9
L0L
sg10
S'no'
p17
ssS'cacheresredir'
p18
(dp19
g4
I10
sg9
L1L
sg10
g14
ssS'cacheexp'
p20
(dp21
g4
I10
sg9
L1L
sg10
g14
ssS'gzip'
p22
(dp23
g4
I10
sg9
L1L
sg10
g14
ssS'prefetch'
p24
(dp25
g4
I1
sg9
L0L
sg10
g17
ssS'cacheredir'
p26
(dp27
g4
I10
sg9
L1L
sg10
g14
ssS'parsheet'
p28
(dp29
g4
I10
sg9
L1L
sg10
g14
ssS'du'
p30
(dp31
g4
I10
sg9
L1L
sg10
g14
ssS'hostconn'
p32
(dp33
g4
I10
sg9
L4L
sg10
S'4'
p34
sssg10
S'9/11'
p35
ssS'Safari 3'
p36
(dp37
S'total_runs'
p38
L811L
sS'score'
p39
I6
sS'results'
p40
(dp41
S'maxconn'
p42
(dp43
g39
I10
sS'median'
p44
L60L
sS'display'
p45
S'60'
p46
ssS'parscript'
p47
(dp48
g39
I1
sg44
L0L
sg45
S'no'
p49
ssS'parcssjs'
p50
(dp51
g39
I1
sg44
L0L
sg45
g49
ssS'cacheresredir'
p52
(dp53
g39
I10
sg44
L1L
sg45
S'yes'
p54
ssS'cacheexp'
p55
(dp56
g39
I10
sg44
L1L
sg45
g54
ssS'gzip'
p57
(dp58
g39
I10
sg44
L1L
sg45
g54
ssS'prefetch'
p59
(dp60
g39
I1
sg44
L0L
sg45
g49
ssS'cacheredir'
p61
(dp62
g39
I1
sg44
L0L
sg45
g49
ssS'parsheet'
p63
(dp64
g39
I10
sg44
L1L
sg45
g54
ssS'du'
p65
(dp66
g39
I10
sg44
L1L
sg45
g54
ssS'hostconn'
p67
(dp68
g39
I10
sg44
L4L
sg45
g34
sssg45
S'7/11'
p69
ssS'Chrome 2'
p70
(dp71
S'total_runs'
p72
L474L
sS'score'
p73
I8
sS'results'
p74
(dp75
S'maxconn'
p76
(dp77
g73
I10
sS'median'
p78
L60L
sS'display'
p79
S'60'
p80
ssS'parscript'
p81
(dp82
g73
I10
sg78
L1L
sg79
S'yes'
p83
ssS'parcssjs'
p84
(dp85
g73
I1
sg78
L0L
sg79
S'no'
p86
ssS'cacheresredir'
p87
(dp88
g73
I10
sg78
L1L
sg79
g83
ssS'cacheexp'
p89
(dp90
g73
I10
sg78
L1L
sg79
g83
ssS'gzip'
p91
(dp92
g73
I10
sg78
L1L
sg79
g83
ssS'prefetch'
p93
(dp94
g73
I1
sg78
L0L
sg79
g86
ssS'cacheredir'
p95
(dp96
g73
I10
sg78
L1L
sg79
g83
ssS'parsheet'
p97
(dp98
g73
I10
sg78
L1L
sg79
g83
ssS'du'
p99
(dp100
g73
I10
sg78
L1L
sg79
g83
ssS'hostconn'
p101
(dp102
g73
I10
sg78
L6L
sg79
S'6'
p103
sssg79
S'9/11'
p104
ssS'Chrome 3'
p105
(dp106
S'total_runs'
p107
L196L
sS'score'
p108
I8
sS'results'
p109
(dp110
S'maxconn'
p111
(dp112
g108
I10
sS'median'
p113
L60L
sS'display'
p114
S'60'
p115
ssS'parscript'
p116
(dp117
g108
I10
sg113
L1L
sg114
S'yes'
p118
ssS'parcssjs'
p119
(dp120
g108
I1
sg113
L0L
sg114
S'no'
p121
ssS'cacheresredir'
p122
(dp123
g108
I10
sg113
L1L
sg114
g118
ssS'cacheexp'
p124
(dp125
g108
I10
sg113
L1L
sg114
g118
ssS'gzip'
p126
(dp127
g108
I10
sg113
L1L
sg114
g118
ssS'prefetch'
p128
(dp129
g108
I1
sg113
L0L
sg114
g121
ssS'cacheredir'
p130
(dp131
g108
I10
sg113
L1L
sg114
g118
ssS'parsheet'
p132
(dp133
g108
I10
sg113
L1L
sg114
g118
ssS'du'
p134
(dp135
g108
I10
sg113
L1L
sg114
g118
ssS'hostconn'
p136
(dp137
g108
I10
sg113
L6L
sg114
g103
sssg114
S'9/11'
p138
ssS'IE 6'
p139
(dp140
S'total_runs'
p141
L306L
sS'score'
p142
I3
sS'results'
p143
(dp144
S'maxconn'
p145
(dp146
g142
I10
sS'median'
p147
L54L
sS'display'
p148
S'54'
p149
ssS'parscript'
p150
(dp151
g142
I1
sg147
L0L
sg148
S'no'
p152
ssS'parcssjs'
p153
(dp154
g142
I1
sg147
L0L
sg148
g152
ssS'cacheresredir'
p155
(dp156
g142
I1
sg147
L0L
sg148
g152
ssS'cacheexp'
p157
(dp158
g142
I10
sg147
L1L
sg148
S'yes'
p159
ssS'gzip'
p160
(dp161
g142
I10
sg147
L1L
sg148
g159
ssS'prefetch'
p162
(dp163
g142
I1
sg147
L0L
sg148
g152
ssS'cacheredir'
p164
(dp165
g142
I1
sg147
L0L
sg148
g152
ssS'parsheet'
p166
(dp167
g142
I10
sg147
L1L
sg148
g159
ssS'du'
p168
(dp169
g142
I1
sg147
L0L
sg148
g152
ssS'hostconn'
p170
(dp171
g142
I5
sg147
L2L
sg148
S'2'
p172
sssg148
S'4/11'
p173
ssS'Opera 9'
p174
(dp175
S'total_runs'
p176
L3623L
sS'score'
p177
I4
sS'results'
p178
(dp179
S'maxconn'
p180
(dp181
g177
I5
sS'median'
p182
L20L
sS'display'
p183
S'20'
p184
ssS'parscript'
p185
(dp186
g177
I1
sg182
L0L
sg183
S'no'
p187
ssS'parcssjs'
p188
(dp189
g177
I1
sg182
L0L
sg183
g187
ssS'cacheresredir'
p190
(dp191
g177
I1
sg182
L0L
sg183
g187
ssS'cacheexp'
p192
(dp193
g177
I10
sg182
L1L
sg183
S'yes'
p194
ssS'gzip'
p195
(dp196
g177
I10
sg182
L1L
sg183
g194
ssS'prefetch'
p197
(dp198
g177
I1
sg182
L0L
sg183
g187
ssS'cacheredir'
p199
(dp200
g177
I1
sg182
L0L
sg183
g187
ssS'parsheet'
p201
(dp202
g177
I10
sg182
L1L
sg183
g194
ssS'du'
p203
(dp204
g177
I10
sg182
L1L
sg183
g194
ssS'hostconn'
p205
(dp206
g177
I10
sg182
L4L
sg183
g34
sssg183
S'5/11'
p207
ssS'Safari 4'
p208
(dp209
S'total_runs'
p210
L412L
sS'score'
p211
I7
sS'results'
p212
(dp213
S'maxconn'
p214
(dp215
g211
I10
sS'median'
p216
L60L
sS'display'
p217
S'60'
p218
ssS'parscript'
p219
(dp220
g211
I10
sg216
L1L
sg217
S'yes'
p221
ssS'parcssjs'
p222
(dp223
g211
I1
sg216
L0L
sg217
S'no'
p224
ssS'cacheresredir'
p225
(dp226
g211
I10
sg216
L1L
sg217
g221
ssS'cacheexp'
p227
(dp228
g211
I10
sg216
L1L
sg217
g221
ssS'gzip'
p229
(dp230
g211
I10
sg216
L1L
sg217
g221
ssS'prefetch'
p231
(dp232
g211
I1
sg216
L0L
sg217
g224
ssS'cacheredir'
p233
(dp234
g211
I1
sg216
L0L
sg217
g224
ssS'parsheet'
p235
(dp236
g211
I10
sg216
L1L
sg217
g221
ssS'du'
p237
(dp238
g211
I10
sg216
L1L
sg217
g221
ssS'hostconn'
p239
(dp240
g211
I10
sg216
L4L
sg217
g34
sssg217
S'8/11'
p241
ssS'IE 8'
p242
(dp243
S'total_runs'
p244
L340L
sS'score'
p245
I6
sS'results'
p246
(dp247
S'maxconn'
p248
(dp249
g245
I10
sS'median'
p250
L60L
sS'display'
p251
S'60'
p252
ssS'parscript'
p253
(dp254
g245
I10
sg250
L1L
sg251
S'yes'
p255
ssS'parcssjs'
p256
(dp257
g245
I1
sg250
L0L
sg251
S'no'
p258
ssS'cacheresredir'
p259
(dp260
g245
I1
sg250
L0L
sg251
g258
ssS'cacheexp'
p261
(dp262
g245
I10
sg250
L1L
sg251
g255
ssS'gzip'
p263
(dp264
g245
I10
sg250
L1L
sg251
g255
ssS'prefetch'
p265
(dp266
g245
I1
sg250
L0L
sg251
g258
ssS'cacheredir'
p267
(dp268
g245
I1
sg250
L0L
sg251
g258
ssS'parsheet'
p269
(dp270
g245
I10
sg250
L1L
sg251
g255
ssS'du'
p271
(dp272
g245
I10
sg250
L1L
sg251
g255
ssS'hostconn'
p273
(dp274
g245
I10
sg250
L6L
sg251
g103
sssg251
S'7/11'
p275
ssS'Opera 10'
p276
(dp277
S'total_runs'
p278
L1259L
sS'score'
p279
I6
sS'results'
p280
(dp281
S'maxconn'
p282
(dp283
g279
I10
sS'median'
p284
L49L
sS'display'
p285
S'49'
p286
ssS'parscript'
p287
(dp288
g279
I1
sg284
L0L
sg285
S'no'
p289
ssS'parcssjs'
p290
(dp291
g279
I1
sg284
L0L
sg285
g289
ssS'cacheresredir'
p292
(dp293
g279
I10
sg284
L1L
sg285
S'yes'
p294
ssS'cacheexp'
p295
(dp296
g279
I10
sg284
L1L
sg285
g294
ssS'gzip'
p297
(dp298
g279
I10
sg284
L1L
sg285
g294
ssS'prefetch'
p299
(dp300
g279
I1
sg284
L0L
sg285
g289
ssS'cacheredir'
p301
(dp302
g279
I1
sg284
L0L
sg285
g289
ssS'parsheet'
p303
(dp304
g279
I10
sg284
L1L
sg285
g294
ssS'du'
p305
(dp306
g279
I10
sg284
L1L
sg285
g294
ssS'hostconn'
p307
(dp308
g279
I10
sg284
L8L
sg285
S'8'
p309
sssg285
S'7/11'
p310
ssS'Firefox 3.0'
p311
(dp312
S'total_runs'
p313
L5559L
sS'score'
p314
I6
sS'results'
p315
(dp316
S'maxconn'
p317
(dp318
g314
I10
sS'median'
p319
L30L
sS'display'
p320
S'30'
p321
ssS'parscript'
p322
(dp323
g314
I1
sg319
L0L
sg320
S'no'
p324
ssS'parcssjs'
p325
(dp326
g314
I1
sg319
L0L
sg320
g324
ssS'cacheresredir'
p327
(dp328
g314
I1
sg319
L0L
sg320
g324
ssS'cacheexp'
p329
(dp330
g314
I10
sg319
L1L
sg320
S'yes'
p331
ssS'gzip'
p332
(dp333
g314
I10
sg319
L1L
sg320
g331
ssS'prefetch'
p334
(dp335
g314
I10
sg319
L1L
sg320
g331
ssS'cacheredir'
p336
(dp337
g314
I1
sg319
L0L
sg320
g324
ssS'parsheet'
p338
(dp339
g314
I10
sg319
L1L
sg320
g331
ssS'du'
p340
(dp341
g314
I10
sg319
L1L
sg320
g331
ssS'hostconn'
p342
(dp343
g314
I10
sg319
L6L
sg320
g103
sssg320
S'7/11'
p344
ssS'Firefox 3.5'
p345
(dp346
S'total_runs'
p347
L1027L
sS'score'
p348
I8
sS'results'
p349
(dp350
S'maxconn'
p351
(dp352
g348
I10
sS'median'
p353
L30L
sS'display'
p354
S'30'
p355
ssS'parscript'
p356
(dp357
g348
I10
sg353
L1L
sg354
S'yes'
p358
ssS'parcssjs'
p359
(dp360
g348
I1
sg353
L0L
sg354
S'no'
p361
ssS'cacheresredir'
p362
(dp363
g348
I10
sg353
L1L
sg354
g358
ssS'cacheexp'
p364
(dp365
g348
I10
sg353
L1L
sg354
g358
ssS'gzip'
p366
(dp367
g348
I10
sg353
L1L
sg354
g358
ssS'prefetch'
p368
(dp369
g348
I10
sg353
L1L
sg354
g358
ssS'cacheredir'
p370
(dp371
g348
I10
sg353
L1L
sg354
g358
ssS'parsheet'
p372
(dp373
g348
I10
sg353
L1L
sg354
g358
ssS'du'
p374
(dp375
g348
I10
sg353
L1L
sg354
g358
ssS'hostconn'
p376
(dp377
g348
I10
sg353
L6L
sg354
g103
sssg354
S'10/11'
p378
ssS'IE 7'
p379
(dp380
S'total_runs'
p381
L659L
sS'score'
p382
I3
sS'results'
p383
(dp384
S'maxconn'
p385
(dp386
g382
I10
sS'median'
p387
L60L
sS'display'
p388
S'60'
p389
ssS'parscript'
p390
(dp391
g382
I1
sg387
L0L
sg388
S'no'
p392
ssS'parcssjs'
p393
(dp394
g382
I1
sg387
L0L
sg388
g392
ssS'cacheresredir'
p395
(dp396
g382
I1
sg387
L0L
sg388
g392
ssS'cacheexp'
p397
(dp398
g382
I10
sg387
L1L
sg388
S'yes'
p399
ssS'gzip'
p400
(dp401
g382
I10
sg387
L1L
sg388
g399
ssS'prefetch'
p402
(dp403
g382
I1
sg387
L0L
sg388
g392
ssS'cacheredir'
p404
(dp405
g382
I1
sg387
L0L
sg388
g392
ssS'parsheet'
p406
(dp407
g382
I10
sg387
L1L
sg388
g399
ssS'du'
p408
(dp409
g382
I1
sg387
L0L
sg388
g392
ssS'hostconn'
p410
(dp411
g382
I5
sg387
L2L
sg388
g172
sssg388
S'4/11'
p412
ss.