(dp0
S'total_runs'
p1
L20703L
sS'Chrome 4'
p2
(dp3
S'summary_display'
p4
S'11/14'
p5
sS'total_runs'
p6
L955L
sS'summary_score'
p7
I79
sS'results'
p8
(dp9
S'parscriptiframe'
p10
(dp11
S'score'
p12
I1
sS'raw_score'
p13
I0
sS'display'
p14
S'no'
p15
ssS'parscriptimage'
p16
(dp17
g12
I100
sg13
I1
sg14
S'yes'
p18
ssS'parcssjs'
p19
(dp20
g12
I1
sg13
I0
sg14
g15
ssS'cacheresredir'
p21
(dp22
g12
I100
sg13
I1
sg14
g18
ssS'cacheexp'
p23
(dp24
g12
I100
sg13
I1
sg14
g18
ssS'maxconn'
p25
(dp26
g12
I100
sg13
I60
sg14
S'60'
p27
ssS'cacheredir'
p28
(dp29
g12
I100
sg13
I1
sg14
g18
ssS'prefetch'
p30
(dp31
g12
I1
sg13
I0
sg14
g15
ssS'parscriptstylesheet'
p32
(dp33
g12
I100
sg13
I1
sg14
g18
ssS'gzip'
p34
(dp35
g12
I100
sg13
I1
sg14
g18
ssS'parscriptscript'
p36
(dp37
g12
I100
sg13
I1
sg14
g18
ssS'du'
p38
(dp39
g12
I100
sg13
I1
sg14
g18
ssS'parsheet'
p40
(dp41
g12
I100
sg13
I1
sg14
g18
ssS'hostconn'
p42
(dp43
g12
I100
sg13
I4
sg14
S'4'
p44
ssssS'iPhone 3.1'
p45
(dp46
S'summary_display'
p47
S'10/14'
p48
sS'total_runs'
p49
L85L
sS'summary_score'
p50
I71
sS'results'
p51
(dp52
S'du'
p53
(dp54
S'score'
p55
I100
sS'raw_score'
p56
I1
sS'display'
p57
S'yes'
p58
ssS'parscriptimage'
p59
(dp60
g55
I100
sg56
I1
sg57
g58
ssS'parcssjs'
p61
(dp62
g55
I1
sg56
I0
sg57
S'no'
p63
ssS'cacheresredir'
p64
(dp65
g55
I100
sg56
I1
sg57
g58
ssS'cacheexp'
p66
(dp67
g55
I100
sg56
I1
sg57
g58
ssS'maxconn'
p68
(dp69
g55
I100
sg56
I56
sg57
S'56'
p70
ssS'cacheredir'
p71
(dp72
g55
I1
sg56
I0
sg57
g63
ssS'prefetch'
p73
(dp74
g55
I1
sg56
I0
sg57
g63
ssS'parscriptstylesheet'
p75
(dp76
g55
I100
sg56
I1
sg57
g58
ssS'gzip'
p77
(dp78
g55
I100
sg56
I1
sg57
g58
ssS'parscriptscript'
p79
(dp80
g55
I100
sg56
I1
sg57
g58
ssS'parscriptiframe'
p81
(dp82
g55
I1
sg56
I0
sg57
g63
ssS'parsheet'
p83
(dp84
g55
I100
sg56
I1
sg57
g58
ssS'hostconn'
p85
(dp86
g55
I100
sg56
I6
sg57
S'6'
p87
ssssS'Chrome 3'
p88
(dp89
S'summary_display'
p90
S'11/14'
p91
sS'total_runs'
p92
L725L
sS'summary_score'
p93
I79
sS'results'
p94
(dp95
S'du'
p96
(dp97
S'score'
p98
I100
sS'raw_score'
p99
I1
sS'display'
p100
S'yes'
p101
ssS'parscriptimage'
p102
(dp103
g98
I100
sg99
I1
sg100
g101
ssS'cacheexp'
p104
(dp105
g98
I100
sg99
I1
sg100
g101
ssS'cacheresredir'
p106
(dp107
g98
I100
sg99
I1
sg100
g101
ssS'parcssjs'
p108
(dp109
g98
I1
sg99
I0
sg100
S'no'
p110
ssS'parscriptiframe'
p111
(dp112
g98
I1
sg99
I0
sg100
g110
ssS'gzip'
p113
(dp114
g98
I100
sg99
I1
sg100
g101
ssS'prefetch'
p115
(dp116
g98
I1
sg99
I0
sg100
g110
ssS'parscriptstylesheet'
p117
(dp118
g98
I100
sg99
I1
sg100
g101
ssS'cacheredir'
p119
(dp120
g98
I100
sg99
I1
sg100
g101
ssS'parscriptscript'
p121
(dp122
g98
I100
sg99
I1
sg100
g101
ssS'maxconn'
p123
(dp124
g98
I100
sg99
I60
sg100
S'60'
p125
ssS'parsheet'
p126
(dp127
g98
I100
sg99
I1
sg100
g101
ssS'hostconn'
p128
(dp129
g98
I100
sg99
I4
sg100
g44
ssssS'Opera 9.64'
p130
(dp131
S'summary_display'
p132
S'6/14'
p133
sS'total_runs'
p134
L979L
sS'summary_score'
p135
I43
sS'results'
p136
(dp137
S'parscriptiframe'
p138
(dp139
S'score'
p140
I1
sS'raw_score'
p141
I0
sS'display'
p142
S'no'
p143
ssS'parscriptimage'
p144
(dp145
g140
I1
sg141
I0
sg142
g143
ssS'parcssjs'
p146
(dp147
g140
I1
sg141
I0
sg142
g143
ssS'cacheresredir'
p148
(dp149
g140
I1
sg141
I0
sg142
g143
ssS'cacheexp'
p150
(dp151
g140
I100
sg141
I1
sg142
S'yes'
p152
ssS'maxconn'
p153
(dp154
g140
I100
sg141
I58
sg142
S'58'
p155
ssS'cacheredir'
p156
(dp157
g140
I1
sg141
I0
sg142
g143
ssS'prefetch'
p158
(dp159
g140
I1
sg141
I0
sg142
g143
ssS'parscriptstylesheet'
p160
(dp161
g140
I1
sg141
I0
sg142
g143
ssS'gzip'
p162
(dp163
g140
I100
sg141
I1
sg142
g152
ssS'parscriptscript'
p164
(dp165
g140
I1
sg141
I0
sg142
g143
ssS'du'
p166
(dp167
g140
I100
sg141
I1
sg142
g152
ssS'parsheet'
p168
(dp169
g140
I100
sg141
I1
sg142
g152
ssS'hostconn'
p170
(dp171
g140
I100
sg141
I8
sg142
S'8'
p172
ssssS'IE 6'
p173
(dp174
S'summary_display'
p175
S'4/14'
p176
sS'total_runs'
p177
L460L
sS'summary_score'
p178
I29
sS'results'
p179
(dp180
S'parscriptiframe'
p181
(dp182
S'score'
p183
I1
sS'raw_score'
p184
I0
sS'display'
p185
S'no'
p186
ssS'parscriptimage'
p187
(dp188
g183
I1
sg184
I0
sg185
g186
ssS'cacheexp'
p189
(dp190
g183
I100
sg184
I1
sg185
S'yes'
p191
ssS'cacheresredir'
p192
(dp193
g183
I1
sg184
I0
sg185
g186
ssS'parcssjs'
p194
(dp195
g183
I1
sg184
I0
sg185
g186
ssS'gzip'
p196
(dp197
g183
I100
sg184
I1
sg185
g191
ssS'du'
p198
(dp199
g183
I1
sg184
I0
sg185
g186
ssS'prefetch'
p200
(dp201
g183
I1
sg184
I0
sg185
g186
ssS'parscriptstylesheet'
p202
(dp203
g183
I1
sg184
I0
sg185
g186
ssS'cacheredir'
p204
(dp205
g183
I1
sg184
I0
sg185
g186
ssS'parscriptscript'
p206
(dp207
g183
I1
sg184
I0
sg185
g186
ssS'maxconn'
p208
(dp209
g183
I100
sg184
I58
sg185
S'58'
p210
ssS'parsheet'
p211
(dp212
g183
I100
sg184
I1
sg185
g191
ssS'hostconn'
p213
(dp214
g183
I50
sg184
I2
sg185
S'2'
p215
ssssS'Safari 3.2'
p216
(dp217
S'summary_display'
p218
S'8/14'
p219
sS'total_runs'
p220
L581L
sS'summary_score'
p221
I57
sS'results'
p222
(dp223
S'parscriptiframe'
p224
(dp225
S'score'
p226
I1
sS'raw_score'
p227
I0
sS'display'
p228
S'no'
p229
ssS'parscriptimage'
p230
(dp231
g226
I1
sg227
I0
sg228
g229
ssS'parcssjs'
p232
(dp233
g226
I1
sg227
I0
sg228
g229
ssS'cacheresredir'
p234
(dp235
g226
I100
sg227
I1
sg228
S'yes'
p236
ssS'cacheexp'
p237
(dp238
g226
I100
sg227
I1
sg228
g236
ssS'maxconn'
p239
(dp240
g226
I100
sg227
I60
sg228
S'60'
p241
ssS'cacheredir'
p242
(dp243
g226
I1
sg227
I0
sg228
g229
ssS'prefetch'
p244
(dp245
g226
I1
sg227
I0
sg228
g229
ssS'parscriptstylesheet'
p246
(dp247
g226
I1
sg227
I0
sg228
g229
ssS'gzip'
p248
(dp249
g226
I100
sg227
I1
sg228
g236
ssS'parscriptscript'
p250
(dp251
g226
I100
sg227
I1
sg228
g236
ssS'du'
p252
(dp253
g226
I100
sg227
I1
sg228
g236
ssS'parsheet'
p254
(dp255
g226
I100
sg227
I1
sg228
g236
ssS'hostconn'
p256
(dp257
g226
I100
sg227
I4
sg228
g44
ssssS'Safari 4.0'
p258
(dp259
S'summary_display'
p260
S'10/14'
p261
sS'total_runs'
p262
L1355L
sS'summary_score'
p263
I71
sS'results'
p264
(dp265
S'parscriptiframe'
p266
(dp267
S'score'
p268
I1
sS'raw_score'
p269
I0
sS'display'
p270
S'no'
p271
ssS'parscriptimage'
p272
(dp273
g268
I100
sg269
I1
sg270
S'yes'
p274
ssS'cacheexp'
p275
(dp276
g268
I100
sg269
I1
sg270
g274
ssS'cacheresredir'
p277
(dp278
g268
I100
sg269
I1
sg270
g274
ssS'parcssjs'
p279
(dp280
g268
I1
sg269
I0
sg270
g271
ssS'gzip'
p281
(dp282
g268
I100
sg269
I1
sg270
g274
ssS'du'
p283
(dp284
g268
I100
sg269
I1
sg270
g274
ssS'prefetch'
p285
(dp286
g268
I1
sg269
I0
sg270
g271
ssS'parscriptstylesheet'
p287
(dp288
g268
I100
sg269
I1
sg270
g274
ssS'cacheredir'
p289
(dp290
g268
I1
sg269
I0
sg270
g271
ssS'parscriptscript'
p291
(dp292
g268
I100
sg269
I1
sg270
g274
ssS'maxconn'
p293
(dp294
g268
I100
sg269
I60
sg270
S'60'
p295
ssS'parsheet'
p296
(dp297
g268
I100
sg269
I1
sg270
g274
ssS'hostconn'
p298
(dp299
g268
I100
sg269
I4
sg270
g44
ssssS'IE 8'
p300
(dp301
S'summary_display'
p302
S'8/14'
p303
sS'total_runs'
p304
L830L
sS'summary_score'
p305
I57
sS'results'
p306
(dp307
S'du'
p308
(dp309
S'score'
p310
I100
sS'raw_score'
p311
I1
sS'display'
p312
S'yes'
p313
ssS'parscriptimage'
p314
(dp315
g310
I1
sg311
I0
sg312
S'no'
p316
ssS'parcssjs'
p317
(dp318
g310
I1
sg311
I0
sg312
g316
ssS'cacheresredir'
p319
(dp320
g310
I1
sg311
I0
sg312
g316
ssS'cacheexp'
p321
(dp322
g310
I100
sg311
I1
sg312
g313
ssS'maxconn'
p323
(dp324
g310
I100
sg311
I60
sg312
S'60'
p325
ssS'cacheredir'
p326
(dp327
g310
I1
sg311
I0
sg312
g316
ssS'prefetch'
p328
(dp329
g310
I1
sg311
I0
sg312
g316
ssS'parscriptstylesheet'
p330
(dp331
g310
I100
sg311
I1
sg312
g313
ssS'gzip'
p332
(dp333
g310
I100
sg311
I1
sg312
g313
ssS'parscriptscript'
p334
(dp335
g310
I100
sg311
I1
sg312
g313
ssS'parscriptiframe'
p336
(dp337
g310
I1
sg311
I0
sg312
g316
ssS'parsheet'
p338
(dp339
g310
I100
sg311
I1
sg312
g313
ssS'hostconn'
p340
(dp341
g310
I100
sg311
I6
sg312
g87
ssssS'Opera 10'
p342
(dp343
S'summary_display'
p344
S'6/14'
p345
sS'total_runs'
p346
L2435L
sS'summary_score'
p347
I43
sS'results'
p348
(dp349
S'parscriptiframe'
p350
(dp351
S'score'
p352
I1
sS'raw_score'
p353
I0
sS'display'
p354
S'no'
p355
ssS'parscriptimage'
p356
(dp357
g352
I1
sg353
I0
sg354
g355
ssS'parcssjs'
p358
(dp359
g352
I1
sg353
I0
sg354
g355
ssS'cacheresredir'
p360
(dp361
g352
I100
sg353
I1
sg354
S'yes'
p362
ssS'cacheexp'
p363
(dp364
g352
I100
sg353
I1
sg354
g362
ssS'maxconn'
p365
(dp366
g352
I50
sg353
I20
sg354
S'20'
p367
ssS'cacheredir'
p368
(dp369
g352
I1
sg353
I0
sg354
g355
ssS'prefetch'
p370
(dp371
g352
I1
sg353
I0
sg354
g355
ssS'parscriptstylesheet'
p372
(dp373
g352
I1
sg353
I0
sg354
g355
ssS'gzip'
p374
(dp375
g352
I100
sg353
I1
sg354
g362
ssS'parscriptscript'
p376
(dp377
g352
I1
sg353
I0
sg354
g355
ssS'du'
p378
(dp379
g352
I100
sg353
I1
sg354
g362
ssS'parsheet'
p380
(dp381
g352
I100
sg353
I1
sg354
g362
ssS'hostconn'
p382
(dp383
g352
I100
sg353
I4
sg354
g44
ssssS'iPhone 2.2'
p384
(dp385
S'summary_display'
p386
S'7/14'
p387
sS'total_runs'
p388
L97L
sS'summary_score'
p389
I50
sS'results'
p390
(dp391
S'parscriptiframe'
p392
(dp393
S'score'
p394
I0
sS'raw_score'
p395
NsS'display'
p396
S''
p397
ssS'parscriptimage'
p398
(dp399
g394
I0
sg395
Nsg396
g397
ssS'cacheexp'
p400
(dp401
g394
I100
sg395
I1
sg396
S'yes'
p402
ssS'cacheresredir'
p403
(dp404
g394
I100
sg395
I1
sg396
g402
ssS'parcssjs'
p405
(dp406
g394
I1
sg395
I0
sg396
S'no'
p407
ssS'gzip'
p408
(dp409
g394
I100
sg395
I1
sg396
g402
ssS'du'
p410
(dp411
g394
I100
sg395
I1
sg396
g402
ssS'prefetch'
p412
(dp413
g394
I1
sg395
I0
sg396
g407
ssS'parscriptstylesheet'
p414
(dp415
g394
I0
sg395
Nsg396
g397
ssS'cacheredir'
p416
(dp417
g394
I1
sg395
I0
sg396
g407
ssS'parscriptscript'
p418
(dp419
g394
I0
sg395
Nsg396
g397
ssS'maxconn'
p420
(dp421
g394
I100
sg395
I60
sg396
S'60'
p422
ssS'parsheet'
p423
(dp424
g394
I100
sg395
I1
sg396
g402
ssS'hostconn'
p425
(dp426
g394
I100
sg395
I4
sg396
g44
ssssS'Firefox 3.0'
p427
(dp428
S'summary_display'
p429
S'7/14'
p430
sS'total_runs'
p431
L6772L
sS'summary_score'
p432
I50
sS'results'
p433
(dp434
S'parscriptiframe'
p435
(dp436
S'score'
p437
I1
sS'raw_score'
p438
I0
sS'display'
p439
S'no'
p440
ssS'parscriptimage'
p441
(dp442
g437
I1
sg438
I0
sg439
g440
ssS'cacheexp'
p443
(dp444
g437
I100
sg438
I1
sg439
S'yes'
p445
ssS'cacheresredir'
p446
(dp447
g437
I1
sg438
I0
sg439
g440
ssS'parcssjs'
p448
(dp449
g437
I1
sg438
I0
sg439
g440
ssS'gzip'
p450
(dp451
g437
I100
sg438
I1
sg439
g445
ssS'du'
p452
(dp453
g437
I100
sg438
I1
sg439
g445
ssS'prefetch'
p454
(dp455
g437
I100
sg438
I1
sg439
g445
ssS'parscriptstylesheet'
p456
(dp457
g437
I1
sg438
I0
sg439
g440
ssS'cacheredir'
p458
(dp459
g437
I1
sg438
I0
sg439
g440
ssS'parscriptscript'
p460
(dp461
g437
I1
sg438
I0
sg439
g440
ssS'maxconn'
p462
(dp463
g437
I100
sg438
I30
sg439
S'30'
p464
ssS'parsheet'
p465
(dp466
g437
I100
sg438
I1
sg439
g445
ssS'hostconn'
p467
(dp468
g437
I100
sg438
I6
sg439
g87
ssssS'Firefox 3.5'
p469
(dp470
S'summary_display'
p471
S'11/14'
p472
sS'total_runs'
p473
L4483L
sS'summary_score'
p474
I79
sS'results'
p475
(dp476
S'parscriptiframe'
p477
(dp478
S'score'
p479
I1
sS'raw_score'
p480
I0
sS'display'
p481
S'no'
p482
ssS'parscriptimage'
p483
(dp484
g479
I1
sg480
I0
sg481
g482
ssS'cacheexp'
p485
(dp486
g479
I100
sg480
I1
sg481
S'yes'
p487
ssS'cacheresredir'
p488
(dp489
g479
I100
sg480
I1
sg481
g487
ssS'parcssjs'
p490
(dp491
g479
I1
sg480
I0
sg481
g482
ssS'gzip'
p492
(dp493
g479
I100
sg480
I1
sg481
g487
ssS'du'
p494
(dp495
g479
I100
sg480
I1
sg481
g487
ssS'prefetch'
p496
(dp497
g479
I100
sg480
I1
sg481
g487
ssS'parscriptstylesheet'
p498
(dp499
g479
I100
sg480
I1
sg481
g487
ssS'cacheredir'
p500
(dp501
g479
I100
sg480
I1
sg481
g487
ssS'parscriptscript'
p502
(dp503
g479
I100
sg480
I1
sg481
g487
ssS'maxconn'
p504
(dp505
g479
I100
sg480
I30
sg481
S'30'
p506
ssS'parsheet'
p507
(dp508
g479
I100
sg480
I1
sg481
g487
ssS'hostconn'
p509
(dp510
g479
I100
sg480
I6
sg481
g87
ssssS'IE 7'
p511
(dp512
S'summary_display'
p513
S'6/14'
p514
sS'total_runs'
p515
L946L
sS'summary_score'
p516
I43
sS'results'
p517
(dp518
S'parscriptiframe'
p519
(dp520
S'score'
p521
I1
sS'raw_score'
p522
I0
sS'display'
p523
S'no'
p524
ssS'parscriptimage'
p525
(dp526
g521
I1
sg522
I0
sg523
g524
ssS'cacheexp'
p527
(dp528
g521
I100
sg522
I1
sg523
S'yes'
p529
ssS'cacheresredir'
p530
(dp531
g521
I1
sg522
I0
sg523
g524
ssS'parcssjs'
p532
(dp533
g521
I1
sg522
I0
sg523
g524
ssS'gzip'
p534
(dp535
g521
I100
sg522
I1
sg523
g529
ssS'du'
p536
(dp537
g521
I1
sg522
I0
sg523
g524
ssS'prefetch'
p538
(dp539
g521
I1
sg522
I0
sg523
g524
ssS'parscriptstylesheet'
p540
(dp541
g521
I100
sg522
I1
sg523
g529
ssS'cacheredir'
p542
(dp543
g521
I1
sg522
I0
sg523
g524
ssS'parscriptscript'
p544
(dp545
g521
I100
sg522
I1
sg523
g529
ssS'maxconn'
p546
(dp547
g521
I100
sg522
I60
sg523
S'60'
p548
ssS'parsheet'
p549
(dp550
g521
I100
sg522
I1
sg523
g529
ssS'hostconn'
p551
(dp552
g521
I50
sg522
I2
sg523
g215
ssss.