(dp0
VSafari
p1
(dp2
S'summary_display'
p3
S'10/14'
p4
sS'total_runs'
p5
L2347L
sS'summary_score'
p6
I71
sS'results'
p7
(dp8
S'parscriptiframe'
p9
(dp10
S'score'
p11
I1
sS'raw_score'
p12
I0
sS'display'
p13
S'no'
p14
ssS'parscriptimage'
p15
(dp16
g11
I100
sg12
I1
sg13
S'yes'
p17
ssS'cacheexp'
p18
(dp19
g11
I100
sg12
I1
sg13
g17
ssS'cacheresredir'
p20
(dp21
g11
I100
sg12
I1
sg13
g17
ssS'parcssjs'
p22
(dp23
g11
I1
sg12
I0
sg13
g14
ssS'gzip'
p24
(dp25
g11
I100
sg12
I1
sg13
g17
ssS'du'
p26
(dp27
g11
I100
sg12
I1
sg13
g17
ssS'prefetch'
p28
(dp29
g11
I1
sg12
I0
sg13
g14
ssS'parscriptstylesheet'
p30
(dp31
g11
I100
sg12
I1
sg13
g17
ssS'cacheredir'
p32
(dp33
g11
I1
sg12
I0
sg13
g14
ssS'parscriptscript'
p34
(dp35
g11
I100
sg12
I1
sg13
g17
ssS'maxconn'
p36
(dp37
g11
I100
sg12
I60
sg13
S'60'
p38
ssS'parsheet'
p39
(dp40
g11
I100
sg12
I1
sg13
g17
ssS'hostconn'
p41
(dp42
g11
I100
sg12
I4
sg13
S'4'
p43
ssssVPlayStation
p44
(dp45
S'summary_display'
p46
S'4/14'
p47
sS'total_runs'
p48
L7L
sS'summary_score'
p49
I29
sS'results'
p50
(dp51
S'parscriptiframe'
p52
(dp53
S'score'
p54
I1
sS'raw_score'
p55
I0
sS'display'
p56
S'no'
p57
ssS'parscriptimage'
p58
(dp59
g54
I1
sg55
I0
sg56
g57
ssS'parcssjs'
p60
(dp61
g54
I1
sg55
I0
sg56
g57
ssS'cacheresredir'
p62
(dp63
g54
I1
sg55
I0
sg56
g57
ssS'cacheexp'
p64
(dp65
g54
I100
sg55
I1
sg56
S'yes'
p66
ssS'maxconn'
p67
(dp68
g54
I1
sg55
I4
sg56
g43
ssS'cacheredir'
p69
(dp70
g54
I100
sg55
I1
sg56
g66
ssS'prefetch'
p71
(dp72
g54
I1
sg55
I0
sg56
g57
ssS'parscriptstylesheet'
p73
(dp74
g54
I1
sg55
I0
sg56
g57
ssS'gzip'
p75
(dp76
g54
I1
sg55
I0
sg56
g57
ssS'parscriptscript'
p77
(dp78
g54
I1
sg55
I0
sg56
g57
ssS'du'
p79
(dp80
g54
I100
sg55
I1
sg56
g66
ssS'parsheet'
p81
(dp82
g54
I1
sg55
I0
sg56
g57
ssS'hostconn'
p83
(dp84
g54
I100
sg55
I4
sg56
g43
ssssVSamsung SGHi560
p85
(dp86
S'summary_display'
p87
S'4/14'
p88
sS'total_runs'
p89
L1L
sS'summary_score'
p90
I29
sS'results'
p91
(dp92
S'parscriptiframe'
p93
(dp94
S'score'
p95
I0
sS'raw_score'
p96
NsS'display'
p97
S''
p98
ssS'parscriptimage'
p99
(dp100
g95
I0
sg96
Nsg97
g98
ssS'parcssjs'
p101
(dp102
g95
I1
sg96
I0
sg97
S'no'
p103
ssS'cacheresredir'
p104
(dp105
g95
I1
sg96
I0
sg97
g103
ssS'cacheexp'
p106
(dp107
g95
I100
sg96
I1
sg97
S'yes'
p108
ssS'maxconn'
p109
(dp110
g95
I50
sg96
I14
sg97
S'14'
p111
ssS'cacheredir'
p112
(dp113
g95
I1
sg96
I0
sg97
g103
ssS'prefetch'
p114
(dp115
g95
I100
sg96
I1
sg97
g108
ssS'parscriptstylesheet'
p116
(dp117
g95
I0
sg96
Nsg97
g98
ssS'gzip'
p118
(dp119
g95
I1
sg96
I0
sg97
g103
ssS'parscriptscript'
p120
(dp121
g95
I0
sg96
Nsg97
g98
ssS'du'
p122
(dp123
g95
I1
sg96
I0
sg97
g103
ssS'parsheet'
p124
(dp125
g95
I100
sg96
I1
sg97
g108
ssS'hostconn'
p126
(dp127
g95
I100
sg96
I7
sg97
S'7'
p128
ssssVObigo
p129
(dp130
S'summary_display'
p131
S'4/14'
p132
sS'total_runs'
p133
L16L
sS'summary_score'
p134
I29
sS'results'
p135
(dp136
S'parscriptiframe'
p137
(dp138
S'score'
p139
I0
sS'raw_score'
p140
NsS'display'
p141
g98
ssS'parscriptimage'
p142
(dp143
g139
I0
sg140
Nsg141
g98
ssS'parcssjs'
p144
(dp145
g139
I1
sg140
I0
sg141
S'no'
p146
ssS'cacheresredir'
p147
(dp148
g139
I1
sg140
I0
sg141
g146
ssS'cacheexp'
p149
(dp150
g139
I100
sg140
I1
sg141
S'yes'
p151
ssS'maxconn'
p152
(dp153
g139
I1
sg140
I8
sg141
S'8'
p154
ssS'cacheredir'
p155
(dp156
g139
I1
sg140
I0
sg141
g146
ssS'prefetch'
p157
(dp158
g139
I1
sg140
I0
sg141
g146
ssS'parscriptstylesheet'
p159
(dp160
g139
I0
sg140
Nsg141
g98
ssS'gzip'
p161
(dp162
g139
I100
sg140
I1
sg141
g151
ssS'parscriptscript'
p163
(dp164
g139
I0
sg140
Nsg141
g98
ssS'du'
p165
(dp166
g139
I100
sg140
I1
sg141
g151
ssS'parsheet'
p167
(dp168
g139
I1
sg140
I0
sg141
g146
ssS'hostconn'
p169
(dp170
g139
I100
sg140
I6
sg141
S'6'
p171
ssssVTeleca Q7
p172
(dp173
S'summary_display'
p174
S'4/14'
p175
sS'total_runs'
p176
L2L
sS'summary_score'
p177
I29
sS'results'
p178
(dp179
S'parscriptiframe'
p180
(dp181
S'score'
p182
I0
sS'raw_score'
p183
NsS'display'
p184
g98
ssS'parscriptimage'
p185
(dp186
g182
I0
sg183
Nsg184
g98
ssS'parcssjs'
p187
(dp188
g182
I1
sg183
I0
sg184
S'no'
p189
ssS'cacheresredir'
p190
(dp191
g182
I1
sg183
I0
sg184
g189
ssS'cacheexp'
p192
(dp193
g182
I100
sg183
I1
sg184
S'yes'
p194
ssS'maxconn'
p195
(dp196
g182
I1
sg183
I4
sg184
g43
ssS'cacheredir'
p197
(dp198
g182
I1
sg183
I0
sg184
g189
ssS'prefetch'
p199
(dp200
g182
I1
sg183
I0
sg184
g189
ssS'parscriptstylesheet'
p201
(dp202
g182
I0
sg183
Nsg184
g98
ssS'gzip'
p203
(dp204
g182
I100
sg183
I1
sg184
g194
ssS'parscriptscript'
p205
(dp206
g182
I0
sg183
Nsg184
g98
ssS'du'
p207
(dp208
g182
I100
sg183
I1
sg184
g194
ssS'parsheet'
p209
(dp210
g182
I1
sg183
I0
sg184
g189
ssS'hostconn'
p211
(dp212
g182
I100
sg183
I4
sg184
g43
ssssS'total_runs'
p213
L31131L
sVDemeter
p214
(dp215
S'summary_display'
p216
S'7/14'
p217
sS'total_runs'
p218
L1L
sS'summary_score'
p219
I50
sS'results'
p220
(dp221
S'parscriptiframe'
p222
(dp223
S'score'
p224
I0
sS'raw_score'
p225
NsS'display'
p226
g98
ssS'parscriptimage'
p227
(dp228
g224
I0
sg225
Nsg226
g98
ssS'parcssjs'
p229
(dp230
g224
I1
sg225
I0
sg226
S'no'
p231
ssS'cacheresredir'
p232
(dp233
g224
I100
sg225
I1
sg226
S'yes'
p234
ssS'cacheexp'
p235
(dp236
g224
I100
sg225
I1
sg226
g234
ssS'maxconn'
p237
(dp238
g224
I100
sg225
I60
sg226
S'60'
p239
ssS'cacheredir'
p240
(dp241
g224
I1
sg225
I0
sg226
g231
ssS'prefetch'
p242
(dp243
g224
I1
sg225
I0
sg226
g231
ssS'parscriptstylesheet'
p244
(dp245
g224
I0
sg225
Nsg226
g98
ssS'gzip'
p246
(dp247
g224
I100
sg225
I1
sg226
g234
ssS'parscriptscript'
p248
(dp249
g224
I0
sg225
Nsg226
g98
ssS'du'
p250
(dp251
g224
I100
sg225
I1
sg226
g234
ssS'parsheet'
p252
(dp253
g224
I100
sg225
I1
sg226
g234
ssS'hostconn'
p254
(dp255
g224
I100
sg225
I4
sg226
g43
ssssVChrome
p256
(dp257
S'summary_display'
p258
S'11/14'
p259
sS'total_runs'
p260
L3981L
sS'summary_score'
p261
I79
sS'results'
p262
(dp263
S'parscriptiframe'
p264
(dp265
S'score'
p266
I1
sS'raw_score'
p267
I0
sS'display'
p268
S'no'
p269
ssS'parscriptimage'
p270
(dp271
g266
I100
sg267
I1
sg268
S'yes'
p272
ssS'parcssjs'
p273
(dp274
g266
I1
sg267
I0
sg268
g269
ssS'cacheresredir'
p275
(dp276
g266
I100
sg267
I1
sg268
g272
ssS'cacheexp'
p277
(dp278
g266
I100
sg267
I1
sg268
g272
ssS'maxconn'
p279
(dp280
g266
I100
sg267
I60
sg268
S'60'
p281
ssS'cacheredir'
p282
(dp283
g266
I100
sg267
I1
sg268
g272
ssS'prefetch'
p284
(dp285
g266
I1
sg267
I0
sg268
g269
ssS'parscriptstylesheet'
p286
(dp287
g266
I100
sg267
I1
sg268
g272
ssS'gzip'
p288
(dp289
g266
I100
sg267
I1
sg268
g272
ssS'parscriptscript'
p290
(dp291
g266
I100
sg267
I1
sg268
g272
ssS'du'
p292
(dp293
g266
I100
sg267
I1
sg268
g272
ssS'parsheet'
p294
(dp295
g266
I100
sg267
I1
sg268
g272
ssS'hostconn'
p296
(dp297
g266
I100
sg267
I6
sg268
g171
ssssVJasmine
p298
(dp299
S'summary_display'
p300
S'6/14'
p301
sS'total_runs'
p302
L9L
sS'summary_score'
p303
I43
sS'results'
p304
(dp305
S'parscriptiframe'
p306
(dp307
S'score'
p308
I0
sS'raw_score'
p309
NsS'display'
p310
g98
ssS'parscriptimage'
p311
(dp312
g308
I0
sg309
Nsg310
g98
ssS'parcssjs'
p313
(dp314
g308
I1
sg309
I0
sg310
S'no'
p315
ssS'cacheresredir'
p316
(dp317
g308
I1
sg309
I0
sg310
g315
ssS'cacheexp'
p318
(dp319
g308
I100
sg309
I1
sg310
S'yes'
p320
ssS'maxconn'
p321
(dp322
g308
I1
sg309
I5
sg310
S'5'
p323
ssS'cacheredir'
p324
(dp325
g308
I1
sg309
I0
sg310
g315
ssS'prefetch'
p326
(dp327
g308
I100
sg309
I1
sg310
g320
ssS'parscriptstylesheet'
p328
(dp329
g308
I0
sg309
Nsg310
g98
ssS'gzip'
p330
(dp331
g308
I100
sg309
I1
sg310
g320
ssS'parscriptscript'
p332
(dp333
g308
I0
sg309
Nsg310
g98
ssS'du'
p334
(dp335
g308
I100
sg309
I1
sg310
g320
ssS'parsheet'
p336
(dp337
g308
I100
sg309
I1
sg310
g320
ssS'hostconn'
p338
(dp339
g308
I100
sg309
I5
sg310
g323
ssssVSeaMonkey
p340
(dp341
S'summary_display'
p342
S'10/14'
p343
sS'total_runs'
p344
L122L
sS'summary_score'
p345
I71
sS'results'
p346
(dp347
S'parscriptiframe'
p348
(dp349
S'score'
p350
I1
sS'raw_score'
p351
I0
sS'display'
p352
S'no'
p353
ssS'parscriptimage'
p354
(dp355
g350
I1
sg351
I0
sg352
g353
ssS'parcssjs'
p356
(dp357
g350
I1
sg351
I0
sg352
g353
ssS'cacheresredir'
p358
(dp359
g350
I100
sg351
I1
sg352
S'yes'
p360
ssS'cacheexp'
p361
(dp362
g350
I100
sg351
I1
sg352
g360
ssS'maxconn'
p363
(dp364
g350
I100
sg351
I24
sg352
S'24'
p365
ssS'cacheredir'
p366
(dp367
g350
I100
sg351
I1
sg352
g360
ssS'prefetch'
p368
(dp369
g350
I100
sg351
I1
sg352
g360
ssS'parscriptstylesheet'
p370
(dp371
g350
I100
sg351
I1
sg352
g360
ssS'gzip'
p372
(dp373
g350
I100
sg351
I1
sg352
g360
ssS'parscriptscript'
p374
(dp375
g350
I100
sg351
I1
sg352
g360
ssS'du'
p376
(dp377
g350
I100
sg351
I1
sg352
g360
ssS'parsheet'
p378
(dp379
g350
I1
sg351
I0
sg352
g353
ssS'hostconn'
p380
(dp381
g350
I100
sg351
I4
sg352
g43
ssssVFirefox (Minefield)
p382
(dp383
S'summary_display'
p384
S'12/14'
p385
sS'total_runs'
p386
L989L
sS'summary_score'
p387
I86
sS'results'
p388
(dp389
S'parscriptiframe'
p390
(dp391
S'score'
p392
I1
sS'raw_score'
p393
I0
sS'display'
p394
S'no'
p395
ssS'parscriptimage'
p396
(dp397
g392
I100
sg393
I1
sg394
S'yes'
p398
ssS'parcssjs'
p399
(dp400
g392
I1
sg393
I0
sg394
g395
ssS'cacheresredir'
p401
(dp402
g392
I100
sg393
I1
sg394
g398
ssS'cacheexp'
p403
(dp404
g392
I100
sg393
I1
sg394
g398
ssS'maxconn'
p405
(dp406
g392
I100
sg393
I30
sg394
S'30'
p407
ssS'cacheredir'
p408
(dp409
g392
I100
sg393
I1
sg394
g398
ssS'prefetch'
p410
(dp411
g392
I100
sg393
I1
sg394
g398
ssS'parscriptstylesheet'
p412
(dp413
g392
I100
sg393
I1
sg394
g398
ssS'gzip'
p414
(dp415
g392
I100
sg393
I1
sg394
g398
ssS'parscriptscript'
p416
(dp417
g392
I100
sg393
I1
sg394
g398
ssS'du'
p418
(dp419
g392
I100
sg393
I1
sg394
g398
ssS'parsheet'
p420
(dp421
g392
I100
sg393
I1
sg394
g398
ssS'hostconn'
p422
(dp423
g392
I100
sg393
I6
sg394
g171
ssssVFirefox (Shiretoko)
p424
(dp425
S'summary_display'
p426
S'11/14'
p427
sS'total_runs'
p428
L345L
sS'summary_score'
p429
I79
sS'results'
p430
(dp431
S'parscriptiframe'
p432
(dp433
S'score'
p434
I1
sS'raw_score'
p435
I0
sS'display'
p436
S'no'
p437
ssS'parscriptimage'
p438
(dp439
g434
I1
sg435
I0
sg436
g437
ssS'parcssjs'
p440
(dp441
g434
I1
sg435
I0
sg436
g437
ssS'cacheresredir'
p442
(dp443
g434
I100
sg435
I1
sg436
S'yes'
p444
ssS'cacheexp'
p445
(dp446
g434
I100
sg435
I1
sg436
g444
ssS'maxconn'
p447
(dp448
g434
I100
sg435
I30
sg436
S'30'
p449
ssS'cacheredir'
p450
(dp451
g434
I100
sg435
I1
sg436
g444
ssS'prefetch'
p452
(dp453
g434
I100
sg435
I1
sg436
g444
ssS'parscriptstylesheet'
p454
(dp455
g434
I100
sg435
I1
sg436
g444
ssS'gzip'
p456
(dp457
g434
I100
sg435
I1
sg436
g444
ssS'parscriptscript'
p458
(dp459
g434
I100
sg435
I1
sg436
g444
ssS'du'
p460
(dp461
g434
I100
sg435
I1
sg436
g444
ssS'parsheet'
p462
(dp463
g434
I100
sg435
I1
sg436
g444
ssS'hostconn'
p464
(dp465
g434
I100
sg435
I6
sg436
g171
ssssVMaxthon
p466
(dp467
S'summary_display'
p468
S'8/14'
p469
sS'total_runs'
p470
L81L
sS'summary_score'
p471
I57
sS'results'
p472
(dp473
S'du'
p474
(dp475
S'score'
p476
I1
sS'raw_score'
p477
I0
sS'display'
p478
S'no'
p479
ssS'parscriptimage'
p480
(dp481
g476
I100
sg477
I1
sg478
S'yes'
p482
ssS'cacheexp'
p483
(dp484
g476
I100
sg477
I1
sg478
g482
ssS'cacheresredir'
p485
(dp486
g476
I1
sg477
I0
sg478
g479
ssS'parcssjs'
p487
(dp488
g476
I1
sg477
I0
sg478
g479
ssS'parscriptiframe'
p489
(dp490
g476
I1
sg477
I0
sg478
g479
ssS'gzip'
p491
(dp492
g476
I100
sg477
I1
sg478
g482
ssS'prefetch'
p493
(dp494
g476
I1
sg477
I0
sg478
g479
ssS'parscriptstylesheet'
p495
(dp496
g476
I100
sg477
I1
sg478
g482
ssS'cacheredir'
p497
(dp498
g476
I1
sg477
I0
sg478
g479
ssS'parscriptscript'
p499
(dp500
g476
I100
sg477
I1
sg478
g482
ssS'maxconn'
p501
(dp502
g476
I100
sg477
I60
sg478
S'60'
p503
ssS'parsheet'
p504
(dp505
g476
I100
sg477
I1
sg478
g482
ssS'hostconn'
p506
(dp507
g476
I100
sg477
I8
sg478
g154
ssssVCamino
p508
(dp509
S'summary_display'
p510
S'7/14'
p511
sS'total_runs'
p512
L74L
sS'summary_score'
p513
I50
sS'results'
p514
(dp515
S'parscriptiframe'
p516
(dp517
S'score'
p518
I1
sS'raw_score'
p519
I0
sS'display'
p520
S'no'
p521
ssS'parscriptimage'
p522
(dp523
g518
I1
sg519
I0
sg520
g521
ssS'parcssjs'
p524
(dp525
g518
I1
sg519
I0
sg520
g521
ssS'cacheresredir'
p526
(dp527
g518
I100
sg519
I1
sg520
S'yes'
p528
ssS'cacheexp'
p529
(dp530
g518
I100
sg519
I1
sg520
g528
ssS'maxconn'
p531
(dp532
g518
I100
sg519
I24
sg520
S'24'
p533
ssS'cacheredir'
p534
(dp535
g518
I100
sg519
I1
sg520
g528
ssS'prefetch'
p536
(dp537
g518
I100
sg519
I1
sg520
g528
ssS'parscriptstylesheet'
p538
(dp539
g518
I1
sg519
I0
sg520
g521
ssS'gzip'
p540
(dp541
g518
I100
sg519
I1
sg520
g528
ssS'parscriptscript'
p542
(dp543
g518
I1
sg519
I0
sg520
g521
ssS'du'
p544
(dp545
g518
I100
sg519
I1
sg520
g528
ssS'parsheet'
p546
(dp547
g518
I1
sg519
I0
sg520
g521
ssS'hostconn'
p548
(dp549
g518
I50
sg519
I2
sg520
S'2'
p550
ssssVSpace Bison
p551
(dp552
S'summary_display'
p553
S'6/14'
p554
sS'total_runs'
p555
L7L
sS'summary_score'
p556
I43
sS'results'
p557
(dp558
S'parscriptiframe'
p559
(dp560
S'score'
p561
I0
sS'raw_score'
p562
NsS'display'
p563
g98
ssS'parscriptimage'
p564
(dp565
g561
I0
sg562
Nsg563
g98
ssS'parcssjs'
p566
(dp567
g561
I1
sg562
I0
sg563
S'no'
p568
ssS'cacheresredir'
p569
(dp570
g561
I1
sg562
I0
sg563
g568
ssS'cacheexp'
p571
(dp572
g561
I100
sg562
I1
sg563
S'yes'
p573
ssS'maxconn'
p574
(dp575
g561
I100
sg562
I59
sg563
S'59'
p576
ssS'cacheredir'
p577
(dp578
g561
I1
sg562
I0
sg563
g568
ssS'prefetch'
p579
(dp580
g561
I1
sg562
I0
sg563
g568
ssS'parscriptstylesheet'
p581
(dp582
g561
I0
sg562
Nsg563
g98
ssS'gzip'
p583
(dp584
g561
I100
sg562
I1
sg563
g573
ssS'parscriptscript'
p585
(dp586
g561
I0
sg562
Nsg563
g98
ssS'du'
p587
(dp588
g561
I100
sg562
I1
sg563
g573
ssS'parsheet'
p589
(dp590
g561
I100
sg562
I1
sg563
g573
ssS'hostconn'
p591
(dp592
g561
I100
sg562
I9
sg563
S'9'
p593
ssssVOther
p594
(dp595
S'summary_display'
p596
S'10/14'
p597
sS'total_runs'
p598
L132L
sS'summary_score'
p599
I71
sS'results'
p600
(dp601
S'parscriptiframe'
p602
(dp603
S'score'
p604
I1
sS'raw_score'
p605
I0
sS'display'
p606
S'no'
p607
ssS'parscriptimage'
p608
(dp609
g604
I100
sg605
I1
sg606
S'yes'
p610
ssS'parcssjs'
p611
(dp612
g604
I1
sg605
I0
sg606
g607
ssS'cacheresredir'
p613
(dp614
g604
I100
sg605
I1
sg606
g610
ssS'cacheexp'
p615
(dp616
g604
I100
sg605
I1
sg606
g610
ssS'maxconn'
p617
(dp618
g604
I100
sg605
I30
sg606
S'30'
p619
ssS'cacheredir'
p620
(dp621
g604
I1
sg605
I0
sg606
g607
ssS'prefetch'
p622
(dp623
g604
I1
sg605
I0
sg606
g607
ssS'parscriptstylesheet'
p624
(dp625
g604
I100
sg605
I1
sg606
g610
ssS'gzip'
p626
(dp627
g604
I100
sg605
I1
sg606
g610
ssS'parscriptscript'
p628
(dp629
g604
I100
sg605
I1
sg606
g610
ssS'du'
p630
(dp631
g604
I100
sg605
I1
sg606
g610
ssS'parsheet'
p632
(dp633
g604
I100
sg605
I1
sg606
g610
ssS'hostconn'
p634
(dp635
g604
I100
sg605
I4
sg606
g43
ssssVWebPilot
p636
(dp637
S'summary_display'
p638
S'5/14'
p639
sS'total_runs'
p640
L1L
sS'summary_score'
p641
I36
sS'results'
p642
(dp643
S'parscriptiframe'
p644
(dp645
S'score'
p646
I0
sS'raw_score'
p647
NsS'display'
p648
g98
ssS'parscriptimage'
p649
(dp650
g646
I0
sg647
Nsg648
g98
ssS'parcssjs'
p651
(dp652
g646
I1
sg647
I0
sg648
S'no'
p653
ssS'cacheresredir'
p654
(dp655
g646
I1
sg647
I0
sg648
g653
ssS'cacheexp'
p656
(dp657
g646
I100
sg647
I1
sg648
S'yes'
p658
ssS'maxconn'
p659
(dp660
g646
I100
sg647
I48
sg648
S'48'
p661
ssS'cacheredir'
p662
(dp663
g646
I1
sg647
I0
sg648
g653
ssS'prefetch'
p664
(dp665
g646
I1
sg647
I0
sg648
g653
ssS'parscriptstylesheet'
p666
(dp667
g646
I0
sg647
Nsg648
g98
ssS'gzip'
p668
(dp669
g646
I100
sg647
I1
sg648
g658
ssS'parscriptscript'
p670
(dp671
g646
I0
sg647
Nsg648
g98
ssS'du'
p672
(dp673
g646
I1
sg647
I0
sg648
g653
ssS'parsheet'
p674
(dp675
g646
I100
sg647
I1
sg648
g658
ssS'hostconn'
p676
(dp677
g646
I100
sg647
I16
sg648
S'16'
p678
ssssVGranParadiso
p679
(dp680
S'summary_display'
p681
S'7/14'
p682
sS'total_runs'
p683
L47L
sS'summary_score'
p684
I50
sS'results'
p685
(dp686
S'parscriptiframe'
p687
(dp688
S'score'
p689
I1
sS'raw_score'
p690
I0
sS'display'
p691
S'no'
p692
ssS'parscriptimage'
p693
(dp694
g689
I1
sg690
I0
sg691
g692
ssS'parcssjs'
p695
(dp696
g689
I1
sg690
I0
sg691
g692
ssS'cacheresredir'
p697
(dp698
g689
I1
sg690
I0
sg691
g692
ssS'cacheexp'
p699
(dp700
g689
I100
sg690
I1
sg691
S'yes'
p701
ssS'maxconn'
p702
(dp703
g689
I100
sg690
I30
sg691
S'30'
p704
ssS'cacheredir'
p705
(dp706
g689
I1
sg690
I0
sg691
g692
ssS'prefetch'
p707
(dp708
g689
I100
sg690
I1
sg691
g701
ssS'parscriptstylesheet'
p709
(dp710
g689
I1
sg690
I0
sg691
g692
ssS'gzip'
p711
(dp712
g689
I100
sg690
I1
sg691
g701
ssS'parscriptscript'
p713
(dp714
g689
I1
sg690
I0
sg691
g692
ssS'du'
p715
(dp716
g689
I100
sg690
I1
sg691
g701
ssS'parsheet'
p717
(dp718
g689
I100
sg690
I1
sg691
g701
ssS'hostconn'
p719
(dp720
g689
I100
sg690
I6
sg691
g171
ssssVOpera Mini
p721
(dp722
S'summary_display'
p723
S'5/14'
p724
sS'total_runs'
p725
L60L
sS'summary_score'
p726
I36
sS'results'
p727
(dp728
S'parscriptiframe'
p729
(dp730
S'score'
p731
I1
sS'raw_score'
p732
I0
sS'display'
p733
S'no'
p734
ssS'parscriptimage'
p735
(dp736
g731
I1
sg732
I0
sg733
g734
ssS'parcssjs'
p737
(dp738
g731
I1
sg732
I0
sg733
g734
ssS'cacheresredir'
p739
(dp740
g731
I1
sg732
I0
sg733
g734
ssS'cacheexp'
p741
(dp742
g731
I1
sg732
I0
sg733
g734
ssS'maxconn'
p743
(dp744
g731
I100
sg732
I60
sg733
S'60'
p745
ssS'cacheredir'
p746
(dp747
g731
I1
sg732
I0
sg733
g734
ssS'prefetch'
p748
(dp749
g731
I1
sg732
I0
sg733
g734
ssS'parscriptstylesheet'
p750
(dp751
g731
I1
sg732
I0
sg733
g734
ssS'gzip'
p752
(dp753
g731
I100
sg732
I1
sg733
S'yes'
p754
ssS'parscriptscript'
p755
(dp756
g731
I1
sg732
I0
sg733
g734
ssS'du'
p757
(dp758
g731
I100
sg732
I1
sg733
g754
ssS'parsheet'
p759
(dp760
g731
I100
sg732
I1
sg733
g754
ssS'hostconn'
p761
(dp762
g731
I100
sg732
I10
sg733
S'10'
p763
ssssVAndroid
p764
(dp765
S'summary_display'
p766
S'10/14'
p767
sS'total_runs'
p768
L115L
sS'summary_score'
p769
I71
sS'results'
p770
(dp771
S'du'
p772
(dp773
S'score'
p774
I100
sS'raw_score'
p775
I1
sS'display'
p776
S'yes'
p777
ssS'parscriptimage'
p778
(dp779
g774
I100
sg775
I1
sg776
g777
ssS'cacheexp'
p780
(dp781
g774
I100
sg775
I1
sg776
g777
ssS'cacheresredir'
p782
(dp783
g774
I100
sg775
I1
sg776
g777
ssS'parcssjs'
p784
(dp785
g774
I1
sg775
I0
sg776
S'no'
p786
ssS'parscriptiframe'
p787
(dp788
g774
I1
sg775
I0
sg776
g786
ssS'gzip'
p789
(dp790
g774
I100
sg775
I1
sg776
g777
ssS'prefetch'
p791
(dp792
g774
I1
sg775
I0
sg776
g786
ssS'parscriptstylesheet'
p793
(dp794
g774
I100
sg775
I1
sg776
g777
ssS'cacheredir'
p795
(dp796
g774
I100
sg775
I1
sg776
g777
ssS'parscriptscript'
p797
(dp798
g774
I100
sg775
I1
sg776
g777
ssS'maxconn'
p799
(dp800
g774
I1
sg775
I4
sg776
g43
ssS'parsheet'
p801
(dp802
g774
I100
sg775
I1
sg776
g777
ssS'hostconn'
p803
(dp804
g774
I100
sg775
I4
sg776
g43
ssssVUzbl
p805
(dp806
S'summary_display'
p807
S'9/14'
p808
sS'total_runs'
p809
L31L
sS'summary_score'
p810
I64
sS'results'
p811
(dp812
S'parscriptiframe'
p813
(dp814
S'score'
p815
I1
sS'raw_score'
p816
I0
sS'display'
p817
S'no'
p818
ssS'parscriptimage'
p819
(dp820
g815
I100
sg816
I1
sg817
S'yes'
p821
ssS'parcssjs'
p822
(dp823
g815
I1
sg816
I0
sg817
g818
ssS'cacheresredir'
p824
(dp825
g815
I100
sg816
I1
sg817
g821
ssS'cacheexp'
p826
(dp827
g815
I100
sg816
I1
sg817
g821
ssS'maxconn'
p828
(dp829
g815
I100
sg816
I41
sg817
S'41'
p830
ssS'cacheredir'
p831
(dp832
g815
I1
sg816
I0
sg817
g818
ssS'prefetch'
p833
(dp834
g815
I1
sg816
I0
sg817
g818
ssS'parscriptstylesheet'
p835
(dp836
g815
I100
sg816
I1
sg817
g821
ssS'gzip'
p837
(dp838
g815
I1
sg816
I0
sg817
g818
ssS'parscriptscript'
p839
(dp840
g815
I100
sg816
I1
sg817
g821
ssS'du'
p841
(dp842
g815
I100
sg816
I1
sg817
g821
ssS'parsheet'
p843
(dp844
g815
I100
sg816
I1
sg817
g821
ssS'hostconn'
p845
(dp846
g815
I100
sg816
I6
sg817
g171
ssssVBon Echo
p847
(dp848
S'summary_display'
p849
S'8/14'
p850
sS'total_runs'
p851
L2L
sS'summary_score'
p852
I57
sS'results'
p853
(dp854
S'parscriptiframe'
p855
(dp856
S'score'
p857
I0
sS'raw_score'
p858
NsS'display'
p859
g98
ssS'parscriptimage'
p860
(dp861
g857
I0
sg858
Nsg859
g98
ssS'parcssjs'
p862
(dp863
g857
I1
sg858
I0
sg859
S'no'
p864
ssS'cacheresredir'
p865
(dp866
g857
I100
sg858
I1
sg859
S'yes'
p867
ssS'cacheexp'
p868
(dp869
g857
I100
sg858
I1
sg859
g867
ssS'maxconn'
p870
(dp871
g857
I100
sg858
I49
sg859
S'49'
p872
ssS'cacheredir'
p873
(dp874
g857
I100
sg858
I1
sg859
g867
ssS'prefetch'
p875
(dp876
g857
I100
sg858
I1
sg859
g867
ssS'parscriptstylesheet'
p877
(dp878
g857
I0
sg858
Nsg859
g98
ssS'gzip'
p879
(dp880
g857
I100
sg858
I1
sg859
g867
ssS'parscriptscript'
p881
(dp882
g857
I0
sg858
Nsg859
g98
ssS'du'
p883
(dp884
g857
I100
sg858
I1
sg859
g867
ssS'parsheet'
p885
(dp886
g857
I1
sg858
I0
sg859
g864
ssS'hostconn'
p887
(dp888
g857
I100
sg858
I8
sg859
g154
ssssVOLPC
p889
(dp890
S'summary_display'
p891
S'7/14'
p892
sS'total_runs'
p893
L1L
sS'summary_score'
p894
I50
sS'results'
p895
(dp896
S'parscriptiframe'
p897
(dp898
S'score'
p899
I0
sS'raw_score'
p900
NsS'display'
p901
g98
ssS'parscriptimage'
p902
(dp903
g899
I0
sg900
Nsg901
g98
ssS'parcssjs'
p904
(dp905
g899
I1
sg900
I0
sg901
S'no'
p906
ssS'cacheresredir'
p907
(dp908
g899
I100
sg900
I1
sg901
S'yes'
p909
ssS'cacheexp'
p910
(dp911
g899
I100
sg900
I1
sg901
g909
ssS'maxconn'
p912
(dp913
g899
I100
sg900
I24
sg901
S'24'
p914
ssS'cacheredir'
p915
(dp916
g899
I1
sg900
I0
sg901
g906
ssS'prefetch'
p917
(dp918
g899
I100
sg900
I1
sg901
g909
ssS'parscriptstylesheet'
p919
(dp920
g899
I0
sg900
Nsg901
g98
ssS'gzip'
p921
(dp922
g899
I100
sg900
I1
sg901
g909
ssS'parscriptscript'
p923
(dp924
g899
I0
sg900
Nsg901
g98
ssS'du'
p925
(dp926
g899
I100
sg900
I1
sg901
g909
ssS'parsheet'
p927
(dp928
g899
I100
sg900
I1
sg901
g909
ssS'hostconn'
p929
(dp930
g899
I50
sg900
I2
sg901
g550
ssssVVienna
p931
(dp932
S'summary_display'
p933
S'7/14'
p934
sS'total_runs'
p935
L7L
sS'summary_score'
p936
I50
sS'results'
p937
(dp938
S'parscriptiframe'
p939
(dp940
S'score'
p941
I0
sS'raw_score'
p942
NsS'display'
p943
g98
ssS'parscriptimage'
p944
(dp945
g941
I0
sg942
Nsg943
g98
ssS'parcssjs'
p946
(dp947
g941
I1
sg942
I0
sg943
S'no'
p948
ssS'cacheresredir'
p949
(dp950
g941
I100
sg942
I1
sg943
S'yes'
p951
ssS'cacheexp'
p952
(dp953
g941
I100
sg942
I1
sg943
g951
ssS'maxconn'
p954
(dp955
g941
I100
sg942
I60
sg943
S'60'
p956
ssS'cacheredir'
p957
(dp958
g941
I1
sg942
I0
sg943
g948
ssS'prefetch'
p959
(dp960
g941
I1
sg942
I0
sg943
g948
ssS'parscriptstylesheet'
p961
(dp962
g941
I0
sg942
Nsg943
g98
ssS'gzip'
p963
(dp964
g941
I100
sg942
I1
sg943
g951
ssS'parscriptscript'
p965
(dp966
g941
I0
sg942
Nsg943
g98
ssS'du'
p967
(dp968
g941
I100
sg942
I1
sg943
g951
ssS'parsheet'
p969
(dp970
g941
I100
sg942
I1
sg943
g951
ssS'hostconn'
p971
(dp972
g941
I100
sg942
I4
sg943
g43
ssssVSleipnir
p973
(dp974
S'summary_display'
p975
S'8/14'
p976
sS'total_runs'
p977
L34L
sS'summary_score'
p978
I57
sS'results'
p979
(dp980
S'parscriptiframe'
p981
(dp982
S'score'
p983
I1
sS'raw_score'
p984
I0
sS'display'
p985
S'no'
p986
ssS'parscriptimage'
p987
(dp988
g983
I1
sg984
I0
sg985
g986
ssS'parcssjs'
p989
(dp990
g983
I1
sg984
I0
sg985
g986
ssS'cacheresredir'
p991
(dp992
g983
I1
sg984
I0
sg985
g986
ssS'cacheexp'
p993
(dp994
g983
I100
sg984
I1
sg985
S'yes'
p995
ssS'maxconn'
p996
(dp997
g983
I100
sg984
I60
sg985
S'60'
p998
ssS'cacheredir'
p999
(dp1000
g983
I1
sg984
I0
sg985
g986
ssS'prefetch'
p1001
(dp1002
g983
I1
sg984
I0
sg985
g986
ssS'parscriptstylesheet'
p1003
(dp1004
g983
I100
sg984
I1
sg985
g995
ssS'gzip'
p1005
(dp1006
g983
I100
sg984
I1
sg985
g995
ssS'parscriptscript'
p1007
(dp1008
g983
I100
sg984
I1
sg985
g995
ssS'du'
p1009
(dp1010
g983
I100
sg984
I1
sg985
g995
ssS'parsheet'
p1011
(dp1012
g983
I100
sg984
I1
sg985
g995
ssS'hostconn'
p1013
(dp1014
g983
I100
sg984
I6
sg985
g171
ssssVNetFront
p1015
(dp1016
S'summary_display'
p1017
S'6/14'
p1018
sS'total_runs'
p1019
L44L
sS'summary_score'
p1020
I43
sS'results'
p1021
(dp1022
S'parscriptiframe'
p1023
(dp1024
S'score'
p1025
I1
sS'raw_score'
p1026
I0
sS'display'
p1027
S'no'
p1028
ssS'parscriptimage'
p1029
(dp1030
g1025
I1
sg1026
I0
sg1027
g1028
ssS'parcssjs'
p1031
(dp1032
g1025
I1
sg1026
I0
sg1027
g1028
ssS'cacheresredir'
p1033
(dp1034
g1025
I100
sg1026
I1
sg1027
S'yes'
p1035
ssS'cacheexp'
p1036
(dp1037
g1025
I100
sg1026
I1
sg1027
g1035
ssS'maxconn'
p1038
(dp1039
g1025
I0
sg1026
I0
sg1027
S'0'
p1040
ssS'cacheredir'
p1041
(dp1042
g1025
I1
sg1026
I0
sg1027
g1028
ssS'prefetch'
p1043
(dp1044
g1025
I100
sg1026
I1
sg1027
g1035
ssS'parscriptstylesheet'
p1045
(dp1046
g1025
I1
sg1026
I0
sg1027
g1028
ssS'gzip'
p1047
(dp1048
g1025
I100
sg1026
I1
sg1027
g1035
ssS'parscriptscript'
p1049
(dp1050
g1025
I1
sg1026
I0
sg1027
g1028
ssS'du'
p1051
(dp1052
g1025
I100
sg1026
I1
sg1027
g1035
ssS'parsheet'
p1053
(dp1054
g1025
I100
sg1026
I1
sg1027
g1035
ssS'hostconn'
p1055
(dp1056
g1025
I0
sg1026
I0
sg1027
g1040
ssssVNokia
p1057
(dp1058
S'summary_display'
p1059
S'5/14'
p1060
sS'total_runs'
p1061
L67L
sS'summary_score'
p1062
I36
sS'results'
p1063
(dp1064
S'parscriptiframe'
p1065
(dp1066
S'score'
p1067
I0
sS'raw_score'
p1068
NsS'display'
p1069
g98
ssS'parscriptimage'
p1070
(dp1071
g1067
I0
sg1068
Nsg1069
g98
ssS'parcssjs'
p1072
(dp1073
g1067
I1
sg1068
I0
sg1069
S'no'
p1074
ssS'cacheresredir'
p1075
(dp1076
g1067
I1
sg1068
I0
sg1069
g1074
ssS'cacheexp'
p1077
(dp1078
g1067
I100
sg1068
I1
sg1069
S'yes'
p1079
ssS'maxconn'
p1080
(dp1081
g1067
I1
sg1068
I7
sg1069
g128
ssS'cacheredir'
p1082
(dp1083
g1067
I1
sg1068
I0
sg1069
g1074
ssS'prefetch'
p1084
(dp1085
g1067
I100
sg1068
I1
sg1069
g1079
ssS'parscriptstylesheet'
p1086
(dp1087
g1067
I0
sg1068
Nsg1069
g98
ssS'gzip'
p1088
(dp1089
g1067
I100
sg1068
I1
sg1069
g1079
ssS'parscriptscript'
p1090
(dp1091
g1067
I0
sg1068
Nsg1069
g98
ssS'du'
p1092
(dp1093
g1067
I1
sg1068
I0
sg1069
g1074
ssS'parsheet'
p1094
(dp1095
g1067
I100
sg1068
I1
sg1069
g1079
ssS'hostconn'
p1096
(dp1097
g1067
I100
sg1068
I7
sg1069
g128
ssssVFresco
p1098
(dp1099
S'summary_display'
p1100
S'7/14'
p1101
sS'total_runs'
p1102
L1L
sS'summary_score'
p1103
I50
sS'results'
p1104
(dp1105
S'parscriptiframe'
p1106
(dp1107
S'score'
p1108
I0
sS'raw_score'
p1109
NsS'display'
p1110
g98
ssS'parscriptimage'
p1111
(dp1112
g1108
I0
sg1109
Nsg1110
g98
ssS'parcssjs'
p1113
(dp1114
g1108
I1
sg1109
I0
sg1110
S'no'
p1115
ssS'cacheresredir'
p1116
(dp1117
g1108
I1
sg1109
I0
sg1110
g1115
ssS'cacheexp'
p1118
(dp1119
g1108
I100
sg1109
I1
sg1110
S'yes'
p1120
ssS'maxconn'
p1121
(dp1122
g1108
I100
sg1109
I30
sg1110
S'30'
p1123
ssS'cacheredir'
p1124
(dp1125
g1108
I1
sg1109
I0
sg1110
g1115
ssS'prefetch'
p1126
(dp1127
g1108
I100
sg1109
I1
sg1110
g1120
ssS'parscriptstylesheet'
p1128
(dp1129
g1108
I0
sg1109
Nsg1110
g98
ssS'gzip'
p1130
(dp1131
g1108
I100
sg1109
I1
sg1110
g1120
ssS'parscriptscript'
p1132
(dp1133
g1108
I0
sg1109
Nsg1110
g98
ssS'du'
p1134
(dp1135
g1108
I100
sg1109
I1
sg1110
g1120
ssS'parsheet'
p1136
(dp1137
g1108
I100
sg1109
I1
sg1110
g1120
ssS'hostconn'
p1138
(dp1139
g1108
I100
sg1109
I6
sg1110
g171
ssssVFluid
p1140
(dp1141
S'summary_display'
p1142
S'7/14'
p1143
sS'total_runs'
p1144
L3L
sS'summary_score'
p1145
I50
sS'results'
p1146
(dp1147
S'parscriptiframe'
p1148
(dp1149
S'score'
p1150
I0
sS'raw_score'
p1151
NsS'display'
p1152
g98
ssS'parscriptimage'
p1153
(dp1154
g1150
I0
sg1151
Nsg1152
g98
ssS'parcssjs'
p1155
(dp1156
g1150
I1
sg1151
I0
sg1152
S'no'
p1157
ssS'cacheresredir'
p1158
(dp1159
g1150
I100
sg1151
I1
sg1152
S'yes'
p1160
ssS'cacheexp'
p1161
(dp1162
g1150
I100
sg1151
I1
sg1152
g1160
ssS'maxconn'
p1163
(dp1164
g1150
I100
sg1151
I60
sg1152
S'60'
p1165
ssS'cacheredir'
p1166
(dp1167
g1150
I1
sg1151
I0
sg1152
g1157
ssS'prefetch'
p1168
(dp1169
g1150
I1
sg1151
I0
sg1152
g1157
ssS'parscriptstylesheet'
p1170
(dp1171
g1150
I0
sg1151
Nsg1152
g98
ssS'gzip'
p1172
(dp1173
g1150
I100
sg1151
I1
sg1152
g1160
ssS'parscriptscript'
p1174
(dp1175
g1150
I0
sg1151
Nsg1152
g98
ssS'du'
p1176
(dp1177
g1150
I100
sg1151
I1
sg1152
g1160
ssS'parsheet'
p1178
(dp1179
g1150
I100
sg1151
I1
sg1152
g1160
ssS'hostconn'
p1180
(dp1181
g1150
I100
sg1151
I4
sg1152
g43
ssssVK-Meleon
p1182
(dp1183
S'summary_display'
p1184
S'7/14'
p1185
sS'total_runs'
p1186
L26L
sS'summary_score'
p1187
I50
sS'results'
p1188
(dp1189
S'parscriptiframe'
p1190
(dp1191
S'score'
p1192
I1
sS'raw_score'
p1193
I0
sS'display'
p1194
S'no'
p1195
ssS'parscriptimage'
p1196
(dp1197
g1192
I1
sg1193
I0
sg1194
g1195
ssS'parcssjs'
p1198
(dp1199
g1192
I1
sg1193
I0
sg1194
g1195
ssS'cacheresredir'
p1200
(dp1201
g1192
I100
sg1193
I1
sg1194
S'yes'
p1202
ssS'cacheexp'
p1203
(dp1204
g1192
I100
sg1193
I1
sg1194
g1202
ssS'maxconn'
p1205
(dp1206
g1192
I100
sg1193
I24
sg1194
S'24'
p1207
ssS'cacheredir'
p1208
(dp1209
g1192
I100
sg1193
I1
sg1194
g1202
ssS'prefetch'
p1210
(dp1211
g1192
I100
sg1193
I1
sg1194
g1202
ssS'parscriptstylesheet'
p1212
(dp1213
g1192
I1
sg1193
I0
sg1194
g1195
ssS'gzip'
p1214
(dp1215
g1192
I100
sg1193
I1
sg1194
g1202
ssS'parscriptscript'
p1216
(dp1217
g1192
I1
sg1193
I0
sg1194
g1195
ssS'du'
p1218
(dp1219
g1192
I100
sg1193
I1
sg1194
g1202
ssS'parsheet'
p1220
(dp1221
g1192
I1
sg1193
I0
sg1194
g1195
ssS'hostconn'
p1222
(dp1223
g1192
I50
sg1193
I2
sg1194
g550
ssssVChrome Frame (IE 7)
p1224
(dp1225
S'summary_display'
p1226
S'7/14'
p1227
sS'total_runs'
p1228
L3L
sS'summary_score'
p1229
I50
sS'results'
p1230
(dp1231
S'parscriptiframe'
p1232
(dp1233
S'score'
p1234
I0
sS'raw_score'
p1235
NsS'display'
p1236
g98
ssS'parscriptimage'
p1237
(dp1238
g1234
I0
sg1235
Nsg1236
g98
ssS'parcssjs'
p1239
(dp1240
g1234
I1
sg1235
I0
sg1236
S'no'
p1241
ssS'cacheresredir'
p1242
(dp1243
g1234
I100
sg1235
I1
sg1236
S'yes'
p1244
ssS'cacheexp'
p1245
(dp1246
g1234
I100
sg1235
I1
sg1236
g1244
ssS'maxconn'
p1247
(dp1248
g1234
I100
sg1235
I59
sg1236
S'59'
p1249
ssS'cacheredir'
p1250
(dp1251
g1234
I1
sg1235
I0
sg1236
g1241
ssS'prefetch'
p1252
(dp1253
g1234
I1
sg1235
I0
sg1236
g1241
ssS'parscriptstylesheet'
p1254
(dp1255
g1234
I0
sg1235
Nsg1236
g98
ssS'gzip'
p1256
(dp1257
g1234
I100
sg1235
I1
sg1236
g1244
ssS'parscriptscript'
p1258
(dp1259
g1234
I0
sg1235
Nsg1236
g98
ssS'du'
p1260
(dp1261
g1234
I100
sg1235
I1
sg1236
g1244
ssS'parsheet'
p1262
(dp1263
g1234
I100
sg1235
I1
sg1236
g1244
ssS'hostconn'
p1264
(dp1265
g1234
I100
sg1235
I3
sg1236
S'3'
p1266
ssssVQtWeb
p1267
(dp1268
S'summary_display'
p1269
S'6/14'
p1270
sS'total_runs'
p1271
L5L
sS'summary_score'
p1272
I43
sS'results'
p1273
(dp1274
S'parscriptiframe'
p1275
(dp1276
S'score'
p1277
I0
sS'raw_score'
p1278
NsS'display'
p1279
g98
ssS'parscriptimage'
p1280
(dp1281
g1277
I0
sg1278
Nsg1279
g98
ssS'parcssjs'
p1282
(dp1283
g1277
I1
sg1278
I0
sg1279
S'no'
p1284
ssS'cacheresredir'
p1285
(dp1286
g1277
I100
sg1278
I1
sg1279
S'yes'
p1287
ssS'cacheexp'
p1288
(dp1289
g1277
I100
sg1278
I1
sg1279
g1287
ssS'maxconn'
p1290
(dp1291
g1277
I100
sg1278
I60
sg1279
S'60'
p1292
ssS'cacheredir'
p1293
(dp1294
g1277
I1
sg1278
I0
sg1279
g1284
ssS'prefetch'
p1295
(dp1296
g1277
I1
sg1278
I0
sg1279
g1284
ssS'parscriptstylesheet'
p1297
(dp1298
g1277
I0
sg1278
Nsg1279
g98
ssS'gzip'
p1299
(dp1300
g1277
I100
sg1278
I1
sg1279
g1287
ssS'parscriptscript'
p1301
(dp1302
g1277
I0
sg1278
Nsg1279
g98
ssS'du'
p1303
(dp1304
g1277
I100
sg1278
I1
sg1279
g1287
ssS'parsheet'
p1305
(dp1306
g1277
I100
sg1278
I1
sg1279
g1287
ssS'hostconn'
p1307
(dp1308
g1277
I50
sg1278
I2
sg1279
g550
ssssVBolt
p1309
(dp1310
S'summary_display'
p1311
S'5/14'
p1312
sS'total_runs'
p1313
L2L
sS'summary_score'
p1314
I36
sS'results'
p1315
(dp1316
S'parscriptiframe'
p1317
(dp1318
S'score'
p1319
I0
sS'raw_score'
p1320
NsS'display'
p1321
g98
ssS'parscriptimage'
p1322
(dp1323
g1319
I0
sg1320
Nsg1321
g98
ssS'parcssjs'
p1324
(dp1325
g1319
I1
sg1320
I0
sg1321
S'no'
p1326
ssS'cacheresredir'
p1327
(dp1328
g1319
I1
sg1320
I0
sg1321
g1326
ssS'cacheexp'
p1329
(dp1330
g1319
I1
sg1320
I0
sg1321
g1326
ssS'maxconn'
p1331
(dp1332
g1319
I1
sg1320
I5
sg1321
g323
ssS'cacheredir'
p1333
(dp1334
g1319
I100
sg1320
I1
sg1321
S'yes'
p1335
ssS'prefetch'
p1336
(dp1337
g1319
I1
sg1320
I0
sg1321
g1326
ssS'parscriptstylesheet'
p1338
(dp1339
g1319
I0
sg1320
Nsg1321
g98
ssS'gzip'
p1340
(dp1341
g1319
I100
sg1320
I1
sg1321
g1335
ssS'parscriptscript'
p1342
(dp1343
g1319
I0
sg1320
Nsg1321
g98
ssS'du'
p1344
(dp1345
g1319
I100
sg1320
I1
sg1321
g1335
ssS'parsheet'
p1346
(dp1347
g1319
I100
sg1320
I1
sg1321
g1335
ssS'hostconn'
p1348
(dp1349
g1319
I100
sg1320
I5
sg1321
g323
ssssVPlayStation Portable
p1350
(dp1351
S'summary_display'
p1352
S'0/14'
p1353
sS'total_runs'
p1354
L2L
sS'summary_score'
p1355
I0
sS'results'
p1356
(dp1357
S'parscriptiframe'
p1358
(dp1359
S'score'
p1360
I0
sS'raw_score'
p1361
NsS'display'
p1362
g98
ssS'parscriptimage'
p1363
(dp1364
g1360
I0
sg1361
Nsg1362
g98
ssS'parcssjs'
p1365
(dp1366
g1360
I1
sg1361
I0
sg1362
S'no'
p1367
ssS'cacheresredir'
p1368
(dp1369
g1360
I1
sg1361
I0
sg1362
g1367
ssS'cacheexp'
p1370
(dp1371
g1360
I1
sg1361
I0
sg1362
g1367
ssS'maxconn'
p1372
(dp1373
g1360
I0
sg1361
I0
sg1362
g1040
ssS'cacheredir'
p1374
(dp1375
g1360
I1
sg1361
I0
sg1362
g1367
ssS'prefetch'
p1376
(dp1377
g1360
I1
sg1361
I0
sg1362
g1367
ssS'parscriptstylesheet'
p1378
(dp1379
g1360
I0
sg1361
Nsg1362
g98
ssS'gzip'
p1380
(dp1381
g1360
I1
sg1361
I0
sg1362
g1367
ssS'parscriptscript'
p1382
(dp1383
g1360
I0
sg1361
Nsg1362
g98
ssS'du'
p1384
(dp1385
g1360
I1
sg1361
I0
sg1362
g1367
ssS'parsheet'
p1386
(dp1387
g1360
I1
sg1361
I0
sg1362
g1367
ssS'hostconn'
p1388
(dp1389
g1360
I0
sg1361
I0
sg1362
g1040
ssssVStainless
p1390
(dp1391
S'summary_display'
p1392
S'10/14'
p1393
sS'total_runs'
p1394
L7L
sS'summary_score'
p1395
I71
sS'results'
p1396
(dp1397
S'parscriptiframe'
p1398
(dp1399
S'score'
p1400
I1
sS'raw_score'
p1401
I0
sS'display'
p1402
S'no'
p1403
ssS'parscriptimage'
p1404
(dp1405
g1400
I100
sg1401
I1
sg1402
S'yes'
p1406
ssS'parcssjs'
p1407
(dp1408
g1400
I1
sg1401
I0
sg1402
g1403
ssS'cacheresredir'
p1409
(dp1410
g1400
I100
sg1401
I1
sg1402
g1406
ssS'cacheexp'
p1411
(dp1412
g1400
I100
sg1401
I1
sg1402
g1406
ssS'maxconn'
p1413
(dp1414
g1400
I100
sg1401
I60
sg1402
S'60'
p1415
ssS'cacheredir'
p1416
(dp1417
g1400
I1
sg1401
I0
sg1402
g1403
ssS'prefetch'
p1418
(dp1419
g1400
I1
sg1401
I0
sg1402
g1403
ssS'parscriptstylesheet'
p1420
(dp1421
g1400
I100
sg1401
I1
sg1402
g1406
ssS'gzip'
p1422
(dp1423
g1400
I100
sg1401
I1
sg1402
g1406
ssS'parscriptscript'
p1424
(dp1425
g1400
I100
sg1401
I1
sg1402
g1406
ssS'du'
p1426
(dp1427
g1400
I100
sg1401
I1
sg1402
g1406
ssS'parsheet'
p1428
(dp1429
g1400
I100
sg1401
I1
sg1402
g1406
ssS'hostconn'
p1430
(dp1431
g1400
I100
sg1401
I6
sg1402
g171
ssssVGaleon
p1432
(dp1433
S'summary_display'
p1434
S'7/14'
p1435
sS'total_runs'
p1436
L11L
sS'summary_score'
p1437
I50
sS'results'
p1438
(dp1439
S'parscriptiframe'
p1440
(dp1441
S'score'
p1442
I0
sS'raw_score'
p1443
NsS'display'
p1444
g98
ssS'parscriptimage'
p1445
(dp1446
g1442
I0
sg1443
Nsg1444
g98
ssS'parcssjs'
p1447
(dp1448
g1442
I1
sg1443
I0
sg1444
S'no'
p1449
ssS'cacheresredir'
p1450
(dp1451
g1442
I1
sg1443
I0
sg1444
g1449
ssS'cacheexp'
p1452
(dp1453
g1442
I100
sg1443
I1
sg1444
S'yes'
p1454
ssS'maxconn'
p1455
(dp1456
g1442
I100
sg1443
I30
sg1444
S'30'
p1457
ssS'cacheredir'
p1458
(dp1459
g1442
I1
sg1443
I0
sg1444
g1449
ssS'prefetch'
p1460
(dp1461
g1442
I100
sg1443
I1
sg1444
g1454
ssS'parscriptstylesheet'
p1462
(dp1463
g1442
I0
sg1443
Nsg1444
g98
ssS'gzip'
p1464
(dp1465
g1442
I100
sg1443
I1
sg1444
g1454
ssS'parscriptscript'
p1466
(dp1467
g1442
I0
sg1443
Nsg1444
g98
ssS'du'
p1468
(dp1469
g1442
I100
sg1443
I1
sg1444
g1454
ssS'parsheet'
p1470
(dp1471
g1442
I100
sg1443
I1
sg1444
g1454
ssS'hostconn'
p1472
(dp1473
g1442
I100
sg1443
I6
sg1444
g171
ssssVIE Mobile
p1474
(dp1475
S'summary_display'
p1476
S'4/14'
p1477
sS'total_runs'
p1478
L10L
sS'summary_score'
p1479
I29
sS'results'
p1480
(dp1481
S'parscriptiframe'
p1482
(dp1483
S'score'
p1484
I0
sS'raw_score'
p1485
NsS'display'
p1486
g98
ssS'parscriptimage'
p1487
(dp1488
g1484
I0
sg1485
Nsg1486
g98
ssS'parcssjs'
p1489
(dp1490
g1484
I1
sg1485
I0
sg1486
S'no'
p1491
ssS'cacheresredir'
p1492
(dp1493
g1484
I1
sg1485
I0
sg1486
g1491
ssS'cacheexp'
p1494
(dp1495
g1484
I100
sg1485
I1
sg1486
S'yes'
p1496
ssS'maxconn'
p1497
(dp1498
g1484
I1
sg1485
I2
sg1486
g550
ssS'cacheredir'
p1499
(dp1500
g1484
I1
sg1485
I0
sg1486
g1491
ssS'prefetch'
p1501
(dp1502
g1484
I100
sg1485
I1
sg1486
g1496
ssS'parscriptstylesheet'
p1503
(dp1504
g1484
I0
sg1485
Nsg1486
g98
ssS'gzip'
p1505
(dp1506
g1484
I100
sg1485
I1
sg1486
g1496
ssS'parscriptscript'
p1507
(dp1508
g1484
I0
sg1485
Nsg1486
g98
ssS'du'
p1509
(dp1510
g1484
I1
sg1485
I0
sg1486
g1491
ssS'parsheet'
p1511
(dp1512
g1484
I100
sg1485
I1
sg1486
g1496
ssS'hostconn'
p1513
(dp1514
g1484
I50
sg1485
I2
sg1486
g550
ssssVMaemo Browser
p1515
(dp1516
S'summary_display'
p1517
S'8/14'
p1518
sS'total_runs'
p1519
L1L
sS'summary_score'
p1520
I57
sS'results'
p1521
(dp1522
S'parscriptiframe'
p1523
(dp1524
S'score'
p1525
I0
sS'raw_score'
p1526
NsS'display'
p1527
g98
ssS'parscriptimage'
p1528
(dp1529
g1525
I0
sg1526
Nsg1527
g98
ssS'parcssjs'
p1530
(dp1531
g1525
I1
sg1526
I0
sg1527
S'no'
p1532
ssS'cacheresredir'
p1533
(dp1534
g1525
I100
sg1526
I1
sg1527
S'yes'
p1535
ssS'cacheexp'
p1536
(dp1537
g1525
I100
sg1526
I1
sg1527
g1535
ssS'maxconn'
p1538
(dp1539
g1525
I100
sg1526
I30
sg1527
S'30'
p1540
ssS'cacheredir'
p1541
(dp1542
g1525
I100
sg1526
I1
sg1527
g1535
ssS'prefetch'
p1543
(dp1544
g1525
I1
sg1526
I0
sg1527
g1532
ssS'parscriptstylesheet'
p1545
(dp1546
g1525
I0
sg1526
Nsg1527
g98
ssS'gzip'
p1547
(dp1548
g1525
I100
sg1526
I1
sg1527
g1535
ssS'parscriptscript'
p1549
(dp1550
g1525
I0
sg1526
Nsg1527
g98
ssS'du'
p1551
(dp1552
g1525
I100
sg1526
I1
sg1527
g1535
ssS'parsheet'
p1553
(dp1554
g1525
I100
sg1526
I1
sg1527
g1535
ssS'hostconn'
p1555
(dp1556
g1525
I100
sg1526
I6
sg1527
g171
ssssVOrca
p1557
(dp1558
S'summary_display'
p1559
S'11/14'
p1560
sS'total_runs'
p1561
L2L
sS'summary_score'
p1562
I79
sS'results'
p1563
(dp1564
S'parscriptiframe'
p1565
(dp1566
S'score'
p1567
I1
sS'raw_score'
p1568
I0
sS'display'
p1569
S'no'
p1570
ssS'parscriptimage'
p1571
(dp1572
g1567
I1
sg1568
I0
sg1569
g1570
ssS'parcssjs'
p1573
(dp1574
g1567
I1
sg1568
I0
sg1569
g1570
ssS'cacheresredir'
p1575
(dp1576
g1567
I100
sg1568
I1
sg1569
S'yes'
p1577
ssS'cacheexp'
p1578
(dp1579
g1567
I100
sg1568
I1
sg1569
g1577
ssS'maxconn'
p1580
(dp1581
g1567
I100
sg1568
I50
sg1569
S'50'
p1582
ssS'cacheredir'
p1583
(dp1584
g1567
I100
sg1568
I1
sg1569
g1577
ssS'prefetch'
p1585
(dp1586
g1567
I100
sg1568
I1
sg1569
g1577
ssS'parscriptstylesheet'
p1587
(dp1588
g1567
I100
sg1568
I1
sg1569
g1577
ssS'gzip'
p1589
(dp1590
g1567
I100
sg1568
I1
sg1569
g1577
ssS'parscriptscript'
p1591
(dp1592
g1567
I100
sg1568
I1
sg1569
g1577
ssS'du'
p1593
(dp1594
g1567
I100
sg1568
I1
sg1569
g1577
ssS'parsheet'
p1595
(dp1596
g1567
I100
sg1568
I1
sg1569
g1577
ssS'hostconn'
p1597
(dp1598
g1567
I100
sg1568
I12
sg1569
S'12'
p1599
ssssVNetscape
p1600
(dp1601
S'summary_display'
p1602
S'5/14'
p1603
sS'total_runs'
p1604
L25L
sS'summary_score'
p1605
I36
sS'results'
p1606
(dp1607
S'parscriptiframe'
p1608
(dp1609
S'score'
p1610
I0
sS'raw_score'
p1611
NsS'display'
p1612
g98
ssS'parscriptimage'
p1613
(dp1614
g1610
I0
sg1611
Nsg1612
g98
ssS'parcssjs'
p1615
(dp1616
g1610
I1
sg1611
I0
sg1612
S'no'
p1617
ssS'cacheresredir'
p1618
(dp1619
g1610
I100
sg1611
I1
sg1612
S'yes'
p1620
ssS'cacheexp'
p1621
(dp1622
g1610
I100
sg1611
I1
sg1612
g1620
ssS'maxconn'
p1623
(dp1624
g1610
I100
sg1611
I24
sg1612
S'24'
p1625
ssS'cacheredir'
p1626
(dp1627
g1610
I1
sg1611
I0
sg1612
g1617
ssS'prefetch'
p1628
(dp1629
g1610
I1
sg1611
I0
sg1612
g1617
ssS'parscriptstylesheet'
p1630
(dp1631
g1610
I0
sg1611
Nsg1612
g98
ssS'gzip'
p1632
(dp1633
g1610
I100
sg1611
I1
sg1612
g1620
ssS'parscriptscript'
p1634
(dp1635
g1610
I0
sg1611
Nsg1612
g98
ssS'du'
p1636
(dp1637
g1610
I100
sg1611
I1
sg1612
g1620
ssS'parsheet'
p1638
(dp1639
g1610
I1
sg1611
I0
sg1612
g1617
ssS'hostconn'
p1640
(dp1641
g1610
I50
sg1611
I2
sg1612
g550
ssssVPolaris
p1642
(dp1643
S'summary_display'
p1644
S'8/14'
p1645
sS'total_runs'
p1646
L1L
sS'summary_score'
p1647
I57
sS'results'
p1648
(dp1649
S'parscriptiframe'
p1650
(dp1651
S'score'
p1652
I0
sS'raw_score'
p1653
NsS'display'
p1654
g98
ssS'parscriptimage'
p1655
(dp1656
g1652
I0
sg1653
Nsg1654
g98
ssS'parcssjs'
p1657
(dp1658
g1652
I1
sg1653
I0
sg1654
S'no'
p1659
ssS'cacheresredir'
p1660
(dp1661
g1652
I100
sg1653
I1
sg1654
S'yes'
p1662
ssS'cacheexp'
p1663
(dp1664
g1652
I100
sg1653
I1
sg1654
g1662
ssS'maxconn'
p1665
(dp1666
g1652
I100
sg1653
I50
sg1654
S'50'
p1667
ssS'cacheredir'
p1668
(dp1669
g1652
I100
sg1653
I1
sg1654
g1662
ssS'prefetch'
p1670
(dp1671
g1652
I1
sg1653
I0
sg1654
g1659
ssS'parscriptstylesheet'
p1672
(dp1673
g1652
I0
sg1653
Nsg1654
g98
ssS'gzip'
p1674
(dp1675
g1652
I100
sg1653
I1
sg1654
g1662
ssS'parscriptscript'
p1676
(dp1677
g1652
I0
sg1653
Nsg1654
g98
ssS'du'
p1678
(dp1679
g1652
I100
sg1653
I1
sg1654
g1662
ssS'parsheet'
p1680
(dp1681
g1652
I100
sg1653
I1
sg1654
g1662
ssS'hostconn'
p1682
(dp1683
g1652
I100
sg1653
I10
sg1654
S'10'
p1684
ssssVIceweasel
p1685
(dp1686
S'summary_display'
p1687
S'9/14'
p1688
sS'total_runs'
p1689
L158L
sS'summary_score'
p1690
I64
sS'results'
p1691
(dp1692
S'parscriptiframe'
p1693
(dp1694
S'score'
p1695
I1
sS'raw_score'
p1696
I0
sS'display'
p1697
S'no'
p1698
ssS'parscriptimage'
p1699
(dp1700
g1695
I1
sg1696
I0
sg1697
g1698
ssS'parcssjs'
p1701
(dp1702
g1695
I1
sg1696
I0
sg1697
g1698
ssS'cacheresredir'
p1703
(dp1704
g1695
I1
sg1696
I0
sg1697
g1698
ssS'cacheexp'
p1705
(dp1706
g1695
I100
sg1696
I1
sg1697
S'yes'
p1707
ssS'maxconn'
p1708
(dp1709
g1695
I100
sg1696
I30
sg1697
S'30'
p1710
ssS'cacheredir'
p1711
(dp1712
g1695
I1
sg1696
I0
sg1697
g1698
ssS'prefetch'
p1713
(dp1714
g1695
I100
sg1696
I1
sg1697
g1707
ssS'parscriptstylesheet'
p1715
(dp1716
g1695
I100
sg1696
I1
sg1697
g1707
ssS'gzip'
p1717
(dp1718
g1695
I100
sg1696
I1
sg1697
g1707
ssS'parscriptscript'
p1719
(dp1720
g1695
I100
sg1696
I1
sg1697
g1707
ssS'du'
p1721
(dp1722
g1695
I100
sg1696
I1
sg1697
g1707
ssS'parsheet'
p1723
(dp1724
g1695
I100
sg1696
I1
sg1697
g1707
ssS'hostconn'
p1725
(dp1726
g1695
I100
sg1696
I6
sg1697
g171
ssssVKonqueror
p1727
(dp1728
S'summary_display'
p1729
S'6/14'
p1730
sS'total_runs'
p1731
L200L
sS'summary_score'
p1732
I43
sS'results'
p1733
(dp1734
S'parscriptiframe'
p1735
(dp1736
S'score'
p1737
I0
sS'raw_score'
p1738
NsS'display'
p1739
g98
ssS'parscriptimage'
p1740
(dp1741
g1737
I0
sg1738
Nsg1739
g98
ssS'parcssjs'
p1742
(dp1743
g1737
I1
sg1738
I0
sg1739
S'no'
p1744
ssS'cacheresredir'
p1745
(dp1746
g1737
I100
sg1738
I1
sg1739
S'yes'
p1747
ssS'cacheexp'
p1748
(dp1749
g1737
I100
sg1738
I1
sg1739
g1747
ssS'maxconn'
p1750
(dp1751
g1737
I1
sg1738
I5
sg1739
g323
ssS'cacheredir'
p1752
(dp1753
g1737
I1
sg1738
I0
sg1739
g1744
ssS'prefetch'
p1754
(dp1755
g1737
I1
sg1738
I0
sg1739
g1744
ssS'parscriptstylesheet'
p1756
(dp1757
g1737
I0
sg1738
Nsg1739
g98
ssS'gzip'
p1758
(dp1759
g1737
I100
sg1738
I1
sg1739
g1747
ssS'parscriptscript'
p1760
(dp1761
g1737
I0
sg1738
Nsg1739
g98
ssS'du'
p1762
(dp1763
g1737
I100
sg1738
I1
sg1739
g1747
ssS'parsheet'
p1764
(dp1765
g1737
I100
sg1738
I1
sg1739
g1747
ssS'hostconn'
p1766
(dp1767
g1737
I100
sg1738
I5
sg1739
g323
ssssVMyIE2
p1768
(dp1769
S'summary_display'
p1770
S'6/14'
p1771
sS'total_runs'
p1772
L7L
sS'summary_score'
p1773
I43
sS'results'
p1774
(dp1775
S'parscriptiframe'
p1776
(dp1777
S'score'
p1778
I0
sS'raw_score'
p1779
NsS'display'
p1780
g98
ssS'parscriptimage'
p1781
(dp1782
g1778
I0
sg1779
Nsg1780
g98
ssS'parcssjs'
p1783
(dp1784
g1778
I1
sg1779
I0
sg1780
S'no'
p1785
ssS'cacheresredir'
p1786
(dp1787
g1778
I1
sg1779
I0
sg1780
g1785
ssS'cacheexp'
p1788
(dp1789
g1778
I100
sg1779
I1
sg1780
S'yes'
p1790
ssS'maxconn'
p1791
(dp1792
g1778
I100
sg1779
I60
sg1780
S'60'
p1793
ssS'cacheredir'
p1794
(dp1795
g1778
I1
sg1779
I0
sg1780
g1785
ssS'prefetch'
p1796
(dp1797
g1778
I1
sg1779
I0
sg1780
g1785
ssS'parscriptstylesheet'
p1798
(dp1799
g1778
I0
sg1779
Nsg1780
g98
ssS'gzip'
p1800
(dp1801
g1778
I100
sg1779
I1
sg1780
g1790
ssS'parscriptscript'
p1802
(dp1803
g1778
I0
sg1779
Nsg1780
g98
ssS'du'
p1804
(dp1805
g1778
I100
sg1779
I1
sg1780
g1790
ssS'parsheet'
p1806
(dp1807
g1778
I100
sg1779
I1
sg1780
g1790
ssS'hostconn'
p1808
(dp1809
g1778
I100
sg1779
I10
sg1780
S'10'
p1810
ssssVKazehakase
p1811
(dp1812
S'summary_display'
p1813
S'8/14'
p1814
sS'total_runs'
p1815
L8L
sS'summary_score'
p1816
I57
sS'results'
p1817
(dp1818
S'parscriptiframe'
p1819
(dp1820
S'score'
p1821
I0
sS'raw_score'
p1822
NsS'display'
p1823
g98
ssS'parscriptimage'
p1824
(dp1825
g1821
I0
sg1822
Nsg1823
g98
ssS'parcssjs'
p1826
(dp1827
g1821
I1
sg1822
I0
sg1823
S'no'
p1828
ssS'cacheresredir'
p1829
(dp1830
g1821
I100
sg1822
I1
sg1823
S'yes'
p1831
ssS'cacheexp'
p1832
(dp1833
g1821
I100
sg1822
I1
sg1823
g1831
ssS'maxconn'
p1834
(dp1835
g1821
I100
sg1822
I29
sg1823
S'29'
p1836
ssS'cacheredir'
p1837
(dp1838
g1821
I1
sg1822
I0
sg1823
g1828
ssS'prefetch'
p1839
(dp1840
g1821
I100
sg1822
I1
sg1823
g1831
ssS'parscriptstylesheet'
p1841
(dp1842
g1821
I0
sg1822
Nsg1823
g98
ssS'gzip'
p1843
(dp1844
g1821
I100
sg1822
I1
sg1823
g1831
ssS'parscriptscript'
p1845
(dp1846
g1821
I0
sg1822
Nsg1823
g98
ssS'du'
p1847
(dp1848
g1821
I100
sg1822
I1
sg1823
g1831
ssS'parsheet'
p1849
(dp1850
g1821
I100
sg1822
I1
sg1823
g1831
ssS'hostconn'
p1851
(dp1852
g1821
I100
sg1822
I6
sg1823
g171
ssssVIceape
p1853
(dp1854
S'summary_display'
p1855
S'7/14'
p1856
sS'total_runs'
p1857
L6L
sS'summary_score'
p1858
I50
sS'results'
p1859
(dp1860
S'parscriptiframe'
p1861
(dp1862
S'score'
p1863
I0
sS'raw_score'
p1864
NsS'display'
p1865
g98
ssS'parscriptimage'
p1866
(dp1867
g1863
I0
sg1864
Nsg1865
g98
ssS'parcssjs'
p1868
(dp1869
g1863
I1
sg1864
I0
sg1865
S'no'
p1870
ssS'cacheresredir'
p1871
(dp1872
g1863
I100
sg1864
I1
sg1865
S'yes'
p1873
ssS'cacheexp'
p1874
(dp1875
g1863
I100
sg1864
I1
sg1865
g1873
ssS'maxconn'
p1876
(dp1877
g1863
I100
sg1864
I24
sg1865
S'24'
p1878
ssS'cacheredir'
p1879
(dp1880
g1863
I100
sg1864
I1
sg1865
g1873
ssS'prefetch'
p1881
(dp1882
g1863
I100
sg1864
I1
sg1865
g1873
ssS'parscriptstylesheet'
p1883
(dp1884
g1863
I0
sg1864
Nsg1865
g98
ssS'gzip'
p1885
(dp1886
g1863
I100
sg1864
I1
sg1865
g1873
ssS'parscriptscript'
p1887
(dp1888
g1863
I0
sg1864
Nsg1865
g98
ssS'du'
p1889
(dp1890
g1863
I100
sg1864
I1
sg1865
g1873
ssS'parsheet'
p1891
(dp1892
g1863
I1
sg1864
I0
sg1865
g1870
ssS'hostconn'
p1893
(dp1894
g1863
I50
sg1864
I2
sg1865
g550
ssssVOpera
p1895
(dp1896
S'summary_display'
p1897
S'5/14'
p1898
sS'total_runs'
p1899
L6347L
sS'summary_score'
p1900
I36
sS'results'
p1901
(dp1902
S'parscriptiframe'
p1903
(dp1904
S'score'
p1905
I1
sS'raw_score'
p1906
I0
sS'display'
p1907
S'no'
p1908
ssS'parscriptimage'
p1909
(dp1910
g1905
I1
sg1906
I0
sg1907
g1908
ssS'cacheexp'
p1911
(dp1912
g1905
I100
sg1906
I1
sg1907
S'yes'
p1913
ssS'cacheresredir'
p1914
(dp1915
g1905
I1
sg1906
I0
sg1907
g1908
ssS'parcssjs'
p1916
(dp1917
g1905
I1
sg1906
I0
sg1907
g1908
ssS'gzip'
p1918
(dp1919
g1905
I100
sg1906
I1
sg1907
g1913
ssS'du'
p1920
(dp1921
g1905
I100
sg1906
I1
sg1907
g1913
ssS'prefetch'
p1922
(dp1923
g1905
I1
sg1906
I0
sg1907
g1908
ssS'parscriptstylesheet'
p1924
(dp1925
g1905
I1
sg1906
I0
sg1907
g1908
ssS'cacheredir'
p1926
(dp1927
g1905
I1
sg1906
I0
sg1907
g1908
ssS'parscriptscript'
p1928
(dp1929
g1905
I1
sg1906
I0
sg1907
g1908
ssS'maxconn'
p1930
(dp1931
g1905
I50
sg1906
I20
sg1907
S'20'
p1932
ssS'parsheet'
p1933
(dp1934
g1905
I100
sg1906
I1
sg1907
g1913
ssS'hostconn'
p1935
(dp1936
g1905
I100
sg1906
I4
sg1907
g43
ssssVSony Ericsson K800i
p1937
(dp1938
S'summary_display'
p1939
S'8/14'
p1940
sS'total_runs'
p1941
L11L
sS'summary_score'
p1942
I57
sS'results'
p1943
(dp1944
S'parscriptiframe'
p1945
(dp1946
S'score'
p1947
I0
sS'raw_score'
p1948
NsS'display'
p1949
g98
ssS'parscriptimage'
p1950
(dp1951
g1947
I0
sg1948
Nsg1949
g98
ssS'parcssjs'
p1952
(dp1953
g1947
I1
sg1948
I0
sg1949
S'no'
p1954
ssS'cacheresredir'
p1955
(dp1956
g1947
I100
sg1948
I1
sg1949
S'yes'
p1957
ssS'cacheexp'
p1958
(dp1959
g1947
I100
sg1948
I1
sg1949
g1957
ssS'maxconn'
p1960
(dp1961
g1947
I100
sg1948
I60
sg1949
S'60'
p1962
ssS'cacheredir'
p1963
(dp1964
g1947
I100
sg1948
I1
sg1949
g1957
ssS'prefetch'
p1965
(dp1966
g1947
I1
sg1948
I0
sg1949
g1954
ssS'parscriptstylesheet'
p1967
(dp1968
g1947
I0
sg1948
Nsg1949
g98
ssS'gzip'
p1969
(dp1970
g1947
I100
sg1948
I1
sg1949
g1957
ssS'parscriptscript'
p1971
(dp1972
g1947
I0
sg1948
Nsg1949
g98
ssS'du'
p1973
(dp1974
g1947
I100
sg1948
I1
sg1949
g1957
ssS'parsheet'
p1975
(dp1976
g1947
I100
sg1948
I1
sg1949
g1957
ssS'hostconn'
p1977
(dp1978
g1947
I100
sg1948
I24
sg1949
S'24'
p1979
ssssVShiira
p1980
(dp1981
S'summary_display'
p1982
S'10/14'
p1983
sS'total_runs'
p1984
L16L
sS'summary_score'
p1985
I71
sS'results'
p1986
(dp1987
S'parscriptiframe'
p1988
(dp1989
S'score'
p1990
I1
sS'raw_score'
p1991
I0
sS'display'
p1992
S'no'
p1993
ssS'parscriptimage'
p1994
(dp1995
g1990
I100
sg1991
I1
sg1992
S'yes'
p1996
ssS'parcssjs'
p1997
(dp1998
g1990
I1
sg1991
I0
sg1992
g1993
ssS'cacheresredir'
p1999
(dp2000
g1990
I100
sg1991
I1
sg1992
g1996
ssS'cacheexp'
p2001
(dp2002
g1990
I100
sg1991
I1
sg1992
g1996
ssS'maxconn'
p2003
(dp2004
g1990
I100
sg1991
I60
sg1992
S'60'
p2005
ssS'cacheredir'
p2006
(dp2007
g1990
I1
sg1991
I0
sg1992
g1993
ssS'prefetch'
p2008
(dp2009
g1990
I1
sg1991
I0
sg1992
g1993
ssS'parscriptstylesheet'
p2010
(dp2011
g1990
I100
sg1991
I1
sg1992
g1996
ssS'gzip'
p2012
(dp2013
g1990
I100
sg1991
I1
sg1992
g1996
ssS'parscriptscript'
p2014
(dp2015
g1990
I100
sg1991
I1
sg1992
g1996
ssS'du'
p2016
(dp2017
g1990
I100
sg1991
I1
sg1992
g1996
ssS'parsheet'
p2018
(dp2019
g1990
I100
sg1991
I1
sg1992
g1996
ssS'hostconn'
p2020
(dp2021
g1990
I100
sg1991
I4
sg1992
g43
ssssVVodafone
p2022
(dp2023
S'summary_display'
p2024
S'8/14'
p2025
sS'total_runs'
p2026
L4L
sS'summary_score'
p2027
I57
sS'results'
p2028
(dp2029
S'parscriptiframe'
p2030
(dp2031
S'score'
p2032
I0
sS'raw_score'
p2033
NsS'display'
p2034
g98
ssS'parscriptimage'
p2035
(dp2036
g2032
I0
sg2033
Nsg2034
g98
ssS'parcssjs'
p2037
(dp2038
g2032
I1
sg2033
I0
sg2034
S'no'
p2039
ssS'cacheresredir'
p2040
(dp2041
g2032
I100
sg2033
I1
sg2034
S'yes'
p2042
ssS'cacheexp'
p2043
(dp2044
g2032
I100
sg2033
I1
sg2034
g2042
ssS'maxconn'
p2045
(dp2046
g2032
I50
sg2033
I17
sg2034
S'17'
p2047
ssS'cacheredir'
p2048
(dp2049
g2032
I100
sg2033
I1
sg2034
g2042
ssS'prefetch'
p2050
(dp2051
g2032
I100
sg2033
I1
sg2034
g2042
ssS'parscriptstylesheet'
p2052
(dp2053
g2032
I0
sg2033
Nsg2034
g98
ssS'gzip'
p2054
(dp2055
g2032
I100
sg2033
I1
sg2034
g2042
ssS'parscriptscript'
p2056
(dp2057
g2032
I0
sg2033
Nsg2034
g98
ssS'du'
p2058
(dp2059
g2032
I100
sg2033
I1
sg2034
g2042
ssS'parsheet'
p2060
(dp2061
g2032
I100
sg2033
I1
sg2034
g2042
ssS'hostconn'
p2062
(dp2063
g2032
I100
sg2033
I5
sg2034
g323
ssssVAvant
p2064
(dp2065
S'summary_display'
p2066
S'4/14'
p2067
sS'total_runs'
p2068
L49L
sS'summary_score'
p2069
I29
sS'results'
p2070
(dp2071
S'parscriptiframe'
p2072
(dp2073
S'score'
p2074
I1
sS'raw_score'
p2075
I0
sS'display'
p2076
S'no'
p2077
ssS'parscriptimage'
p2078
(dp2079
g2074
I1
sg2075
I0
sg2076
g2077
ssS'parcssjs'
p2080
(dp2081
g2074
I1
sg2075
I0
sg2076
g2077
ssS'cacheresredir'
p2082
(dp2083
g2074
I1
sg2075
I0
sg2076
g2077
ssS'cacheexp'
p2084
(dp2085
g2074
I100
sg2075
I1
sg2076
S'yes'
p2086
ssS'maxconn'
p2087
(dp2088
g2074
I100
sg2075
I60
sg2076
S'60'
p2089
ssS'cacheredir'
p2090
(dp2091
g2074
I1
sg2075
I0
sg2076
g2077
ssS'prefetch'
p2092
(dp2093
g2074
I1
sg2075
I0
sg2076
g2077
ssS'parscriptstylesheet'
p2094
(dp2095
g2074
I1
sg2075
I0
sg2076
g2077
ssS'gzip'
p2096
(dp2097
g2074
I100
sg2075
I1
sg2076
g2086
ssS'parscriptscript'
p2098
(dp2099
g2074
I1
sg2075
I0
sg2076
g2077
ssS'du'
p2100
(dp2101
g2074
I1
sg2075
I0
sg2076
g2077
ssS'parsheet'
p2102
(dp2103
g2074
I100
sg2075
I1
sg2076
g2086
ssS'hostconn'
p2104
(dp2105
g2074
I50
sg2075
I2
sg2076
g550
ssssViPhone
p2106
(dp2107
S'summary_display'
p2108
S'10/14'
p2109
sS'total_runs'
p2110
L352L
sS'summary_score'
p2111
I71
sS'results'
p2112
(dp2113
S'parscriptiframe'
p2114
(dp2115
S'score'
p2116
I1
sS'raw_score'
p2117
I0
sS'display'
p2118
S'no'
p2119
ssS'parscriptimage'
p2120
(dp2121
g2116
I100
sg2117
I1
sg2118
S'yes'
p2122
ssS'cacheexp'
p2123
(dp2124
g2116
I100
sg2117
I1
sg2118
g2122
ssS'cacheresredir'
p2125
(dp2126
g2116
I100
sg2117
I1
sg2118
g2122
ssS'parcssjs'
p2127
(dp2128
g2116
I1
sg2117
I0
sg2118
g2119
ssS'gzip'
p2129
(dp2130
g2116
I100
sg2117
I1
sg2118
g2122
ssS'du'
p2131
(dp2132
g2116
I100
sg2117
I1
sg2118
g2122
ssS'prefetch'
p2133
(dp2134
g2116
I1
sg2117
I0
sg2118
g2119
ssS'parscriptstylesheet'
p2135
(dp2136
g2116
I100
sg2117
I1
sg2118
g2122
ssS'cacheredir'
p2137
(dp2138
g2116
I1
sg2117
I0
sg2118
g2119
ssS'parscriptscript'
p2139
(dp2140
g2116
I100
sg2117
I1
sg2118
g2122
ssS'maxconn'
p2141
(dp2142
g2116
I100
sg2117
I60
sg2118
S'60'
p2143
ssS'parsheet'
p2144
(dp2145
g2116
I100
sg2117
I1
sg2118
g2122
ssS'hostconn'
p2146
(dp2147
g2116
I100
sg2117
I4
sg2118
g43
ssssViRider
p2148
(dp2149
S'summary_display'
p2150
S'5/14'
p2151
sS'total_runs'
p2152
L1L
sS'summary_score'
p2153
I36
sS'results'
p2154
(dp2155
S'parscriptiframe'
p2156
(dp2157
S'score'
p2158
I0
sS'raw_score'
p2159
NsS'display'
p2160
g98
ssS'parscriptimage'
p2161
(dp2162
g2158
I0
sg2159
Nsg2160
g98
ssS'parcssjs'
p2163
(dp2164
g2158
I1
sg2159
I0
sg2160
S'no'
p2165
ssS'cacheresredir'
p2166
(dp2167
g2158
I1
sg2159
I0
sg2160
g2165
ssS'cacheexp'
p2168
(dp2169
g2158
I100
sg2159
I1
sg2160
S'yes'
p2170
ssS'maxconn'
p2171
(dp2172
g2158
I100
sg2159
I28
sg2160
S'28'
p2173
ssS'cacheredir'
p2174
(dp2175
g2158
I1
sg2159
I0
sg2160
g2165
ssS'prefetch'
p2176
(dp2177
g2158
I1
sg2159
I0
sg2160
g2165
ssS'parscriptstylesheet'
p2178
(dp2179
g2158
I0
sg2159
Nsg2160
g98
ssS'gzip'
p2180
(dp2181
g2158
I100
sg2159
I1
sg2160
g2170
ssS'parscriptscript'
p2182
(dp2183
g2158
I0
sg2159
Nsg2160
g98
ssS'du'
p2184
(dp2185
g2158
I100
sg2159
I1
sg2160
g2170
ssS'parsheet'
p2186
(dp2187
g2158
I100
sg2159
I1
sg2160
g2170
ssS'hostconn'
p2188
(dp2189
g2158
I50
sg2159
I2
sg2160
g550
ssssVNetNewsWire
p2190
(dp2191
S'summary_display'
p2192
S'7/14'
p2193
sS'total_runs'
p2194
L33L
sS'summary_score'
p2195
I50
sS'results'
p2196
(dp2197
S'parscriptiframe'
p2198
(dp2199
S'score'
p2200
I0
sS'raw_score'
p2201
NsS'display'
p2202
g98
ssS'parscriptimage'
p2203
(dp2204
g2200
I0
sg2201
Nsg2202
g98
ssS'parcssjs'
p2205
(dp2206
g2200
I1
sg2201
I0
sg2202
S'no'
p2207
ssS'cacheresredir'
p2208
(dp2209
g2200
I100
sg2201
I1
sg2202
S'yes'
p2210
ssS'cacheexp'
p2211
(dp2212
g2200
I100
sg2201
I1
sg2202
g2210
ssS'maxconn'
p2213
(dp2214
g2200
I100
sg2201
I60
sg2202
S'60'
p2215
ssS'cacheredir'
p2216
(dp2217
g2200
I1
sg2201
I0
sg2202
g2207
ssS'prefetch'
p2218
(dp2219
g2200
I1
sg2201
I0
sg2202
g2207
ssS'parscriptstylesheet'
p2220
(dp2221
g2200
I0
sg2201
Nsg2202
g98
ssS'gzip'
p2222
(dp2223
g2200
I100
sg2201
I1
sg2202
g2210
ssS'parscriptscript'
p2224
(dp2225
g2200
I0
sg2201
Nsg2202
g98
ssS'du'
p2226
(dp2227
g2200
I100
sg2201
I1
sg2202
g2210
ssS'parsheet'
p2228
(dp2229
g2200
I100
sg2201
I1
sg2202
g2210
ssS'hostconn'
p2230
(dp2231
g2200
I100
sg2201
I4
sg2202
g43
ssssVMicroB
p2232
(dp2233
S'summary_display'
p2234
S'8/14'
p2235
sS'total_runs'
p2236
L7L
sS'summary_score'
p2237
I57
sS'results'
p2238
(dp2239
S'parscriptiframe'
p2240
(dp2241
S'score'
p2242
I0
sS'raw_score'
p2243
NsS'display'
p2244
g98
ssS'parscriptimage'
p2245
(dp2246
g2242
I0
sg2243
Nsg2244
g98
ssS'parcssjs'
p2247
(dp2248
g2242
I1
sg2243
I0
sg2244
S'no'
p2249
ssS'cacheresredir'
p2250
(dp2251
g2242
I100
sg2243
I1
sg2244
S'yes'
p2252
ssS'cacheexp'
p2253
(dp2254
g2242
I100
sg2243
I1
sg2244
g2252
ssS'maxconn'
p2255
(dp2256
g2242
I100
sg2243
I24
sg2244
S'24'
p2257
ssS'cacheredir'
p2258
(dp2259
g2242
I1
sg2243
I0
sg2244
g2249
ssS'prefetch'
p2260
(dp2261
g2242
I100
sg2243
I1
sg2244
g2252
ssS'parscriptstylesheet'
p2262
(dp2263
g2242
I0
sg2243
Nsg2244
g98
ssS'gzip'
p2264
(dp2265
g2242
I100
sg2243
I1
sg2244
g2252
ssS'parscriptscript'
p2266
(dp2267
g2242
I0
sg2243
Nsg2244
g98
ssS'du'
p2268
(dp2269
g2242
I100
sg2243
I1
sg2244
g2252
ssS'parsheet'
p2270
(dp2271
g2242
I100
sg2243
I1
sg2244
g2252
ssS'hostconn'
p2272
(dp2273
g2242
I100
sg2243
I4
sg2244
g43
ssssVEpiphany
p2274
(dp2275
S'summary_display'
p2276
S'8/14'
p2277
sS'total_runs'
p2278
L54L
sS'summary_score'
p2279
I57
sS'results'
p2280
(dp2281
S'parscriptiframe'
p2282
(dp2283
S'score'
p2284
I0
sS'raw_score'
p2285
NsS'display'
p2286
g98
ssS'parscriptimage'
p2287
(dp2288
g2284
I0
sg2285
Nsg2286
g98
ssS'parcssjs'
p2289
(dp2290
g2284
I1
sg2285
I0
sg2286
S'no'
p2291
ssS'cacheresredir'
p2292
(dp2293
g2284
I100
sg2285
I1
sg2286
S'yes'
p2294
ssS'cacheexp'
p2295
(dp2296
g2284
I100
sg2285
I1
sg2286
g2294
ssS'maxconn'
p2297
(dp2298
g2284
I100
sg2285
I30
sg2286
S'30'
p2299
ssS'cacheredir'
p2300
(dp2301
g2284
I1
sg2285
I0
sg2286
g2291
ssS'prefetch'
p2302
(dp2303
g2284
I100
sg2285
I1
sg2286
g2294
ssS'parscriptstylesheet'
p2304
(dp2305
g2284
I0
sg2285
Nsg2286
g98
ssS'gzip'
p2306
(dp2307
g2284
I100
sg2285
I1
sg2286
g2294
ssS'parscriptscript'
p2308
(dp2309
g2284
I0
sg2285
Nsg2286
g98
ssS'du'
p2310
(dp2311
g2284
I100
sg2285
I1
sg2286
g2294
ssS'parsheet'
p2312
(dp2313
g2284
I100
sg2285
I1
sg2286
g2294
ssS'hostconn'
p2314
(dp2315
g2284
I100
sg2285
I6
sg2286
g171
ssssVPhoenix
p2316
(dp2317
S'summary_display'
p2318
S'5/14'
p2319
sS'total_runs'
p2320
L2L
sS'summary_score'
p2321
I36
sS'results'
p2322
(dp2323
S'parscriptiframe'
p2324
(dp2325
S'score'
p2326
I0
sS'raw_score'
p2327
NsS'display'
p2328
g98
ssS'parscriptimage'
p2329
(dp2330
g2326
I0
sg2327
Nsg2328
g98
ssS'parcssjs'
p2331
(dp2332
g2326
I1
sg2327
I0
sg2328
S'no'
p2333
ssS'cacheresredir'
p2334
(dp2335
g2326
I100
sg2327
I1
sg2328
S'yes'
p2336
ssS'cacheexp'
p2337
(dp2338
g2326
I100
sg2327
I1
sg2328
g2336
ssS'maxconn'
p2339
(dp2340
g2326
I100
sg2327
I24
sg2328
S'24'
p2341
ssS'cacheredir'
p2342
(dp2343
g2326
I1
sg2327
I0
sg2328
g2333
ssS'prefetch'
p2344
(dp2345
g2326
I1
sg2327
I0
sg2328
g2333
ssS'parscriptstylesheet'
p2346
(dp2347
g2326
I0
sg2327
Nsg2328
g98
ssS'gzip'
p2348
(dp2349
g2326
I100
sg2327
I1
sg2328
g2336
ssS'parscriptscript'
p2350
(dp2351
g2326
I0
sg2327
Nsg2328
g98
ssS'du'
p2352
(dp2353
g2326
I100
sg2327
I1
sg2328
g2336
ssS'parsheet'
p2354
(dp2355
g2326
I1
sg2327
I0
sg2328
g2333
ssS'hostconn'
p2356
(dp2357
g2326
I50
sg2327
I2
sg2328
g550
ssssVBlackberry
p2358
(dp2359
S'summary_display'
p2360
S'6/14'
p2361
sS'total_runs'
p2362
L27L
sS'summary_score'
p2363
I43
sS'results'
p2364
(dp2365
S'parscriptiframe'
p2366
(dp2367
S'score'
p2368
I0
sS'raw_score'
p2369
NsS'display'
p2370
g98
ssS'parscriptimage'
p2371
(dp2372
g2368
I0
sg2369
Nsg2370
g98
ssS'parcssjs'
p2373
(dp2374
g2368
I1
sg2369
I0
sg2370
S'no'
p2375
ssS'cacheresredir'
p2376
(dp2377
g2368
I100
sg2369
I1
sg2370
S'yes'
p2378
ssS'cacheexp'
p2379
(dp2380
g2368
I100
sg2369
I1
sg2370
g2378
ssS'maxconn'
p2381
(dp2382
g2368
I1
sg2369
I4
sg2370
g43
ssS'cacheredir'
p2383
(dp2384
g2368
I100
sg2369
I1
sg2370
g2378
ssS'prefetch'
p2385
(dp2386
g2368
I100
sg2369
I1
sg2370
g2378
ssS'parscriptstylesheet'
p2387
(dp2388
g2368
I0
sg2369
Nsg2370
g98
ssS'gzip'
p2389
(dp2390
g2368
I1
sg2369
I0
sg2370
g2375
ssS'parscriptscript'
p2391
(dp2392
g2368
I0
sg2369
Nsg2370
g98
ssS'du'
p2393
(dp2394
g2368
I1
sg2369
I0
sg2370
g2375
ssS'parsheet'
p2395
(dp2396
g2368
I100
sg2369
I1
sg2370
g2378
ssS'hostconn'
p2397
(dp2398
g2368
I100
sg2369
I5
sg2370
g323
ssssVIron
p2399
(dp2400
S'summary_display'
p2401
S'11/14'
p2402
sS'total_runs'
p2403
L146L
sS'summary_score'
p2404
I79
sS'results'
p2405
(dp2406
S'parscriptiframe'
p2407
(dp2408
S'score'
p2409
I1
sS'raw_score'
p2410
I0
sS'display'
p2411
S'no'
p2412
ssS'parscriptimage'
p2413
(dp2414
g2409
I100
sg2410
I1
sg2411
S'yes'
p2415
ssS'parcssjs'
p2416
(dp2417
g2409
I1
sg2410
I0
sg2411
g2412
ssS'cacheresredir'
p2418
(dp2419
g2409
I100
sg2410
I1
sg2411
g2415
ssS'cacheexp'
p2420
(dp2421
g2409
I100
sg2410
I1
sg2411
g2415
ssS'maxconn'
p2422
(dp2423
g2409
I100
sg2410
I60
sg2411
S'60'
p2424
ssS'cacheredir'
p2425
(dp2426
g2409
I100
sg2410
I1
sg2411
g2415
ssS'prefetch'
p2427
(dp2428
g2409
I1
sg2410
I0
sg2411
g2412
ssS'parscriptstylesheet'
p2429
(dp2430
g2409
I100
sg2410
I1
sg2411
g2415
ssS'gzip'
p2431
(dp2432
g2409
I100
sg2410
I1
sg2411
g2415
ssS'parscriptscript'
p2433
(dp2434
g2409
I100
sg2410
I1
sg2411
g2415
ssS'du'
p2435
(dp2436
g2409
I100
sg2410
I1
sg2411
g2415
ssS'parsheet'
p2437
(dp2438
g2409
I100
sg2410
I1
sg2411
g2415
ssS'hostconn'
p2439
(dp2440
g2409
I100
sg2410
I4
sg2411
g43
ssssVPalm Blazer
p2441
(dp2442
S'summary_display'
p2443
S'2/14'
p2444
sS'total_runs'
p2445
L1L
sS'summary_score'
p2446
I14
sS'results'
p2447
(dp2448
S'parscriptiframe'
p2449
(dp2450
S'score'
p2451
I0
sS'raw_score'
p2452
NsS'display'
p2453
g98
ssS'parscriptimage'
p2454
(dp2455
g2451
I0
sg2452
Nsg2453
g98
ssS'parcssjs'
p2456
(dp2457
g2451
I1
sg2452
I0
sg2453
S'no'
p2458
ssS'cacheresredir'
p2459
(dp2460
g2451
I1
sg2452
I0
sg2453
g2458
ssS'cacheexp'
p2461
(dp2462
g2451
I1
sg2452
I0
sg2453
g2458
ssS'maxconn'
p2463
(dp2464
g2451
I0
sg2452
I0
sg2453
g1040
ssS'cacheredir'
p2465
(dp2466
g2451
I100
sg2452
I1
sg2453
S'yes'
p2467
ssS'prefetch'
p2468
(dp2469
g2451
I1
sg2452
I0
sg2453
g2458
ssS'parscriptstylesheet'
p2470
(dp2471
g2451
I0
sg2452
Nsg2453
g98
ssS'gzip'
p2472
(dp2473
g2451
I100
sg2452
I1
sg2453
g2467
ssS'parscriptscript'
p2474
(dp2475
g2451
I0
sg2452
Nsg2453
g98
ssS'du'
p2476
(dp2477
g2451
I0
sg2452
Nsg2453
g98
ssS'parsheet'
p2478
(dp2479
g2451
I1
sg2452
I0
sg2453
g2458
ssS'hostconn'
p2480
(dp2481
g2451
I0
sg2452
I0
sg2453
g1040
ssssVMidori
p2482
(dp2483
S'summary_display'
p2484
S'7/14'
p2485
sS'total_runs'
p2486
L26L
sS'summary_score'
p2487
I50
sS'results'
p2488
(dp2489
S'parscriptiframe'
p2490
(dp2491
S'score'
p2492
I1
sS'raw_score'
p2493
I0
sS'display'
p2494
S'no'
p2495
ssS'parscriptimage'
p2496
(dp2497
g2492
I100
sg2493
I1
sg2494
S'yes'
p2498
ssS'parcssjs'
p2499
(dp2500
g2492
I1
sg2493
I0
sg2494
g2495
ssS'cacheresredir'
p2501
(dp2502
g2492
I100
sg2493
I1
sg2494
g2498
ssS'cacheexp'
p2503
(dp2504
g2492
I100
sg2493
I1
sg2494
g2498
ssS'maxconn'
p2505
(dp2506
g2492
I50
sg2493
I10
sg2494
S'10'
p2507
ssS'cacheredir'
p2508
(dp2509
g2492
I1
sg2493
I0
sg2494
g2495
ssS'prefetch'
p2510
(dp2511
g2492
I1
sg2493
I0
sg2494
g2495
ssS'parscriptstylesheet'
p2512
(dp2513
g2492
I100
sg2493
I1
sg2494
g2498
ssS'gzip'
p2514
(dp2515
g2492
I1
sg2493
I0
sg2494
g2495
ssS'parscriptscript'
p2516
(dp2517
g2492
I100
sg2493
I1
sg2494
g2498
ssS'du'
p2518
(dp2519
g2492
I100
sg2493
I1
sg2494
g2498
ssS'parsheet'
p2520
(dp2521
g2492
I100
sg2493
I1
sg2494
g2498
ssS'hostconn'
p2522
(dp2523
g2492
I50
sg2493
I2
sg2494
g550
ssssVOmniWeb
p2524
(dp2525
S'summary_display'
p2526
S'11/14'
p2527
sS'total_runs'
p2528
L19L
sS'summary_score'
p2529
I79
sS'results'
p2530
(dp2531
S'parscriptiframe'
p2532
(dp2533
S'score'
p2534
I100
sS'raw_score'
p2535
I1
sS'display'
p2536
S'yes'
p2537
ssS'parscriptimage'
p2538
(dp2539
g2534
I100
sg2535
I1
sg2536
g2537
ssS'parcssjs'
p2540
(dp2541
g2534
I1
sg2535
I0
sg2536
S'no'
p2542
ssS'cacheresredir'
p2543
(dp2544
g2534
I100
sg2535
I1
sg2536
g2537
ssS'cacheexp'
p2545
(dp2546
g2534
I100
sg2535
I1
sg2536
g2537
ssS'maxconn'
p2547
(dp2548
g2534
I100
sg2535
I60
sg2536
S'60'
p2549
ssS'cacheredir'
p2550
(dp2551
g2534
I1
sg2535
I0
sg2536
g2542
ssS'prefetch'
p2552
(dp2553
g2534
I1
sg2535
I0
sg2536
g2542
ssS'parscriptstylesheet'
p2554
(dp2555
g2534
I100
sg2535
I1
sg2536
g2537
ssS'gzip'
p2556
(dp2557
g2534
I100
sg2535
I1
sg2536
g2537
ssS'parscriptscript'
p2558
(dp2559
g2534
I100
sg2535
I1
sg2536
g2537
ssS'du'
p2560
(dp2561
g2534
I100
sg2535
I1
sg2536
g2537
ssS'parsheet'
p2562
(dp2563
g2534
I100
sg2535
I1
sg2536
g2537
ssS'hostconn'
p2564
(dp2565
g2534
I100
sg2535
I4
sg2536
g43
ssssVIE
p2566
(dp2567
S'summary_display'
p2568
S'7/14'
p2569
sS'total_runs'
p2570
L2281L
sS'summary_score'
p2571
I50
sS'results'
p2572
(dp2573
S'parscriptiframe'
p2574
(dp2575
S'score'
p2576
I1
sS'raw_score'
p2577
I0
sS'display'
p2578
S'no'
p2579
ssS'parscriptimage'
p2580
(dp2581
g2576
I1
sg2577
I0
sg2578
g2579
ssS'parcssjs'
p2582
(dp2583
g2576
I1
sg2577
I0
sg2578
g2579
ssS'cacheresredir'
p2584
(dp2585
g2576
I1
sg2577
I0
sg2578
g2579
ssS'cacheexp'
p2586
(dp2587
g2576
I100
sg2577
I1
sg2578
S'yes'
p2588
ssS'maxconn'
p2589
(dp2590
g2576
I100
sg2577
I60
sg2578
S'60'
p2591
ssS'cacheredir'
p2592
(dp2593
g2576
I1
sg2577
I0
sg2578
g2579
ssS'prefetch'
p2594
(dp2595
g2576
I1
sg2577
I0
sg2578
g2579
ssS'parscriptstylesheet'
p2596
(dp2597
g2576
I100
sg2577
I1
sg2578
g2588
ssS'gzip'
p2598
(dp2599
g2576
I100
sg2577
I1
sg2578
g2588
ssS'parscriptscript'
p2600
(dp2601
g2576
I100
sg2577
I1
sg2578
g2588
ssS'du'
p2602
(dp2603
g2576
I1
sg2577
I0
sg2578
g2579
ssS'parsheet'
p2604
(dp2605
g2576
I100
sg2577
I1
sg2578
g2588
ssS'hostconn'
p2606
(dp2607
g2576
I100
sg2577
I4
sg2578
g43
ssssVANTGalio
p2608
(dp2609
S'summary_display'
p2610
S'3/14'
p2611
sS'total_runs'
p2612
L2L
sS'summary_score'
p2613
I21
sS'results'
p2614
(dp2615
S'parscriptiframe'
p2616
(dp2617
S'score'
p2618
I0
sS'raw_score'
p2619
NsS'display'
p2620
g98
ssS'parscriptimage'
p2621
(dp2622
g2618
I0
sg2619
Nsg2620
g98
ssS'parcssjs'
p2623
(dp2624
g2618
I1
sg2619
I0
sg2620
S'no'
p2625
ssS'cacheresredir'
p2626
(dp2627
g2618
I1
sg2619
I0
sg2620
g2625
ssS'cacheexp'
p2628
(dp2629
g2618
I1
sg2619
I0
sg2620
g2625
ssS'maxconn'
p2630
(dp2631
g2618
I100
sg2619
I53
sg2620
S'53'
p2632
ssS'cacheredir'
p2633
(dp2634
g2618
I1
sg2619
I0
sg2620
g2625
ssS'prefetch'
p2635
(dp2636
g2618
I1
sg2619
I0
sg2620
g2625
ssS'parscriptstylesheet'
p2637
(dp2638
g2618
I0
sg2619
Nsg2620
g98
ssS'gzip'
p2639
(dp2640
g2618
I1
sg2619
I0
sg2620
g2625
ssS'parscriptscript'
p2641
(dp2642
g2618
I0
sg2619
Nsg2620
g98
ssS'du'
p2643
(dp2644
g2618
I100
sg2619
I1
sg2620
S'yes'
p2645
ssS'parsheet'
p2646
(dp2647
g2618
I1
sg2619
I0
sg2620
g2625
ssS'hostconn'
p2648
(dp2649
g2618
I100
sg2619
I7
sg2620
g128
ssssVIceWeasel
p2650
(dp2651
S'summary_display'
p2652
S'9/14'
p2653
sS'total_runs'
p2654
L2L
sS'summary_score'
p2655
I64
sS'results'
p2656
(dp2657
S'parscriptiframe'
p2658
(dp2659
S'score'
p2660
I1
sS'raw_score'
p2661
I0
sS'display'
p2662
S'no'
p2663
ssS'parscriptimage'
p2664
(dp2665
g2660
I1
sg2661
I0
sg2662
g2663
ssS'parcssjs'
p2666
(dp2667
g2660
I1
sg2661
I0
sg2662
g2663
ssS'cacheresredir'
p2668
(dp2669
g2660
I100
sg2661
I1
sg2662
S'yes'
p2670
ssS'cacheexp'
p2671
(dp2672
g2660
I100
sg2661
I1
sg2662
g2670
ssS'maxconn'
p2673
(dp2674
g2660
I100
sg2661
I48
sg2662
S'48'
p2675
ssS'cacheredir'
p2676
(dp2677
g2660
I100
sg2661
I1
sg2662
g2670
ssS'prefetch'
p2678
(dp2679
g2660
I100
sg2661
I1
sg2662
g2670
ssS'parscriptstylesheet'
p2680
(dp2681
g2660
I1
sg2661
I0
sg2662
g2663
ssS'gzip'
p2682
(dp2683
g2660
I100
sg2661
I1
sg2662
g2670
ssS'parscriptscript'
p2684
(dp2685
g2660
I1
sg2661
I0
sg2662
g2663
ssS'du'
p2686
(dp2687
g2660
I100
sg2661
I1
sg2662
g2670
ssS'parsheet'
p2688
(dp2689
g2660
I100
sg2661
I1
sg2662
g2670
ssS'hostconn'
p2690
(dp2691
g2660
I100
sg2661
I8
sg2662
g154
ssssVPalm Pre
p2692
(dp2693
S'summary_display'
p2694
S'9/14'
p2695
sS'total_runs'
p2696
L29L
sS'summary_score'
p2697
I64
sS'results'
p2698
(dp2699
S'parscriptiframe'
p2700
(dp2701
S'score'
p2702
I1
sS'raw_score'
p2703
I0
sS'display'
p2704
S'no'
p2705
ssS'parscriptimage'
p2706
(dp2707
g2702
I100
sg2703
I1
sg2704
S'yes'
p2708
ssS'parcssjs'
p2709
(dp2710
g2702
I1
sg2703
I0
sg2704
g2705
ssS'cacheresredir'
p2711
(dp2712
g2702
I100
sg2703
I1
sg2704
g2708
ssS'cacheexp'
p2713
(dp2714
g2702
I100
sg2703
I1
sg2704
g2708
ssS'maxconn'
p2715
(dp2716
g2702
I50
sg2703
I10
sg2704
S'10'
p2717
ssS'cacheredir'
p2718
(dp2719
g2702
I1
sg2703
I0
sg2704
g2705
ssS'prefetch'
p2720
(dp2721
g2702
I1
sg2703
I0
sg2704
g2705
ssS'parscriptstylesheet'
p2722
(dp2723
g2702
I100
sg2703
I1
sg2704
g2708
ssS'gzip'
p2724
(dp2725
g2702
I100
sg2703
I1
sg2704
g2708
ssS'parscriptscript'
p2726
(dp2727
g2702
I100
sg2703
I1
sg2704
g2708
ssS'du'
p2728
(dp2729
g2702
I100
sg2703
I1
sg2704
g2708
ssS'parsheet'
p2730
(dp2731
g2702
I100
sg2703
I1
sg2704
g2708
ssS'hostconn'
p2732
(dp2733
g2702
I100
sg2703
I10
sg2704
S'10'
p2734
ssssVFirefox
p2735
(dp2736
S'summary_display'
p2737
S'10/14'
p2738
sS'total_runs'
p2739
L12359L
sS'summary_score'
p2740
I71
sS'results'
p2741
(dp2742
S'parscriptiframe'
p2743
(dp2744
S'score'
p2745
I1
sS'raw_score'
p2746
I0
sS'display'
p2747
S'no'
p2748
ssS'parscriptimage'
p2749
(dp2750
g2745
I1
sg2746
I0
sg2747
g2748
ssS'parcssjs'
p2751
(dp2752
g2745
I1
sg2746
I0
sg2747
g2748
ssS'cacheresredir'
p2753
(dp2754
g2745
I100
sg2746
I1
sg2747
S'yes'
p2755
ssS'cacheexp'
p2756
(dp2757
g2745
I100
sg2746
I1
sg2747
g2755
ssS'maxconn'
p2758
(dp2759
g2745
I100
sg2746
I30
sg2747
S'30'
p2760
ssS'cacheredir'
p2761
(dp2762
g2745
I1
sg2746
I0
sg2747
g2748
ssS'prefetch'
p2763
(dp2764
g2745
I100
sg2746
I1
sg2747
g2755
ssS'parscriptstylesheet'
p2765
(dp2766
g2745
I100
sg2746
I1
sg2747
g2755
ssS'gzip'
p2767
(dp2768
g2745
I100
sg2746
I1
sg2747
g2755
ssS'parscriptscript'
p2769
(dp2770
g2745
I100
sg2746
I1
sg2747
g2755
ssS'du'
p2771
(dp2772
g2745
I100
sg2746
I1
sg2747
g2755
ssS'parsheet'
p2773
(dp2774
g2745
I100
sg2746
I1
sg2747
g2755
ssS'hostconn'
p2775
(dp2776
g2745
I100
sg2746
I6
sg2747
g171
ssssVLunascape
p2777
(dp2778
S'summary_display'
p2779
S'11/14'
p2780
sS'total_runs'
p2781
L160L
sS'summary_score'
p2782
I79
sS'results'
p2783
(dp2784
S'du'
p2785
(dp2786
S'score'
p2787
I100
sS'raw_score'
p2788
I1
sS'display'
p2789
S'yes'
p2790
ssS'parscriptimage'
p2791
(dp2792
g2787
I1
sg2788
I0
sg2789
S'no'
p2793
ssS'cacheexp'
p2794
(dp2795
g2787
I100
sg2788
I1
sg2789
g2790
ssS'cacheresredir'
p2796
(dp2797
g2787
I100
sg2788
I1
sg2789
g2790
ssS'parcssjs'
p2798
(dp2799
g2787
I1
sg2788
I0
sg2789
g2793
ssS'parscriptiframe'
p2800
(dp2801
g2787
I1
sg2788
I0
sg2789
g2793
ssS'gzip'
p2802
(dp2803
g2787
I100
sg2788
I1
sg2789
g2790
ssS'prefetch'
p2804
(dp2805
g2787
I100
sg2788
I1
sg2789
g2790
ssS'parscriptstylesheet'
p2806
(dp2807
g2787
I100
sg2788
I1
sg2789
g2790
ssS'cacheredir'
p2808
(dp2809
g2787
I100
sg2788
I1
sg2789
g2790
ssS'parscriptscript'
p2810
(dp2811
g2787
I100
sg2788
I1
sg2789
g2790
ssS'maxconn'
p2812
(dp2813
g2787
I100
sg2788
I30
sg2789
S'30'
p2814
ssS'parsheet'
p2815
(dp2816
g2787
I100
sg2788
I1
sg2789
g2790
ssS'hostconn'
p2817
(dp2818
g2787
I100
sg2788
I6
sg2789
g171
ssssVLinks
p2819
(dp2820
S'summary_display'
p2821
S'8/14'
p2822
sS'total_runs'
p2823
L1L
sS'summary_score'
p2824
I57
sS'results'
p2825
(dp2826
S'parscriptiframe'
p2827
(dp2828
S'score'
p2829
I0
sS'raw_score'
p2830
NsS'display'
p2831
g98
ssS'parscriptimage'
p2832
(dp2833
g2829
I0
sg2830
Nsg2831
g98
ssS'parcssjs'
p2834
(dp2835
g2829
I1
sg2830
I0
sg2831
S'no'
p2836
ssS'cacheresredir'
p2837
(dp2838
g2829
I100
sg2830
I1
sg2831
S'yes'
p2839
ssS'cacheexp'
p2840
(dp2841
g2829
I100
sg2830
I1
sg2831
g2839
ssS'maxconn'
p2842
(dp2843
g2829
I100
sg2830
I30
sg2831
S'30'
p2844
ssS'cacheredir'
p2845
(dp2846
g2829
I100
sg2830
I1
sg2831
g2839
ssS'prefetch'
p2847
(dp2848
g2829
I100
sg2830
I1
sg2831
g2839
ssS'parscriptstylesheet'
p2849
(dp2850
g2829
I0
sg2830
Nsg2831
g98
ssS'gzip'
p2851
(dp2852
g2829
I1
sg2830
I0
sg2831
g2836
ssS'parscriptscript'
p2853
(dp2854
g2829
I0
sg2830
Nsg2831
g98
ssS'du'
p2855
(dp2856
g2829
I100
sg2830
I1
sg2831
g2839
ssS'parsheet'
p2857
(dp2858
g2829
I100
sg2830
I1
sg2831
g2839
ssS'hostconn'
p2859
(dp2860
g2829
I100
sg2830
I15
sg2831
S'15'
p2861
ssssVSwiftfox
p2862
(dp2863
S'summary_display'
p2864
S'9/14'
p2865
sS'total_runs'
p2866
L18L
sS'summary_score'
p2867
I64
sS'results'
p2868
(dp2869
S'parscriptiframe'
p2870
(dp2871
S'score'
p2872
I0
sS'raw_score'
p2873
NsS'display'
p2874
g98
ssS'parscriptimage'
p2875
(dp2876
g2872
I0
sg2873
Nsg2874
g98
ssS'parcssjs'
p2877
(dp2878
g2872
I1
sg2873
I0
sg2874
S'no'
p2879
ssS'cacheresredir'
p2880
(dp2881
g2872
I100
sg2873
I1
sg2874
S'yes'
p2882
ssS'cacheexp'
p2883
(dp2884
g2872
I100
sg2873
I1
sg2874
g2882
ssS'maxconn'
p2885
(dp2886
g2872
I100
sg2873
I32
sg2874
S'32'
p2887
ssS'cacheredir'
p2888
(dp2889
g2872
I100
sg2873
I1
sg2874
g2882
ssS'prefetch'
p2890
(dp2891
g2872
I100
sg2873
I1
sg2874
g2882
ssS'parscriptstylesheet'
p2892
(dp2893
g2872
I0
sg2873
Nsg2874
g98
ssS'gzip'
p2894
(dp2895
g2872
I100
sg2873
I1
sg2874
g2882
ssS'parscriptscript'
p2896
(dp2897
g2872
I0
sg2873
Nsg2874
g98
ssS'du'
p2898
(dp2899
g2872
I100
sg2873
I1
sg2874
g2882
ssS'parsheet'
p2900
(dp2901
g2872
I100
sg2873
I1
sg2874
g2882
ssS'hostconn'
p2902
(dp2903
g2872
I100
sg2873
I6
sg2874
g171
ssssVCrazy Browser
p2904
(dp2905
S'summary_display'
p2906
S'2/14'
p2907
sS'total_runs'
p2908
L3L
sS'summary_score'
p2909
I14
sS'results'
p2910
(dp2911
S'parscriptiframe'
p2912
(dp2913
S'score'
p2914
I0
sS'raw_score'
p2915
NsS'display'
p2916
g98
ssS'parscriptimage'
p2917
(dp2918
g2914
I0
sg2915
Nsg2916
g98
ssS'parcssjs'
p2919
(dp2920
g2914
I1
sg2915
I0
sg2916
S'no'
p2921
ssS'cacheresredir'
p2922
(dp2923
g2914
I1
sg2915
I0
sg2916
g2921
ssS'cacheexp'
p2924
(dp2925
g2914
I100
sg2915
I1
sg2916
S'yes'
p2926
ssS'maxconn'
p2927
(dp2928
g2914
I50
sg2915
I16
sg2916
S'16'
p2929
ssS'cacheredir'
p2930
(dp2931
g2914
I1
sg2915
I0
sg2916
g2921
ssS'prefetch'
p2932
(dp2933
g2914
I1
sg2915
I0
sg2916
g2921
ssS'parscriptstylesheet'
p2934
(dp2935
g2914
I0
sg2915
Nsg2916
g98
ssS'gzip'
p2936
(dp2937
g2914
I1
sg2915
I0
sg2916
g2921
ssS'parscriptscript'
p2938
(dp2939
g2914
I0
sg2915
Nsg2916
g98
ssS'du'
p2940
(dp2941
g2914
I1
sg2915
I0
sg2916
g2921
ssS'parsheet'
p2942
(dp2943
g2914
I1
sg2915
I0
sg2916
g2921
ssS'hostconn'
p2944
(dp2945
g2914
I100
sg2915
I12
sg2916
S'12'
p2946
ssssVWii
p2947
(dp2948
S'summary_display'
p2949
S'5/14'
p2950
sS'total_runs'
p2951
L8L
sS'summary_score'
p2952
I36
sS'results'
p2953
(dp2954
S'parscriptiframe'
p2955
(dp2956
S'score'
p2957
I1
sS'raw_score'
p2958
I0
sS'display'
p2959
S'no'
p2960
ssS'parscriptimage'
p2961
(dp2962
g2957
I1
sg2958
I0
sg2959
g2960
ssS'parcssjs'
p2963
(dp2964
g2957
I1
sg2958
I0
sg2959
g2960
ssS'cacheresredir'
p2965
(dp2966
g2957
I1
sg2958
I0
sg2959
g2960
ssS'cacheexp'
p2967
(dp2968
g2957
I100
sg2958
I1
sg2959
S'yes'
p2969
ssS'maxconn'
p2970
(dp2971
g2957
I1
sg2958
I3
sg2959
g1266
ssS'cacheredir'
p2972
(dp2973
g2957
I1
sg2958
I0
sg2959
g2960
ssS'prefetch'
p2974
(dp2975
g2957
I1
sg2958
I0
sg2959
g2960
ssS'parscriptstylesheet'
p2976
(dp2977
g2957
I1
sg2958
I0
sg2959
g2960
ssS'gzip'
p2978
(dp2979
g2957
I100
sg2958
I1
sg2959
g2969
ssS'parscriptscript'
p2980
(dp2981
g2957
I100
sg2958
I1
sg2959
g2969
ssS'du'
p2982
(dp2983
g2957
I100
sg2958
I1
sg2959
g2969
ssS'parsheet'
p2984
(dp2985
g2957
I100
sg2958
I1
sg2959
g2969
ssS'hostconn'
p2986
(dp2987
g2957
I50
sg2958
I2
sg2959
g550
ssssViCab
p2988
(dp2989
S'summary_display'
p2990
S'7/14'
p2991
sS'total_runs'
p2992
L9L
sS'summary_score'
p2993
I50
sS'results'
p2994
(dp2995
S'parscriptiframe'
p2996
(dp2997
S'score'
p2998
I0
sS'raw_score'
p2999
NsS'display'
p3000
g98
ssS'parscriptimage'
p3001
(dp3002
g2998
I0
sg2999
Nsg3000
g98
ssS'parcssjs'
p3003
(dp3004
g2998
I1
sg2999
I0
sg3000
S'no'
p3005
ssS'cacheresredir'
p3006
(dp3007
g2998
I100
sg2999
I1
sg3000
S'yes'
p3008
ssS'cacheexp'
p3009
(dp3010
g2998
I100
sg2999
I1
sg3000
g3008
ssS'maxconn'
p3011
(dp3012
g2998
I100
sg2999
I60
sg3000
S'60'
p3013
ssS'cacheredir'
p3014
(dp3015
g2998
I1
sg2999
I0
sg3000
g3005
ssS'prefetch'
p3016
(dp3017
g2998
I1
sg2999
I0
sg3000
g3005
ssS'parscriptstylesheet'
p3018
(dp3019
g2998
I0
sg2999
Nsg3000
g98
ssS'gzip'
p3020
(dp3021
g2998
I100
sg2999
I1
sg3000
g3008
ssS'parscriptscript'
p3022
(dp3023
g2998
I0
sg2999
Nsg3000
g98
ssS'du'
p3024
(dp3025
g2998
I100
sg2999
I1
sg3000
g3008
ssS'parsheet'
p3026
(dp3027
g2998
I100
sg2999
I1
sg3000
g3008
ssS'hostconn'
p3028
(dp3029
g2998
I100
sg2999
I4
sg3000
g43
ssssVChrome Frame (IE 6)
p3030
(dp3031
S'summary_display'
p3032
S'6/14'
p3033
sS'total_runs'
p3034
L3L
sS'summary_score'
p3035
I43
sS'results'
p3036
(dp3037
S'parscriptiframe'
p3038
(dp3039
S'score'
p3040
I0
sS'raw_score'
p3041
NsS'display'
p3042
g98
ssS'parscriptimage'
p3043
(dp3044
g3040
I0
sg3041
Nsg3042
g98
ssS'parcssjs'
p3045
(dp3046
g3040
I1
sg3041
I0
sg3042
S'no'
p3047
ssS'cacheresredir'
p3048
(dp3049
g3040
I100
sg3041
I1
sg3042
S'yes'
p3050
ssS'cacheexp'
p3051
(dp3052
g3040
I100
sg3041
I1
sg3042
g3050
ssS'maxconn'
p3053
(dp3054
g3040
I100
sg3041
I48
sg3042
S'48'
p3055
ssS'cacheredir'
p3056
(dp3057
g3040
I1
sg3041
I0
sg3042
g3047
ssS'prefetch'
p3058
(dp3059
g3040
I1
sg3041
I0
sg3042
g3047
ssS'parscriptstylesheet'
p3060
(dp3061
g3040
I0
sg3041
Nsg3042
g98
ssS'gzip'
p3062
(dp3063
g3040
I100
sg3041
I1
sg3042
g3050
ssS'parscriptscript'
p3064
(dp3065
g3040
I0
sg3041
Nsg3042
g98
ssS'du'
p3066
(dp3067
g3040
I100
sg3041
I1
sg3042
g3050
ssS'parsheet'
p3068
(dp3069
g3040
I100
sg3041
I1
sg3042
g3050
ssS'hostconn'
p3070
(dp3071
g3040
I50
sg3041
I2
sg3042
g550
ssssVFirefox (Namoroka)
p3072
(dp3073
S'summary_display'
p3074
S'13/14'
p3075
sS'total_runs'
p3076
L57L
sS'summary_score'
p3077
I93
sS'results'
p3078
(dp3079
S'parscriptiframe'
p3080
(dp3081
S'score'
p3082
I1
sS'raw_score'
p3083
I0
sS'display'
p3084
S'no'
p3085
ssS'parscriptimage'
p3086
(dp3087
g3082
I100
sg3083
I1
sg3084
S'yes'
p3088
ssS'parcssjs'
p3089
(dp3090
g3082
I100
sg3083
I1
sg3084
g3088
ssS'cacheresredir'
p3091
(dp3092
g3082
I100
sg3083
I1
sg3084
g3088
ssS'cacheexp'
p3093
(dp3094
g3082
I100
sg3083
I1
sg3084
g3088
ssS'maxconn'
p3095
(dp3096
g3082
I100
sg3083
I30
sg3084
S'30'
p3097
ssS'cacheredir'
p3098
(dp3099
g3082
I100
sg3083
I1
sg3084
g3088
ssS'prefetch'
p3100
(dp3101
g3082
I100
sg3083
I1
sg3084
g3088
ssS'parscriptstylesheet'
p3102
(dp3103
g3082
I100
sg3083
I1
sg3084
g3088
ssS'gzip'
p3104
(dp3105
g3082
I100
sg3083
I1
sg3084
g3088
ssS'parscriptscript'
p3106
(dp3107
g3082
I100
sg3083
I1
sg3084
g3088
ssS'du'
p3108
(dp3109
g3082
I100
sg3083
I1
sg3084
g3088
ssS'parsheet'
p3110
(dp3111
g3082
I100
sg3083
I1
sg3084
g3088
ssS'hostconn'
p3112
(dp3113
g3082
I100
sg3083
I6
sg3084
g171
ssssVSunrise
p3114
(dp3115
S'summary_display'
p3116
S'7/14'
p3117
sS'total_runs'
p3118
L3L
sS'summary_score'
p3119
I50
sS'results'
p3120
(dp3121
S'parscriptiframe'
p3122
(dp3123
S'score'
p3124
I0
sS'raw_score'
p3125
NsS'display'
p3126
g98
ssS'parscriptimage'
p3127
(dp3128
g3124
I0
sg3125
Nsg3126
g98
ssS'parcssjs'
p3129
(dp3130
g3124
I1
sg3125
I0
sg3126
S'no'
p3131
ssS'cacheresredir'
p3132
(dp3133
g3124
I100
sg3125
I1
sg3126
S'yes'
p3134
ssS'cacheexp'
p3135
(dp3136
g3124
I100
sg3125
I1
sg3126
g3134
ssS'maxconn'
p3137
(dp3138
g3124
I100
sg3125
I60
sg3126
S'60'
p3139
ssS'cacheredir'
p3140
(dp3141
g3124
I1
sg3125
I0
sg3126
g3131
ssS'prefetch'
p3142
(dp3143
g3124
I1
sg3125
I0
sg3126
g3131
ssS'parscriptstylesheet'
p3144
(dp3145
g3124
I0
sg3125
Nsg3126
g98
ssS'gzip'
p3146
(dp3147
g3124
I100
sg3125
I1
sg3126
g3134
ssS'parscriptscript'
p3148
(dp3149
g3124
I0
sg3125
Nsg3126
g98
ssS'du'
p3150
(dp3151
g3124
I100
sg3125
I1
sg3126
g3134
ssS'parsheet'
p3152
(dp3153
g3124
I100
sg3125
I1
sg3126
g3134
ssS'hostconn'
p3154
(dp3155
g3124
I100
sg3125
I4
sg3126
g43
ssssVArora
p3156
(dp3157
S'summary_display'
p3158
S'10/14'
p3159
sS'total_runs'
p3160
L30L
sS'summary_score'
p3161
I71
sS'results'
p3162
(dp3163
S'parscriptiframe'
p3164
(dp3165
S'score'
p3166
I1
sS'raw_score'
p3167
I0
sS'display'
p3168
S'no'
p3169
ssS'parscriptimage'
p3170
(dp3171
g3166
I100
sg3167
I1
sg3168
S'yes'
p3172
ssS'parcssjs'
p3173
(dp3174
g3166
I1
sg3167
I0
sg3168
g3169
ssS'cacheresredir'
p3175
(dp3176
g3166
I100
sg3167
I1
sg3168
g3172
ssS'cacheexp'
p3177
(dp3178
g3166
I100
sg3167
I1
sg3168
g3172
ssS'maxconn'
p3179
(dp3180
g3166
I100
sg3167
I42
sg3168
S'42'
p3181
ssS'cacheredir'
p3182
(dp3183
g3166
I100
sg3167
I1
sg3168
g3172
ssS'prefetch'
p3184
(dp3185
g3166
I1
sg3167
I0
sg3168
g3169
ssS'parscriptstylesheet'
p3186
(dp3187
g3166
I100
sg3167
I1
sg3168
g3172
ssS'gzip'
p3188
(dp3189
g3166
I100
sg3167
I1
sg3168
g3172
ssS'parscriptscript'
p3190
(dp3191
g3166
I100
sg3167
I1
sg3168
g3172
ssS'du'
p3192
(dp3193
g3166
I100
sg3167
I1
sg3168
g3172
ssS'parsheet'
p3194
(dp3195
g3166
I100
sg3167
I1
sg3168
g3172
ssS'hostconn'
p3196
(dp3197
g3166
I50
sg3167
I2
sg3168
g550
ssssVFlock
p3198
(dp3199
S'summary_display'
p3200
S'8/14'
p3201
sS'total_runs'
p3202
L47L
sS'summary_score'
p3203
I57
sS'results'
p3204
(dp3205
S'parscriptiframe'
p3206
(dp3207
S'score'
p3208
I1
sS'raw_score'
p3209
I0
sS'display'
p3210
S'no'
p3211
ssS'parscriptimage'
p3212
(dp3213
g3208
I1
sg3209
I0
sg3210
g3211
ssS'parcssjs'
p3214
(dp3215
g3208
I1
sg3209
I0
sg3210
g3211
ssS'cacheresredir'
p3216
(dp3217
g3208
I100
sg3209
I1
sg3210
S'yes'
p3218
ssS'cacheexp'
p3219
(dp3220
g3208
I100
sg3209
I1
sg3210
g3218
ssS'maxconn'
p3221
(dp3222
g3208
I100
sg3209
I32
sg3210
S'32'
p3223
ssS'cacheredir'
p3224
(dp3225
g3208
I1
sg3209
I0
sg3210
g3211
ssS'prefetch'
p3226
(dp3227
g3208
I100
sg3209
I1
sg3210
g3218
ssS'parscriptstylesheet'
p3228
(dp3229
g3208
I1
sg3209
I0
sg3210
g3211
ssS'gzip'
p3230
(dp3231
g3208
I100
sg3209
I1
sg3210
g3218
ssS'parscriptscript'
p3232
(dp3233
g3208
I1
sg3209
I0
sg3210
g3211
ssS'du'
p3234
(dp3235
g3208
I100
sg3209
I1
sg3210
g3218
ssS'parsheet'
p3236
(dp3237
g3208
I100
sg3209
I1
sg3210
g3218
ssS'hostconn'
p3238
(dp3239
g3208
I100
sg3209
I6
sg3210
g171
ssssVFennec
p3240
(dp3241
S'summary_display'
p3242
S'8/14'
p3243
sS'total_runs'
p3244
L14L
sS'summary_score'
p3245
I57
sS'results'
p3246
(dp3247
S'parscriptiframe'
p3248
(dp3249
S'score'
p3250
I0
sS'raw_score'
p3251
NsS'display'
p3252
g98
ssS'parscriptimage'
p3253
(dp3254
g3250
I0
sg3251
Nsg3252
g98
ssS'parcssjs'
p3255
(dp3256
g3250
I1
sg3251
I0
sg3252
S'no'
p3257
ssS'cacheresredir'
p3258
(dp3259
g3250
I100
sg3251
I1
sg3252
S'yes'
p3260
ssS'cacheexp'
p3261
(dp3262
g3250
I100
sg3251
I1
sg3252
g3260
ssS'maxconn'
p3263
(dp3264
g3250
I1
sg3251
I6
sg3252
g171
ssS'cacheredir'
p3265
(dp3266
g3250
I100
sg3251
I1
sg3252
g3260
ssS'prefetch'
p3267
(dp3268
g3250
I100
sg3251
I1
sg3252
g3260
ssS'parscriptstylesheet'
p3269
(dp3270
g3250
I0
sg3251
Nsg3252
g98
ssS'gzip'
p3271
(dp3272
g3250
I100
sg3251
I1
sg3252
g3260
ssS'parscriptscript'
p3273
(dp3274
g3250
I0
sg3251
Nsg3252
g98
ssS'du'
p3275
(dp3276
g3250
I100
sg3251
I1
sg3252
g3260
ssS'parsheet'
p3277
(dp3278
g3250
I100
sg3251
I1
sg3252
g3260
ssS'hostconn'
p3279
(dp3280
g3250
I100
sg3251
I4
sg3252
g43
ssssVMy Internet Browser
p3281
(dp3282
S'summary_display'
p3283
S'7/14'
p3284
sS'total_runs'
p3285
L1L
sS'summary_score'
p3286
I50
sS'results'
p3287
(dp3288
S'parscriptiframe'
p3289
(dp3290
S'score'
p3291
I0
sS'raw_score'
p3292
NsS'display'
p3293
g98
ssS'parscriptimage'
p3294
(dp3295
g3291
I0
sg3292
Nsg3293
g98
ssS'parcssjs'
p3296
(dp3297
g3291
I1
sg3292
I0
sg3293
S'no'
p3298
ssS'cacheresredir'
p3299
(dp3300
g3291
I1
sg3292
I0
sg3293
g3298
ssS'cacheexp'
p3301
(dp3302
g3291
I100
sg3292
I1
sg3293
S'yes'
p3303
ssS'maxconn'
p3304
(dp3305
g3291
I100
sg3292
I30
sg3293
S'30'
p3306
ssS'cacheredir'
p3307
(dp3308
g3291
I1
sg3292
I0
sg3293
g3298
ssS'prefetch'
p3309
(dp3310
g3291
I100
sg3292
I1
sg3293
g3303
ssS'parscriptstylesheet'
p3311
(dp3312
g3291
I0
sg3292
Nsg3293
g98
ssS'gzip'
p3313
(dp3314
g3291
I100
sg3292
I1
sg3293
g3303
ssS'parscriptscript'
p3315
(dp3316
g3291
I0
sg3292
Nsg3293
g98
ssS'du'
p3317
(dp3318
g3291
I100
sg3292
I1
sg3293
g3303
ssS'parsheet'
p3319
(dp3320
g3291
I100
sg3292
I1
sg3293
g3303
ssS'hostconn'
p3321
(dp3322
g3291
I100
sg3292
I6
sg3293
g171
ssssVChrome Frame (IE 8)
p3323
(dp3324
S'summary_display'
p3325
S'7/14'
p3326
sS'total_runs'
p3327
L8L
sS'summary_score'
p3328
I50
sS'results'
p3329
(dp3330
S'parscriptiframe'
p3331
(dp3332
S'score'
p3333
I0
sS'raw_score'
p3334
NsS'display'
p3335
g98
ssS'parscriptimage'
p3336
(dp3337
g3333
I0
sg3334
Nsg3335
g98
ssS'parcssjs'
p3338
(dp3339
g3333
I1
sg3334
I0
sg3335
S'no'
p3340
ssS'cacheresredir'
p3341
(dp3342
g3333
I100
sg3334
I1
sg3335
S'yes'
p3343
ssS'cacheexp'
p3344
(dp3345
g3333
I100
sg3334
I1
sg3335
g3343
ssS'maxconn'
p3346
(dp3347
g3333
I100
sg3334
I60
sg3335
S'60'
p3348
ssS'cacheredir'
p3349
(dp3350
g3333
I1
sg3334
I0
sg3335
g3340
ssS'prefetch'
p3351
(dp3352
g3333
I1
sg3334
I0
sg3335
g3340
ssS'parscriptstylesheet'
p3353
(dp3354
g3333
I0
sg3334
Nsg3335
g98
ssS'gzip'
p3355
(dp3356
g3333
I100
sg3334
I1
sg3335
g3343
ssS'parscriptscript'
p3357
(dp3358
g3333
I0
sg3334
Nsg3335
g98
ssS'du'
p3359
(dp3360
g3333
I100
sg3334
I1
sg3335
g3343
ssS'parsheet'
p3361
(dp3362
g3333
I100
sg3334
I1
sg3335
g3343
ssS'hostconn'
p3363
(dp3364
g3333
I100
sg3334
I4
sg3335
g43
ssss.