(dp0
VOpera 9.7
p1
(dp2
S'total_runs'
p3
L1L
sS'score'
p4
I4
sS'results'
p5
(dp6
S'maxconn'
p7
(dp8
g4
I0
sS'median'
p9
L4L
sS'display'
p10
S'4'
p11
ssS'parscript'
p12
(dp13
g4
I10
sg9
L1L
sg10
S'yes'
p14
ssS'parcssjs'
p15
(dp16
g4
I1
sg9
L0L
sg10
S'no'
p17
ssS'cacheresredir'
p18
(dp19
g4
I1
sg9
L0L
sg10
g17
ssS'cacheexp'
p20
(dp21
g4
I10
sg9
L1L
sg10
g14
ssS'gzip'
p22
(dp23
g4
I10
sg9
L1L
sg10
g14
ssS'prefetch'
p24
(dp25
g4
I1
sg9
L0L
sg10
g17
ssS'cacheredir'
p26
(dp27
g4
I1
sg9
L0L
sg10
g17
ssS'parsheet'
p28
(dp29
g4
I10
sg9
L1L
sg10
g14
ssS'du'
p30
(dp31
g4
I10
sg9
L1L
sg10
g14
ssS'hostconn'
p32
(dp33
g4
I5
sg9
L2L
sg10
S'2'
p34
sssg10
S'5/11'
p35
ssVOpera 9.6
p36
(dp37
S'total_runs'
p38
L2L
sS'score'
p39
I4
sS'results'
p40
(dp41
S'maxconn'
p42
(dp43
g39
I0
sS'median'
p44
L0L
sS'display'
p45
S'0'
p46
ssS'parscript'
p47
(dp48
g39
I10
sg44
L1L
sg45
S'yes'
p49
ssS'parcssjs'
p50
(dp51
g39
I1
sg44
L0L
sg45
S'no'
p52
ssS'cacheresredir'
p53
(dp54
g39
I1
sg44
L0L
sg45
g52
ssS'cacheexp'
p55
(dp56
g39
I10
sg44
L1L
sg45
g49
ssS'gzip'
p57
(dp58
g39
I10
sg44
L1L
sg45
g49
ssS'prefetch'
p59
(dp60
g39
I1
sg44
L0L
sg45
g52
ssS'cacheredir'
p61
(dp62
g39
I1
sg44
L0L
sg45
g52
ssS'parsheet'
p63
(dp64
g39
I10
sg44
L1L
sg45
g49
ssS'du'
p65
(dp66
g39
I10
sg44
L1L
sg45
g49
ssS'hostconn'
p67
(dp68
g39
I5
sg44
L2L
sg45
g34
sssg45
S'5/11'
p69
ssVOpera 9.5
p70
(dp71
S'total_runs'
p72
L3L
sS'score'
p73
I4
sS'results'
p74
(dp75
S'maxconn'
p76
(dp77
g73
I0
sS'median'
p78
L4L
sS'display'
p79
g11
ssS'parscript'
p80
(dp81
g73
I10
sg78
L1L
sg79
S'yes'
p82
ssS'parcssjs'
p83
(dp84
g73
I1
sg78
L0L
sg79
S'no'
p85
ssS'cacheresredir'
p86
(dp87
g73
I1
sg78
L0L
sg79
g85
ssS'cacheexp'
p88
(dp89
g73
I10
sg78
L1L
sg79
g82
ssS'gzip'
p90
(dp91
g73
I10
sg78
L1L
sg79
g82
ssS'prefetch'
p92
(dp93
g73
I1
sg78
L0L
sg79
g85
ssS'cacheredir'
p94
(dp95
g73
I1
sg78
L0L
sg79
g85
ssS'parsheet'
p96
(dp97
g73
I10
sg78
L1L
sg79
g82
ssS'du'
p98
(dp99
g73
I10
sg78
L1L
sg79
g82
ssS'hostconn'
p100
(dp101
g73
I5
sg78
L2L
sg79
g34
sssg79
S'5/11'
p102
ssVNokia 78
p103
(dp104
S'total_runs'
p105
L1L
sS'score'
p106
I5
sS'results'
p107
(dp108
S'maxconn'
p109
(dp110
g106
I0
sS'median'
p111
L7L
sS'display'
p112
S'7'
p113
ssS'parscript'
p114
(dp115
g106
I10
sg111
L1L
sg112
S'yes'
p116
ssS'parcssjs'
p117
(dp118
g106
I1
sg111
L0L
sg112
S'no'
p119
ssS'cacheresredir'
p120
(dp121
g106
I1
sg111
L0L
sg112
g119
ssS'cacheexp'
p122
(dp123
g106
I10
sg111
L1L
sg112
g116
ssS'gzip'
p124
(dp125
g106
I10
sg111
L1L
sg112
g116
ssS'prefetch'
p126
(dp127
g106
I1
sg111
L0L
sg112
g119
ssS'cacheredir'
p128
(dp129
g106
I1
sg111
L0L
sg112
g119
ssS'parsheet'
p130
(dp131
g106
I10
sg111
L1L
sg112
g116
ssS'du'
p132
(dp133
g106
I10
sg111
L1L
sg112
g116
ssS'hostconn'
p134
(dp135
g106
I10
sg111
L7L
sg112
g113
sssg112
S'6/11'
p136
ssVBlackberry 8330
p137
(dp138
S'total_runs'
p139
L1L
sS'score'
p140
I5
sS'results'
p141
(dp142
S'maxconn'
p143
(dp144
g140
I0
sS'median'
p145
L8L
sS'display'
p146
S'8'
p147
ssS'parscript'
p148
(dp149
g140
I10
sg145
L1L
sg146
S'yes'
p150
ssS'parcssjs'
p151
(dp152
g140
I1
sg145
L0L
sg146
S'no'
p153
ssS'cacheresredir'
p154
(dp155
g140
I10
sg145
L1L
sg146
g150
ssS'cacheexp'
p156
(dp157
g140
I10
sg145
L1L
sg146
g150
ssS'gzip'
p158
(dp159
g140
I1
sg145
L0L
sg146
g153
ssS'prefetch'
p160
(dp161
g140
I10
sg145
L1L
sg146
g150
ssS'cacheredir'
p162
(dp163
g140
I1
sg145
L0L
sg146
g153
ssS'parsheet'
p164
(dp165
g140
I10
sg145
L1L
sg146
g150
ssS'du'
p166
(dp167
g140
I1
sg145
L0L
sg146
g153
ssS'hostconn'
p168
(dp169
g140
I10
sg145
L8L
sg146
g147
sssg146
S'6/11'
p170
ssVOpera 9.0
p171
(dp172
S'total_runs'
p173
L2L
sS'score'
p174
I4
sS'results'
p175
(dp176
S'maxconn'
p177
(dp178
g174
I5
sS'median'
p179
L20L
sS'display'
p180
S'20'
p181
ssS'parscript'
p182
(dp183
g174
I1
sg179
L0L
sg180
S'no'
p184
ssS'parcssjs'
p185
(dp186
g174
I1
sg179
L0L
sg180
g184
ssS'cacheresredir'
p187
(dp188
g174
I1
sg179
L0L
sg180
g184
ssS'cacheexp'
p189
(dp190
g174
I10
sg179
L1L
sg180
S'yes'
p191
ssS'gzip'
p192
(dp193
g174
I10
sg179
L1L
sg180
g191
ssS'prefetch'
p194
(dp195
g174
I1
sg179
L0L
sg180
g184
ssS'cacheredir'
p196
(dp197
g174
I1
sg179
L0L
sg180
g184
ssS'parsheet'
p198
(dp199
g174
I10
sg179
L1L
sg180
g191
ssS'du'
p200
(dp201
g174
I10
sg179
L1L
sg180
g191
ssS'hostconn'
p202
(dp203
g174
I10
sg179
L4L
sg180
g11
sssg180
S'5/11'
p204
ssVMaxthon 0
p205
(dp206
S'total_runs'
p207
L12L
sS'score'
p208
I3
sS'results'
p209
(dp210
S'maxconn'
p211
(dp212
g208
I0
sS'median'
p213
L9L
sS'display'
p214
S'9'
p215
ssS'parscript'
p216
(dp217
g208
I1
sg213
L0L
sg214
S'no'
p218
ssS'parcssjs'
p219
(dp220
g208
I1
sg213
L0L
sg214
g218
ssS'cacheresredir'
p221
(dp222
g208
I1
sg213
L0L
sg214
g218
ssS'cacheexp'
p223
(dp224
g208
I10
sg213
L1L
sg214
S'yes'
p225
ssS'gzip'
p226
(dp227
g208
I10
sg213
L1L
sg214
g225
ssS'prefetch'
p228
(dp229
g208
I1
sg213
L0L
sg214
g218
ssS'cacheredir'
p230
(dp231
g208
I1
sg213
L0L
sg214
g218
ssS'parsheet'
p232
(dp233
g208
I10
sg213
L1L
sg214
g225
ssS'du'
p234
(dp235
g208
I1
sg213
L0L
sg214
g218
ssS'hostconn'
p236
(dp237
g208
I10
sg213
L9L
sg214
g215
sssg214
S'4/11'
p238
ssVFirefox (Shiretoko) 3.5
p239
(dp240
S'total_runs'
p241
L62L
sS'score'
p242
I8
sS'results'
p243
(dp244
S'maxconn'
p245
(dp246
g242
I10
sS'median'
p247
L30L
sS'display'
p248
S'30'
p249
ssS'parscript'
p250
(dp251
g242
I10
sg247
L1L
sg248
S'yes'
p252
ssS'parcssjs'
p253
(dp254
g242
I1
sg247
L0L
sg248
S'no'
p255
ssS'cacheresredir'
p256
(dp257
g242
I10
sg247
L1L
sg248
g252
ssS'cacheexp'
p258
(dp259
g242
I10
sg247
L1L
sg248
g252
ssS'gzip'
p260
(dp261
g242
I10
sg247
L1L
sg248
g252
ssS'prefetch'
p262
(dp263
g242
I10
sg247
L1L
sg248
g252
ssS'cacheredir'
p264
(dp265
g242
I10
sg247
L1L
sg248
g252
ssS'parsheet'
p266
(dp267
g242
I10
sg247
L1L
sg248
g252
ssS'du'
p268
(dp269
g242
I10
sg247
L1L
sg248
g252
ssS'hostconn'
p270
(dp271
g242
I10
sg247
L6L
sg248
S'6'
p272
sssg248
S'10/11'
p273
ssVBlackberry 8130
p274
(dp275
S'total_runs'
p276
L1L
sS'score'
p277
I5
sS'results'
p278
(dp279
S'maxconn'
p280
(dp281
g277
I0
sS'median'
p282
L4L
sS'display'
p283
g11
ssS'parscript'
p284
(dp285
g277
I10
sg282
L1L
sg283
S'yes'
p286
ssS'parcssjs'
p287
(dp288
g277
I1
sg282
L0L
sg283
S'no'
p289
ssS'cacheresredir'
p290
(dp291
g277
I10
sg282
L1L
sg283
g286
ssS'cacheexp'
p292
(dp293
g277
I10
sg282
L1L
sg283
g286
ssS'gzip'
p294
(dp295
g277
I1
sg282
L0L
sg283
g289
ssS'prefetch'
p296
(dp297
g277
I10
sg282
L1L
sg283
g286
ssS'cacheredir'
p298
(dp299
g277
I1
sg282
L0L
sg283
g289
ssS'parsheet'
p300
(dp301
g277
I10
sg282
L1L
sg283
g286
ssS'du'
p302
(dp303
g277
I1
sg282
L0L
sg283
g289
ssS'hostconn'
p304
(dp305
g277
I10
sg282
L4L
sg283
g11
sssg283
S'6/11'
p306
ssVFirefox (Shiretoko) 3.0
p307
(dp308
S'total_runs'
p309
L1L
sS'score'
p310
I8
sS'results'
p311
(dp312
S'maxconn'
p313
(dp314
g310
I10
sS'median'
p315
L30L
sS'display'
p316
S'30'
p317
ssS'parscript'
p318
(dp319
g310
I1
sg315
L0L
sg316
S'no'
p320
ssS'parcssjs'
p321
(dp322
g310
I1
sg315
L0L
sg316
g320
ssS'cacheresredir'
p323
(dp324
g310
I10
sg315
L1L
sg316
S'yes'
p325
ssS'cacheexp'
p326
(dp327
g310
I10
sg315
L1L
sg316
g325
ssS'gzip'
p328
(dp329
g310
I10
sg315
L1L
sg316
g325
ssS'prefetch'
p330
(dp331
g310
I10
sg315
L1L
sg316
g325
ssS'cacheredir'
p332
(dp333
g310
I10
sg315
L1L
sg316
g325
ssS'parsheet'
p334
(dp335
g310
I10
sg315
L1L
sg316
g325
ssS'du'
p336
(dp337
g310
I10
sg315
L1L
sg316
g325
ssS'hostconn'
p338
(dp339
g310
I10
sg315
L6L
sg316
g272
sssg316
S'9/11'
p340
ssViPhone 3.0
p341
(dp342
S'total_runs'
p343
L51L
sS'score'
p344
I7
sS'results'
p345
(dp346
S'maxconn'
p347
(dp348
g344
I10
sS'median'
p349
L60L
sS'display'
p350
S'60'
p351
ssS'parscript'
p352
(dp353
g344
I10
sg349
L1L
sg350
S'yes'
p354
ssS'parcssjs'
p355
(dp356
g344
I1
sg349
L0L
sg350
S'no'
p357
ssS'cacheresredir'
p358
(dp359
g344
I10
sg349
L1L
sg350
g354
ssS'cacheexp'
p360
(dp361
g344
I10
sg349
L1L
sg350
g354
ssS'gzip'
p362
(dp363
g344
I10
sg349
L1L
sg350
g354
ssS'prefetch'
p364
(dp365
g344
I1
sg349
L0L
sg350
g357
ssS'cacheredir'
p366
(dp367
g344
I1
sg349
L0L
sg350
g357
ssS'parsheet'
p368
(dp369
g344
I10
sg349
L1L
sg350
g354
ssS'du'
p370
(dp371
g344
I10
sg349
L1L
sg350
g354
ssS'hostconn'
p372
(dp373
g344
I10
sg349
L6L
sg350
g272
sssg350
S'8/11'
p374
ssVOpera 6.05
p375
(dp376
S'total_runs'
p377
L1L
sS'score'
p378
I3
sS'results'
p379
(dp380
S'maxconn'
p381
(dp382
g378
I5
sS'median'
p383
L20L
sS'display'
p384
S'20'
p385
ssS'parscript'
p386
(dp387
g378
I1
sg383
L0L
sg384
S'no'
p388
ssS'parcssjs'
p389
(dp390
g378
I1
sg383
L0L
sg384
g388
ssS'cacheresredir'
p391
(dp392
g378
I1
sg383
L0L
sg384
g388
ssS'cacheexp'
p393
(dp394
g378
I1
sg383
L0L
sg384
g388
ssS'gzip'
p395
(dp396
g378
I10
sg383
L1L
sg384
S'yes'
p397
ssS'prefetch'
p398
(dp399
g378
I1
sg383
L0L
sg384
g388
ssS'cacheredir'
p400
(dp401
g378
I10
sg383
L1L
sg384
g397
ssS'parsheet'
p402
(dp403
g378
I10
sg383
L1L
sg384
g397
ssS'du'
p404
(dp405
g378
I1
sg383
L0L
sg384
g388
ssS'hostconn'
p406
(dp407
g378
I10
sg383
L4L
sg384
g11
sssg384
S'4/11'
p408
ssVBlackberry 8520
p409
(dp410
S'total_runs'
p411
L1L
sS'score'
p412
I7
sS'results'
p413
(dp414
S'maxconn'
p415
(dp416
g412
I0
sS'median'
p417
L1L
sS'display'
p418
S'1'
p419
ssS'parscript'
p420
(dp421
g412
I10
sg417
L1L
sg418
S'yes'
p422
ssS'parcssjs'
p423
(dp424
g412
I1
sg417
L0L
sg418
S'no'
p425
ssS'cacheresredir'
p426
(dp427
g412
I10
sg417
L1L
sg418
g422
ssS'cacheexp'
p428
(dp429
g412
I10
sg417
L1L
sg418
g422
ssS'gzip'
p430
(dp431
g412
I1
sg417
L0L
sg418
g425
ssS'prefetch'
p432
(dp433
g412
I10
sg417
L1L
sg418
g422
ssS'cacheredir'
p434
(dp435
g412
I10
sg417
L1L
sg418
g422
ssS'parsheet'
p436
(dp437
g412
I10
sg417
L1L
sg418
g422
ssS'du'
p438
(dp439
g412
I10
sg417
L1L
sg418
g422
ssS'hostconn'
p440
(dp441
g412
I10
sg417
L4L
sg418
g11
sssg418
S'8/11'
p442
ssVNetscape 6.2
p443
(dp444
S'total_runs'
p445
L1L
sS'score'
p446
I4
sS'results'
p447
(dp448
S'maxconn'
p449
(dp450
g446
I5
sS'median'
p451
L16L
sS'display'
p452
S'16'
p453
ssS'parscript'
p454
(dp455
g446
I1
sg451
L0L
sg452
S'no'
p456
ssS'parcssjs'
p457
(dp458
g446
I1
sg451
L0L
sg452
g456
ssS'cacheresredir'
p459
(dp460
g446
I10
sg451
L1L
sg452
S'yes'
p461
ssS'cacheexp'
p462
(dp463
g446
I10
sg451
L1L
sg452
g461
ssS'gzip'
p464
(dp465
g446
I10
sg451
L1L
sg452
g461
ssS'prefetch'
p466
(dp467
g446
I1
sg451
L0L
sg452
g456
ssS'cacheredir'
p468
(dp469
g446
I1
sg451
L0L
sg452
g456
ssS'parsheet'
p470
(dp471
g446
I1
sg451
L0L
sg452
g456
ssS'du'
p472
(dp473
g446
I10
sg451
L1L
sg452
g461
ssS'hostconn'
p474
(dp475
g446
I10
sg451
L8L
sg452
g147
sssg452
S'5/11'
p476
ssVOpera Mini 3.1
p477
(dp478
S'total_runs'
p479
L5L
sS'score'
p480
I5
sS'results'
p481
(dp482
S'maxconn'
p483
(dp484
g480
I10
sS'median'
p485
L60L
sS'display'
p486
S'60'
p487
ssS'parscript'
p488
(dp489
g480
I1
sg485
L0L
sg486
S'no'
p490
ssS'parcssjs'
p491
(dp492
g480
I1
sg485
L0L
sg486
g490
ssS'cacheresredir'
p493
(dp494
g480
I1
sg485
L0L
sg486
g490
ssS'cacheexp'
p495
(dp496
g480
I10
sg485
L1L
sg486
S'yes'
p497
ssS'gzip'
p498
(dp499
g480
I10
sg485
L1L
sg486
g497
ssS'prefetch'
p500
(dp501
g480
I1
sg485
L0L
sg486
g490
ssS'cacheredir'
p502
(dp503
g480
I1
sg485
L0L
sg486
g490
ssS'parsheet'
p504
(dp505
g480
I10
sg485
L1L
sg486
g497
ssS'du'
p506
(dp507
g480
I10
sg485
L1L
sg486
g497
ssS'hostconn'
p508
(dp509
g480
I10
sg485
L10L
sg486
S'10'
p510
sssg486
S'6/11'
p511
ssVOther
p512
(dp513
S'total_runs'
p514
L72L
sS'score'
p515
I6
sS'results'
p516
(dp517
S'maxconn'
p518
(dp519
g515
I10
sS'median'
p520
L29L
sS'display'
p521
S'29'
p522
ssS'parscript'
p523
(dp524
g515
I10
sg520
L1L
sg521
S'yes'
p525
ssS'parcssjs'
p526
(dp527
g515
I1
sg520
L0L
sg521
S'no'
p528
ssS'cacheresredir'
p529
(dp530
g515
I10
sg520
L1L
sg521
g525
ssS'cacheexp'
p531
(dp532
g515
I10
sg520
L1L
sg521
g525
ssS'gzip'
p533
(dp534
g515
I10
sg520
L1L
sg521
g525
ssS'prefetch'
p535
(dp536
g515
I1
sg520
L0L
sg521
g528
ssS'cacheredir'
p537
(dp538
g515
I1
sg520
L0L
sg521
g528
ssS'parsheet'
p539
(dp540
g515
I10
sg520
L1L
sg521
g525
ssS'du'
p541
(dp542
g515
I10
sg520
L1L
sg521
g525
ssS'hostconn'
p543
(dp544
g515
I5
sg520
L2L
sg521
g34
sssg521
S'7/11'
p545
ssVSwiftfox 3.5
p546
(dp547
S'total_runs'
p548
L1L
sS'score'
p549
I8
sS'results'
p550
(dp551
S'maxconn'
p552
(dp553
g549
I10
sS'median'
p554
L40L
sS'display'
p555
S'40'
p556
ssS'parscript'
p557
(dp558
g549
I10
sg554
L1L
sg555
S'yes'
p559
ssS'parcssjs'
p560
(dp561
g549
I1
sg554
L0L
sg555
S'no'
p562
ssS'cacheresredir'
p563
(dp564
g549
I10
sg554
L1L
sg555
g559
ssS'cacheexp'
p565
(dp566
g549
I10
sg554
L1L
sg555
g559
ssS'gzip'
p567
(dp568
g549
I10
sg554
L1L
sg555
g559
ssS'prefetch'
p569
(dp570
g549
I1
sg554
L0L
sg555
g562
ssS'cacheredir'
p571
(dp572
g549
I10
sg554
L1L
sg555
g559
ssS'parsheet'
p573
(dp574
g549
I10
sg554
L1L
sg555
g559
ssS'du'
p575
(dp576
g549
I10
sg554
L1L
sg555
g559
ssS'hostconn'
p577
(dp578
g549
I10
sg554
L6L
sg555
g272
sssg555
S'9/11'
p579
ssVNetscape 9.0b1
p580
(dp581
S'total_runs'
p582
L1L
sS'score'
p583
I5
sS'results'
p584
(dp585
S'maxconn'
p586
(dp587
g583
I10
sS'median'
p588
L24L
sS'display'
p589
S'24'
p590
ssS'parscript'
p591
(dp592
g583
I1
sg588
L0L
sg589
S'no'
p593
ssS'parcssjs'
p594
(dp595
g583
I1
sg588
L0L
sg589
g593
ssS'cacheresredir'
p596
(dp597
g583
I10
sg588
L1L
sg589
S'yes'
p598
ssS'cacheexp'
p599
(dp600
g583
I10
sg588
L1L
sg589
g598
ssS'gzip'
p601
(dp602
g583
I10
sg588
L1L
sg589
g598
ssS'prefetch'
p603
(dp604
g583
I1
sg588
L0L
sg589
g593
ssS'cacheredir'
p605
(dp606
g583
I10
sg588
L1L
sg589
g598
ssS'parsheet'
p607
(dp608
g583
I1
sg588
L0L
sg589
g593
ssS'du'
p609
(dp610
g583
I10
sg588
L1L
sg589
g598
ssS'hostconn'
p611
(dp612
g583
I5
sg588
L2L
sg589
g34
sssg589
S'6/11'
p613
ssVOpera 9.62
p614
(dp615
S'total_runs'
p616
L1220L
sS'score'
p617
I4
sS'results'
p618
(dp619
S'maxconn'
p620
(dp621
g617
I5
sS'median'
p622
L20L
sS'display'
p623
S'20'
p624
ssS'parscript'
p625
(dp626
g617
I1
sg622
L0L
sg623
S'no'
p627
ssS'parcssjs'
p628
(dp629
g617
I1
sg622
L0L
sg623
g627
ssS'cacheresredir'
p630
(dp631
g617
I1
sg622
L0L
sg623
g627
ssS'cacheexp'
p632
(dp633
g617
I10
sg622
L1L
sg623
S'yes'
p634
ssS'gzip'
p635
(dp636
g617
I10
sg622
L1L
sg623
g634
ssS'prefetch'
p637
(dp638
g617
I1
sg622
L0L
sg623
g627
ssS'cacheredir'
p639
(dp640
g617
I1
sg622
L0L
sg623
g627
ssS'parsheet'
p641
(dp642
g617
I10
sg622
L1L
sg623
g634
ssS'du'
p643
(dp644
g617
I10
sg622
L1L
sg623
g634
ssS'hostconn'
p645
(dp646
g617
I10
sg622
L4L
sg623
g11
sssg623
S'5/11'
p647
ssVOmniWeb 558.46
p648
(dp649
S'total_runs'
p650
L1L
sS'score'
p651
I3
sS'results'
p652
(dp653
S'maxconn'
p654
(dp655
g651
I5
sS'median'
p656
L10L
sS'display'
p657
S'10'
p658
ssS'parscript'
p659
(dp660
g651
I1
sg656
L0L
sg657
S'no'
p661
ssS'parcssjs'
p662
(dp663
g651
I1
sg656
L0L
sg657
g661
ssS'cacheresredir'
p664
(dp665
g651
I10
sg656
L1L
sg657
S'yes'
p666
ssS'cacheexp'
p667
(dp668
g651
I1
sg656
L0L
sg657
g661
ssS'gzip'
p669
(dp670
g651
I10
sg656
L1L
sg657
g666
ssS'prefetch'
p671
(dp672
g651
I1
sg656
L0L
sg657
g661
ssS'cacheredir'
p673
(dp674
g651
I1
sg656
L0L
sg657
g661
ssS'parsheet'
p675
(dp676
g651
I1
sg656
L0L
sg657
g661
ssS'du'
p677
(dp678
g651
I10
sg656
L1L
sg657
g666
ssS'hostconn'
p679
(dp680
g651
I10
sg656
L4L
sg657
g11
sssg657
S'4/11'
p681
ssVFluid 0.9
p682
(dp683
S'total_runs'
p684
L2L
sS'score'
p685
I6
sS'results'
p686
(dp687
S'maxconn'
p688
(dp689
g685
I10
sS'median'
p690
L60L
sS'display'
p691
S'60'
p692
ssS'parscript'
p693
(dp694
g685
I1
sg690
L0L
sg691
S'no'
p695
ssS'parcssjs'
p696
(dp697
g685
I1
sg690
L0L
sg691
g695
ssS'cacheresredir'
p698
(dp699
g685
I10
sg690
L1L
sg691
S'yes'
p700
ssS'cacheexp'
p701
(dp702
g685
I10
sg690
L1L
sg691
g700
ssS'gzip'
p703
(dp704
g685
I10
sg690
L1L
sg691
g700
ssS'prefetch'
p705
(dp706
g685
I1
sg690
L0L
sg691
g695
ssS'cacheredir'
p707
(dp708
g685
I1
sg690
L0L
sg691
g695
ssS'parsheet'
p709
(dp710
g685
I10
sg690
L1L
sg691
g700
ssS'du'
p711
(dp712
g685
I10
sg690
L1L
sg691
g700
ssS'hostconn'
p713
(dp714
g685
I10
sg690
L4L
sg691
g11
sssg691
S'7/11'
p715
ssVOpera 8.00
p716
(dp717
S'total_runs'
p718
L3L
sS'score'
p719
I5
sS'results'
p720
(dp721
S'maxconn'
p722
(dp723
g719
I5
sS'median'
p724
L18L
sS'display'
p725
S'18'
p726
ssS'parscript'
p727
(dp728
g719
I10
sg724
L1L
sg725
S'yes'
p729
ssS'parcssjs'
p730
(dp731
g719
I1
sg724
L0L
sg725
S'no'
p732
ssS'cacheresredir'
p733
(dp734
g719
I1
sg724
L0L
sg725
g732
ssS'cacheexp'
p735
(dp736
g719
I10
sg724
L1L
sg725
g729
ssS'gzip'
p737
(dp738
g719
I10
sg724
L1L
sg725
g729
ssS'prefetch'
p739
(dp740
g719
I1
sg724
L0L
sg725
g732
ssS'cacheredir'
p741
(dp742
g719
I1
sg724
L0L
sg725
g732
ssS'parsheet'
p743
(dp744
g719
I10
sg724
L1L
sg725
g729
ssS'du'
p745
(dp746
g719
I10
sg724
L1L
sg725
g729
ssS'hostconn'
p747
(dp748
g719
I10
sg724
L14L
sg725
S'14'
p749
sssg725
S'6/11'
p750
ssVOpera 7.23
p751
(dp752
S'total_runs'
p753
L1L
sS'score'
p754
I3
sS'results'
p755
(dp756
S'maxconn'
p757
(dp758
g754
I5
sS'median'
p759
L20L
sS'display'
p760
S'20'
p761
ssS'parscript'
p762
(dp763
g754
I1
sg759
L0L
sg760
S'no'
p764
ssS'parcssjs'
p765
(dp766
g754
I1
sg759
L0L
sg760
g764
ssS'cacheresredir'
p767
(dp768
g754
I1
sg759
L0L
sg760
g764
ssS'cacheexp'
p769
(dp770
g754
I1
sg759
L0L
sg760
g764
ssS'gzip'
p771
(dp772
g754
I10
sg759
L1L
sg760
S'yes'
p773
ssS'prefetch'
p774
(dp775
g754
I1
sg759
L0L
sg760
g764
ssS'cacheredir'
p776
(dp777
g754
I1
sg759
L0L
sg760
g764
ssS'parsheet'
p778
(dp779
g754
I10
sg759
L1L
sg760
g773
ssS'du'
p780
(dp781
g754
I10
sg759
L1L
sg760
g773
ssS'hostconn'
p782
(dp783
g754
I10
sg759
L4L
sg760
g11
sssg760
S'4/11'
p784
ssVSleipnir 2.7
p785
(dp786
S'total_runs'
p787
L1L
sS'score'
p788
I5
sS'results'
p789
(dp790
S'maxconn'
p791
(dp792
g788
I10
sS'median'
p793
L60L
sS'display'
p794
S'60'
p795
ssS'parscript'
p796
(dp797
g788
I10
sg793
L1L
sg794
S'yes'
p798
ssS'parcssjs'
p799
(dp800
g788
I1
sg793
L0L
sg794
S'no'
p801
ssS'cacheresredir'
p802
(dp803
g788
I1
sg793
L0L
sg794
g801
ssS'cacheexp'
p804
(dp805
g788
I10
sg793
L1L
sg794
g798
ssS'gzip'
p806
(dp807
g788
I10
sg793
L1L
sg794
g798
ssS'prefetch'
p808
(dp809
g788
I1
sg793
L0L
sg794
g801
ssS'cacheredir'
p810
(dp811
g788
I1
sg793
L0L
sg794
g801
ssS'parsheet'
p812
(dp813
g788
I10
sg793
L1L
sg794
g798
ssS'du'
p814
(dp815
g788
I10
sg793
L1L
sg794
g798
ssS'hostconn'
p816
(dp817
g788
I5
sg793
L2L
sg794
g34
sssg794
S'6/11'
p818
ssVNokia 95
p819
(dp820
S'total_runs'
p821
L11L
sS'score'
p822
I3
sS'results'
p823
(dp824
S'maxconn'
p825
(dp826
g822
I0
sS'median'
p827
L5L
sS'display'
p828
S'5'
p829
ssS'parscript'
p830
(dp831
g822
I10
sg827
L1L
sg828
S'yes'
p832
ssS'parcssjs'
p833
(dp834
g822
I1
sg827
L0L
sg828
S'no'
p835
ssS'cacheresredir'
p836
(dp837
g822
I1
sg827
L0L
sg828
g835
ssS'cacheexp'
p838
(dp839
g822
I10
sg827
L1L
sg828
g832
ssS'gzip'
p840
(dp841
g822
I10
sg827
L1L
sg828
g832
ssS'prefetch'
p842
(dp843
g822
I1
sg827
L0L
sg828
g835
ssS'cacheredir'
p844
(dp845
g822
I1
sg827
L0L
sg828
g835
ssS'parsheet'
p846
(dp847
g822
I10
sg827
L1L
sg828
g832
ssS'du'
p848
(dp849
g822
I1
sg827
L0L
sg828
g835
ssS'hostconn'
p850
(dp851
g822
I0
sg827
L0L
sg828
g46
sssg828
S'4/11'
p852
ssVOpera 5.12
p853
(dp854
S'total_runs'
p855
L1L
sS'score'
p856
I3
sS'results'
p857
(dp858
S'maxconn'
p859
(dp860
g856
I5
sS'median'
p861
L20L
sS'display'
p862
S'20'
p863
ssS'parscript'
p864
(dp865
g856
I1
sg861
L0L
sg862
S'no'
p866
ssS'parcssjs'
p867
(dp868
g856
I1
sg861
L0L
sg862
g866
ssS'cacheresredir'
p869
(dp870
g856
I10
sg861
L1L
sg862
S'yes'
p871
ssS'cacheexp'
p872
(dp873
g856
I1
sg861
L0L
sg862
g866
ssS'gzip'
p874
(dp875
g856
I10
sg861
L1L
sg862
g871
ssS'prefetch'
p876
(dp877
g856
I1
sg861
L0L
sg862
g866
ssS'cacheredir'
p878
(dp879
g856
I1
sg861
L0L
sg862
g866
ssS'parsheet'
p880
(dp881
g856
I10
sg861
L1L
sg862
g871
ssS'du'
p882
(dp883
g856
I1
sg861
L0L
sg862
g866
ssS'hostconn'
p884
(dp885
g856
I10
sg861
L4L
sg862
g11
sssg862
S'4/11'
p886
ssVNokia 96
p887
(dp888
S'total_runs'
p889
L1L
sS'score'
p890
I4
sS'results'
p891
(dp892
S'maxconn'
p893
(dp894
g890
I0
sS'median'
p895
L0L
sS'display'
p896
g46
ssS'parscript'
p897
(dp898
g890
I10
sg895
L1L
sg896
S'yes'
p899
ssS'parcssjs'
p900
(dp901
g890
I1
sg895
L0L
sg896
S'no'
p902
ssS'cacheresredir'
p903
(dp904
g890
I1
sg895
L0L
sg896
g902
ssS'cacheexp'
p905
(dp906
g890
I1
sg895
L0L
sg896
g902
ssS'gzip'
p907
(dp908
g890
I10
sg895
L1L
sg896
g899
ssS'prefetch'
p909
(dp910
g890
I1
sg895
L0L
sg896
g902
ssS'cacheredir'
p911
(dp912
g890
I1
sg895
L0L
sg896
g902
ssS'parsheet'
p913
(dp914
g890
I10
sg895
L1L
sg896
g899
ssS'du'
p915
(dp916
g890
I10
sg895
L1L
sg896
g899
ssS'hostconn'
p917
(dp918
g890
I10
sg895
L7L
sg896
g113
sssg896
S'5/11'
p919
ssVCamino 2.0
p920
(dp921
S'total_runs'
p922
L1L
sS'score'
p923
I5
sS'results'
p924
(dp925
S'maxconn'
p926
(dp927
g923
I10
sS'median'
p928
L29L
sS'display'
p929
S'29'
p930
ssS'parscript'
p931
(dp932
g923
I1
sg928
L0L
sg929
S'no'
p933
ssS'parcssjs'
p934
(dp935
g923
I1
sg928
L0L
sg929
g933
ssS'cacheresredir'
p936
(dp937
g923
I1
sg928
L0L
sg929
g933
ssS'cacheexp'
p938
(dp939
g923
I10
sg928
L1L
sg929
S'yes'
p940
ssS'gzip'
p941
(dp942
g923
I10
sg928
L1L
sg929
g940
ssS'prefetch'
p943
(dp944
g923
I1
sg928
L0L
sg929
g933
ssS'cacheredir'
p945
(dp946
g923
I1
sg928
L0L
sg929
g933
ssS'parsheet'
p947
(dp948
g923
I10
sg928
L1L
sg929
g940
ssS'du'
p949
(dp950
g923
I10
sg928
L1L
sg929
g940
ssS'hostconn'
p951
(dp952
g923
I10
sg928
L6L
sg929
g272
sssg929
S'6/11'
p953
ssVIceweasel 3.0
p954
(dp955
S'total_runs'
p956
L94L
sS'score'
p957
I6
sS'results'
p958
(dp959
S'maxconn'
p960
(dp961
g957
I10
sS'median'
p962
L30L
sS'display'
p963
S'30'
p964
ssS'parscript'
p965
(dp966
g957
I1
sg962
L0L
sg963
S'no'
p967
ssS'parcssjs'
p968
(dp969
g957
I1
sg962
L0L
sg963
g967
ssS'cacheresredir'
p970
(dp971
g957
I1
sg962
L0L
sg963
g967
ssS'cacheexp'
p972
(dp973
g957
I10
sg962
L1L
sg963
S'yes'
p974
ssS'gzip'
p975
(dp976
g957
I10
sg962
L1L
sg963
g974
ssS'prefetch'
p977
(dp978
g957
I10
sg962
L1L
sg963
g974
ssS'cacheredir'
p979
(dp980
g957
I1
sg962
L0L
sg963
g967
ssS'parsheet'
p981
(dp982
g957
I10
sg962
L1L
sg963
g974
ssS'du'
p983
(dp984
g957
I10
sg962
L1L
sg963
g974
ssS'hostconn'
p985
(dp986
g957
I10
sg962
L6L
sg963
g272
sssg963
S'7/11'
p987
ssVFlock 1.2
p988
(dp989
S'total_runs'
p990
L3L
sS'score'
p991
I6
sS'results'
p992
(dp993
S'maxconn'
p994
(dp995
g991
I10
sS'median'
p996
L24L
sS'display'
p997
S'24'
p998
ssS'parscript'
p999
(dp1000
g991
I1
sg996
L0L
sg997
S'no'
p1001
ssS'parcssjs'
p1002
(dp1003
g991
I1
sg996
L0L
sg997
g1001
ssS'cacheresredir'
p1004
(dp1005
g991
I10
sg996
L1L
sg997
S'yes'
p1006
ssS'cacheexp'
p1007
(dp1008
g991
I10
sg996
L1L
sg997
g1006
ssS'gzip'
p1009
(dp1010
g991
I10
sg996
L1L
sg997
g1006
ssS'prefetch'
p1011
(dp1012
g991
I10
sg996
L1L
sg997
g1006
ssS'cacheredir'
p1013
(dp1014
g991
I10
sg996
L1L
sg997
g1006
ssS'parsheet'
p1015
(dp1016
g991
I1
sg996
L0L
sg997
g1001
ssS'du'
p1017
(dp1018
g991
I10
sg996
L1L
sg997
g1006
ssS'hostconn'
p1019
(dp1020
g991
I5
sg996
L2L
sg997
g34
sssg997
S'7/11'
p1021
ssVOpera 9.23
p1022
(dp1023
S'total_runs'
p1024
L5L
sS'score'
p1025
I4
sS'results'
p1026
(dp1027
S'maxconn'
p1028
(dp1029
g1025
I5
sS'median'
p1030
L18L
sS'display'
p1031
S'18'
p1032
ssS'parscript'
p1033
(dp1034
g1025
I1
sg1030
L0L
sg1031
S'no'
p1035
ssS'parcssjs'
p1036
(dp1037
g1025
I1
sg1030
L0L
sg1031
g1035
ssS'cacheresredir'
p1038
(dp1039
g1025
I1
sg1030
L0L
sg1031
g1035
ssS'cacheexp'
p1040
(dp1041
g1025
I10
sg1030
L1L
sg1031
S'yes'
p1042
ssS'gzip'
p1043
(dp1044
g1025
I10
sg1030
L1L
sg1031
g1042
ssS'prefetch'
p1045
(dp1046
g1025
I1
sg1030
L0L
sg1031
g1035
ssS'cacheredir'
p1047
(dp1048
g1025
I1
sg1030
L0L
sg1031
g1035
ssS'parsheet'
p1049
(dp1050
g1025
I10
sg1030
L1L
sg1031
g1042
ssS'du'
p1051
(dp1052
g1025
I10
sg1030
L1L
sg1031
g1042
ssS'hostconn'
p1053
(dp1054
g1025
I10
sg1030
L4L
sg1031
g11
sssg1031
S'5/11'
p1055
ssVBlackberry 9530
p1056
(dp1057
S'total_runs'
p1058
L3L
sS'score'
p1059
I6
sS'results'
p1060
(dp1061
S'maxconn'
p1062
(dp1063
g1059
I0
sS'median'
p1064
L4L
sS'display'
p1065
g11
ssS'parscript'
p1066
(dp1067
g1059
I10
sg1064
L1L
sg1065
S'yes'
p1068
ssS'parcssjs'
p1069
(dp1070
g1059
I1
sg1064
L0L
sg1065
S'no'
p1071
ssS'cacheresredir'
p1072
(dp1073
g1059
I10
sg1064
L1L
sg1065
g1068
ssS'cacheexp'
p1074
(dp1075
g1059
I10
sg1064
L1L
sg1065
g1068
ssS'gzip'
p1076
(dp1077
g1059
I1
sg1064
L0L
sg1065
g1071
ssS'prefetch'
p1078
(dp1079
g1059
I10
sg1064
L1L
sg1065
g1068
ssS'cacheredir'
p1080
(dp1081
g1059
I10
sg1064
L1L
sg1065
g1068
ssS'parsheet'
p1082
(dp1083
g1059
I10
sg1064
L1L
sg1065
g1068
ssS'du'
p1084
(dp1085
g1059
I1
sg1064
L0L
sg1065
g1071
ssS'hostconn'
p1086
(dp1087
g1059
I10
sg1064
L5L
sg1065
g829
sssg1065
S'7/11'
p1088
ssVJasmine 0.8
p1089
(dp1090
S'total_runs'
p1091
L1L
sS'score'
p1092
I4
sS'results'
p1093
(dp1094
S'maxconn'
p1095
(dp1096
g1092
I0
sS'median'
p1097
L1L
sS'display'
p1098
g419
ssS'parscript'
p1099
(dp1100
g1092
I1
sg1097
L0L
sg1098
S'no'
p1101
ssS'parcssjs'
p1102
(dp1103
g1092
I1
sg1097
L0L
sg1098
g1101
ssS'cacheresredir'
p1104
(dp1105
g1092
I1
sg1097
L0L
sg1098
g1101
ssS'cacheexp'
p1106
(dp1107
g1092
I10
sg1097
L1L
sg1098
S'yes'
p1108
ssS'gzip'
p1109
(dp1110
g1092
I10
sg1097
L1L
sg1098
g1108
ssS'prefetch'
p1111
(dp1112
g1092
I10
sg1097
L1L
sg1098
g1108
ssS'cacheredir'
p1113
(dp1114
g1092
I1
sg1097
L0L
sg1098
g1101
ssS'parsheet'
p1115
(dp1116
g1092
I10
sg1097
L1L
sg1098
g1108
ssS'du'
p1117
(dp1118
g1092
I10
sg1097
L1L
sg1098
g1108
ssS'hostconn'
p1119
(dp1120
g1092
I0
sg1097
L1L
sg1098
g419
sssg1098
S'5/11'
p1121
ssVCamino 0.8
p1122
(dp1123
S'total_runs'
p1124
L1L
sS'score'
p1125
I5
sS'results'
p1126
(dp1127
S'maxconn'
p1128
(dp1129
g1125
I0
sS'median'
p1130
L4L
sS'display'
p1131
g11
ssS'parscript'
p1132
(dp1133
g1125
I1
sg1130
L0L
sg1131
S'no'
p1134
ssS'parcssjs'
p1135
(dp1136
g1125
I1
sg1130
L0L
sg1131
g1134
ssS'cacheresredir'
p1137
(dp1138
g1125
I10
sg1130
L1L
sg1131
S'yes'
p1139
ssS'cacheexp'
p1140
(dp1141
g1125
I10
sg1130
L1L
sg1131
g1139
ssS'gzip'
p1142
(dp1143
g1125
I10
sg1130
L1L
sg1131
g1139
ssS'prefetch'
p1144
(dp1145
g1125
I10
sg1130
L1L
sg1131
g1139
ssS'cacheredir'
p1146
(dp1147
g1125
I1
sg1130
L0L
sg1131
g1134
ssS'parsheet'
p1148
(dp1149
g1125
I1
sg1130
L0L
sg1131
g1134
ssS'du'
p1150
(dp1151
g1125
I10
sg1130
L1L
sg1131
g1139
ssS'hostconn'
p1152
(dp1153
g1125
I10
sg1130
L4L
sg1131
g11
sssg1131
S'6/11'
p1154
ssVOpera 7.54
p1155
(dp1156
S'total_runs'
p1157
L1L
sS'score'
p1158
I4
sS'results'
p1159
(dp1160
S'maxconn'
p1161
(dp1162
g1158
I5
sS'median'
p1163
L20L
sS'display'
p1164
S'20'
p1165
ssS'parscript'
p1166
(dp1167
g1158
I1
sg1163
L0L
sg1164
S'no'
p1168
ssS'parcssjs'
p1169
(dp1170
g1158
I1
sg1163
L0L
sg1164
g1168
ssS'cacheresredir'
p1171
(dp1172
g1158
I1
sg1163
L0L
sg1164
g1168
ssS'cacheexp'
p1173
(dp1174
g1158
I10
sg1163
L1L
sg1164
S'yes'
p1175
ssS'gzip'
p1176
(dp1177
g1158
I10
sg1163
L1L
sg1164
g1175
ssS'prefetch'
p1178
(dp1179
g1158
I1
sg1163
L0L
sg1164
g1168
ssS'cacheredir'
p1180
(dp1181
g1158
I1
sg1163
L0L
sg1164
g1168
ssS'parsheet'
p1182
(dp1183
g1158
I10
sg1163
L1L
sg1164
g1175
ssS'du'
p1184
(dp1185
g1158
I10
sg1163
L1L
sg1164
g1175
ssS'hostconn'
p1186
(dp1187
g1158
I10
sg1163
L4L
sg1164
g11
sssg1164
S'5/11'
p1188
ssViPhone 2.0
p1189
(dp1190
S'total_runs'
p1191
L5L
sS'score'
p1192
I5
sS'results'
p1193
(dp1194
S'maxconn'
p1195
(dp1196
g1192
I0
sS'median'
p1197
L1L
sS'display'
p1198
g419
ssS'parscript'
p1199
(dp1200
g1192
I10
sg1197
L1L
sg1198
S'yes'
p1201
ssS'parcssjs'
p1202
(dp1203
g1192
I1
sg1197
L0L
sg1198
S'no'
p1204
ssS'cacheresredir'
p1205
(dp1206
g1192
I10
sg1197
L1L
sg1198
g1201
ssS'cacheexp'
p1207
(dp1208
g1192
I10
sg1197
L1L
sg1198
g1201
ssS'gzip'
p1209
(dp1210
g1192
I10
sg1197
L1L
sg1198
g1201
ssS'prefetch'
p1211
(dp1212
g1192
I1
sg1197
L0L
sg1198
g1204
ssS'cacheredir'
p1213
(dp1214
g1192
I1
sg1197
L0L
sg1198
g1204
ssS'parsheet'
p1215
(dp1216
g1192
I10
sg1197
L1L
sg1198
g1201
ssS'du'
p1217
(dp1218
g1192
I10
sg1197
L1L
sg1198
g1201
ssS'hostconn'
p1219
(dp1220
g1192
I0
sg1197
L1L
sg1198
g419
sssg1198
S'6/11'
p1221
ssVChrome 3.0
p1222
(dp1223
S'total_runs'
p1224
L196L
sS'score'
p1225
I8
sS'results'
p1226
(dp1227
S'maxconn'
p1228
(dp1229
g1225
I10
sS'median'
p1230
L60L
sS'display'
p1231
S'60'
p1232
ssS'parscript'
p1233
(dp1234
g1225
I10
sg1230
L1L
sg1231
S'yes'
p1235
ssS'parcssjs'
p1236
(dp1237
g1225
I1
sg1230
L0L
sg1231
S'no'
p1238
ssS'cacheresredir'
p1239
(dp1240
g1225
I10
sg1230
L1L
sg1231
g1235
ssS'cacheexp'
p1241
(dp1242
g1225
I10
sg1230
L1L
sg1231
g1235
ssS'gzip'
p1243
(dp1244
g1225
I10
sg1230
L1L
sg1231
g1235
ssS'prefetch'
p1245
(dp1246
g1225
I1
sg1230
L0L
sg1231
g1238
ssS'cacheredir'
p1247
(dp1248
g1225
I10
sg1230
L1L
sg1231
g1235
ssS'parsheet'
p1249
(dp1250
g1225
I10
sg1230
L1L
sg1231
g1235
ssS'du'
p1251
(dp1252
g1225
I10
sg1230
L1L
sg1231
g1235
ssS'hostconn'
p1253
(dp1254
g1225
I10
sg1230
L6L
sg1231
g272
sssg1231
S'9/11'
p1255
ssVBlackberry 9000
p1256
(dp1257
S'total_runs'
p1258
L5L
sS'score'
p1259
I6
sS'results'
p1260
(dp1261
S'maxconn'
p1262
(dp1263
g1259
I0
sS'median'
p1264
L4L
sS'display'
p1265
g11
ssS'parscript'
p1266
(dp1267
g1259
I10
sg1264
L1L
sg1265
S'yes'
p1268
ssS'parcssjs'
p1269
(dp1270
g1259
I1
sg1264
L0L
sg1265
S'no'
p1271
ssS'cacheresredir'
p1272
(dp1273
g1259
I10
sg1264
L1L
sg1265
g1268
ssS'cacheexp'
p1274
(dp1275
g1259
I10
sg1264
L1L
sg1265
g1268
ssS'gzip'
p1276
(dp1277
g1259
I1
sg1264
L0L
sg1265
g1271
ssS'prefetch'
p1278
(dp1279
g1259
I10
sg1264
L1L
sg1265
g1268
ssS'cacheredir'
p1280
(dp1281
g1259
I10
sg1264
L1L
sg1265
g1268
ssS'parsheet'
p1282
(dp1283
g1259
I10
sg1264
L1L
sg1265
g1268
ssS'du'
p1284
(dp1285
g1259
I1
sg1264
L0L
sg1265
g1271
ssS'hostconn'
p1286
(dp1287
g1259
I10
sg1264
L6L
sg1265
g272
sssg1265
S'7/11'
p1288
ssVLinks 2.1
p1289
(dp1290
S'total_runs'
p1291
L1L
sS'score'
p1292
I7
sS'results'
p1293
(dp1294
S'maxconn'
p1295
(dp1296
g1292
I10
sS'median'
p1297
L30L
sS'display'
p1298
S'30'
p1299
ssS'parscript'
p1300
(dp1301
g1292
I0
sg1297
Nsg1298
S''
p1302
ssS'parcssjs'
p1303
(dp1304
g1292
I1
sg1297
L0L
sg1298
S'no'
p1305
ssS'cacheresredir'
p1306
(dp1307
g1292
I10
sg1297
L1L
sg1298
S'yes'
p1308
ssS'cacheexp'
p1309
(dp1310
g1292
I10
sg1297
L1L
sg1298
g1308
ssS'gzip'
p1311
(dp1312
g1292
I1
sg1297
L0L
sg1298
g1305
ssS'prefetch'
p1313
(dp1314
g1292
I10
sg1297
L1L
sg1298
g1308
ssS'cacheredir'
p1315
(dp1316
g1292
I10
sg1297
L1L
sg1298
g1308
ssS'parsheet'
p1317
(dp1318
g1292
I10
sg1297
L1L
sg1298
g1308
ssS'du'
p1319
(dp1320
g1292
I10
sg1297
L1L
sg1298
g1308
ssS'hostconn'
p1321
(dp1322
g1292
I10
sg1297
L15L
sg1298
S'15'
p1323
sssg1298
S'8/11'
p1324
ssVFirefox 1.0
p1325
(dp1326
S'total_runs'
p1327
L6L
sS'score'
p1328
I5
sS'results'
p1329
(dp1330
S'maxconn'
p1331
(dp1332
g1328
I10
sS'median'
p1333
L24L
sS'display'
p1334
S'24'
p1335
ssS'parscript'
p1336
(dp1337
g1328
I1
sg1333
L0L
sg1334
S'no'
p1338
ssS'parcssjs'
p1339
(dp1340
g1328
I1
sg1333
L0L
sg1334
g1338
ssS'cacheresredir'
p1341
(dp1342
g1328
I10
sg1333
L1L
sg1334
S'yes'
p1343
ssS'cacheexp'
p1344
(dp1345
g1328
I10
sg1333
L1L
sg1334
g1343
ssS'gzip'
p1346
(dp1347
g1328
I10
sg1333
L1L
sg1334
g1343
ssS'prefetch'
p1348
(dp1349
g1328
I10
sg1333
L1L
sg1334
g1343
ssS'cacheredir'
p1350
(dp1351
g1328
I1
sg1333
L0L
sg1334
g1338
ssS'parsheet'
p1352
(dp1353
g1328
I1
sg1333
L0L
sg1334
g1338
ssS'du'
p1354
(dp1355
g1328
I10
sg1333
L1L
sg1334
g1343
ssS'hostconn'
p1356
(dp1357
g1328
I5
sg1333
L2L
sg1334
g34
sssg1334
S'6/11'
p1358
ssVFirefox 1.5
p1359
(dp1360
S'total_runs'
p1361
L17L
sS'score'
p1362
I6
sS'results'
p1363
(dp1364
S'maxconn'
p1365
(dp1366
g1362
I10
sS'median'
p1367
L24L
sS'display'
p1368
S'24'
p1369
ssS'parscript'
p1370
(dp1371
g1362
I1
sg1367
L0L
sg1368
S'no'
p1372
ssS'parcssjs'
p1373
(dp1374
g1362
I1
sg1367
L0L
sg1368
g1372
ssS'cacheresredir'
p1375
(dp1376
g1362
I10
sg1367
L1L
sg1368
S'yes'
p1377
ssS'cacheexp'
p1378
(dp1379
g1362
I10
sg1367
L1L
sg1368
g1377
ssS'gzip'
p1380
(dp1381
g1362
I10
sg1367
L1L
sg1368
g1377
ssS'prefetch'
p1382
(dp1383
g1362
I10
sg1367
L1L
sg1368
g1377
ssS'cacheredir'
p1384
(dp1385
g1362
I10
sg1367
L1L
sg1368
g1377
ssS'parsheet'
p1386
(dp1387
g1362
I1
sg1367
L0L
sg1368
g1372
ssS'du'
p1388
(dp1389
g1362
I10
sg1367
L1L
sg1368
g1377
ssS'hostconn'
p1390
(dp1391
g1362
I5
sg1367
L2L
sg1368
g34
sssg1368
S'7/11'
p1392
ssVChrome 1.0
p1393
(dp1394
S'total_runs'
p1395
L424L
sS'score'
p1396
I7
sS'results'
p1397
(dp1398
S'maxconn'
p1399
(dp1400
g1396
I10
sS'median'
p1401
L60L
sS'display'
p1402
S'60'
p1403
ssS'parscript'
p1404
(dp1405
g1396
I1
sg1401
L0L
sg1402
S'no'
p1406
ssS'parcssjs'
p1407
(dp1408
g1396
I1
sg1401
L0L
sg1402
g1406
ssS'cacheresredir'
p1409
(dp1410
g1396
I10
sg1401
L1L
sg1402
S'yes'
p1411
ssS'cacheexp'
p1412
(dp1413
g1396
I10
sg1401
L1L
sg1402
g1411
ssS'gzip'
p1414
(dp1415
g1396
I10
sg1401
L1L
sg1402
g1411
ssS'prefetch'
p1416
(dp1417
g1396
I1
sg1401
L0L
sg1402
g1406
ssS'cacheredir'
p1418
(dp1419
g1396
I10
sg1401
L1L
sg1402
g1411
ssS'parsheet'
p1420
(dp1421
g1396
I10
sg1401
L1L
sg1402
g1411
ssS'du'
p1422
(dp1423
g1396
I10
sg1401
L1L
sg1402
g1411
ssS'hostconn'
p1424
(dp1425
g1396
I10
sg1401
L6L
sg1402
g272
sssg1402
S'8/11'
p1426
ssVShiira 0.9
p1427
(dp1428
S'total_runs'
p1429
L7L
sS'score'
p1430
I6
sS'results'
p1431
(dp1432
S'maxconn'
p1433
(dp1434
g1430
I10
sS'median'
p1435
L60L
sS'display'
p1436
S'60'
p1437
ssS'parscript'
p1438
(dp1439
g1430
I1
sg1435
L0L
sg1436
S'no'
p1440
ssS'parcssjs'
p1441
(dp1442
g1430
I1
sg1435
L0L
sg1436
g1440
ssS'cacheresredir'
p1443
(dp1444
g1430
I10
sg1435
L1L
sg1436
S'yes'
p1445
ssS'cacheexp'
p1446
(dp1447
g1430
I10
sg1435
L1L
sg1436
g1445
ssS'gzip'
p1448
(dp1449
g1430
I10
sg1435
L1L
sg1436
g1445
ssS'prefetch'
p1450
(dp1451
g1430
I1
sg1435
L0L
sg1436
g1440
ssS'cacheredir'
p1452
(dp1453
g1430
I1
sg1435
L0L
sg1436
g1440
ssS'parsheet'
p1454
(dp1455
g1430
I10
sg1435
L1L
sg1436
g1445
ssS'du'
p1456
(dp1457
g1430
I10
sg1435
L1L
sg1436
g1445
ssS'hostconn'
p1458
(dp1459
g1430
I10
sg1435
L4L
sg1436
g11
sssg1436
S'7/11'
p1460
ssVBlackberry 8900
p1461
(dp1462
S'total_runs'
p1463
L2L
sS'score'
p1464
I6
sS'results'
p1465
(dp1466
S'maxconn'
p1467
(dp1468
g1464
I5
sS'median'
p1469
L11L
sS'display'
p1470
S'11'
p1471
ssS'parscript'
p1472
(dp1473
g1464
I10
sg1469
L1L
sg1470
S'yes'
p1474
ssS'parcssjs'
p1475
(dp1476
g1464
I1
sg1469
L0L
sg1470
S'no'
p1477
ssS'cacheresredir'
p1478
(dp1479
g1464
I10
sg1469
L1L
sg1470
g1474
ssS'cacheexp'
p1480
(dp1481
g1464
I10
sg1469
L1L
sg1470
g1474
ssS'gzip'
p1482
(dp1483
g1464
I1
sg1469
L0L
sg1470
g1477
ssS'prefetch'
p1484
(dp1485
g1464
I10
sg1469
L1L
sg1470
g1474
ssS'cacheredir'
p1486
(dp1487
g1464
I10
sg1469
L1L
sg1470
g1474
ssS'parsheet'
p1488
(dp1489
g1464
I10
sg1469
L1L
sg1470
g1474
ssS'du'
p1490
(dp1491
g1464
I1
sg1469
L0L
sg1470
g1477
ssS'hostconn'
p1492
(dp1493
g1464
I10
sg1469
L12L
sg1470
S'12'
p1494
sssg1470
S'7/11'
p1495
ssVAvant 1
p1496
(dp1497
S'total_runs'
p1498
L32L
sS'score'
p1499
I3
sS'results'
p1500
(dp1501
S'maxconn'
p1502
(dp1503
g1499
I10
sS'median'
p1504
L60L
sS'display'
p1505
S'60'
p1506
ssS'parscript'
p1507
(dp1508
g1499
I1
sg1504
L0L
sg1505
S'no'
p1509
ssS'parcssjs'
p1510
(dp1511
g1499
I1
sg1504
L0L
sg1505
g1509
ssS'cacheresredir'
p1512
(dp1513
g1499
I1
sg1504
L0L
sg1505
g1509
ssS'cacheexp'
p1514
(dp1515
g1499
I10
sg1504
L1L
sg1505
S'yes'
p1516
ssS'gzip'
p1517
(dp1518
g1499
I10
sg1504
L1L
sg1505
g1516
ssS'prefetch'
p1519
(dp1520
g1499
I1
sg1504
L0L
sg1505
g1509
ssS'cacheredir'
p1521
(dp1522
g1499
I1
sg1504
L0L
sg1505
g1509
ssS'parsheet'
p1523
(dp1524
g1499
I10
sg1504
L1L
sg1505
g1516
ssS'du'
p1525
(dp1526
g1499
I1
sg1504
L0L
sg1505
g1509
ssS'hostconn'
p1527
(dp1528
g1499
I5
sg1504
L2L
sg1505
g34
sssg1505
S'4/11'
p1529
ssVNetscape 8.0
p1530
(dp1531
S'total_runs'
p1532
L1L
sS'score'
p1533
I4
sS'results'
p1534
(dp1535
S'maxconn'
p1536
(dp1537
g1533
I10
sS'median'
p1538
L24L
sS'display'
p1539
S'24'
p1540
ssS'parscript'
p1541
(dp1542
g1533
I1
sg1538
L0L
sg1539
S'no'
p1543
ssS'parcssjs'
p1544
(dp1545
g1533
I1
sg1538
L0L
sg1539
g1543
ssS'cacheresredir'
p1546
(dp1547
g1533
I10
sg1538
L1L
sg1539
S'yes'
p1548
ssS'cacheexp'
p1549
(dp1550
g1533
I10
sg1538
L1L
sg1539
g1548
ssS'gzip'
p1551
(dp1552
g1533
I10
sg1538
L1L
sg1539
g1548
ssS'prefetch'
p1553
(dp1554
g1533
I1
sg1538
L0L
sg1539
g1543
ssS'cacheredir'
p1555
(dp1556
g1533
I1
sg1538
L0L
sg1539
g1543
ssS'parsheet'
p1557
(dp1558
g1533
I1
sg1538
L0L
sg1539
g1543
ssS'du'
p1559
(dp1560
g1533
I10
sg1538
L1L
sg1539
g1548
ssS'hostconn'
p1561
(dp1562
g1533
I5
sg1538
L2L
sg1539
g34
sssg1539
S'5/11'
p1563
ssVMyIE2 0
p1564
(dp1565
S'total_runs'
p1566
L7L
sS'score'
p1567
I6
sS'results'
p1568
(dp1569
S'maxconn'
p1570
(dp1571
g1567
I10
sS'median'
p1572
L60L
sS'display'
p1573
S'60'
p1574
ssS'parscript'
p1575
(dp1576
g1567
I10
sg1572
L1L
sg1573
S'yes'
p1577
ssS'parcssjs'
p1578
(dp1579
g1567
I1
sg1572
L0L
sg1573
S'no'
p1580
ssS'cacheresredir'
p1581
(dp1582
g1567
I1
sg1572
L0L
sg1573
g1580
ssS'cacheexp'
p1583
(dp1584
g1567
I10
sg1572
L1L
sg1573
g1577
ssS'gzip'
p1585
(dp1586
g1567
I10
sg1572
L1L
sg1573
g1577
ssS'prefetch'
p1587
(dp1588
g1567
I1
sg1572
L0L
sg1573
g1580
ssS'cacheredir'
p1589
(dp1590
g1567
I1
sg1572
L0L
sg1573
g1580
ssS'parsheet'
p1591
(dp1592
g1567
I10
sg1572
L1L
sg1573
g1577
ssS'du'
p1593
(dp1594
g1567
I10
sg1572
L1L
sg1573
g1577
ssS'hostconn'
p1595
(dp1596
g1567
I10
sg1572
L10L
sg1573
S'10'
p1597
sssg1573
S'7/11'
p1598
ssVNokia 66
p1599
(dp1600
S'total_runs'
p1601
L2L
sS'score'
p1602
I5
sS'results'
p1603
(dp1604
S'maxconn'
p1605
(dp1606
g1602
I0
sS'median'
p1607
L7L
sS'display'
p1608
g113
ssS'parscript'
p1609
(dp1610
g1602
I10
sg1607
L1L
sg1608
S'yes'
p1611
ssS'parcssjs'
p1612
(dp1613
g1602
I1
sg1607
L0L
sg1608
S'no'
p1614
ssS'cacheresredir'
p1615
(dp1616
g1602
I1
sg1607
L0L
sg1608
g1614
ssS'cacheexp'
p1617
(dp1618
g1602
I10
sg1607
L1L
sg1608
g1611
ssS'gzip'
p1619
(dp1620
g1602
I10
sg1607
L1L
sg1608
g1611
ssS'prefetch'
p1621
(dp1622
g1602
I10
sg1607
L1L
sg1608
g1611
ssS'cacheredir'
p1623
(dp1624
g1602
I1
sg1607
L0L
sg1608
g1614
ssS'parsheet'
p1625
(dp1626
g1602
I10
sg1607
L1L
sg1608
g1611
ssS'du'
p1627
(dp1628
g1602
I1
sg1607
L0L
sg1608
g1614
ssS'hostconn'
p1629
(dp1630
g1602
I10
sg1607
L7L
sg1608
g113
sssg1608
S'6/11'
p1631
ssVBon Echo 2.0
p1632
(dp1633
S'total_runs'
p1634
L2L
sS'score'
p1635
I7
sS'results'
p1636
(dp1637
S'maxconn'
p1638
(dp1639
g1635
I10
sS'median'
p1640
L49L
sS'display'
p1641
S'49'
p1642
ssS'parscript'
p1643
(dp1644
g1635
I1
sg1640
L0L
sg1641
S'no'
p1645
ssS'parcssjs'
p1646
(dp1647
g1635
I1
sg1640
L0L
sg1641
g1645
ssS'cacheresredir'
p1648
(dp1649
g1635
I10
sg1640
L1L
sg1641
S'yes'
p1650
ssS'cacheexp'
p1651
(dp1652
g1635
I10
sg1640
L1L
sg1641
g1650
ssS'gzip'
p1653
(dp1654
g1635
I10
sg1640
L1L
sg1641
g1650
ssS'prefetch'
p1655
(dp1656
g1635
I10
sg1640
L1L
sg1641
g1650
ssS'cacheredir'
p1657
(dp1658
g1635
I10
sg1640
L1L
sg1641
g1650
ssS'parsheet'
p1659
(dp1660
g1635
I1
sg1640
L0L
sg1641
g1645
ssS'du'
p1661
(dp1662
g1635
I10
sg1640
L1L
sg1641
g1650
ssS'hostconn'
p1663
(dp1664
g1635
I10
sg1640
L8L
sg1641
g147
sssg1641
S'8/11'
p1665
ssVFresco 4.10
p1666
(dp1667
S'total_runs'
p1668
L1L
sS'score'
p1669
I6
sS'results'
p1670
(dp1671
S'maxconn'
p1672
(dp1673
g1669
I10
sS'median'
p1674
L30L
sS'display'
p1675
S'30'
p1676
ssS'parscript'
p1677
(dp1678
g1669
I1
sg1674
L0L
sg1675
S'no'
p1679
ssS'parcssjs'
p1680
(dp1681
g1669
I1
sg1674
L0L
sg1675
g1679
ssS'cacheresredir'
p1682
(dp1683
g1669
I1
sg1674
L0L
sg1675
g1679
ssS'cacheexp'
p1684
(dp1685
g1669
I10
sg1674
L1L
sg1675
S'yes'
p1686
ssS'gzip'
p1687
(dp1688
g1669
I10
sg1674
L1L
sg1675
g1686
ssS'prefetch'
p1689
(dp1690
g1669
I10
sg1674
L1L
sg1675
g1686
ssS'cacheredir'
p1691
(dp1692
g1669
I1
sg1674
L0L
sg1675
g1679
ssS'parsheet'
p1693
(dp1694
g1669
I10
sg1674
L1L
sg1675
g1686
ssS'du'
p1695
(dp1696
g1669
I10
sg1674
L1L
sg1675
g1686
ssS'hostconn'
p1697
(dp1698
g1669
I10
sg1674
L6L
sg1675
g272
sssg1675
S'7/11'
p1699
ssVWebPilot 8.7
p1700
(dp1701
S'total_runs'
p1702
L1L
sS'score'
p1703
I4
sS'results'
p1704
(dp1705
S'maxconn'
p1706
(dp1707
g1703
I10
sS'median'
p1708
L48L
sS'display'
p1709
S'48'
p1710
ssS'parscript'
p1711
(dp1712
g1703
I1
sg1708
L0L
sg1709
S'no'
p1713
ssS'parcssjs'
p1714
(dp1715
g1703
I1
sg1708
L0L
sg1709
g1713
ssS'cacheresredir'
p1716
(dp1717
g1703
I1
sg1708
L0L
sg1709
g1713
ssS'cacheexp'
p1718
(dp1719
g1703
I10
sg1708
L1L
sg1709
S'yes'
p1720
ssS'gzip'
p1721
(dp1722
g1703
I10
sg1708
L1L
sg1709
g1720
ssS'prefetch'
p1723
(dp1724
g1703
I1
sg1708
L0L
sg1709
g1713
ssS'cacheredir'
p1725
(dp1726
g1703
I1
sg1708
L0L
sg1709
g1713
ssS'parsheet'
p1727
(dp1728
g1703
I10
sg1708
L1L
sg1709
g1720
ssS'du'
p1729
(dp1730
g1703
I1
sg1708
L0L
sg1709
g1713
ssS'hostconn'
p1731
(dp1732
g1703
I10
sg1708
L16L
sg1709
S'16'
p1733
sssg1709
S'5/11'
p1734
ssVFlock 2.0
p1735
(dp1736
S'total_runs'
p1737
L24L
sS'score'
p1738
I7
sS'results'
p1739
(dp1740
S'maxconn'
p1741
(dp1742
g1738
I10
sS'median'
p1743
L31L
sS'display'
p1744
S'31'
p1745
ssS'parscript'
p1746
(dp1747
g1738
I1
sg1743
L0L
sg1744
S'no'
p1748
ssS'parcssjs'
p1749
(dp1750
g1738
I1
sg1743
L0L
sg1744
g1748
ssS'cacheresredir'
p1751
(dp1752
g1738
I10
sg1743
L1L
sg1744
S'yes'
p1753
ssS'cacheexp'
p1754
(dp1755
g1738
I10
sg1743
L1L
sg1744
g1753
ssS'gzip'
p1756
(dp1757
g1738
I10
sg1743
L1L
sg1744
g1753
ssS'prefetch'
p1758
(dp1759
g1738
I10
sg1743
L1L
sg1744
g1753
ssS'cacheredir'
p1760
(dp1761
g1738
I1
sg1743
L0L
sg1744
g1748
ssS'parsheet'
p1762
(dp1763
g1738
I10
sg1743
L1L
sg1744
g1753
ssS'du'
p1764
(dp1765
g1738
I10
sg1743
L1L
sg1744
g1753
ssS'hostconn'
p1766
(dp1767
g1738
I10
sg1743
L6L
sg1744
g272
sssg1744
S'8/11'
p1768
ssVOLPC 0
p1769
(dp1770
S'total_runs'
p1771
L1L
sS'score'
p1772
I6
sS'results'
p1773
(dp1774
S'maxconn'
p1775
(dp1776
g1772
I10
sS'median'
p1777
L24L
sS'display'
p1778
S'24'
p1779
ssS'parscript'
p1780
(dp1781
g1772
I1
sg1777
L0L
sg1778
S'no'
p1782
ssS'parcssjs'
p1783
(dp1784
g1772
I1
sg1777
L0L
sg1778
g1782
ssS'cacheresredir'
p1785
(dp1786
g1772
I10
sg1777
L1L
sg1778
S'yes'
p1787
ssS'cacheexp'
p1788
(dp1789
g1772
I10
sg1777
L1L
sg1778
g1787
ssS'gzip'
p1790
(dp1791
g1772
I10
sg1777
L1L
sg1778
g1787
ssS'prefetch'
p1792
(dp1793
g1772
I10
sg1777
L1L
sg1778
g1787
ssS'cacheredir'
p1794
(dp1795
g1772
I1
sg1777
L0L
sg1778
g1782
ssS'parsheet'
p1796
(dp1797
g1772
I10
sg1777
L1L
sg1778
g1787
ssS'du'
p1798
(dp1799
g1772
I10
sg1777
L1L
sg1778
g1787
ssS'hostconn'
p1800
(dp1801
g1772
I5
sg1777
L2L
sg1778
g34
sssg1778
S'7/11'
p1802
ssVIron 2.0
p1803
(dp1804
S'total_runs'
p1805
L22L
sS'score'
p1806
I8
sS'results'
p1807
(dp1808
S'maxconn'
p1809
(dp1810
g1806
I10
sS'median'
p1811
L60L
sS'display'
p1812
S'60'
p1813
ssS'parscript'
p1814
(dp1815
g1806
I10
sg1811
L1L
sg1812
S'yes'
p1816
ssS'parcssjs'
p1817
(dp1818
g1806
I1
sg1811
L0L
sg1812
S'no'
p1819
ssS'cacheresredir'
p1820
(dp1821
g1806
I10
sg1811
L1L
sg1812
g1816
ssS'cacheexp'
p1822
(dp1823
g1806
I10
sg1811
L1L
sg1812
g1816
ssS'gzip'
p1824
(dp1825
g1806
I10
sg1811
L1L
sg1812
g1816
ssS'prefetch'
p1826
(dp1827
g1806
I1
sg1811
L0L
sg1812
g1819
ssS'cacheredir'
p1828
(dp1829
g1806
I10
sg1811
L1L
sg1812
g1816
ssS'parsheet'
p1830
(dp1831
g1806
I10
sg1811
L1L
sg1812
g1816
ssS'du'
p1832
(dp1833
g1806
I10
sg1811
L1L
sg1812
g1816
ssS'hostconn'
p1834
(dp1835
g1806
I10
sg1811
L6L
sg1812
g272
sssg1812
S'9/11'
p1836
ssVOpera 9.60
p1837
(dp1838
S'total_runs'
p1839
L271L
sS'score'
p1840
I4
sS'results'
p1841
(dp1842
S'maxconn'
p1843
(dp1844
g1840
I5
sS'median'
p1845
L20L
sS'display'
p1846
S'20'
p1847
ssS'parscript'
p1848
(dp1849
g1840
I1
sg1845
L0L
sg1846
S'no'
p1850
ssS'parcssjs'
p1851
(dp1852
g1840
I1
sg1845
L0L
sg1846
g1850
ssS'cacheresredir'
p1853
(dp1854
g1840
I1
sg1845
L0L
sg1846
g1850
ssS'cacheexp'
p1855
(dp1856
g1840
I10
sg1845
L1L
sg1846
S'yes'
p1857
ssS'gzip'
p1858
(dp1859
g1840
I10
sg1845
L1L
sg1846
g1857
ssS'prefetch'
p1860
(dp1861
g1840
I1
sg1845
L0L
sg1846
g1850
ssS'cacheredir'
p1862
(dp1863
g1840
I1
sg1845
L0L
sg1846
g1850
ssS'parsheet'
p1864
(dp1865
g1840
I10
sg1845
L1L
sg1846
g1857
ssS'du'
p1866
(dp1867
g1840
I10
sg1845
L1L
sg1846
g1857
ssS'hostconn'
p1868
(dp1869
g1840
I10
sg1845
L4L
sg1846
g11
sssg1846
S'5/11'
p1870
ssVIE 6.0
p1871
(dp1872
S'total_runs'
p1873
L306L
sS'score'
p1874
I3
sS'results'
p1875
(dp1876
S'maxconn'
p1877
(dp1878
g1874
I10
sS'median'
p1879
L54L
sS'display'
p1880
S'54'
p1881
ssS'parscript'
p1882
(dp1883
g1874
I1
sg1879
L0L
sg1880
S'no'
p1884
ssS'parcssjs'
p1885
(dp1886
g1874
I1
sg1879
L0L
sg1880
g1884
ssS'cacheresredir'
p1887
(dp1888
g1874
I1
sg1879
L0L
sg1880
g1884
ssS'cacheexp'
p1889
(dp1890
g1874
I10
sg1879
L1L
sg1880
S'yes'
p1891
ssS'gzip'
p1892
(dp1893
g1874
I10
sg1879
L1L
sg1880
g1891
ssS'prefetch'
p1894
(dp1895
g1874
I1
sg1879
L0L
sg1880
g1884
ssS'cacheredir'
p1896
(dp1897
g1874
I1
sg1879
L0L
sg1880
g1884
ssS'parsheet'
p1898
(dp1899
g1874
I10
sg1879
L1L
sg1880
g1891
ssS'du'
p1900
(dp1901
g1874
I1
sg1879
L0L
sg1880
g1884
ssS'hostconn'
p1902
(dp1903
g1874
I5
sg1879
L2L
sg1880
g34
sssg1880
S'4/11'
p1904
ssVLunascape 4.9
p1905
(dp1906
S'total_runs'
p1907
L75L
sS'score'
p1908
I8
sS'results'
p1909
(dp1910
S'maxconn'
p1911
(dp1912
g1908
I10
sS'median'
p1913
L30L
sS'display'
p1914
S'30'
p1915
ssS'parscript'
p1916
(dp1917
g1908
I10
sg1913
L1L
sg1914
S'yes'
p1918
ssS'parcssjs'
p1919
(dp1920
g1908
I1
sg1913
L0L
sg1914
S'no'
p1921
ssS'cacheresredir'
p1922
(dp1923
g1908
I10
sg1913
L1L
sg1914
g1918
ssS'cacheexp'
p1924
(dp1925
g1908
I10
sg1913
L1L
sg1914
g1918
ssS'gzip'
p1926
(dp1927
g1908
I10
sg1913
L1L
sg1914
g1918
ssS'prefetch'
p1928
(dp1929
g1908
I10
sg1913
L1L
sg1914
g1918
ssS'cacheredir'
p1930
(dp1931
g1908
I10
sg1913
L1L
sg1914
g1918
ssS'parsheet'
p1932
(dp1933
g1908
I10
sg1913
L1L
sg1914
g1918
ssS'du'
p1934
(dp1935
g1908
I10
sg1913
L1L
sg1914
g1918
ssS'hostconn'
p1936
(dp1937
g1908
I10
sg1913
L6L
sg1914
g272
sssg1914
S'10/11'
p1938
ssVFennec 0.7
p1939
(dp1940
S'total_runs'
p1941
L1L
sS'score'
p1942
I5
sS'results'
p1943
(dp1944
S'maxconn'
p1945
(dp1946
g1942
I0
sS'median'
p1947
L6L
sS'display'
p1948
g272
ssS'parscript'
p1949
(dp1950
g1942
I1
sg1947
L0L
sg1948
S'no'
p1951
ssS'parcssjs'
p1952
(dp1953
g1942
I1
sg1947
L0L
sg1948
g1951
ssS'cacheresredir'
p1954
(dp1955
g1942
I1
sg1947
L0L
sg1948
g1951
ssS'cacheexp'
p1956
(dp1957
g1942
I10
sg1947
L1L
sg1948
S'yes'
p1958
ssS'gzip'
p1959
(dp1960
g1942
I10
sg1947
L1L
sg1948
g1958
ssS'prefetch'
p1961
(dp1962
g1942
I10
sg1947
L1L
sg1948
g1958
ssS'cacheredir'
p1963
(dp1964
g1942
I1
sg1947
L0L
sg1948
g1951
ssS'parsheet'
p1965
(dp1966
g1942
I10
sg1947
L1L
sg1948
g1958
ssS'du'
p1967
(dp1968
g1942
I10
sg1947
L1L
sg1948
g1958
ssS'hostconn'
p1969
(dp1970
g1942
I10
sg1947
L4L
sg1948
g11
sssg1948
S'6/11'
p1971
ssVSeaMonkey 1.1
p1972
(dp1973
S'total_runs'
p1974
L48L
sS'score'
p1975
I6
sS'results'
p1976
(dp1977
S'maxconn'
p1978
(dp1979
g1975
I10
sS'median'
p1980
L24L
sS'display'
p1981
S'24'
p1982
ssS'parscript'
p1983
(dp1984
g1975
I1
sg1980
L0L
sg1981
S'no'
p1985
ssS'parcssjs'
p1986
(dp1987
g1975
I1
sg1980
L0L
sg1981
g1985
ssS'cacheresredir'
p1988
(dp1989
g1975
I10
sg1980
L1L
sg1981
S'yes'
p1990
ssS'cacheexp'
p1991
(dp1992
g1975
I10
sg1980
L1L
sg1981
g1990
ssS'gzip'
p1993
(dp1994
g1975
I10
sg1980
L1L
sg1981
g1990
ssS'prefetch'
p1995
(dp1996
g1975
I10
sg1980
L1L
sg1981
g1990
ssS'cacheredir'
p1997
(dp1998
g1975
I10
sg1980
L1L
sg1981
g1990
ssS'parsheet'
p1999
(dp2000
g1975
I1
sg1980
L0L
sg1981
g1985
ssS'du'
p2001
(dp2002
g1975
I10
sg1980
L1L
sg1981
g1990
ssS'hostconn'
p2003
(dp2004
g1975
I5
sg1980
L2L
sg1981
g34
sssg1981
S'7/11'
p2005
ssVOpera Mini 4.2
p2006
(dp2007
S'total_runs'
p2008
L20L
sS'score'
p2009
I4
sS'results'
p2010
(dp2011
S'maxconn'
p2012
(dp2013
g2009
I10
sS'median'
p2014
L60L
sS'display'
p2015
S'60'
p2016
ssS'parscript'
p2017
(dp2018
g2009
I1
sg2014
L0L
sg2015
S'no'
p2019
ssS'parcssjs'
p2020
(dp2021
g2009
I1
sg2014
L0L
sg2015
g2019
ssS'cacheresredir'
p2022
(dp2023
g2009
I1
sg2014
L0L
sg2015
g2019
ssS'cacheexp'
p2024
(dp2025
g2009
I1
sg2014
L0L
sg2015
g2019
ssS'gzip'
p2026
(dp2027
g2009
I10
sg2014
L1L
sg2015
S'yes'
p2028
ssS'prefetch'
p2029
(dp2030
g2009
I1
sg2014
L0L
sg2015
g2019
ssS'cacheredir'
p2031
(dp2032
g2009
I1
sg2014
L0L
sg2015
g2019
ssS'parsheet'
p2033
(dp2034
g2009
I10
sg2014
L1L
sg2015
g2028
ssS'du'
p2035
(dp2036
g2009
I10
sg2014
L1L
sg2015
g2028
ssS'hostconn'
p2037
(dp2038
g2009
I10
sg2014
L10L
sg2015
S'10'
p2039
sssg2015
S'5/11'
p2040
ssVOpera Mini 4.3
p2041
(dp2042
S'total_runs'
p2043
L1L
sS'score'
p2044
I4
sS'results'
p2045
(dp2046
S'maxconn'
p2047
(dp2048
g2044
I10
sS'median'
p2049
L60L
sS'display'
p2050
S'60'
p2051
ssS'parscript'
p2052
(dp2053
g2044
I1
sg2049
L0L
sg2050
S'no'
p2054
ssS'parcssjs'
p2055
(dp2056
g2044
I1
sg2049
L0L
sg2050
g2054
ssS'cacheresredir'
p2057
(dp2058
g2044
I1
sg2049
L0L
sg2050
g2054
ssS'cacheexp'
p2059
(dp2060
g2044
I1
sg2049
L0L
sg2050
g2054
ssS'gzip'
p2061
(dp2062
g2044
I10
sg2049
L1L
sg2050
S'yes'
p2063
ssS'prefetch'
p2064
(dp2065
g2044
I1
sg2049
L0L
sg2050
g2054
ssS'cacheredir'
p2066
(dp2067
g2044
I1
sg2049
L0L
sg2050
g2054
ssS'parsheet'
p2068
(dp2069
g2044
I10
sg2049
L1L
sg2050
g2063
ssS'du'
p2070
(dp2071
g2044
I10
sg2049
L1L
sg2050
g2063
ssS'hostconn'
p2072
(dp2073
g2044
I10
sg2049
L10L
sg2050
S'10'
p2074
sssg2050
S'5/11'
p2075
ssVOpera Mini 4.0
p2076
(dp2077
S'total_runs'
p2078
L17L
sS'score'
p2079
I4
sS'results'
p2080
(dp2081
S'maxconn'
p2082
(dp2083
g2079
I10
sS'median'
p2084
L60L
sS'display'
p2085
S'60'
p2086
ssS'parscript'
p2087
(dp2088
g2079
I1
sg2084
L0L
sg2085
S'no'
p2089
ssS'parcssjs'
p2090
(dp2091
g2079
I1
sg2084
L0L
sg2085
g2089
ssS'cacheresredir'
p2092
(dp2093
g2079
I1
sg2084
L0L
sg2085
g2089
ssS'cacheexp'
p2094
(dp2095
g2079
I1
sg2084
L0L
sg2085
g2089
ssS'gzip'
p2096
(dp2097
g2079
I10
sg2084
L1L
sg2085
S'yes'
p2098
ssS'prefetch'
p2099
(dp2100
g2079
I1
sg2084
L0L
sg2085
g2089
ssS'cacheredir'
p2101
(dp2102
g2079
I1
sg2084
L0L
sg2085
g2089
ssS'parsheet'
p2103
(dp2104
g2079
I10
sg2084
L1L
sg2085
g2098
ssS'du'
p2105
(dp2106
g2079
I10
sg2084
L1L
sg2085
g2098
ssS'hostconn'
p2107
(dp2108
g2079
I10
sg2084
L10L
sg2085
S'10'
p2109
sssg2085
S'5/11'
p2110
ssVOpera Mini 4.1
p2111
(dp2112
S'total_runs'
p2113
L2L
sS'score'
p2114
I4
sS'results'
p2115
(dp2116
S'maxconn'
p2117
(dp2118
g2114
I10
sS'median'
p2119
L60L
sS'display'
p2120
S'60'
p2121
ssS'parscript'
p2122
(dp2123
g2114
I1
sg2119
L0L
sg2120
S'no'
p2124
ssS'parcssjs'
p2125
(dp2126
g2114
I1
sg2119
L0L
sg2120
g2124
ssS'cacheresredir'
p2127
(dp2128
g2114
I1
sg2119
L0L
sg2120
g2124
ssS'cacheexp'
p2129
(dp2130
g2114
I1
sg2119
L0L
sg2120
g2124
ssS'gzip'
p2131
(dp2132
g2114
I10
sg2119
L1L
sg2120
S'yes'
p2133
ssS'prefetch'
p2134
(dp2135
g2114
I1
sg2119
L0L
sg2120
g2124
ssS'cacheredir'
p2136
(dp2137
g2114
I1
sg2119
L0L
sg2120
g2124
ssS'parsheet'
p2138
(dp2139
g2114
I10
sg2119
L1L
sg2120
g2133
ssS'du'
p2140
(dp2141
g2114
I10
sg2119
L1L
sg2120
g2133
ssS'hostconn'
p2142
(dp2143
g2114
I10
sg2119
L10L
sg2120
S'10'
p2144
sssg2120
S'5/11'
p2145
ssVEpiphany 2.14
p2146
(dp2147
S'total_runs'
p2148
L2L
sS'score'
p2149
I6
sS'results'
p2150
(dp2151
S'maxconn'
p2152
(dp2153
g2149
I10
sS'median'
p2154
L24L
sS'display'
p2155
S'24'
p2156
ssS'parscript'
p2157
(dp2158
g2149
I1
sg2154
L0L
sg2155
S'no'
p2159
ssS'parcssjs'
p2160
(dp2161
g2149
I1
sg2154
L0L
sg2155
g2159
ssS'cacheresredir'
p2162
(dp2163
g2149
I10
sg2154
L1L
sg2155
S'yes'
p2164
ssS'cacheexp'
p2165
(dp2166
g2149
I10
sg2154
L1L
sg2155
g2164
ssS'gzip'
p2167
(dp2168
g2149
I10
sg2154
L1L
sg2155
g2164
ssS'prefetch'
p2169
(dp2170
g2149
I10
sg2154
L1L
sg2155
g2164
ssS'cacheredir'
p2171
(dp2172
g2149
I10
sg2154
L1L
sg2155
g2164
ssS'parsheet'
p2173
(dp2174
g2149
I1
sg2154
L0L
sg2155
g2159
ssS'du'
p2175
(dp2176
g2149
I10
sg2154
L1L
sg2155
g2164
ssS'hostconn'
p2177
(dp2178
g2149
I5
sg2154
L2L
sg2155
g34
sssg2155
S'7/11'
p2179
ssVBolt 0.862
p2180
(dp2181
S'total_runs'
p2182
L1L
sS'score'
p2183
I4
sS'results'
p2184
(dp2185
S'maxconn'
p2186
(dp2187
g2183
I0
sS'median'
p2188
L5L
sS'display'
p2189
g829
ssS'parscript'
p2190
(dp2191
g2183
I1
sg2188
L0L
sg2189
S'no'
p2192
ssS'parcssjs'
p2193
(dp2194
g2183
I1
sg2188
L0L
sg2189
g2192
ssS'cacheresredir'
p2195
(dp2196
g2183
I1
sg2188
L0L
sg2189
g2192
ssS'cacheexp'
p2197
(dp2198
g2183
I1
sg2188
L0L
sg2189
g2192
ssS'gzip'
p2199
(dp2200
g2183
I10
sg2188
L1L
sg2189
S'yes'
p2201
ssS'prefetch'
p2202
(dp2203
g2183
I1
sg2188
L0L
sg2189
g2192
ssS'cacheredir'
p2204
(dp2205
g2183
I10
sg2188
L1L
sg2189
g2201
ssS'parsheet'
p2206
(dp2207
g2183
I10
sg2188
L1L
sg2189
g2201
ssS'du'
p2208
(dp2209
g2183
I10
sg2188
L1L
sg2189
g2201
ssS'hostconn'
p2210
(dp2211
g2183
I10
sg2188
L5L
sg2189
g829
sssg2189
S'5/11'
p2212
ssVIron 0.2
p2213
(dp2214
S'total_runs'
p2215
L5L
sS'score'
p2216
I7
sS'results'
p2217
(dp2218
S'maxconn'
p2219
(dp2220
g2216
I10
sS'median'
p2221
L60L
sS'display'
p2222
S'60'
p2223
ssS'parscript'
p2224
(dp2225
g2216
I1
sg2221
L0L
sg2222
S'no'
p2226
ssS'parcssjs'
p2227
(dp2228
g2216
I1
sg2221
L0L
sg2222
g2226
ssS'cacheresredir'
p2229
(dp2230
g2216
I10
sg2221
L1L
sg2222
S'yes'
p2231
ssS'cacheexp'
p2232
(dp2233
g2216
I10
sg2221
L1L
sg2222
g2231
ssS'gzip'
p2234
(dp2235
g2216
I10
sg2221
L1L
sg2222
g2231
ssS'prefetch'
p2236
(dp2237
g2216
I1
sg2221
L0L
sg2222
g2226
ssS'cacheredir'
p2238
(dp2239
g2216
I10
sg2221
L1L
sg2222
g2231
ssS'parsheet'
p2240
(dp2241
g2216
I10
sg2221
L1L
sg2222
g2231
ssS'du'
p2242
(dp2243
g2216
I10
sg2221
L1L
sg2222
g2231
ssS'hostconn'
p2244
(dp2245
g2216
I10
sg2221
L6L
sg2222
g272
sssg2222
S'8/11'
p2246
ssVIron 0.3
p2247
(dp2248
S'total_runs'
p2249
L8L
sS'score'
p2250
I8
sS'results'
p2251
(dp2252
S'maxconn'
p2253
(dp2254
g2250
I10
sS'median'
p2255
L60L
sS'display'
p2256
S'60'
p2257
ssS'parscript'
p2258
(dp2259
g2250
I10
sg2255
L1L
sg2256
S'yes'
p2260
ssS'parcssjs'
p2261
(dp2262
g2250
I1
sg2255
L0L
sg2256
S'no'
p2263
ssS'cacheresredir'
p2264
(dp2265
g2250
I10
sg2255
L1L
sg2256
g2260
ssS'cacheexp'
p2266
(dp2267
g2250
I10
sg2255
L1L
sg2256
g2260
ssS'gzip'
p2268
(dp2269
g2250
I10
sg2255
L1L
sg2256
g2260
ssS'prefetch'
p2270
(dp2271
g2250
I1
sg2255
L0L
sg2256
g2263
ssS'cacheredir'
p2272
(dp2273
g2250
I10
sg2255
L1L
sg2256
g2260
ssS'parsheet'
p2274
(dp2275
g2250
I10
sg2255
L1L
sg2256
g2260
ssS'du'
p2276
(dp2277
g2250
I10
sg2255
L1L
sg2256
g2260
ssS'hostconn'
p2278
(dp2279
g2250
I10
sg2255
L6L
sg2256
g272
sssg2256
S'9/11'
p2280
ssVIron 0.4
p2281
(dp2282
S'total_runs'
p2283
L5L
sS'score'
p2284
I8
sS'results'
p2285
(dp2286
S'maxconn'
p2287
(dp2288
g2284
I10
sS'median'
p2289
L60L
sS'display'
p2290
S'60'
p2291
ssS'parscript'
p2292
(dp2293
g2284
I10
sg2289
L1L
sg2290
S'yes'
p2294
ssS'parcssjs'
p2295
(dp2296
g2284
I1
sg2289
L0L
sg2290
S'no'
p2297
ssS'cacheresredir'
p2298
(dp2299
g2284
I10
sg2289
L1L
sg2290
g2294
ssS'cacheexp'
p2300
(dp2301
g2284
I10
sg2289
L1L
sg2290
g2294
ssS'gzip'
p2302
(dp2303
g2284
I10
sg2289
L1L
sg2290
g2294
ssS'prefetch'
p2304
(dp2305
g2284
I1
sg2289
L0L
sg2290
g2297
ssS'cacheredir'
p2306
(dp2307
g2284
I10
sg2289
L1L
sg2290
g2294
ssS'parsheet'
p2308
(dp2309
g2284
I10
sg2289
L1L
sg2290
g2294
ssS'du'
p2310
(dp2311
g2284
I10
sg2289
L1L
sg2290
g2294
ssS'hostconn'
p2312
(dp2313
g2284
I10
sg2289
L6L
sg2290
g272
sssg2290
S'9/11'
p2314
ssVIE 4.0
p2315
(dp2316
S'total_runs'
p2317
L1L
sS'score'
p2318
I8
sS'results'
p2319
(dp2320
S'maxconn'
p2321
(dp2322
g2318
I10
sS'median'
p2323
L60L
sS'display'
p2324
S'60'
p2325
ssS'parscript'
p2326
(dp2327
g2318
I1
sg2323
L0L
sg2324
S'no'
p2328
ssS'parcssjs'
p2329
(dp2330
g2318
I1
sg2323
L0L
sg2324
g2328
ssS'cacheresredir'
p2331
(dp2332
g2318
I10
sg2323
L1L
sg2324
S'yes'
p2333
ssS'cacheexp'
p2334
(dp2335
g2318
I10
sg2323
L1L
sg2324
g2333
ssS'gzip'
p2336
(dp2337
g2318
I10
sg2323
L1L
sg2324
g2333
ssS'prefetch'
p2338
(dp2339
g2318
I10
sg2323
L1L
sg2324
g2333
ssS'cacheredir'
p2340
(dp2341
g2318
I10
sg2323
L1L
sg2324
g2333
ssS'parsheet'
p2342
(dp2343
g2318
I10
sg2323
L1L
sg2324
g2333
ssS'du'
p2344
(dp2345
g2318
I10
sg2323
L1L
sg2324
g2333
ssS'hostconn'
p2346
(dp2347
g2318
I10
sg2323
L14L
sg2324
S'14'
p2348
sssg2324
S'9/11'
p2349
ssVKazehakase 0.5
p2350
(dp2351
S'total_runs'
p2352
L6L
sS'score'
p2353
I6
sS'results'
p2354
(dp2355
S'maxconn'
p2356
(dp2357
g2353
I10
sS'median'
p2358
L29L
sS'display'
p2359
S'29'
p2360
ssS'parscript'
p2361
(dp2362
g2353
I1
sg2358
L0L
sg2359
S'no'
p2363
ssS'parcssjs'
p2364
(dp2365
g2353
I1
sg2358
L0L
sg2359
g2363
ssS'cacheresredir'
p2366
(dp2367
g2353
I1
sg2358
L0L
sg2359
g2363
ssS'cacheexp'
p2368
(dp2369
g2353
I10
sg2358
L1L
sg2359
S'yes'
p2370
ssS'gzip'
p2371
(dp2372
g2353
I10
sg2358
L1L
sg2359
g2370
ssS'prefetch'
p2373
(dp2374
g2353
I10
sg2358
L1L
sg2359
g2370
ssS'cacheredir'
p2375
(dp2376
g2353
I1
sg2358
L0L
sg2359
g2363
ssS'parsheet'
p2377
(dp2378
g2353
I10
sg2358
L1L
sg2359
g2370
ssS'du'
p2379
(dp2380
g2353
I10
sg2358
L1L
sg2359
g2370
ssS'hostconn'
p2381
(dp2382
g2353
I10
sg2358
L6L
sg2359
g272
sssg2359
S'7/11'
p2383
ssVNokia 6103
p2384
(dp2385
S'total_runs'
p2386
L1L
sS'score'
p2387
I5
sS'results'
p2388
(dp2389
S'maxconn'
p2390
(dp2391
g2387
I10
sS'median'
p2392
L30L
sS'display'
p2393
S'30'
p2394
ssS'parscript'
p2395
(dp2396
g2387
I1
sg2392
L0L
sg2393
S'no'
p2397
ssS'parcssjs'
p2398
(dp2399
g2387
I1
sg2392
L0L
sg2393
g2397
ssS'cacheresredir'
p2400
(dp2401
g2387
I10
sg2392
L1L
sg2393
S'yes'
p2402
ssS'cacheexp'
p2403
(dp2404
g2387
I10
sg2392
L1L
sg2393
g2402
ssS'gzip'
p2405
(dp2406
g2387
I1
sg2392
L0L
sg2393
g2397
ssS'prefetch'
p2407
(dp2408
g2387
I10
sg2392
L1L
sg2393
g2402
ssS'cacheredir'
p2409
(dp2410
g2387
I1
sg2392
L0L
sg2393
g2397
ssS'parsheet'
p2411
(dp2412
g2387
I10
sg2392
L1L
sg2393
g2402
ssS'du'
p2413
(dp2414
g2387
I10
sg2392
L1L
sg2393
g2402
ssS'hostconn'
p2415
(dp2416
g2387
I5
sg2392
L2L
sg2393
g34
sssg2393
S'6/11'
p2417
ssVOpera 9.24
p2418
(dp2419
S'total_runs'
p2420
L12L
sS'score'
p2421
I4
sS'results'
p2422
(dp2423
S'maxconn'
p2424
(dp2425
g2421
I5
sS'median'
p2426
L20L
sS'display'
p2427
S'20'
p2428
ssS'parscript'
p2429
(dp2430
g2421
I1
sg2426
L0L
sg2427
S'no'
p2431
ssS'parcssjs'
p2432
(dp2433
g2421
I1
sg2426
L0L
sg2427
g2431
ssS'cacheresredir'
p2434
(dp2435
g2421
I1
sg2426
L0L
sg2427
g2431
ssS'cacheexp'
p2436
(dp2437
g2421
I10
sg2426
L1L
sg2427
S'yes'
p2438
ssS'gzip'
p2439
(dp2440
g2421
I10
sg2426
L1L
sg2427
g2438
ssS'prefetch'
p2441
(dp2442
g2421
I1
sg2426
L0L
sg2427
g2431
ssS'cacheredir'
p2443
(dp2444
g2421
I1
sg2426
L0L
sg2427
g2431
ssS'parsheet'
p2445
(dp2446
g2421
I10
sg2426
L1L
sg2427
g2438
ssS'du'
p2447
(dp2448
g2421
I10
sg2426
L1L
sg2427
g2438
ssS'hostconn'
p2449
(dp2450
g2421
I10
sg2426
L4L
sg2427
g11
sssg2427
S'5/11'
p2451
ssVOpera 10.00
p2452
(dp2453
S'total_runs'
p2454
L1244L
sS'score'
p2455
I6
sS'results'
p2456
(dp2457
S'maxconn'
p2458
(dp2459
g2455
I10
sS'median'
p2460
L49L
sS'display'
p2461
S'49'
p2462
ssS'parscript'
p2463
(dp2464
g2455
I1
sg2460
L0L
sg2461
S'no'
p2465
ssS'parcssjs'
p2466
(dp2467
g2455
I1
sg2460
L0L
sg2461
g2465
ssS'cacheresredir'
p2468
(dp2469
g2455
I10
sg2460
L1L
sg2461
S'yes'
p2470
ssS'cacheexp'
p2471
(dp2472
g2455
I10
sg2460
L1L
sg2461
g2470
ssS'gzip'
p2473
(dp2474
g2455
I10
sg2460
L1L
sg2461
g2470
ssS'prefetch'
p2475
(dp2476
g2455
I1
sg2460
L0L
sg2461
g2465
ssS'cacheredir'
p2477
(dp2478
g2455
I1
sg2460
L0L
sg2461
g2465
ssS'parsheet'
p2479
(dp2480
g2455
I10
sg2460
L1L
sg2461
g2470
ssS'du'
p2481
(dp2482
g2455
I10
sg2460
L1L
sg2461
g2470
ssS'hostconn'
p2483
(dp2484
g2455
I10
sg2460
L8L
sg2461
g147
sssg2461
S'7/11'
p2485
ssVNokia 71
p2486
(dp2487
S'total_runs'
p2488
L10L
sS'score'
p2489
I3
sS'results'
p2490
(dp2491
S'maxconn'
p2492
(dp2493
g2489
I0
sS'median'
p2494
L7L
sS'display'
p2495
g113
ssS'parscript'
p2496
(dp2497
g2489
I10
sg2494
L1L
sg2495
S'yes'
p2498
ssS'parcssjs'
p2499
(dp2500
g2489
I1
sg2494
L0L
sg2495
S'no'
p2501
ssS'cacheresredir'
p2502
(dp2503
g2489
I1
sg2494
L0L
sg2495
g2501
ssS'cacheexp'
p2504
(dp2505
g2489
I10
sg2494
L1L
sg2495
g2498
ssS'gzip'
p2506
(dp2507
g2489
I10
sg2494
L1L
sg2495
g2498
ssS'prefetch'
p2508
(dp2509
g2489
I1
sg2494
L0L
sg2495
g2501
ssS'cacheredir'
p2510
(dp2511
g2489
I1
sg2494
L0L
sg2495
g2501
ssS'parsheet'
p2512
(dp2513
g2489
I10
sg2494
L1L
sg2495
g2498
ssS'du'
p2514
(dp2515
g2489
I1
sg2494
L0L
sg2495
g2501
ssS'hostconn'
p2516
(dp2517
g2489
I0
sg2494
L0L
sg2495
g46
sssg2495
S'4/11'
p2518
ssVOpera 9.25
p2519
(dp2520
S'total_runs'
p2521
L14L
sS'score'
p2522
I4
sS'results'
p2523
(dp2524
S'maxconn'
p2525
(dp2526
g2522
I5
sS'median'
p2527
L20L
sS'display'
p2528
S'20'
p2529
ssS'parscript'
p2530
(dp2531
g2522
I1
sg2527
L0L
sg2528
S'no'
p2532
ssS'parcssjs'
p2533
(dp2534
g2522
I1
sg2527
L0L
sg2528
g2532
ssS'cacheresredir'
p2535
(dp2536
g2522
I1
sg2527
L0L
sg2528
g2532
ssS'cacheexp'
p2537
(dp2538
g2522
I10
sg2527
L1L
sg2528
S'yes'
p2539
ssS'gzip'
p2540
(dp2541
g2522
I10
sg2527
L1L
sg2528
g2539
ssS'prefetch'
p2542
(dp2543
g2522
I1
sg2527
L0L
sg2528
g2532
ssS'cacheredir'
p2544
(dp2545
g2522
I1
sg2527
L0L
sg2528
g2532
ssS'parsheet'
p2546
(dp2547
g2522
I10
sg2527
L1L
sg2528
g2539
ssS'du'
p2548
(dp2549
g2522
I10
sg2527
L1L
sg2528
g2539
ssS'hostconn'
p2550
(dp2551
g2522
I10
sg2527
L4L
sg2528
g11
sssg2528
S'5/11'
p2552
ssVNokia 75
p2553
(dp2554
S'total_runs'
p2555
L1L
sS'score'
p2556
I4
sS'results'
p2557
(dp2558
S'maxconn'
p2559
(dp2560
g2556
I5
sS'median'
p2561
L14L
sS'display'
p2562
S'14'
p2563
ssS'parscript'
p2564
(dp2565
g2556
I10
sg2561
L1L
sg2562
S'yes'
p2566
ssS'parcssjs'
p2567
(dp2568
g2556
I1
sg2561
L0L
sg2562
S'no'
p2569
ssS'cacheresredir'
p2570
(dp2571
g2556
I1
sg2561
L0L
sg2562
g2569
ssS'cacheexp'
p2572
(dp2573
g2556
I10
sg2561
L1L
sg2562
g2566
ssS'gzip'
p2574
(dp2575
g2556
I1
sg2561
L0L
sg2562
g2569
ssS'prefetch'
p2576
(dp2577
g2556
I1
sg2561
L0L
sg2562
g2569
ssS'cacheredir'
p2578
(dp2579
g2556
I1
sg2561
L0L
sg2562
g2569
ssS'parsheet'
p2580
(dp2581
g2556
I10
sg2561
L1L
sg2562
g2566
ssS'du'
p2582
(dp2583
g2556
I10
sg2561
L1L
sg2562
g2566
ssS'hostconn'
p2584
(dp2585
g2556
I10
sg2561
L12L
sg2562
S'12'
p2586
sssg2562
S'5/11'
p2587
ssVPalm Pre 1.0
p2588
(dp2589
S'total_runs'
p2590
L10L
sS'score'
p2591
I4
sS'results'
p2592
(dp2593
S'maxconn'
p2594
(dp2595
g2591
I5
sS'median'
p2596
L11L
sS'display'
p2597
S'11'
p2598
ssS'parscript'
p2599
(dp2600
g2591
I1
sg2596
L0L
sg2597
S'no'
p2601
ssS'parcssjs'
p2602
(dp2603
g2591
I1
sg2596
L0L
sg2597
g2601
ssS'cacheresredir'
p2604
(dp2605
g2591
I1
sg2596
L0L
sg2597
g2601
ssS'cacheexp'
p2606
(dp2607
g2591
I10
sg2596
L1L
sg2597
S'yes'
p2608
ssS'gzip'
p2609
(dp2610
g2591
I10
sg2596
L1L
sg2597
g2608
ssS'prefetch'
p2611
(dp2612
g2591
I1
sg2596
L0L
sg2597
g2601
ssS'cacheredir'
p2613
(dp2614
g2591
I1
sg2596
L0L
sg2597
g2601
ssS'parsheet'
p2615
(dp2616
g2591
I10
sg2596
L1L
sg2597
g2608
ssS'du'
p2617
(dp2618
g2591
I10
sg2596
L1L
sg2597
g2608
ssS'hostconn'
p2619
(dp2620
g2591
I10
sg2596
L10L
sg2597
S'10'
p2621
sssg2597
S'5/11'
p2622
ssVIceape 1.0
p2623
(dp2624
S'total_runs'
p2625
L1L
sS'score'
p2626
I6
sS'results'
p2627
(dp2628
S'maxconn'
p2629
(dp2630
g2626
I10
sS'median'
p2631
L24L
sS'display'
p2632
S'24'
p2633
ssS'parscript'
p2634
(dp2635
g2626
I1
sg2631
L0L
sg2632
S'no'
p2636
ssS'parcssjs'
p2637
(dp2638
g2626
I1
sg2631
L0L
sg2632
g2636
ssS'cacheresredir'
p2639
(dp2640
g2626
I10
sg2631
L1L
sg2632
S'yes'
p2641
ssS'cacheexp'
p2642
(dp2643
g2626
I10
sg2631
L1L
sg2632
g2641
ssS'gzip'
p2644
(dp2645
g2626
I10
sg2631
L1L
sg2632
g2641
ssS'prefetch'
p2646
(dp2647
g2626
I10
sg2631
L1L
sg2632
g2641
ssS'cacheredir'
p2648
(dp2649
g2626
I10
sg2631
L1L
sg2632
g2641
ssS'parsheet'
p2650
(dp2651
g2626
I1
sg2631
L0L
sg2632
g2636
ssS'du'
p2652
(dp2653
g2626
I10
sg2631
L1L
sg2632
g2641
ssS'hostconn'
p2654
(dp2655
g2626
I5
sg2631
L2L
sg2632
g34
sssg2632
S'7/11'
p2656
ssVIceape 1.1
p2657
(dp2658
S'total_runs'
p2659
L5L
sS'score'
p2660
I6
sS'results'
p2661
(dp2662
S'maxconn'
p2663
(dp2664
g2660
I10
sS'median'
p2665
L24L
sS'display'
p2666
S'24'
p2667
ssS'parscript'
p2668
(dp2669
g2660
I1
sg2665
L0L
sg2666
S'no'
p2670
ssS'parcssjs'
p2671
(dp2672
g2660
I1
sg2665
L0L
sg2666
g2670
ssS'cacheresredir'
p2673
(dp2674
g2660
I10
sg2665
L1L
sg2666
S'yes'
p2675
ssS'cacheexp'
p2676
(dp2677
g2660
I10
sg2665
L1L
sg2666
g2675
ssS'gzip'
p2678
(dp2679
g2660
I10
sg2665
L1L
sg2666
g2675
ssS'prefetch'
p2680
(dp2681
g2660
I10
sg2665
L1L
sg2666
g2675
ssS'cacheredir'
p2682
(dp2683
g2660
I10
sg2665
L1L
sg2666
g2675
ssS'parsheet'
p2684
(dp2685
g2660
I1
sg2665
L0L
sg2666
g2670
ssS'du'
p2686
(dp2687
g2660
I10
sg2665
L1L
sg2666
g2675
ssS'hostconn'
p2688
(dp2689
g2660
I5
sg2665
L2L
sg2666
g34
sssg2666
S'7/11'
p2690
ssVShiira 1.1
p2691
(dp2692
S'total_runs'
p2693
L1L
sS'score'
p2694
I6
sS'results'
p2695
(dp2696
S'maxconn'
p2697
(dp2698
g2694
I10
sS'median'
p2699
L60L
sS'display'
p2700
S'60'
p2701
ssS'parscript'
p2702
(dp2703
g2694
I1
sg2699
L0L
sg2700
S'no'
p2704
ssS'parcssjs'
p2705
(dp2706
g2694
I1
sg2699
L0L
sg2700
g2704
ssS'cacheresredir'
p2707
(dp2708
g2694
I10
sg2699
L1L
sg2700
S'yes'
p2709
ssS'cacheexp'
p2710
(dp2711
g2694
I10
sg2699
L1L
sg2700
g2709
ssS'gzip'
p2712
(dp2713
g2694
I10
sg2699
L1L
sg2700
g2709
ssS'prefetch'
p2714
(dp2715
g2694
I1
sg2699
L0L
sg2700
g2704
ssS'cacheredir'
p2716
(dp2717
g2694
I1
sg2699
L0L
sg2700
g2704
ssS'parsheet'
p2718
(dp2719
g2694
I10
sg2699
L1L
sg2700
g2709
ssS'du'
p2720
(dp2721
g2694
I10
sg2699
L1L
sg2700
g2709
ssS'hostconn'
p2722
(dp2723
g2694
I10
sg2699
L4L
sg2700
g11
sssg2700
S'7/11'
p2724
ssVFirefox 3.07
p2725
(dp2726
S'total_runs'
p2727
L1L
sS'score'
p2728
I8
sS'results'
p2729
(dp2730
S'maxconn'
p2731
(dp2732
g2728
I10
sS'median'
p2733
L28L
sS'display'
p2734
S'28'
p2735
ssS'parscript'
p2736
(dp2737
g2728
I10
sg2733
L1L
sg2734
S'yes'
p2738
ssS'parcssjs'
p2739
(dp2740
g2728
I1
sg2733
L0L
sg2734
S'no'
p2741
ssS'cacheresredir'
p2742
(dp2743
g2728
I10
sg2733
L1L
sg2734
g2738
ssS'cacheexp'
p2744
(dp2745
g2728
I10
sg2733
L1L
sg2734
g2738
ssS'gzip'
p2746
(dp2747
g2728
I10
sg2733
L1L
sg2734
g2738
ssS'prefetch'
p2748
(dp2749
g2728
I1
sg2733
L0L
sg2734
g2741
ssS'cacheredir'
p2750
(dp2751
g2728
I10
sg2733
L1L
sg2734
g2738
ssS'parsheet'
p2752
(dp2753
g2728
I10
sg2733
L1L
sg2734
g2738
ssS'du'
p2754
(dp2755
g2728
I10
sg2733
L1L
sg2734
g2738
ssS'hostconn'
p2756
(dp2757
g2728
I10
sg2733
L8L
sg2734
g147
sssg2734
S'9/11'
p2758
ssVFlock 0.7
p2759
(dp2760
S'total_runs'
p2761
L1L
sS'score'
p2762
I6
sS'results'
p2763
(dp2764
S'maxconn'
p2765
(dp2766
g2762
I10
sS'median'
p2767
L24L
sS'display'
p2768
S'24'
p2769
ssS'parscript'
p2770
(dp2771
g2762
I1
sg2767
L0L
sg2768
S'no'
p2772
ssS'parcssjs'
p2773
(dp2774
g2762
I1
sg2767
L0L
sg2768
g2772
ssS'cacheresredir'
p2775
(dp2776
g2762
I10
sg2767
L1L
sg2768
S'yes'
p2777
ssS'cacheexp'
p2778
(dp2779
g2762
I10
sg2767
L1L
sg2768
g2777
ssS'gzip'
p2780
(dp2781
g2762
I10
sg2767
L1L
sg2768
g2777
ssS'prefetch'
p2782
(dp2783
g2762
I10
sg2767
L1L
sg2768
g2777
ssS'cacheredir'
p2784
(dp2785
g2762
I10
sg2767
L1L
sg2768
g2777
ssS'parsheet'
p2786
(dp2787
g2762
I1
sg2767
L0L
sg2768
g2772
ssS'du'
p2788
(dp2789
g2762
I10
sg2767
L1L
sg2768
g2777
ssS'hostconn'
p2790
(dp2791
g2762
I5
sg2767
L2L
sg2768
g34
sssg2768
S'7/11'
p2792
ssVFirefox 3.9
p2793
(dp2794
S'total_runs'
p2795
L1L
sS'score'
p2796
I4
sS'results'
p2797
(dp2798
S'maxconn'
p2799
(dp2800
g2796
I10
sS'median'
p2801
L29L
sS'display'
p2802
S'29'
p2803
ssS'parscript'
p2804
(dp2805
g2796
I1
sg2801
L0L
sg2802
S'no'
p2806
ssS'parcssjs'
p2807
(dp2808
g2796
I1
sg2801
L0L
sg2802
g2806
ssS'cacheresredir'
p2809
(dp2810
g2796
I1
sg2801
L0L
sg2802
g2806
ssS'cacheexp'
p2811
(dp2812
g2796
I1
sg2801
L0L
sg2802
g2806
ssS'gzip'
p2813
(dp2814
g2796
I10
sg2801
L1L
sg2802
S'yes'
p2815
ssS'prefetch'
p2816
(dp2817
g2796
I1
sg2801
L0L
sg2802
g2806
ssS'cacheredir'
p2818
(dp2819
g2796
I1
sg2801
L0L
sg2802
g2806
ssS'parsheet'
p2820
(dp2821
g2796
I10
sg2801
L1L
sg2802
g2815
ssS'du'
p2822
(dp2823
g2796
I10
sg2801
L1L
sg2802
g2815
ssS'hostconn'
p2824
(dp2825
g2796
I10
sg2801
L6L
sg2802
g272
sssg2802
S'5/11'
p2826
ssViPhone 2.1
p2827
(dp2828
S'total_runs'
p2829
L31L
sS'score'
p2830
I7
sS'results'
p2831
(dp2832
S'maxconn'
p2833
(dp2834
g2830
I10
sS'median'
p2835
L60L
sS'display'
p2836
S'60'
p2837
ssS'parscript'
p2838
(dp2839
g2830
I10
sg2835
L1L
sg2836
S'yes'
p2840
ssS'parcssjs'
p2841
(dp2842
g2830
I1
sg2835
L0L
sg2836
S'no'
p2843
ssS'cacheresredir'
p2844
(dp2845
g2830
I10
sg2835
L1L
sg2836
g2840
ssS'cacheexp'
p2846
(dp2847
g2830
I10
sg2835
L1L
sg2836
g2840
ssS'gzip'
p2848
(dp2849
g2830
I10
sg2835
L1L
sg2836
g2840
ssS'prefetch'
p2850
(dp2851
g2830
I1
sg2835
L0L
sg2836
g2843
ssS'cacheredir'
p2852
(dp2853
g2830
I1
sg2835
L0L
sg2836
g2843
ssS'parsheet'
p2854
(dp2855
g2830
I10
sg2835
L1L
sg2836
g2840
ssS'du'
p2856
(dp2857
g2830
I10
sg2835
L1L
sg2836
g2840
ssS'hostconn'
p2858
(dp2859
g2830
I10
sg2835
L4L
sg2836
g11
sssg2836
S'8/11'
p2860
ssVOpera 9.20
p2861
(dp2862
S'total_runs'
p2863
L5L
sS'score'
p2864
I4
sS'results'
p2865
(dp2866
S'maxconn'
p2867
(dp2868
g2864
I5
sS'median'
p2869
L20L
sS'display'
p2870
S'20'
p2871
ssS'parscript'
p2872
(dp2873
g2864
I1
sg2869
L0L
sg2870
S'no'
p2874
ssS'parcssjs'
p2875
(dp2876
g2864
I1
sg2869
L0L
sg2870
g2874
ssS'cacheresredir'
p2877
(dp2878
g2864
I1
sg2869
L0L
sg2870
g2874
ssS'cacheexp'
p2879
(dp2880
g2864
I10
sg2869
L1L
sg2870
S'yes'
p2881
ssS'gzip'
p2882
(dp2883
g2864
I10
sg2869
L1L
sg2870
g2881
ssS'prefetch'
p2884
(dp2885
g2864
I1
sg2869
L0L
sg2870
g2874
ssS'cacheredir'
p2886
(dp2887
g2864
I1
sg2869
L0L
sg2870
g2874
ssS'parsheet'
p2888
(dp2889
g2864
I10
sg2869
L1L
sg2870
g2881
ssS'du'
p2890
(dp2891
g2864
I10
sg2869
L1L
sg2870
g2881
ssS'hostconn'
p2892
(dp2893
g2864
I10
sg2869
L4L
sg2870
g11
sssg2870
S'5/11'
p2894
ssVOmniWeb 563.60
p2895
(dp2896
S'total_runs'
p2897
L1L
sS'score'
p2898
I4
sS'results'
p2899
(dp2900
S'maxconn'
p2901
(dp2902
g2898
I5
sS'median'
p2903
L10L
sS'display'
p2904
S'10'
p2905
ssS'parscript'
p2906
(dp2907
g2898
I1
sg2903
L0L
sg2904
S'no'
p2908
ssS'parcssjs'
p2909
(dp2910
g2898
I1
sg2903
L0L
sg2904
g2908
ssS'cacheresredir'
p2911
(dp2912
g2898
I10
sg2903
L1L
sg2904
S'yes'
p2913
ssS'cacheexp'
p2914
(dp2915
g2898
I10
sg2903
L1L
sg2904
g2913
ssS'gzip'
p2916
(dp2917
g2898
I10
sg2903
L1L
sg2904
g2913
ssS'prefetch'
p2918
(dp2919
g2898
I1
sg2903
L0L
sg2904
g2908
ssS'cacheredir'
p2920
(dp2921
g2898
I1
sg2903
L0L
sg2904
g2908
ssS'parsheet'
p2922
(dp2923
g2898
I1
sg2903
L0L
sg2904
g2908
ssS'du'
p2924
(dp2925
g2898
I10
sg2903
L1L
sg2904
g2913
ssS'hostconn'
p2926
(dp2927
g2898
I10
sg2903
L4L
sg2904
g11
sssg2904
S'5/11'
p2928
ssVFirefox 3.1
p2929
(dp2930
S'total_runs'
p2931
L1L
sS'score'
p2932
I8
sS'results'
p2933
(dp2934
S'maxconn'
p2935
(dp2936
g2932
I10
sS'median'
p2937
L27L
sS'display'
p2938
S'27'
p2939
ssS'parscript'
p2940
(dp2941
g2932
I10
sg2937
L1L
sg2938
S'yes'
p2942
ssS'parcssjs'
p2943
(dp2944
g2932
I1
sg2937
L0L
sg2938
S'no'
p2945
ssS'cacheresredir'
p2946
(dp2947
g2932
I10
sg2937
L1L
sg2938
g2942
ssS'cacheexp'
p2948
(dp2949
g2932
I10
sg2937
L1L
sg2938
g2942
ssS'gzip'
p2950
(dp2951
g2932
I10
sg2937
L1L
sg2938
g2942
ssS'prefetch'
p2952
(dp2953
g2932
I10
sg2937
L1L
sg2938
g2942
ssS'cacheredir'
p2954
(dp2955
g2932
I10
sg2937
L1L
sg2938
g2942
ssS'parsheet'
p2956
(dp2957
g2932
I10
sg2937
L1L
sg2938
g2942
ssS'du'
p2958
(dp2959
g2932
I10
sg2937
L1L
sg2938
g2942
ssS'hostconn'
p2960
(dp2961
g2932
I10
sg2937
L6L
sg2938
g272
sssg2938
S'10/11'
p2962
ssVFirefox 3.0
p2963
(dp2964
S'total_runs'
p2965
L5559L
sS'score'
p2966
I6
sS'results'
p2967
(dp2968
S'maxconn'
p2969
(dp2970
g2966
I10
sS'median'
p2971
L30L
sS'display'
p2972
S'30'
p2973
ssS'parscript'
p2974
(dp2975
g2966
I1
sg2971
L0L
sg2972
S'no'
p2976
ssS'parcssjs'
p2977
(dp2978
g2966
I1
sg2971
L0L
sg2972
g2976
ssS'cacheresredir'
p2979
(dp2980
g2966
I1
sg2971
L0L
sg2972
g2976
ssS'cacheexp'
p2981
(dp2982
g2966
I10
sg2971
L1L
sg2972
S'yes'
p2983
ssS'gzip'
p2984
(dp2985
g2966
I10
sg2971
L1L
sg2972
g2983
ssS'prefetch'
p2986
(dp2987
g2966
I10
sg2971
L1L
sg2972
g2983
ssS'cacheredir'
p2988
(dp2989
g2966
I1
sg2971
L0L
sg2972
g2976
ssS'parsheet'
p2990
(dp2991
g2966
I10
sg2971
L1L
sg2972
g2983
ssS'du'
p2992
(dp2993
g2966
I10
sg2971
L1L
sg2972
g2983
ssS'hostconn'
p2994
(dp2995
g2966
I10
sg2971
L6L
sg2972
g272
sssg2972
S'7/11'
p2996
ssVOpera 9.21
p2997
(dp2998
S'total_runs'
p2999
L2L
sS'score'
p3000
I4
sS'results'
p3001
(dp3002
S'maxconn'
p3003
(dp3004
g3000
I5
sS'median'
p3005
L20L
sS'display'
p3006
S'20'
p3007
ssS'parscript'
p3008
(dp3009
g3000
I1
sg3005
L0L
sg3006
S'no'
p3010
ssS'parcssjs'
p3011
(dp3012
g3000
I1
sg3005
L0L
sg3006
g3010
ssS'cacheresredir'
p3013
(dp3014
g3000
I1
sg3005
L0L
sg3006
g3010
ssS'cacheexp'
p3015
(dp3016
g3000
I10
sg3005
L1L
sg3006
S'yes'
p3017
ssS'gzip'
p3018
(dp3019
g3000
I10
sg3005
L1L
sg3006
g3017
ssS'prefetch'
p3020
(dp3021
g3000
I1
sg3005
L0L
sg3006
g3010
ssS'cacheredir'
p3022
(dp3023
g3000
I1
sg3005
L0L
sg3006
g3010
ssS'parsheet'
p3024
(dp3025
g3000
I10
sg3005
L1L
sg3006
g3017
ssS'du'
p3026
(dp3027
g3000
I10
sg3005
L1L
sg3006
g3017
ssS'hostconn'
p3028
(dp3029
g3000
I10
sg3005
L4L
sg3006
g11
sssg3006
S'5/11'
p3030
ssVFirefox 3.5
p3031
(dp3032
S'total_runs'
p3033
L1027L
sS'score'
p3034
I8
sS'results'
p3035
(dp3036
S'maxconn'
p3037
(dp3038
g3034
I10
sS'median'
p3039
L30L
sS'display'
p3040
S'30'
p3041
ssS'parscript'
p3042
(dp3043
g3034
I10
sg3039
L1L
sg3040
S'yes'
p3044
ssS'parcssjs'
p3045
(dp3046
g3034
I1
sg3039
L0L
sg3040
S'no'
p3047
ssS'cacheresredir'
p3048
(dp3049
g3034
I10
sg3039
L1L
sg3040
g3044
ssS'cacheexp'
p3050
(dp3051
g3034
I10
sg3039
L1L
sg3040
g3044
ssS'gzip'
p3052
(dp3053
g3034
I10
sg3039
L1L
sg3040
g3044
ssS'prefetch'
p3054
(dp3055
g3034
I10
sg3039
L1L
sg3040
g3044
ssS'cacheredir'
p3056
(dp3057
g3034
I10
sg3039
L1L
sg3040
g3044
ssS'parsheet'
p3058
(dp3059
g3034
I10
sg3039
L1L
sg3040
g3044
ssS'du'
p3060
(dp3061
g3034
I10
sg3039
L1L
sg3040
g3044
ssS'hostconn'
p3062
(dp3063
g3034
I10
sg3039
L6L
sg3040
g272
sssg3040
S'10/11'
p3064
ssVFirefox 3.6
p3065
(dp3066
S'total_runs'
p3067
L1L
sS'score'
p3068
I9
sS'results'
p3069
(dp3070
S'maxconn'
p3071
(dp3072
g3068
I10
sS'median'
p3073
L30L
sS'display'
p3074
S'30'
p3075
ssS'parscript'
p3076
(dp3077
g3068
I10
sg3073
L1L
sg3074
S'yes'
p3078
ssS'parcssjs'
p3079
(dp3080
g3068
I10
sg3073
L1L
sg3074
g3078
ssS'cacheresredir'
p3081
(dp3082
g3068
I10
sg3073
L1L
sg3074
g3078
ssS'cacheexp'
p3083
(dp3084
g3068
I10
sg3073
L1L
sg3074
g3078
ssS'gzip'
p3085
(dp3086
g3068
I10
sg3073
L1L
sg3074
g3078
ssS'prefetch'
p3087
(dp3088
g3068
I10
sg3073
L1L
sg3074
g3078
ssS'cacheredir'
p3089
(dp3090
g3068
I10
sg3073
L1L
sg3074
g3078
ssS'parsheet'
p3091
(dp3092
g3068
I10
sg3073
L1L
sg3074
g3078
ssS'du'
p3093
(dp3094
g3068
I10
sg3073
L1L
sg3074
g3078
ssS'hostconn'
p3095
(dp3096
g3068
I10
sg3073
L6L
sg3074
g272
sssg3074
S'11/11'
p3097
ssVFirefox 2.0
p3098
(dp3099
S'total_runs'
p3100
L377L
sS'score'
p3101
I6
sS'results'
p3102
(dp3103
S'maxconn'
p3104
(dp3105
g3101
I10
sS'median'
p3106
L24L
sS'display'
p3107
S'24'
p3108
ssS'parscript'
p3109
(dp3110
g3101
I1
sg3106
L0L
sg3107
S'no'
p3111
ssS'parcssjs'
p3112
(dp3113
g3101
I1
sg3106
L0L
sg3107
g3111
ssS'cacheresredir'
p3114
(dp3115
g3101
I10
sg3106
L1L
sg3107
S'yes'
p3116
ssS'cacheexp'
p3117
(dp3118
g3101
I10
sg3106
L1L
sg3107
g3116
ssS'gzip'
p3119
(dp3120
g3101
I10
sg3106
L1L
sg3107
g3116
ssS'prefetch'
p3121
(dp3122
g3101
I10
sg3106
L1L
sg3107
g3116
ssS'cacheredir'
p3123
(dp3124
g3101
I10
sg3106
L1L
sg3107
g3116
ssS'parsheet'
p3125
(dp3126
g3101
I1
sg3106
L0L
sg3107
g3111
ssS'du'
p3127
(dp3128
g3101
I10
sg3106
L1L
sg3107
g3116
ssS'hostconn'
p3129
(dp3130
g3101
I5
sg3106
L2L
sg3107
g34
sssg3107
S'7/11'
p3131
ssVOpera 9.63
p3132
(dp3133
S'total_runs'
p3134
L691L
sS'score'
p3135
I5
sS'results'
p3136
(dp3137
S'maxconn'
p3138
(dp3139
g3135
I10
sS'median'
p3140
L45L
sS'display'
p3141
S'45'
p3142
ssS'parscript'
p3143
(dp3144
g3135
I1
sg3140
L0L
sg3141
S'no'
p3145
ssS'parcssjs'
p3146
(dp3147
g3135
I1
sg3140
L0L
sg3141
g3145
ssS'cacheresredir'
p3148
(dp3149
g3135
I1
sg3140
L0L
sg3141
g3145
ssS'cacheexp'
p3150
(dp3151
g3135
I10
sg3140
L1L
sg3141
S'yes'
p3152
ssS'gzip'
p3153
(dp3154
g3135
I10
sg3140
L1L
sg3141
g3152
ssS'prefetch'
p3155
(dp3156
g3135
I1
sg3140
L0L
sg3141
g3145
ssS'cacheredir'
p3157
(dp3158
g3135
I1
sg3140
L0L
sg3141
g3145
ssS'parsheet'
p3159
(dp3160
g3135
I10
sg3140
L1L
sg3141
g3152
ssS'du'
p3161
(dp3162
g3135
I10
sg3140
L1L
sg3141
g3152
ssS'hostconn'
p3163
(dp3164
g3135
I10
sg3140
L8L
sg3141
g147
sssg3141
S'6/11'
p3165
ssVAndroid 1.5
p3166
(dp3167
S'total_runs'
p3168
L14L
sS'score'
p3169
I7
sS'results'
p3170
(dp3171
S'maxconn'
p3172
(dp3173
g3169
I0
sS'median'
p3174
L4L
sS'display'
p3175
g11
ssS'parscript'
p3176
(dp3177
g3169
I10
sg3174
L1L
sg3175
S'yes'
p3178
ssS'parcssjs'
p3179
(dp3180
g3169
I1
sg3174
L0L
sg3175
S'no'
p3181
ssS'cacheresredir'
p3182
(dp3183
g3169
I10
sg3174
L1L
sg3175
g3178
ssS'cacheexp'
p3184
(dp3185
g3169
I10
sg3174
L1L
sg3175
g3178
ssS'gzip'
p3186
(dp3187
g3169
I10
sg3174
L1L
sg3175
g3178
ssS'prefetch'
p3188
(dp3189
g3169
I1
sg3174
L0L
sg3175
g3181
ssS'cacheredir'
p3190
(dp3191
g3169
I10
sg3174
L1L
sg3175
g3178
ssS'parsheet'
p3192
(dp3193
g3169
I10
sg3174
L1L
sg3175
g3178
ssS'du'
p3194
(dp3195
g3169
I10
sg3174
L1L
sg3175
g3178
ssS'hostconn'
p3196
(dp3197
g3169
I10
sg3174
L4L
sg3175
g11
sssg3175
S'8/11'
p3198
ssVChrome 4.0
p3199
(dp3200
S'total_runs'
p3201
L35L
sS'score'
p3202
I8
sS'results'
p3203
(dp3204
S'maxconn'
p3205
(dp3206
g3202
I10
sS'median'
p3207
L60L
sS'display'
p3208
S'60'
p3209
ssS'parscript'
p3210
(dp3211
g3202
I10
sg3207
L1L
sg3208
S'yes'
p3212
ssS'parcssjs'
p3213
(dp3214
g3202
I1
sg3207
L0L
sg3208
S'no'
p3215
ssS'cacheresredir'
p3216
(dp3217
g3202
I10
sg3207
L1L
sg3208
g3212
ssS'cacheexp'
p3218
(dp3219
g3202
I10
sg3207
L1L
sg3208
g3212
ssS'gzip'
p3220
(dp3221
g3202
I10
sg3207
L1L
sg3208
g3212
ssS'prefetch'
p3222
(dp3223
g3202
I1
sg3207
L0L
sg3208
g3215
ssS'cacheredir'
p3224
(dp3225
g3202
I10
sg3207
L1L
sg3208
g3212
ssS'parsheet'
p3226
(dp3227
g3202
I10
sg3207
L1L
sg3208
g3212
ssS'du'
p3228
(dp3229
g3202
I10
sg3207
L1L
sg3208
g3212
ssS'hostconn'
p3230
(dp3231
g3202
I10
sg3207
L4L
sg3208
g11
sssg3208
S'9/11'
p3232
ssVObigo 2
p3233
(dp3234
S'total_runs'
p3235
L7L
sS'score'
p3236
I3
sS'results'
p3237
(dp3238
S'maxconn'
p3239
(dp3240
g3236
I0
sS'median'
p3241
L4L
sS'display'
p3242
g11
ssS'parscript'
p3243
(dp3244
g3236
I10
sg3241
L1L
sg3242
S'yes'
p3245
ssS'parcssjs'
p3246
(dp3247
g3236
I1
sg3241
L0L
sg3242
S'no'
p3248
ssS'cacheresredir'
p3249
(dp3250
g3236
I1
sg3241
L0L
sg3242
g3248
ssS'cacheexp'
p3251
(dp3252
g3236
I10
sg3241
L1L
sg3242
g3245
ssS'gzip'
p3253
(dp3254
g3236
I1
sg3241
L0L
sg3242
g3248
ssS'prefetch'
p3255
(dp3256
g3236
I10
sg3241
L1L
sg3242
g3245
ssS'cacheredir'
p3257
(dp3258
g3236
I1
sg3241
L0L
sg3242
g3248
ssS'parsheet'
p3259
(dp3260
g3236
I1
sg3241
L0L
sg3242
g3248
ssS'du'
p3261
(dp3262
g3236
I10
sg3241
L1L
sg3242
g3245
ssS'hostconn'
p3263
(dp3264
g3236
I5
sg3241
L2L
sg3242
g34
sssg3242
S'4/11'
p3265
ssVAndroid 1.1
p3266
(dp3267
S'total_runs'
p3268
L9L
sS'score'
p3269
I7
sS'results'
p3270
(dp3271
S'maxconn'
p3272
(dp3273
g3269
I0
sS'median'
p3274
L4L
sS'display'
p3275
g11
ssS'parscript'
p3276
(dp3277
g3269
I10
sg3274
L1L
sg3275
S'yes'
p3278
ssS'parcssjs'
p3279
(dp3280
g3269
I1
sg3274
L0L
sg3275
S'no'
p3281
ssS'cacheresredir'
p3282
(dp3283
g3269
I10
sg3274
L1L
sg3275
g3278
ssS'cacheexp'
p3284
(dp3285
g3269
I10
sg3274
L1L
sg3275
g3278
ssS'gzip'
p3286
(dp3287
g3269
I10
sg3274
L1L
sg3275
g3278
ssS'prefetch'
p3288
(dp3289
g3269
I1
sg3274
L0L
sg3275
g3281
ssS'cacheredir'
p3290
(dp3291
g3269
I10
sg3274
L1L
sg3275
g3278
ssS'parsheet'
p3292
(dp3293
g3269
I10
sg3274
L1L
sg3275
g3278
ssS'du'
p3294
(dp3295
g3269
I10
sg3274
L1L
sg3275
g3278
ssS'hostconn'
p3296
(dp3297
g3269
I10
sg3274
L4L
sg3275
g11
sssg3275
S'8/11'
p3298
ssVAndroid 1.0
p3299
(dp3300
S'total_runs'
p3301
L22L
sS'score'
p3302
I7
sS'results'
p3303
(dp3304
S'maxconn'
p3305
(dp3306
g3302
I0
sS'median'
p3307
L4L
sS'display'
p3308
g11
ssS'parscript'
p3309
(dp3310
g3302
I10
sg3307
L1L
sg3308
S'yes'
p3311
ssS'parcssjs'
p3312
(dp3313
g3302
I1
sg3307
L0L
sg3308
S'no'
p3314
ssS'cacheresredir'
p3315
(dp3316
g3302
I10
sg3307
L1L
sg3308
g3311
ssS'cacheexp'
p3317
(dp3318
g3302
I10
sg3307
L1L
sg3308
g3311
ssS'gzip'
p3319
(dp3320
g3302
I10
sg3307
L1L
sg3308
g3311
ssS'prefetch'
p3321
(dp3322
g3302
I1
sg3307
L0L
sg3308
g3314
ssS'cacheredir'
p3323
(dp3324
g3302
I10
sg3307
L1L
sg3308
g3311
ssS'parsheet'
p3325
(dp3326
g3302
I10
sg3307
L1L
sg3308
g3311
ssS'du'
p3327
(dp3328
g3302
I10
sg3307
L1L
sg3308
g3311
ssS'hostconn'
p3329
(dp3330
g3302
I10
sg3307
L4L
sg3308
g11
sssg3308
S'8/11'
p3331
ssVObigo 7
p3332
(dp3333
S'total_runs'
p3334
L2L
sS'score'
p3335
I3
sS'results'
p3336
(dp3337
S'maxconn'
p3338
(dp3339
g3335
I0
sS'median'
p3340
L8L
sS'display'
p3341
g147
ssS'parscript'
p3342
(dp3343
g3335
I1
sg3340
L0L
sg3341
S'no'
p3344
ssS'parcssjs'
p3345
(dp3346
g3335
I1
sg3340
L0L
sg3341
g3344
ssS'cacheresredir'
p3347
(dp3348
g3335
I1
sg3340
L0L
sg3341
g3344
ssS'cacheexp'
p3349
(dp3350
g3335
I10
sg3340
L1L
sg3341
S'yes'
p3351
ssS'gzip'
p3352
(dp3353
g3335
I10
sg3340
L1L
sg3341
g3351
ssS'prefetch'
p3354
(dp3355
g3335
I1
sg3340
L0L
sg3341
g3344
ssS'cacheredir'
p3356
(dp3357
g3335
I1
sg3340
L0L
sg3341
g3344
ssS'parsheet'
p3358
(dp3359
g3335
I1
sg3340
L0L
sg3341
g3344
ssS'du'
p3360
(dp3361
g3335
I1
sg3340
L0L
sg3341
g3344
ssS'hostconn'
p3362
(dp3363
g3335
I10
sg3340
L6L
sg3341
g272
sssg3341
S'3/11'
p3364
ssVNokia 6620
p3365
(dp3366
S'total_runs'
p3367
L1L
sS'score'
p3368
I8
sS'results'
p3369
(dp3370
S'maxconn'
p3371
(dp3372
g3368
I10
sS'median'
p3373
L30L
sS'display'
p3374
S'30'
p3375
ssS'parscript'
p3376
(dp3377
g3368
I1
sg3373
L0L
sg3374
S'no'
p3378
ssS'parcssjs'
p3379
(dp3380
g3368
I1
sg3373
L0L
sg3374
g3378
ssS'cacheresredir'
p3381
(dp3382
g3368
I10
sg3373
L1L
sg3374
S'yes'
p3383
ssS'cacheexp'
p3384
(dp3385
g3368
I10
sg3373
L1L
sg3374
g3383
ssS'gzip'
p3386
(dp3387
g3368
I10
sg3373
L1L
sg3374
g3383
ssS'prefetch'
p3388
(dp3389
g3368
I10
sg3373
L1L
sg3374
g3383
ssS'cacheredir'
p3390
(dp3391
g3368
I10
sg3373
L1L
sg3374
g3383
ssS'parsheet'
p3392
(dp3393
g3368
I10
sg3373
L1L
sg3374
g3383
ssS'du'
p3394
(dp3395
g3368
I10
sg3373
L1L
sg3374
g3383
ssS'hostconn'
p3396
(dp3397
g3368
I10
sg3373
L4L
sg3374
g11
sssg3374
S'9/11'
p3398
ssVOpera 9.61
p3399
(dp3400
S'total_runs'
p3401
L166L
sS'score'
p3402
I4
sS'results'
p3403
(dp3404
S'maxconn'
p3405
(dp3406
g3402
I5
sS'median'
p3407
L20L
sS'display'
p3408
S'20'
p3409
ssS'parscript'
p3410
(dp3411
g3402
I1
sg3407
L0L
sg3408
S'no'
p3412
ssS'parcssjs'
p3413
(dp3414
g3402
I1
sg3407
L0L
sg3408
g3412
ssS'cacheresredir'
p3415
(dp3416
g3402
I1
sg3407
L0L
sg3408
g3412
ssS'cacheexp'
p3417
(dp3418
g3402
I10
sg3407
L1L
sg3408
S'yes'
p3419
ssS'gzip'
p3420
(dp3421
g3402
I10
sg3407
L1L
sg3408
g3419
ssS'prefetch'
p3422
(dp3423
g3402
I1
sg3407
L0L
sg3408
g3412
ssS'cacheredir'
p3424
(dp3425
g3402
I1
sg3407
L0L
sg3408
g3412
ssS'parsheet'
p3426
(dp3427
g3402
I10
sg3407
L1L
sg3408
g3419
ssS'du'
p3428
(dp3429
g3402
I10
sg3407
L1L
sg3408
g3419
ssS'hostconn'
p3430
(dp3431
g3402
I10
sg3407
L4L
sg3408
g11
sssg3408
S'5/11'
p3432
ssVSwiftfox 3.0
p3433
(dp3434
S'total_runs'
p3435
L6L
sS'score'
p3436
I7
sS'results'
p3437
(dp3438
S'maxconn'
p3439
(dp3440
g3436
I10
sS'median'
p3441
L32L
sS'display'
p3442
S'32'
p3443
ssS'parscript'
p3444
(dp3445
g3436
I1
sg3441
L0L
sg3442
S'no'
p3446
ssS'parcssjs'
p3447
(dp3448
g3436
I1
sg3441
L0L
sg3442
g3446
ssS'cacheresredir'
p3449
(dp3450
g3436
I10
sg3441
L1L
sg3442
S'yes'
p3451
ssS'cacheexp'
p3452
(dp3453
g3436
I10
sg3441
L1L
sg3442
g3451
ssS'gzip'
p3454
(dp3455
g3436
I10
sg3441
L1L
sg3442
g3451
ssS'prefetch'
p3456
(dp3457
g3436
I10
sg3441
L1L
sg3442
g3451
ssS'cacheredir'
p3458
(dp3459
g3436
I1
sg3441
L0L
sg3442
g3446
ssS'parsheet'
p3460
(dp3461
g3436
I10
sg3441
L1L
sg3442
g3451
ssS'du'
p3462
(dp3463
g3436
I10
sg3441
L1L
sg3442
g3451
ssS'hostconn'
p3464
(dp3465
g3436
I10
sg3441
L6L
sg3442
g272
sssg3442
S'8/11'
p3466
ssViCab 5.0
p3467
(dp3468
S'total_runs'
p3469
L2L
sS'score'
p3470
I3
sS'results'
p3471
(dp3472
S'maxconn'
p3473
(dp3474
g3470
I5
sS'median'
p3475
L12L
sS'display'
p3476
S'12'
p3477
ssS'parscript'
p3478
(dp3479
g3470
I1
sg3475
L0L
sg3476
S'no'
p3480
ssS'parcssjs'
p3481
(dp3482
g3470
I1
sg3475
L0L
sg3476
g3480
ssS'cacheresredir'
p3483
(dp3484
g3470
I10
sg3475
L1L
sg3476
S'yes'
p3485
ssS'cacheexp'
p3486
(dp3487
g3470
I10
sg3475
L1L
sg3476
g3485
ssS'gzip'
p3488
(dp3489
g3470
I1
sg3475
L0L
sg3476
g3480
ssS'prefetch'
p3490
(dp3491
g3470
I1
sg3475
L0L
sg3476
g3480
ssS'cacheredir'
p3492
(dp3493
g3470
I1
sg3475
L0L
sg3476
g3480
ssS'parsheet'
p3494
(dp3495
g3470
I1
sg3475
L0L
sg3476
g3480
ssS'du'
p3496
(dp3497
g3470
I10
sg3475
L1L
sg3476
g3485
ssS'hostconn'
p3498
(dp3499
g3470
I10
sg3475
L12L
sg3476
S'12'
p3500
sssg3476
S'4/11'
p3501
ssVANTGalio 2.2
p3502
(dp3503
S'total_runs'
p3504
L2L
sS'score'
p3505
I3
sS'results'
p3506
(dp3507
S'maxconn'
p3508
(dp3509
g3505
I10
sS'median'
p3510
L53L
sS'display'
p3511
S'53'
p3512
ssS'parscript'
p3513
(dp3514
g3505
I1
sg3510
L0L
sg3511
S'no'
p3515
ssS'parcssjs'
p3516
(dp3517
g3505
I1
sg3510
L0L
sg3511
g3515
ssS'cacheresredir'
p3518
(dp3519
g3505
I1
sg3510
L0L
sg3511
g3515
ssS'cacheexp'
p3520
(dp3521
g3505
I1
sg3510
L0L
sg3511
g3515
ssS'gzip'
p3522
(dp3523
g3505
I1
sg3510
L0L
sg3511
g3515
ssS'prefetch'
p3524
(dp3525
g3505
I1
sg3510
L0L
sg3511
g3515
ssS'cacheredir'
p3526
(dp3527
g3505
I1
sg3510
L0L
sg3511
g3515
ssS'parsheet'
p3528
(dp3529
g3505
I1
sg3510
L0L
sg3511
g3515
ssS'du'
p3530
(dp3531
g3505
I10
sg3510
L1L
sg3511
S'yes'
p3532
ssS'hostconn'
p3533
(dp3534
g3505
I10
sg3510
L7L
sg3511
g113
sssg3511
S'3/11'
p3535
ssVOpera 8.65
p3536
(dp3537
S'total_runs'
p3538
L2L
sS'score'
p3539
I3
sS'results'
p3540
(dp3541
S'maxconn'
p3542
(dp3543
g3539
I0
sS'median'
p3544
L0L
sS'display'
p3545
g46
ssS'parscript'
p3546
(dp3547
g3539
I1
sg3544
L0L
sg3545
S'no'
p3548
ssS'parcssjs'
p3549
(dp3550
g3539
I1
sg3544
L0L
sg3545
g3548
ssS'cacheresredir'
p3551
(dp3552
g3539
I1
sg3544
L0L
sg3545
g3548
ssS'cacheexp'
p3553
(dp3554
g3539
I10
sg3544
L1L
sg3545
S'yes'
p3555
ssS'gzip'
p3556
(dp3557
g3539
I1
sg3544
L0L
sg3545
g3548
ssS'prefetch'
p3558
(dp3559
g3539
I1
sg3544
L0L
sg3545
g3548
ssS'cacheredir'
p3560
(dp3561
g3539
I1
sg3544
L0L
sg3545
g3548
ssS'parsheet'
p3562
(dp3563
g3539
I10
sg3544
L1L
sg3545
g3555
ssS'du'
p3564
(dp3565
g3539
I10
sg3544
L1L
sg3545
g3555
ssS'hostconn'
p3566
(dp3567
g3539
I5
sg3544
L2L
sg3545
g34
sssg3545
S'3/11'
p3568
ssVOpera 9.52
p3569
(dp3570
S'total_runs'
p3571
L105L
sS'score'
p3572
I4
sS'results'
p3573
(dp3574
S'maxconn'
p3575
(dp3576
g3572
I5
sS'median'
p3577
L20L
sS'display'
p3578
S'20'
p3579
ssS'parscript'
p3580
(dp3581
g3572
I1
sg3577
L0L
sg3578
S'no'
p3582
ssS'parcssjs'
p3583
(dp3584
g3572
I1
sg3577
L0L
sg3578
g3582
ssS'cacheresredir'
p3585
(dp3586
g3572
I1
sg3577
L0L
sg3578
g3582
ssS'cacheexp'
p3587
(dp3588
g3572
I10
sg3577
L1L
sg3578
S'yes'
p3589
ssS'gzip'
p3590
(dp3591
g3572
I10
sg3577
L1L
sg3578
g3589
ssS'prefetch'
p3592
(dp3593
g3572
I1
sg3577
L0L
sg3578
g3582
ssS'cacheredir'
p3594
(dp3595
g3572
I1
sg3577
L0L
sg3578
g3582
ssS'parsheet'
p3596
(dp3597
g3572
I10
sg3577
L1L
sg3578
g3589
ssS'du'
p3598
(dp3599
g3572
I10
sg3577
L1L
sg3578
g3589
ssS'hostconn'
p3600
(dp3601
g3572
I10
sg3577
L4L
sg3578
g11
sssg3578
S'5/11'
p3602
ssVOpera 9.51
p3603
(dp3604
S'total_runs'
p3605
L63L
sS'score'
p3606
I4
sS'results'
p3607
(dp3608
S'maxconn'
p3609
(dp3610
g3606
I5
sS'median'
p3611
L20L
sS'display'
p3612
S'20'
p3613
ssS'parscript'
p3614
(dp3615
g3606
I1
sg3611
L0L
sg3612
S'no'
p3616
ssS'parcssjs'
p3617
(dp3618
g3606
I1
sg3611
L0L
sg3612
g3616
ssS'cacheresredir'
p3619
(dp3620
g3606
I1
sg3611
L0L
sg3612
g3616
ssS'cacheexp'
p3621
(dp3622
g3606
I10
sg3611
L1L
sg3612
S'yes'
p3623
ssS'gzip'
p3624
(dp3625
g3606
I10
sg3611
L1L
sg3612
g3623
ssS'prefetch'
p3626
(dp3627
g3606
I1
sg3611
L0L
sg3612
g3616
ssS'cacheredir'
p3628
(dp3629
g3606
I1
sg3611
L0L
sg3612
g3616
ssS'parsheet'
p3630
(dp3631
g3606
I10
sg3611
L1L
sg3612
g3623
ssS'du'
p3632
(dp3633
g3606
I10
sg3611
L1L
sg3612
g3623
ssS'hostconn'
p3634
(dp3635
g3606
I10
sg3611
L4L
sg3612
g11
sssg3612
S'5/11'
p3636
ssVOpera 9.50
p3637
(dp3638
S'total_runs'
p3639
L44L
sS'score'
p3640
I4
sS'results'
p3641
(dp3642
S'maxconn'
p3643
(dp3644
g3640
I5
sS'median'
p3645
L18L
sS'display'
p3646
S'18'
p3647
ssS'parscript'
p3648
(dp3649
g3640
I1
sg3645
L0L
sg3646
S'no'
p3650
ssS'parcssjs'
p3651
(dp3652
g3640
I1
sg3645
L0L
sg3646
g3650
ssS'cacheresredir'
p3653
(dp3654
g3640
I1
sg3645
L0L
sg3646
g3650
ssS'cacheexp'
p3655
(dp3656
g3640
I10
sg3645
L1L
sg3646
S'yes'
p3657
ssS'gzip'
p3658
(dp3659
g3640
I10
sg3645
L1L
sg3646
g3657
ssS'prefetch'
p3660
(dp3661
g3640
I1
sg3645
L0L
sg3646
g3650
ssS'cacheredir'
p3662
(dp3663
g3640
I1
sg3645
L0L
sg3646
g3650
ssS'parsheet'
p3664
(dp3665
g3640
I10
sg3645
L1L
sg3646
g3657
ssS'du'
p3666
(dp3667
g3640
I10
sg3645
L1L
sg3646
g3657
ssS'hostconn'
p3668
(dp3669
g3640
I10
sg3645
L4L
sg3646
g11
sssg3646
S'5/11'
p3670
ssVIE Mobile 8.12
p3671
(dp3672
S'total_runs'
p3673
L2L
sS'score'
p3674
I3
sS'results'
p3675
(dp3676
S'maxconn'
p3677
(dp3678
g3674
I5
sS'median'
p3679
L15L
sS'display'
p3680
S'15'
p3681
ssS'parscript'
p3682
(dp3683
g3674
I1
sg3679
L0L
sg3680
S'no'
p3684
ssS'parcssjs'
p3685
(dp3686
g3674
I1
sg3679
L0L
sg3680
g3684
ssS'cacheresredir'
p3687
(dp3688
g3674
I1
sg3679
L0L
sg3680
g3684
ssS'cacheexp'
p3689
(dp3690
g3674
I10
sg3679
L1L
sg3680
S'yes'
p3691
ssS'gzip'
p3692
(dp3693
g3674
I10
sg3679
L1L
sg3680
g3691
ssS'prefetch'
p3694
(dp3695
g3674
I1
sg3679
L0L
sg3680
g3684
ssS'cacheredir'
p3696
(dp3697
g3674
I1
sg3679
L0L
sg3680
g3684
ssS'parsheet'
p3698
(dp3699
g3674
I10
sg3679
L1L
sg3680
g3691
ssS'du'
p3700
(dp3701
g3674
I1
sg3679
L0L
sg3680
g3684
ssS'hostconn'
p3702
(dp3703
g3674
I10
sg3679
L4L
sg3680
g11
sssg3680
S'4/11'
p3704
ssVOpera 10.10
p3705
(dp3706
S'total_runs'
p3707
L14L
sS'score'
p3708
I6
sS'results'
p3709
(dp3710
S'maxconn'
p3711
(dp3712
g3708
I10
sS'median'
p3713
L60L
sS'display'
p3714
S'60'
p3715
ssS'parscript'
p3716
(dp3717
g3708
I1
sg3713
L0L
sg3714
S'no'
p3718
ssS'parcssjs'
p3719
(dp3720
g3708
I1
sg3713
L0L
sg3714
g3718
ssS'cacheresredir'
p3721
(dp3722
g3708
I10
sg3713
L1L
sg3714
S'yes'
p3723
ssS'cacheexp'
p3724
(dp3725
g3708
I10
sg3713
L1L
sg3714
g3723
ssS'gzip'
p3726
(dp3727
g3708
I10
sg3713
L1L
sg3714
g3723
ssS'prefetch'
p3728
(dp3729
g3708
I1
sg3713
L0L
sg3714
g3718
ssS'cacheredir'
p3730
(dp3731
g3708
I1
sg3713
L0L
sg3714
g3718
ssS'parsheet'
p3732
(dp3733
g3708
I10
sg3713
L1L
sg3714
g3723
ssS'du'
p3734
(dp3735
g3708
I10
sg3713
L1L
sg3714
g3723
ssS'hostconn'
p3736
(dp3737
g3708
I10
sg3713
L8L
sg3714
g147
sssg3714
S'7/11'
p3738
ssVChrome 0.4
p3739
(dp3740
S'total_runs'
p3741
L352L
sS'score'
p3742
I7
sS'results'
p3743
(dp3744
S'maxconn'
p3745
(dp3746
g3742
I10
sS'median'
p3747
L60L
sS'display'
p3748
S'60'
p3749
ssS'parscript'
p3750
(dp3751
g3742
I1
sg3747
L0L
sg3748
S'no'
p3752
ssS'parcssjs'
p3753
(dp3754
g3742
I1
sg3747
L0L
sg3748
g3752
ssS'cacheresredir'
p3755
(dp3756
g3742
I10
sg3747
L1L
sg3748
S'yes'
p3757
ssS'cacheexp'
p3758
(dp3759
g3742
I10
sg3747
L1L
sg3748
g3757
ssS'gzip'
p3760
(dp3761
g3742
I10
sg3747
L1L
sg3748
g3757
ssS'prefetch'
p3762
(dp3763
g3742
I1
sg3747
L0L
sg3748
g3752
ssS'cacheredir'
p3764
(dp3765
g3742
I10
sg3747
L1L
sg3748
g3757
ssS'parsheet'
p3766
(dp3767
g3742
I10
sg3747
L1L
sg3748
g3757
ssS'du'
p3768
(dp3769
g3742
I10
sg3747
L1L
sg3748
g3757
ssS'hostconn'
p3770
(dp3771
g3742
I10
sg3747
L6L
sg3748
g272
sssg3748
S'8/11'
p3772
ssVVodafone 1.0
p3773
(dp3774
S'total_runs'
p3775
L2L
sS'score'
p3776
I3
sS'results'
p3777
(dp3778
S'maxconn'
p3779
(dp3780
g3776
I0
sS'median'
p3781
L0L
sS'display'
p3782
g46
ssS'parscript'
p3783
(dp3784
g3776
I1
sg3781
L0L
sg3782
S'no'
p3785
ssS'parcssjs'
p3786
(dp3787
g3776
I1
sg3781
L0L
sg3782
g3785
ssS'cacheresredir'
p3788
(dp3789
g3776
I10
sg3781
L1L
sg3782
S'yes'
p3790
ssS'cacheexp'
p3791
(dp3792
g3776
I10
sg3781
L1L
sg3782
g3790
ssS'gzip'
p3793
(dp3794
g3776
I1
sg3781
L0L
sg3782
g3785
ssS'prefetch'
p3795
(dp3796
g3776
I1
sg3781
L0L
sg3782
g3785
ssS'cacheredir'
p3797
(dp3798
g3776
I1
sg3781
L0L
sg3782
g3785
ssS'parsheet'
p3799
(dp3800
g3776
I10
sg3781
L1L
sg3782
g3790
ssS'du'
p3801
(dp3802
g3776
I10
sg3781
L1L
sg3782
g3790
ssS'hostconn'
p3803
(dp3804
g3776
I0
sg3781
L0L
sg3782
g46
sssg3782
S'4/11'
p3805
ssVSleipnir 2.8
p3806
(dp3807
S'total_runs'
p3808
L11L
sS'score'
p3809
I4
sS'results'
p3810
(dp3811
S'maxconn'
p3812
(dp3813
g3809
I10
sS'median'
p3814
L60L
sS'display'
p3815
S'60'
p3816
ssS'parscript'
p3817
(dp3818
g3809
I1
sg3814
L0L
sg3815
S'no'
p3819
ssS'parcssjs'
p3820
(dp3821
g3809
I1
sg3814
L0L
sg3815
g3819
ssS'cacheresredir'
p3822
(dp3823
g3809
I1
sg3814
L0L
sg3815
g3819
ssS'cacheexp'
p3824
(dp3825
g3809
I10
sg3814
L1L
sg3815
S'yes'
p3826
ssS'gzip'
p3827
(dp3828
g3809
I10
sg3814
L1L
sg3815
g3826
ssS'prefetch'
p3829
(dp3830
g3809
I1
sg3814
L0L
sg3815
g3819
ssS'cacheredir'
p3831
(dp3832
g3809
I1
sg3814
L0L
sg3815
g3819
ssS'parsheet'
p3833
(dp3834
g3809
I10
sg3814
L1L
sg3815
g3826
ssS'du'
p3835
(dp3836
g3809
I1
sg3814
L0L
sg3815
g3819
ssS'hostconn'
p3837
(dp3838
g3809
I10
sg3814
L6L
sg3815
g272
sssg3815
S'5/11'
p3839
ssVIE 8.0
p3840
(dp3841
S'total_runs'
p3842
L340L
sS'score'
p3843
I6
sS'results'
p3844
(dp3845
S'maxconn'
p3846
(dp3847
g3843
I10
sS'median'
p3848
L60L
sS'display'
p3849
S'60'
p3850
ssS'parscript'
p3851
(dp3852
g3843
I10
sg3848
L1L
sg3849
S'yes'
p3853
ssS'parcssjs'
p3854
(dp3855
g3843
I1
sg3848
L0L
sg3849
S'no'
p3856
ssS'cacheresredir'
p3857
(dp3858
g3843
I1
sg3848
L0L
sg3849
g3856
ssS'cacheexp'
p3859
(dp3860
g3843
I10
sg3848
L1L
sg3849
g3853
ssS'gzip'
p3861
(dp3862
g3843
I10
sg3848
L1L
sg3849
g3853
ssS'prefetch'
p3863
(dp3864
g3843
I1
sg3848
L0L
sg3849
g3856
ssS'cacheredir'
p3865
(dp3866
g3843
I1
sg3848
L0L
sg3849
g3856
ssS'parsheet'
p3867
(dp3868
g3843
I10
sg3848
L1L
sg3849
g3853
ssS'du'
p3869
(dp3870
g3843
I10
sg3848
L1L
sg3849
g3853
ssS'hostconn'
p3871
(dp3872
g3843
I10
sg3848
L6L
sg3849
g272
sssg3849
S'7/11'
p3873
ssViPhone 3.1
p3874
(dp3875
S'total_runs'
p3876
L4L
sS'score'
p3877
I7
sS'results'
p3878
(dp3879
S'maxconn'
p3880
(dp3881
g3877
I10
sS'median'
p3882
L60L
sS'display'
p3883
S'60'
p3884
ssS'parscript'
p3885
(dp3886
g3877
I10
sg3882
L1L
sg3883
S'yes'
p3887
ssS'parcssjs'
p3888
(dp3889
g3877
I1
sg3882
L0L
sg3883
S'no'
p3890
ssS'cacheresredir'
p3891
(dp3892
g3877
I10
sg3882
L1L
sg3883
g3887
ssS'cacheexp'
p3893
(dp3894
g3877
I10
sg3882
L1L
sg3883
g3887
ssS'gzip'
p3895
(dp3896
g3877
I10
sg3882
L1L
sg3883
g3887
ssS'prefetch'
p3897
(dp3898
g3877
I1
sg3882
L0L
sg3883
g3890
ssS'cacheredir'
p3899
(dp3900
g3877
I1
sg3882
L0L
sg3883
g3890
ssS'parsheet'
p3901
(dp3902
g3877
I10
sg3882
L1L
sg3883
g3887
ssS'du'
p3903
(dp3904
g3877
I10
sg3882
L1L
sg3883
g3887
ssS'hostconn'
p3905
(dp3906
g3877
I10
sg3882
L6L
sg3883
g272
sssg3883
S'8/11'
p3907
ssVNetNewsWire 3.1
p3908
(dp3909
S'total_runs'
p3910
L18L
sS'score'
p3911
I6
sS'results'
p3912
(dp3913
S'maxconn'
p3914
(dp3915
g3911
I10
sS'median'
p3916
L60L
sS'display'
p3917
S'60'
p3918
ssS'parscript'
p3919
(dp3920
g3911
I1
sg3916
L0L
sg3917
S'no'
p3921
ssS'parcssjs'
p3922
(dp3923
g3911
I1
sg3916
L0L
sg3917
g3921
ssS'cacheresredir'
p3924
(dp3925
g3911
I10
sg3916
L1L
sg3917
S'yes'
p3926
ssS'cacheexp'
p3927
(dp3928
g3911
I10
sg3916
L1L
sg3917
g3926
ssS'gzip'
p3929
(dp3930
g3911
I10
sg3916
L1L
sg3917
g3926
ssS'prefetch'
p3931
(dp3932
g3911
I1
sg3916
L0L
sg3917
g3921
ssS'cacheredir'
p3933
(dp3934
g3911
I1
sg3916
L0L
sg3917
g3921
ssS'parsheet'
p3935
(dp3936
g3911
I10
sg3916
L1L
sg3917
g3926
ssS'du'
p3937
(dp3938
g3911
I10
sg3916
L1L
sg3917
g3926
ssS'hostconn'
p3939
(dp3940
g3911
I10
sg3916
L4L
sg3917
g11
sssg3917
S'7/11'
p3941
ssVNetscape 7.1
p3942
(dp3943
S'total_runs'
p3944
L1L
sS'score'
p3945
I3
sS'results'
p3946
(dp3947
S'maxconn'
p3948
(dp3949
g3945
I10
sS'median'
p3950
L24L
sS'display'
p3951
S'24'
p3952
ssS'parscript'
p3953
(dp3954
g3945
I1
sg3950
L0L
sg3951
S'no'
p3955
ssS'parcssjs'
p3956
(dp3957
g3945
I1
sg3950
L0L
sg3951
g3955
ssS'cacheresredir'
p3958
(dp3959
g3945
I1
sg3950
L0L
sg3951
g3955
ssS'cacheexp'
p3960
(dp3961
g3945
I1
sg3950
L0L
sg3951
g3955
ssS'gzip'
p3962
(dp3963
g3945
I10
sg3950
L1L
sg3951
S'yes'
p3964
ssS'prefetch'
p3965
(dp3966
g3945
I1
sg3950
L0L
sg3951
g3955
ssS'cacheredir'
p3967
(dp3968
g3945
I1
sg3950
L0L
sg3951
g3955
ssS'parsheet'
p3969
(dp3970
g3945
I1
sg3950
L0L
sg3951
g3955
ssS'du'
p3971
(dp3972
g3945
I10
sg3950
L1L
sg3951
g3964
ssS'hostconn'
p3973
(dp3974
g3945
I5
sg3950
L2L
sg3951
g34
sssg3951
S'3/11'
p3975
ssVOpera 9.64
p3976
(dp3977
S'total_runs'
p3978
L950L
sS'score'
p3979
I5
sS'results'
p3980
(dp3981
S'maxconn'
p3982
(dp3983
g3979
I10
sS'median'
p3984
L59L
sS'display'
p3985
S'59'
p3986
ssS'parscript'
p3987
(dp3988
g3979
I1
sg3984
L0L
sg3985
S'no'
p3989
ssS'parcssjs'
p3990
(dp3991
g3979
I1
sg3984
L0L
sg3985
g3989
ssS'cacheresredir'
p3992
(dp3993
g3979
I1
sg3984
L0L
sg3985
g3989
ssS'cacheexp'
p3994
(dp3995
g3979
I10
sg3984
L1L
sg3985
S'yes'
p3996
ssS'gzip'
p3997
(dp3998
g3979
I10
sg3984
L1L
sg3985
g3996
ssS'prefetch'
p3999
(dp4000
g3979
I1
sg3984
L0L
sg3985
g3989
ssS'cacheredir'
p4001
(dp4002
g3979
I1
sg3984
L0L
sg3985
g3989
ssS'parsheet'
p4003
(dp4004
g3979
I10
sg3984
L1L
sg3985
g3996
ssS'du'
p4005
(dp4006
g3979
I10
sg3984
L1L
sg3985
g3996
ssS'hostconn'
p4007
(dp4008
g3979
I10
sg3984
L8L
sg3985
g147
sssg3985
S'6/11'
p4009
ssVSafari 4.0
p4010
(dp4011
S'total_runs'
p4012
L412L
sS'score'
p4013
I7
sS'results'
p4014
(dp4015
S'maxconn'
p4016
(dp4017
g4013
I10
sS'median'
p4018
L60L
sS'display'
p4019
S'60'
p4020
ssS'parscript'
p4021
(dp4022
g4013
I10
sg4018
L1L
sg4019
S'yes'
p4023
ssS'parcssjs'
p4024
(dp4025
g4013
I1
sg4018
L0L
sg4019
S'no'
p4026
ssS'cacheresredir'
p4027
(dp4028
g4013
I10
sg4018
L1L
sg4019
g4023
ssS'cacheexp'
p4029
(dp4030
g4013
I10
sg4018
L1L
sg4019
g4023
ssS'gzip'
p4031
(dp4032
g4013
I10
sg4018
L1L
sg4019
g4023
ssS'prefetch'
p4033
(dp4034
g4013
I1
sg4018
L0L
sg4019
g4026
ssS'cacheredir'
p4035
(dp4036
g4013
I1
sg4018
L0L
sg4019
g4026
ssS'parsheet'
p4037
(dp4038
g4013
I10
sg4018
L1L
sg4019
g4023
ssS'du'
p4039
(dp4040
g4013
I10
sg4018
L1L
sg4019
g4023
ssS'hostconn'
p4041
(dp4042
g4013
I10
sg4018
L4L
sg4019
g11
sssg4019
S'8/11'
p4043
ssVK-Meleon 1.1
p4044
(dp4045
S'total_runs'
p4046
L2L
sS'score'
p4047
I6
sS'results'
p4048
(dp4049
S'maxconn'
p4050
(dp4051
g4047
I10
sS'median'
p4052
L24L
sS'display'
p4053
S'24'
p4054
ssS'parscript'
p4055
(dp4056
g4047
I1
sg4052
L0L
sg4053
S'no'
p4057
ssS'parcssjs'
p4058
(dp4059
g4047
I1
sg4052
L0L
sg4053
g4057
ssS'cacheresredir'
p4060
(dp4061
g4047
I10
sg4052
L1L
sg4053
S'yes'
p4062
ssS'cacheexp'
p4063
(dp4064
g4047
I10
sg4052
L1L
sg4053
g4062
ssS'gzip'
p4065
(dp4066
g4047
I10
sg4052
L1L
sg4053
g4062
ssS'prefetch'
p4067
(dp4068
g4047
I10
sg4052
L1L
sg4053
g4062
ssS'cacheredir'
p4069
(dp4070
g4047
I10
sg4052
L1L
sg4053
g4062
ssS'parsheet'
p4071
(dp4072
g4047
I1
sg4052
L0L
sg4053
g4057
ssS'du'
p4073
(dp4074
g4047
I10
sg4052
L1L
sg4053
g4062
ssS'hostconn'
p4075
(dp4076
g4047
I5
sg4052
L2L
sg4053
g34
sssg4053
S'7/11'
p4077
ssVPalm Blazer 4.5
p4078
(dp4079
S'total_runs'
p4080
L1L
sS'score'
p4081
I2
sS'results'
p4082
(dp4083
S'maxconn'
p4084
(dp4085
g4081
I0
sS'median'
p4086
L0L
sS'display'
p4087
g46
ssS'parscript'
p4088
(dp4089
g4081
I1
sg4086
L0L
sg4087
S'no'
p4090
ssS'parcssjs'
p4091
(dp4092
g4081
I1
sg4086
L0L
sg4087
g4090
ssS'cacheresredir'
p4093
(dp4094
g4081
I1
sg4086
L0L
sg4087
g4090
ssS'cacheexp'
p4095
(dp4096
g4081
I1
sg4086
L0L
sg4087
g4090
ssS'gzip'
p4097
(dp4098
g4081
I10
sg4086
L1L
sg4087
S'yes'
p4099
ssS'prefetch'
p4100
(dp4101
g4081
I1
sg4086
L0L
sg4087
g4090
ssS'cacheredir'
p4102
(dp4103
g4081
I10
sg4086
L1L
sg4087
g4099
ssS'parsheet'
p4104
(dp4105
g4081
I1
sg4086
L0L
sg4087
g4090
ssS'du'
p4106
(dp4107
g4081
I0
sg4086
Nsg4087
g1302
ssS'hostconn'
p4108
(dp4109
g4081
I0
sg4086
L0L
sg4087
g46
sssg4087
S'2/11'
p4110
ssVChrome 0.3
p4111
(dp4112
S'total_runs'
p4113
L362L
sS'score'
p4114
I7
sS'results'
p4115
(dp4116
S'maxconn'
p4117
(dp4118
g4114
I10
sS'median'
p4119
L60L
sS'display'
p4120
S'60'
p4121
ssS'parscript'
p4122
(dp4123
g4114
I1
sg4119
L0L
sg4120
S'no'
p4124
ssS'parcssjs'
p4125
(dp4126
g4114
I1
sg4119
L0L
sg4120
g4124
ssS'cacheresredir'
p4127
(dp4128
g4114
I10
sg4119
L1L
sg4120
S'yes'
p4129
ssS'cacheexp'
p4130
(dp4131
g4114
I10
sg4119
L1L
sg4120
g4129
ssS'gzip'
p4132
(dp4133
g4114
I10
sg4119
L1L
sg4120
g4129
ssS'prefetch'
p4134
(dp4135
g4114
I1
sg4119
L0L
sg4120
g4124
ssS'cacheredir'
p4136
(dp4137
g4114
I10
sg4119
L1L
sg4120
g4129
ssS'parsheet'
p4138
(dp4139
g4114
I10
sg4119
L1L
sg4120
g4129
ssS'du'
p4140
(dp4141
g4114
I10
sg4119
L1L
sg4120
g4129
ssS'hostconn'
p4142
(dp4143
g4114
I10
sg4119
L6L
sg4120
g272
sssg4120
S'8/11'
p4144
ssVFirefox (Minefield) 3.0
p4145
(dp4146
S'total_runs'
p4147
L4L
sS'score'
p4148
I6
sS'results'
p4149
(dp4150
S'maxconn'
p4151
(dp4152
g4148
I5
sS'median'
p4153
L19L
sS'display'
p4154
S'19'
p4155
ssS'parscript'
p4156
(dp4157
g4148
I1
sg4153
L0L
sg4154
S'no'
p4158
ssS'parcssjs'
p4159
(dp4160
g4148
I1
sg4153
L0L
sg4154
g4158
ssS'cacheresredir'
p4161
(dp4162
g4148
I10
sg4153
L1L
sg4154
S'yes'
p4163
ssS'cacheexp'
p4164
(dp4165
g4148
I10
sg4153
L1L
sg4154
g4163
ssS'gzip'
p4166
(dp4167
g4148
I10
sg4153
L1L
sg4154
g4163
ssS'prefetch'
p4168
(dp4169
g4148
I10
sg4153
L1L
sg4154
g4163
ssS'cacheredir'
p4170
(dp4171
g4148
I1
sg4153
L0L
sg4154
g4158
ssS'parsheet'
p4172
(dp4173
g4148
I10
sg4153
L1L
sg4154
g4163
ssS'du'
p4174
(dp4175
g4148
I10
sg4153
L1L
sg4154
g4163
ssS'hostconn'
p4176
(dp4177
g4148
I10
sg4153
L6L
sg4154
g272
sssg4154
S'7/11'
p4178
ssVObigo
p4179
(dp4180
S'total_runs'
p4181
L5L
sS'score'
p4182
I1
sS'results'
p4183
(dp4184
S'maxconn'
p4185
(dp4186
g4182
I0
sS'median'
p4187
L0L
sS'display'
p4188
g46
ssS'parscript'
p4189
(dp4190
g4182
I1
sg4187
L0L
sg4188
S'no'
p4191
ssS'parcssjs'
p4192
(dp4193
g4182
I1
sg4187
L0L
sg4188
g4191
ssS'cacheresredir'
p4194
(dp4195
g4182
I1
sg4187
L0L
sg4188
g4191
ssS'cacheexp'
p4196
(dp4197
g4182
I10
sg4187
L1L
sg4188
S'yes'
p4198
ssS'gzip'
p4199
(dp4200
g4182
I1
sg4187
L0L
sg4188
g4191
ssS'prefetch'
p4201
(dp4202
g4182
I1
sg4187
L0L
sg4188
g4191
ssS'cacheredir'
p4203
(dp4204
g4182
I1
sg4187
L0L
sg4188
g4191
ssS'parsheet'
p4205
(dp4206
g4182
I1
sg4187
L0L
sg4188
g4191
ssS'du'
p4207
(dp4208
g4182
I1
sg4187
L0L
sg4188
g4191
ssS'hostconn'
p4209
(dp4210
g4182
I0
sg4187
L1L
sg4188
g419
sssg4188
S'1/11'
p4211
ssVKonqueror 3.4
p4212
(dp4213
S'total_runs'
p4214
L2L
sS'score'
p4215
I4
sS'results'
p4216
(dp4217
S'maxconn'
p4218
(dp4219
g4215
I0
sS'median'
p4220
L5L
sS'display'
p4221
g829
ssS'parscript'
p4222
(dp4223
g4215
I1
sg4220
L0L
sg4221
S'no'
p4224
ssS'parcssjs'
p4225
(dp4226
g4215
I1
sg4220
L0L
sg4221
g4224
ssS'cacheresredir'
p4227
(dp4228
g4215
I10
sg4220
L1L
sg4221
S'yes'
p4229
ssS'cacheexp'
p4230
(dp4231
g4215
I10
sg4220
L1L
sg4221
g4229
ssS'gzip'
p4232
(dp4233
g4215
I10
sg4220
L1L
sg4221
g4229
ssS'prefetch'
p4234
(dp4235
g4215
I1
sg4220
L0L
sg4221
g4224
ssS'cacheredir'
p4236
(dp4237
g4215
I1
sg4220
L0L
sg4221
g4224
ssS'parsheet'
p4238
(dp4239
g4215
I1
sg4220
L0L
sg4221
g4224
ssS'du'
p4240
(dp4241
g4215
I10
sg4220
L1L
sg4221
g4229
ssS'hostconn'
p4242
(dp4243
g4215
I10
sg4220
L5L
sg4221
g829
sssg4221
S'5/11'
p4244
ssVKonqueror 3.5
p4245
(dp4246
S'total_runs'
p4247
L52L
sS'score'
p4248
I5
sS'results'
p4249
(dp4250
S'maxconn'
p4251
(dp4252
g4248
I0
sS'median'
p4253
L5L
sS'display'
p4254
g829
ssS'parscript'
p4255
(dp4256
g4248
I1
sg4253
L0L
sg4254
S'no'
p4257
ssS'parcssjs'
p4258
(dp4259
g4248
I1
sg4253
L0L
sg4254
g4257
ssS'cacheresredir'
p4260
(dp4261
g4248
I10
sg4253
L1L
sg4254
S'yes'
p4262
ssS'cacheexp'
p4263
(dp4264
g4248
I10
sg4253
L1L
sg4254
g4262
ssS'gzip'
p4265
(dp4266
g4248
I10
sg4253
L1L
sg4254
g4262
ssS'prefetch'
p4267
(dp4268
g4248
I1
sg4253
L0L
sg4254
g4257
ssS'cacheredir'
p4269
(dp4270
g4248
I1
sg4253
L0L
sg4254
g4257
ssS'parsheet'
p4271
(dp4272
g4248
I10
sg4253
L1L
sg4254
g4262
ssS'du'
p4273
(dp4274
g4248
I10
sg4253
L1L
sg4254
g4262
ssS'hostconn'
p4275
(dp4276
g4248
I10
sg4253
L5L
sg4254
g829
sssg4254
S'6/11'
p4277
ssVGranParadiso 3.0
p4278
(dp4279
S'total_runs'
p4280
L44L
sS'score'
p4281
I6
sS'results'
p4282
(dp4283
S'maxconn'
p4284
(dp4285
g4281
I10
sS'median'
p4286
L30L
sS'display'
p4287
S'30'
p4288
ssS'parscript'
p4289
(dp4290
g4281
I1
sg4286
L0L
sg4287
S'no'
p4291
ssS'parcssjs'
p4292
(dp4293
g4281
I1
sg4286
L0L
sg4287
g4291
ssS'cacheresredir'
p4294
(dp4295
g4281
I1
sg4286
L0L
sg4287
g4291
ssS'cacheexp'
p4296
(dp4297
g4281
I10
sg4286
L1L
sg4287
S'yes'
p4298
ssS'gzip'
p4299
(dp4300
g4281
I10
sg4286
L1L
sg4287
g4298
ssS'prefetch'
p4301
(dp4302
g4281
I10
sg4286
L1L
sg4287
g4298
ssS'cacheredir'
p4303
(dp4304
g4281
I1
sg4286
L0L
sg4287
g4291
ssS'parsheet'
p4305
(dp4306
g4281
I10
sg4286
L1L
sg4287
g4298
ssS'du'
p4307
(dp4308
g4281
I10
sg4286
L1L
sg4287
g4298
ssS'hostconn'
p4309
(dp4310
g4281
I10
sg4286
L6L
sg4287
g272
sssg4287
S'7/11'
p4311
ssVOpera 9.10
p4312
(dp4313
S'total_runs'
p4314
L4L
sS'score'
p4315
I4
sS'results'
p4316
(dp4317
S'maxconn'
p4318
(dp4319
g4315
I5
sS'median'
p4320
L20L
sS'display'
p4321
S'20'
p4322
ssS'parscript'
p4323
(dp4324
g4315
I1
sg4320
L0L
sg4321
S'no'
p4325
ssS'parcssjs'
p4326
(dp4327
g4315
I1
sg4320
L0L
sg4321
g4325
ssS'cacheresredir'
p4328
(dp4329
g4315
I1
sg4320
L0L
sg4321
g4325
ssS'cacheexp'
p4330
(dp4331
g4315
I10
sg4320
L1L
sg4321
S'yes'
p4332
ssS'gzip'
p4333
(dp4334
g4315
I10
sg4320
L1L
sg4321
g4332
ssS'prefetch'
p4335
(dp4336
g4315
I1
sg4320
L0L
sg4321
g4325
ssS'cacheredir'
p4337
(dp4338
g4315
I1
sg4320
L0L
sg4321
g4325
ssS'parsheet'
p4339
(dp4340
g4315
I10
sg4320
L1L
sg4321
g4332
ssS'du'
p4341
(dp4342
g4315
I10
sg4320
L1L
sg4321
g4332
ssS'hostconn'
p4343
(dp4344
g4315
I10
sg4320
L4L
sg4321
g11
sssg4321
S'5/11'
p4345
ssVIron 3.0
p4346
(dp4347
S'total_runs'
p4348
L15L
sS'score'
p4349
I8
sS'results'
p4350
(dp4351
S'maxconn'
p4352
(dp4353
g4349
I10
sS'median'
p4354
L60L
sS'display'
p4355
S'60'
p4356
ssS'parscript'
p4357
(dp4358
g4349
I10
sg4354
L1L
sg4355
S'yes'
p4359
ssS'parcssjs'
p4360
(dp4361
g4349
I1
sg4354
L0L
sg4355
S'no'
p4362
ssS'cacheresredir'
p4363
(dp4364
g4349
I10
sg4354
L1L
sg4355
g4359
ssS'cacheexp'
p4365
(dp4366
g4349
I10
sg4354
L1L
sg4355
g4359
ssS'gzip'
p4367
(dp4368
g4349
I10
sg4354
L1L
sg4355
g4359
ssS'prefetch'
p4369
(dp4370
g4349
I1
sg4354
L0L
sg4355
g4362
ssS'cacheredir'
p4371
(dp4372
g4349
I10
sg4354
L1L
sg4355
g4359
ssS'parsheet'
p4373
(dp4374
g4349
I10
sg4354
L1L
sg4355
g4359
ssS'du'
p4375
(dp4376
g4349
I10
sg4354
L1L
sg4355
g4359
ssS'hostconn'
p4377
(dp4378
g4349
I10
sg4354
L6L
sg4355
g272
sssg4355
S'9/11'
p4379
ssVOpera 8.50
p4380
(dp4381
S'total_runs'
p4382
L1L
sS'score'
p4383
I4
sS'results'
p4384
(dp4385
S'maxconn'
p4386
(dp4387
g4383
I5
sS'median'
p4388
L20L
sS'display'
p4389
S'20'
p4390
ssS'parscript'
p4391
(dp4392
g4383
I1
sg4388
L0L
sg4389
S'no'
p4393
ssS'parcssjs'
p4394
(dp4395
g4383
I1
sg4388
L0L
sg4389
g4393
ssS'cacheresredir'
p4396
(dp4397
g4383
I1
sg4388
L0L
sg4389
g4393
ssS'cacheexp'
p4398
(dp4399
g4383
I10
sg4388
L1L
sg4389
S'yes'
p4400
ssS'gzip'
p4401
(dp4402
g4383
I10
sg4388
L1L
sg4389
g4400
ssS'prefetch'
p4403
(dp4404
g4383
I1
sg4388
L0L
sg4389
g4393
ssS'cacheredir'
p4405
(dp4406
g4383
I1
sg4388
L0L
sg4389
g4393
ssS'parsheet'
p4407
(dp4408
g4383
I10
sg4388
L1L
sg4389
g4400
ssS'du'
p4409
(dp4410
g4383
I10
sg4388
L1L
sg4389
g4400
ssS'hostconn'
p4411
(dp4412
g4383
I10
sg4388
L8L
sg4389
g147
sssg4389
S'5/11'
p4413
ssVIE 5.01
p4414
(dp4415
S'total_runs'
p4416
L7L
sS'score'
p4417
I4
sS'results'
p4418
(dp4419
S'maxconn'
p4420
(dp4421
g4417
I10
sS'median'
p4422
L60L
sS'display'
p4423
S'60'
p4424
ssS'parscript'
p4425
(dp4426
g4417
I1
sg4422
L0L
sg4423
S'no'
p4427
ssS'parcssjs'
p4428
(dp4429
g4417
I1
sg4422
L0L
sg4423
g4427
ssS'cacheresredir'
p4430
(dp4431
g4417
I1
sg4422
L0L
sg4423
g4427
ssS'cacheexp'
p4432
(dp4433
g4417
I10
sg4422
L1L
sg4423
S'yes'
p4434
ssS'gzip'
p4435
(dp4436
g4417
I10
sg4422
L1L
sg4423
g4434
ssS'prefetch'
p4437
(dp4438
g4417
I1
sg4422
L0L
sg4423
g4427
ssS'cacheredir'
p4439
(dp4440
g4417
I1
sg4422
L0L
sg4423
g4427
ssS'parsheet'
p4441
(dp4442
g4417
I10
sg4422
L1L
sg4423
g4434
ssS'du'
p4443
(dp4444
g4417
I1
sg4422
L0L
sg4423
g4427
ssS'hostconn'
p4445
(dp4446
g4417
I10
sg4422
L4L
sg4423
g11
sssg4423
S'5/11'
p4447
ssVLunascape 5.0
p4448
(dp4449
S'total_runs'
p4450
L30L
sS'score'
p4451
I7
sS'results'
p4452
(dp4453
S'maxconn'
p4454
(dp4455
g4451
I10
sS'median'
p4456
L43L
sS'display'
p4457
S'43'
p4458
ssS'parscript'
p4459
(dp4460
g4451
I10
sg4456
L1L
sg4457
S'yes'
p4461
ssS'parcssjs'
p4462
(dp4463
g4451
I1
sg4456
L0L
sg4457
S'no'
p4464
ssS'cacheresredir'
p4465
(dp4466
g4451
I10
sg4456
L1L
sg4457
g4461
ssS'cacheexp'
p4467
(dp4468
g4451
I10
sg4456
L1L
sg4457
g4461
ssS'gzip'
p4469
(dp4470
g4451
I10
sg4456
L1L
sg4457
g4461
ssS'prefetch'
p4471
(dp4472
g4451
I1
sg4456
L0L
sg4457
g4464
ssS'cacheredir'
p4473
(dp4474
g4451
I1
sg4456
L0L
sg4457
g4464
ssS'parsheet'
p4475
(dp4476
g4451
I10
sg4456
L1L
sg4457
g4461
ssS'du'
p4477
(dp4478
g4451
I10
sg4456
L1L
sg4457
g4461
ssS'hostconn'
p4479
(dp4480
g4451
I10
sg4456
L4L
sg4457
g11
sssg4457
S'8/11'
p4481
ssVLunascape 5.1
p4482
(dp4483
S'total_runs'
p4484
L17L
sS'score'
p4485
I7
sS'results'
p4486
(dp4487
S'maxconn'
p4488
(dp4489
g4485
I10
sS'median'
p4490
L30L
sS'display'
p4491
S'30'
p4492
ssS'parscript'
p4493
(dp4494
g4485
I10
sg4490
L1L
sg4491
S'yes'
p4495
ssS'parcssjs'
p4496
(dp4497
g4485
I1
sg4490
L0L
sg4491
S'no'
p4498
ssS'cacheresredir'
p4499
(dp4500
g4485
I10
sg4490
L1L
sg4491
g4495
ssS'cacheexp'
p4501
(dp4502
g4485
I10
sg4490
L1L
sg4491
g4495
ssS'gzip'
p4503
(dp4504
g4485
I10
sg4490
L1L
sg4491
g4495
ssS'prefetch'
p4505
(dp4506
g4485
I1
sg4490
L0L
sg4491
g4498
ssS'cacheredir'
p4507
(dp4508
g4485
I1
sg4490
L0L
sg4491
g4498
ssS'parsheet'
p4509
(dp4510
g4485
I10
sg4490
L1L
sg4491
g4495
ssS'du'
p4511
(dp4512
g4485
I10
sg4490
L1L
sg4491
g4495
ssS'hostconn'
p4513
(dp4514
g4485
I10
sg4490
L4L
sg4491
g11
sssg4491
S'8/11'
p4515
ssVOpera 8.54
p4516
(dp4517
S'total_runs'
p4518
L9L
sS'score'
p4519
I4
sS'results'
p4520
(dp4521
S'maxconn'
p4522
(dp4523
g4519
I5
sS'median'
p4524
L20L
sS'display'
p4525
S'20'
p4526
ssS'parscript'
p4527
(dp4528
g4519
I1
sg4524
L0L
sg4525
S'no'
p4529
ssS'parcssjs'
p4530
(dp4531
g4519
I1
sg4524
L0L
sg4525
g4529
ssS'cacheresredir'
p4532
(dp4533
g4519
I1
sg4524
L0L
sg4525
g4529
ssS'cacheexp'
p4534
(dp4535
g4519
I10
sg4524
L1L
sg4525
S'yes'
p4536
ssS'gzip'
p4537
(dp4538
g4519
I10
sg4524
L1L
sg4525
g4536
ssS'prefetch'
p4539
(dp4540
g4519
I1
sg4524
L0L
sg4525
g4529
ssS'cacheredir'
p4541
(dp4542
g4519
I1
sg4524
L0L
sg4525
g4529
ssS'parsheet'
p4543
(dp4544
g4519
I10
sg4524
L1L
sg4525
g4536
ssS'du'
p4545
(dp4546
g4519
I10
sg4524
L1L
sg4525
g4536
ssS'hostconn'
p4547
(dp4548
g4519
I10
sg4524
L8L
sg4525
g147
sssg4525
S'5/11'
p4549
ssVNetscape 7.2
p4550
(dp4551
S'total_runs'
p4552
L1L
sS'score'
p4553
I5
sS'results'
p4554
(dp4555
S'maxconn'
p4556
(dp4557
g4553
I10
sS'median'
p4558
L24L
sS'display'
p4559
S'24'
p4560
ssS'parscript'
p4561
(dp4562
g4553
I1
sg4558
L0L
sg4559
S'no'
p4563
ssS'parcssjs'
p4564
(dp4565
g4553
I1
sg4558
L0L
sg4559
g4563
ssS'cacheresredir'
p4566
(dp4567
g4553
I10
sg4558
L1L
sg4559
S'yes'
p4568
ssS'cacheexp'
p4569
(dp4570
g4553
I10
sg4558
L1L
sg4559
g4568
ssS'gzip'
p4571
(dp4572
g4553
I10
sg4558
L1L
sg4559
g4568
ssS'prefetch'
p4573
(dp4574
g4553
I10
sg4558
L1L
sg4559
g4568
ssS'cacheredir'
p4575
(dp4576
g4553
I1
sg4558
L0L
sg4559
g4563
ssS'parsheet'
p4577
(dp4578
g4553
I1
sg4558
L0L
sg4559
g4563
ssS'du'
p4579
(dp4580
g4553
I10
sg4558
L1L
sg4559
g4568
ssS'hostconn'
p4581
(dp4582
g4553
I5
sg4558
L2L
sg4559
g34
sssg4559
S'6/11'
p4583
ssVShiira 1.0
p4584
(dp4585
S'total_runs'
p4586
L1L
sS'score'
p4587
I6
sS'results'
p4588
(dp4589
S'maxconn'
p4590
(dp4591
g4587
I10
sS'median'
p4592
L60L
sS'display'
p4593
S'60'
p4594
ssS'parscript'
p4595
(dp4596
g4587
I1
sg4592
L0L
sg4593
S'no'
p4597
ssS'parcssjs'
p4598
(dp4599
g4587
I1
sg4592
L0L
sg4593
g4597
ssS'cacheresredir'
p4600
(dp4601
g4587
I10
sg4592
L1L
sg4593
S'yes'
p4602
ssS'cacheexp'
p4603
(dp4604
g4587
I10
sg4592
L1L
sg4593
g4602
ssS'gzip'
p4605
(dp4606
g4587
I10
sg4592
L1L
sg4593
g4602
ssS'prefetch'
p4607
(dp4608
g4587
I1
sg4592
L0L
sg4593
g4597
ssS'cacheredir'
p4609
(dp4610
g4587
I1
sg4592
L0L
sg4593
g4597
ssS'parsheet'
p4611
(dp4612
g4587
I10
sg4592
L1L
sg4593
g4602
ssS'du'
p4613
(dp4614
g4587
I10
sg4592
L1L
sg4593
g4602
ssS'hostconn'
p4615
(dp4616
g4587
I10
sg4592
L4L
sg4593
g11
sssg4593
S'7/11'
p4617
ssVNokia 51
p4618
(dp4619
S'total_runs'
p4620
L4L
sS'score'
p4621
I4
sS'results'
p4622
(dp4623
S'maxconn'
p4624
(dp4625
g4621
I0
sS'median'
p4626
L7L
sS'display'
p4627
g113
ssS'parscript'
p4628
(dp4629
g4621
I10
sg4626
L1L
sg4627
S'yes'
p4630
ssS'parcssjs'
p4631
(dp4632
g4621
I1
sg4626
L0L
sg4627
S'no'
p4633
ssS'cacheresredir'
p4634
(dp4635
g4621
I1
sg4626
L0L
sg4627
g4633
ssS'cacheexp'
p4636
(dp4637
g4621
I10
sg4626
L1L
sg4627
g4630
ssS'gzip'
p4638
(dp4639
g4621
I10
sg4626
L1L
sg4627
g4630
ssS'prefetch'
p4640
(dp4641
g4621
I10
sg4626
L1L
sg4627
g4630
ssS'cacheredir'
p4642
(dp4643
g4621
I1
sg4626
L0L
sg4627
g4633
ssS'parsheet'
p4644
(dp4645
g4621
I10
sg4626
L1L
sg4627
g4630
ssS'du'
p4646
(dp4647
g4621
I1
sg4626
L0L
sg4627
g4633
ssS'hostconn'
p4648
(dp4649
g4621
I0
sg4626
L0L
sg4627
g46
sssg4627
S'5/11'
p4650
ssVIE 7.0
p4651
(dp4652
S'total_runs'
p4653
L659L
sS'score'
p4654
I3
sS'results'
p4655
(dp4656
S'maxconn'
p4657
(dp4658
g4654
I10
sS'median'
p4659
L60L
sS'display'
p4660
S'60'
p4661
ssS'parscript'
p4662
(dp4663
g4654
I1
sg4659
L0L
sg4660
S'no'
p4664
ssS'parcssjs'
p4665
(dp4666
g4654
I1
sg4659
L0L
sg4660
g4664
ssS'cacheresredir'
p4667
(dp4668
g4654
I1
sg4659
L0L
sg4660
g4664
ssS'cacheexp'
p4669
(dp4670
g4654
I10
sg4659
L1L
sg4660
S'yes'
p4671
ssS'gzip'
p4672
(dp4673
g4654
I10
sg4659
L1L
sg4660
g4671
ssS'prefetch'
p4674
(dp4675
g4654
I1
sg4659
L0L
sg4660
g4664
ssS'cacheredir'
p4676
(dp4677
g4654
I1
sg4659
L0L
sg4660
g4664
ssS'parsheet'
p4678
(dp4679
g4654
I10
sg4659
L1L
sg4660
g4671
ssS'du'
p4680
(dp4681
g4654
I1
sg4659
L0L
sg4660
g4664
ssS'hostconn'
p4682
(dp4683
g4654
I5
sg4659
L2L
sg4660
g34
sssg4660
S'4/11'
p4684
ssVBolt 0.920
p4685
(dp4686
S'total_runs'
p4687
L1L
sS'score'
p4688
I4
sS'results'
p4689
(dp4690
S'maxconn'
p4691
(dp4692
g4688
I0
sS'median'
p4693
L5L
sS'display'
p4694
g829
ssS'parscript'
p4695
(dp4696
g4688
I1
sg4693
L0L
sg4694
S'no'
p4697
ssS'parcssjs'
p4698
(dp4699
g4688
I1
sg4693
L0L
sg4694
g4697
ssS'cacheresredir'
p4700
(dp4701
g4688
I1
sg4693
L0L
sg4694
g4697
ssS'cacheexp'
p4702
(dp4703
g4688
I1
sg4693
L0L
sg4694
g4697
ssS'gzip'
p4704
(dp4705
g4688
I10
sg4693
L1L
sg4694
S'yes'
p4706
ssS'prefetch'
p4707
(dp4708
g4688
I1
sg4693
L0L
sg4694
g4697
ssS'cacheredir'
p4709
(dp4710
g4688
I10
sg4693
L1L
sg4694
g4706
ssS'parsheet'
p4711
(dp4712
g4688
I10
sg4693
L1L
sg4694
g4706
ssS'du'
p4713
(dp4714
g4688
I10
sg4693
L1L
sg4694
g4706
ssS'hostconn'
p4715
(dp4716
g4688
I10
sg4693
L5L
sg4694
g829
sssg4694
S'5/11'
p4717
ssVBlackberry 8830
p4718
(dp4719
S'total_runs'
p4720
L5L
sS'score'
p4721
I5
sS'results'
p4722
(dp4723
S'maxconn'
p4724
(dp4725
g4721
I0
sS'median'
p4726
L8L
sS'display'
p4727
g147
ssS'parscript'
p4728
(dp4729
g4721
I10
sg4726
L1L
sg4727
S'yes'
p4730
ssS'parcssjs'
p4731
(dp4732
g4721
I1
sg4726
L0L
sg4727
S'no'
p4733
ssS'cacheresredir'
p4734
(dp4735
g4721
I10
sg4726
L1L
sg4727
g4730
ssS'cacheexp'
p4736
(dp4737
g4721
I10
sg4726
L1L
sg4727
g4730
ssS'gzip'
p4738
(dp4739
g4721
I1
sg4726
L0L
sg4727
g4733
ssS'prefetch'
p4740
(dp4741
g4721
I10
sg4726
L1L
sg4727
g4730
ssS'cacheredir'
p4742
(dp4743
g4721
I1
sg4726
L0L
sg4727
g4733
ssS'parsheet'
p4744
(dp4745
g4721
I10
sg4726
L1L
sg4727
g4730
ssS'du'
p4746
(dp4747
g4721
I1
sg4726
L0L
sg4727
g4733
ssS'hostconn'
p4748
(dp4749
g4721
I10
sg4726
L8L
sg4727
g147
sssg4727
S'6/11'
p4750
ssVOpera 9.22
p4751
(dp4752
S'total_runs'
p4753
L2L
sS'score'
p4754
I6
sS'results'
p4755
(dp4756
S'maxconn'
p4757
(dp4758
g4754
I5
sS'median'
p4759
L20L
sS'display'
p4760
S'20'
p4761
ssS'parscript'
p4762
(dp4763
g4754
I1
sg4759
L0L
sg4760
S'no'
p4764
ssS'parcssjs'
p4765
(dp4766
g4754
I1
sg4759
L0L
sg4760
g4764
ssS'cacheresredir'
p4767
(dp4768
g4754
I10
sg4759
L1L
sg4760
S'yes'
p4769
ssS'cacheexp'
p4770
(dp4771
g4754
I10
sg4759
L1L
sg4760
g4769
ssS'gzip'
p4772
(dp4773
g4754
I10
sg4759
L1L
sg4760
g4769
ssS'prefetch'
p4774
(dp4775
g4754
I1
sg4759
L0L
sg4760
g4764
ssS'cacheredir'
p4776
(dp4777
g4754
I10
sg4759
L1L
sg4760
g4769
ssS'parsheet'
p4778
(dp4779
g4754
I10
sg4759
L1L
sg4760
g4769
ssS'du'
p4780
(dp4781
g4754
I10
sg4759
L1L
sg4760
g4769
ssS'hostconn'
p4782
(dp4783
g4754
I10
sg4759
L4L
sg4760
g11
sssg4760
S'7/11'
p4784
ssVIron 1.0
p4785
(dp4786
S'total_runs'
p4787
L14L
sS'score'
p4788
I8
sS'results'
p4789
(dp4790
S'maxconn'
p4791
(dp4792
g4788
I10
sS'median'
p4793
L59L
sS'display'
p4794
S'59'
p4795
ssS'parscript'
p4796
(dp4797
g4788
I10
sg4793
L1L
sg4794
S'yes'
p4798
ssS'parcssjs'
p4799
(dp4800
g4788
I1
sg4793
L0L
sg4794
S'no'
p4801
ssS'cacheresredir'
p4802
(dp4803
g4788
I10
sg4793
L1L
sg4794
g4798
ssS'cacheexp'
p4804
(dp4805
g4788
I10
sg4793
L1L
sg4794
g4798
ssS'gzip'
p4806
(dp4807
g4788
I10
sg4793
L1L
sg4794
g4798
ssS'prefetch'
p4808
(dp4809
g4788
I1
sg4793
L0L
sg4794
g4801
ssS'cacheredir'
p4810
(dp4811
g4788
I10
sg4793
L1L
sg4794
g4798
ssS'parsheet'
p4812
(dp4813
g4788
I10
sg4793
L1L
sg4794
g4798
ssS'du'
p4814
(dp4815
g4788
I10
sg4793
L1L
sg4794
g4798
ssS'hostconn'
p4816
(dp4817
g4788
I10
sg4793
L6L
sg4794
g272
sssg4794
S'9/11'
p4818
ssVOmniWeb 613.0
p4819
(dp4820
S'total_runs'
p4821
L1L
sS'score'
p4822
I6
sS'results'
p4823
(dp4824
S'maxconn'
p4825
(dp4826
g4822
I10
sS'median'
p4827
L60L
sS'display'
p4828
S'60'
p4829
ssS'parscript'
p4830
(dp4831
g4822
I1
sg4827
L0L
sg4828
S'no'
p4832
ssS'parcssjs'
p4833
(dp4834
g4822
I1
sg4827
L0L
sg4828
g4832
ssS'cacheresredir'
p4835
(dp4836
g4822
I10
sg4827
L1L
sg4828
S'yes'
p4837
ssS'cacheexp'
p4838
(dp4839
g4822
I10
sg4827
L1L
sg4828
g4837
ssS'gzip'
p4840
(dp4841
g4822
I10
sg4827
L1L
sg4828
g4837
ssS'prefetch'
p4842
(dp4843
g4822
I1
sg4827
L0L
sg4828
g4832
ssS'cacheredir'
p4844
(dp4845
g4822
I1
sg4827
L0L
sg4828
g4832
ssS'parsheet'
p4846
(dp4847
g4822
I10
sg4827
L1L
sg4828
g4837
ssS'du'
p4848
(dp4849
g4822
I10
sg4827
L1L
sg4828
g4837
ssS'hostconn'
p4850
(dp4851
g4822
I10
sg4827
L4L
sg4828
g11
sssg4828
S'7/11'
p4852
ssVBlackberry 7130
p4853
(dp4854
S'total_runs'
p4855
L1L
sS'score'
p4856
I5
sS'results'
p4857
(dp4858
S'maxconn'
p4859
(dp4860
g4856
I0
sS'median'
p4861
L0L
sS'display'
p4862
g46
ssS'parscript'
p4863
(dp4864
g4856
I1
sg4861
L0L
sg4862
S'no'
p4865
ssS'parcssjs'
p4866
(dp4867
g4856
I10
sg4861
L1L
sg4862
S'yes'
p4868
ssS'cacheresredir'
p4869
(dp4870
g4856
I10
sg4861
L1L
sg4862
g4868
ssS'cacheexp'
p4871
(dp4872
g4856
I10
sg4861
L1L
sg4862
g4868
ssS'gzip'
p4873
(dp4874
g4856
I10
sg4861
L1L
sg4862
g4868
ssS'prefetch'
p4875
(dp4876
g4856
I10
sg4861
L1L
sg4862
g4868
ssS'cacheredir'
p4877
(dp4878
g4856
I1
sg4861
L0L
sg4862
g4865
ssS'parsheet'
p4879
(dp4880
g4856
I10
sg4861
L1L
sg4862
g4868
ssS'du'
p4881
(dp4882
g4856
I1
sg4861
L0L
sg4862
g4865
ssS'hostconn'
p4883
(dp4884
g4856
I0
sg4861
L0L
sg4862
g46
sssg4862
S'6/11'
p4885
ssVOpera 7.0
p4886
(dp4887
S'total_runs'
p4888
L1L
sS'score'
p4889
I5
sS'results'
p4890
(dp4891
S'maxconn'
p4892
(dp4893
g4889
I0
sS'median'
p4894
L8L
sS'display'
p4895
g147
ssS'parscript'
p4896
(dp4897
g4889
I1
sg4894
L0L
sg4895
S'no'
p4898
ssS'parcssjs'
p4899
(dp4900
g4889
I1
sg4894
L0L
sg4895
g4898
ssS'cacheresredir'
p4901
(dp4902
g4889
I10
sg4894
L1L
sg4895
S'yes'
p4903
ssS'cacheexp'
p4904
(dp4905
g4889
I10
sg4894
L1L
sg4895
g4903
ssS'gzip'
p4906
(dp4907
g4889
I10
sg4894
L1L
sg4895
g4903
ssS'prefetch'
p4908
(dp4909
g4889
I1
sg4894
L0L
sg4895
g4898
ssS'cacheredir'
p4910
(dp4911
g4889
I10
sg4894
L1L
sg4895
g4903
ssS'parsheet'
p4912
(dp4913
g4889
I10
sg4894
L1L
sg4895
g4903
ssS'du'
p4914
(dp4915
g4889
I1
sg4894
L0L
sg4895
g4898
ssS'hostconn'
p4916
(dp4917
g4889
I10
sg4894
L8L
sg4895
g147
sssg4895
S'6/11'
p4918
ssVShiira 1.2
p4919
(dp4920
S'total_runs'
p4921
L5L
sS'score'
p4922
I6
sS'results'
p4923
(dp4924
S'maxconn'
p4925
(dp4926
g4922
I10
sS'median'
p4927
L60L
sS'display'
p4928
S'60'
p4929
ssS'parscript'
p4930
(dp4931
g4922
I1
sg4927
L0L
sg4928
S'no'
p4932
ssS'parcssjs'
p4933
(dp4934
g4922
I1
sg4927
L0L
sg4928
g4932
ssS'cacheresredir'
p4935
(dp4936
g4922
I10
sg4927
L1L
sg4928
S'yes'
p4937
ssS'cacheexp'
p4938
(dp4939
g4922
I10
sg4927
L1L
sg4928
g4937
ssS'gzip'
p4940
(dp4941
g4922
I10
sg4927
L1L
sg4928
g4937
ssS'prefetch'
p4942
(dp4943
g4922
I1
sg4927
L0L
sg4928
g4932
ssS'cacheredir'
p4944
(dp4945
g4922
I1
sg4927
L0L
sg4928
g4932
ssS'parsheet'
p4946
(dp4947
g4922
I10
sg4927
L1L
sg4928
g4937
ssS'du'
p4948
(dp4949
g4922
I10
sg4927
L1L
sg4928
g4937
ssS'hostconn'
p4950
(dp4951
g4922
I10
sg4927
L4L
sg4928
g11
sssg4928
S'7/11'
p4952
ssVSunrise 1.7
p4953
(dp4954
S'total_runs'
p4955
L3L
sS'score'
p4956
I6
sS'results'
p4957
(dp4958
S'maxconn'
p4959
(dp4960
g4956
I10
sS'median'
p4961
L60L
sS'display'
p4962
S'60'
p4963
ssS'parscript'
p4964
(dp4965
g4956
I1
sg4961
L0L
sg4962
S'no'
p4966
ssS'parcssjs'
p4967
(dp4968
g4956
I1
sg4961
L0L
sg4962
g4966
ssS'cacheresredir'
p4969
(dp4970
g4956
I10
sg4961
L1L
sg4962
S'yes'
p4971
ssS'cacheexp'
p4972
(dp4973
g4956
I10
sg4961
L1L
sg4962
g4971
ssS'gzip'
p4974
(dp4975
g4956
I10
sg4961
L1L
sg4962
g4971
ssS'prefetch'
p4976
(dp4977
g4956
I1
sg4961
L0L
sg4962
g4966
ssS'cacheredir'
p4978
(dp4979
g4956
I1
sg4961
L0L
sg4962
g4966
ssS'parsheet'
p4980
(dp4981
g4956
I10
sg4961
L1L
sg4962
g4971
ssS'du'
p4982
(dp4983
g4956
I10
sg4961
L1L
sg4962
g4971
ssS'hostconn'
p4984
(dp4985
g4956
I10
sg4961
L4L
sg4962
g11
sssg4962
S'7/11'
p4986
ssVIE Mobile 7.6
p4987
(dp4988
S'total_runs'
p4989
L1L
sS'score'
p4990
I4
sS'results'
p4991
(dp4992
S'maxconn'
p4993
(dp4994
g4990
I0
sS'median'
p4995
L0L
sS'display'
p4996
g46
ssS'parscript'
p4997
(dp4998
g4990
I1
sg4995
L0L
sg4996
S'no'
p4999
ssS'parcssjs'
p5000
(dp5001
g4990
I1
sg4995
L0L
sg4996
g4999
ssS'cacheresredir'
p5002
(dp5003
g4990
I10
sg4995
L1L
sg4996
S'yes'
p5004
ssS'cacheexp'
p5005
(dp5006
g4990
I10
sg4995
L1L
sg4996
g5004
ssS'gzip'
p5007
(dp5008
g4990
I10
sg4995
L1L
sg4996
g5004
ssS'prefetch'
p5009
(dp5010
g4990
I10
sg4995
L1L
sg4996
g5004
ssS'cacheredir'
p5011
(dp5012
g4990
I1
sg4995
L0L
sg4996
g4999
ssS'parsheet'
p5013
(dp5014
g4990
I10
sg4995
L1L
sg4996
g5004
ssS'du'
p5015
(dp5016
g4990
I1
sg4995
L0L
sg4996
g4999
ssS'hostconn'
p5017
(dp5018
g4990
I0
sg4995
L0L
sg4996
g46
sssg4996
S'5/11'
p5019
ssVDemeter 1.0
p5020
(dp5021
S'total_runs'
p5022
L1L
sS'score'
p5023
I6
sS'results'
p5024
(dp5025
S'maxconn'
p5026
(dp5027
g5023
I10
sS'median'
p5028
L60L
sS'display'
p5029
S'60'
p5030
ssS'parscript'
p5031
(dp5032
g5023
I1
sg5028
L0L
sg5029
S'no'
p5033
ssS'parcssjs'
p5034
(dp5035
g5023
I1
sg5028
L0L
sg5029
g5033
ssS'cacheresredir'
p5036
(dp5037
g5023
I10
sg5028
L1L
sg5029
S'yes'
p5038
ssS'cacheexp'
p5039
(dp5040
g5023
I10
sg5028
L1L
sg5029
g5038
ssS'gzip'
p5041
(dp5042
g5023
I10
sg5028
L1L
sg5029
g5038
ssS'prefetch'
p5043
(dp5044
g5023
I1
sg5028
L0L
sg5029
g5033
ssS'cacheredir'
p5045
(dp5046
g5023
I1
sg5028
L0L
sg5029
g5033
ssS'parsheet'
p5047
(dp5048
g5023
I10
sg5028
L1L
sg5029
g5038
ssS'du'
p5049
(dp5050
g5023
I10
sg5028
L1L
sg5029
g5038
ssS'hostconn'
p5051
(dp5052
g5023
I10
sg5028
L4L
sg5029
g11
sssg5029
S'7/11'
p5053
ssVK-Meleon 1.5
p5054
(dp5055
S'total_runs'
p5056
L16L
sS'score'
p5057
I6
sS'results'
p5058
(dp5059
S'maxconn'
p5060
(dp5061
g5057
I10
sS'median'
p5062
L24L
sS'display'
p5063
S'24'
p5064
ssS'parscript'
p5065
(dp5066
g5057
I1
sg5062
L0L
sg5063
S'no'
p5067
ssS'parcssjs'
p5068
(dp5069
g5057
I1
sg5062
L0L
sg5063
g5067
ssS'cacheresredir'
p5070
(dp5071
g5057
I10
sg5062
L1L
sg5063
S'yes'
p5072
ssS'cacheexp'
p5073
(dp5074
g5057
I10
sg5062
L1L
sg5063
g5072
ssS'gzip'
p5075
(dp5076
g5057
I10
sg5062
L1L
sg5063
g5072
ssS'prefetch'
p5077
(dp5078
g5057
I10
sg5062
L1L
sg5063
g5072
ssS'cacheredir'
p5079
(dp5080
g5057
I10
sg5062
L1L
sg5063
g5072
ssS'parsheet'
p5081
(dp5082
g5057
I1
sg5062
L0L
sg5063
g5067
ssS'du'
p5083
(dp5084
g5057
I10
sg5062
L1L
sg5063
g5072
ssS'hostconn'
p5085
(dp5086
g5057
I5
sg5062
L2L
sg5063
g34
sssg5063
S'7/11'
p5087
ssVSeaMonkey 1.0
p5088
(dp5089
S'total_runs'
p5090
L1L
sS'score'
p5091
I6
sS'results'
p5092
(dp5093
S'maxconn'
p5094
(dp5095
g5091
I10
sS'median'
p5096
L24L
sS'display'
p5097
S'24'
p5098
ssS'parscript'
p5099
(dp5100
g5091
I1
sg5096
L0L
sg5097
S'no'
p5101
ssS'parcssjs'
p5102
(dp5103
g5091
I1
sg5096
L0L
sg5097
g5101
ssS'cacheresredir'
p5104
(dp5105
g5091
I10
sg5096
L1L
sg5097
S'yes'
p5106
ssS'cacheexp'
p5107
(dp5108
g5091
I10
sg5096
L1L
sg5097
g5106
ssS'gzip'
p5109
(dp5110
g5091
I10
sg5096
L1L
sg5097
g5106
ssS'prefetch'
p5111
(dp5112
g5091
I10
sg5096
L1L
sg5097
g5106
ssS'cacheredir'
p5113
(dp5114
g5091
I10
sg5096
L1L
sg5097
g5106
ssS'parsheet'
p5115
(dp5116
g5091
I1
sg5096
L0L
sg5097
g5101
ssS'du'
p5117
(dp5118
g5091
I10
sg5096
L1L
sg5097
g5106
ssS'hostconn'
p5119
(dp5120
g5091
I5
sg5096
L2L
sg5097
g34
sssg5097
S'7/11'
p5121
ssVGaleon 2.0
p5122
(dp5123
S'total_runs'
p5124
L8L
sS'score'
p5125
I6
sS'results'
p5126
(dp5127
S'maxconn'
p5128
(dp5129
g5125
I10
sS'median'
p5130
L30L
sS'display'
p5131
S'30'
p5132
ssS'parscript'
p5133
(dp5134
g5125
I1
sg5130
L0L
sg5131
S'no'
p5135
ssS'parcssjs'
p5136
(dp5137
g5125
I1
sg5130
L0L
sg5131
g5135
ssS'cacheresredir'
p5138
(dp5139
g5125
I1
sg5130
L0L
sg5131
g5135
ssS'cacheexp'
p5140
(dp5141
g5125
I10
sg5130
L1L
sg5131
S'yes'
p5142
ssS'gzip'
p5143
(dp5144
g5125
I10
sg5130
L1L
sg5131
g5142
ssS'prefetch'
p5145
(dp5146
g5125
I10
sg5130
L1L
sg5131
g5142
ssS'cacheredir'
p5147
(dp5148
g5125
I1
sg5130
L0L
sg5131
g5135
ssS'parsheet'
p5149
(dp5150
g5125
I10
sg5130
L1L
sg5131
g5142
ssS'du'
p5151
(dp5152
g5125
I10
sg5130
L1L
sg5131
g5142
ssS'hostconn'
p5153
(dp5154
g5125
I10
sg5130
L6L
sg5131
g272
sssg5131
S'7/11'
p5155
ssVOmniWeb 622.3
p5156
(dp5157
S'total_runs'
p5158
L5L
sS'score'
p5159
I6
sS'results'
p5160
(dp5161
S'maxconn'
p5162
(dp5163
g5159
I10
sS'median'
p5164
L60L
sS'display'
p5165
S'60'
p5166
ssS'parscript'
p5167
(dp5168
g5159
I1
sg5164
L0L
sg5165
S'no'
p5169
ssS'parcssjs'
p5170
(dp5171
g5159
I1
sg5164
L0L
sg5165
g5169
ssS'cacheresredir'
p5172
(dp5173
g5159
I10
sg5164
L1L
sg5165
S'yes'
p5174
ssS'cacheexp'
p5175
(dp5176
g5159
I10
sg5164
L1L
sg5165
g5174
ssS'gzip'
p5177
(dp5178
g5159
I10
sg5164
L1L
sg5165
g5174
ssS'prefetch'
p5179
(dp5180
g5159
I1
sg5164
L0L
sg5165
g5169
ssS'cacheredir'
p5181
(dp5182
g5159
I1
sg5164
L0L
sg5165
g5169
ssS'parsheet'
p5183
(dp5184
g5159
I10
sg5164
L1L
sg5165
g5174
ssS'du'
p5185
(dp5186
g5159
I10
sg5164
L1L
sg5165
g5174
ssS'hostconn'
p5187
(dp5188
g5159
I10
sg5164
L4L
sg5165
g11
sssg5165
S'7/11'
p5189
ssVOmniWeb 622.6
p5190
(dp5191
S'total_runs'
p5192
L1L
sS'score'
p5193
I4
sS'results'
p5194
(dp5195
S'maxconn'
p5196
(dp5197
g5193
I0
sS'median'
p5198
L0L
sS'display'
p5199
g46
ssS'parscript'
p5200
(dp5201
g5193
I1
sg5198
L0L
sg5199
S'no'
p5202
ssS'parcssjs'
p5203
(dp5204
g5193
I1
sg5198
L0L
sg5199
g5202
ssS'cacheresredir'
p5205
(dp5206
g5193
I10
sg5198
L1L
sg5199
S'yes'
p5207
ssS'cacheexp'
p5208
(dp5209
g5193
I10
sg5198
L1L
sg5199
g5207
ssS'gzip'
p5210
(dp5211
g5193
I10
sg5198
L1L
sg5199
g5207
ssS'prefetch'
p5212
(dp5213
g5193
I1
sg5198
L0L
sg5199
g5202
ssS'cacheredir'
p5214
(dp5215
g5193
I1
sg5198
L0L
sg5199
g5202
ssS'parsheet'
p5216
(dp5217
g5193
I10
sg5198
L1L
sg5199
g5207
ssS'du'
p5218
(dp5219
g5193
I1
sg5198
L0L
sg5199
g5202
ssS'hostconn'
p5220
(dp5221
g5193
I10
sg5198
L4L
sg5199
g11
sssg5199
S'5/11'
p5222
ssVOmniWeb 622.4
p5223
(dp5224
S'total_runs'
p5225
L3L
sS'score'
p5226
I6
sS'results'
p5227
(dp5228
S'maxconn'
p5229
(dp5230
g5226
I0
sS'median'
p5231
L4L
sS'display'
p5232
g11
ssS'parscript'
p5233
(dp5234
g5226
I1
sg5231
L0L
sg5232
S'no'
p5235
ssS'parcssjs'
p5236
(dp5237
g5226
I1
sg5231
L0L
sg5232
g5235
ssS'cacheresredir'
p5238
(dp5239
g5226
I10
sg5231
L1L
sg5232
S'yes'
p5240
ssS'cacheexp'
p5241
(dp5242
g5226
I10
sg5231
L1L
sg5232
g5240
ssS'gzip'
p5243
(dp5244
g5226
I10
sg5231
L1L
sg5232
g5240
ssS'prefetch'
p5245
(dp5246
g5226
I1
sg5231
L0L
sg5232
g5235
ssS'cacheredir'
p5247
(dp5248
g5226
I10
sg5231
L1L
sg5232
g5240
ssS'parsheet'
p5249
(dp5250
g5226
I10
sg5231
L1L
sg5232
g5240
ssS'du'
p5251
(dp5252
g5226
I10
sg5231
L1L
sg5232
g5240
ssS'hostconn'
p5253
(dp5254
g5226
I10
sg5231
L4L
sg5232
g11
sssg5232
S'7/11'
p5255
ssVCrazy Browser 3.0
p5256
(dp5257
S'total_runs'
p5258
L3L
sS'score'
p5259
I2
sS'results'
p5260
(dp5261
S'maxconn'
p5262
(dp5263
g5259
I5
sS'median'
p5264
L16L
sS'display'
p5265
S'16'
p5266
ssS'parscript'
p5267
(dp5268
g5259
I1
sg5264
L0L
sg5265
S'no'
p5269
ssS'parcssjs'
p5270
(dp5271
g5259
I1
sg5264
L0L
sg5265
g5269
ssS'cacheresredir'
p5272
(dp5273
g5259
I1
sg5264
L0L
sg5265
g5269
ssS'cacheexp'
p5274
(dp5275
g5259
I10
sg5264
L1L
sg5265
S'yes'
p5276
ssS'gzip'
p5277
(dp5278
g5259
I1
sg5264
L0L
sg5265
g5269
ssS'prefetch'
p5279
(dp5280
g5259
I1
sg5264
L0L
sg5265
g5269
ssS'cacheredir'
p5281
(dp5282
g5259
I1
sg5264
L0L
sg5265
g5269
ssS'parsheet'
p5283
(dp5284
g5259
I1
sg5264
L0L
sg5265
g5269
ssS'du'
p5285
(dp5286
g5259
I1
sg5264
L0L
sg5265
g5269
ssS'hostconn'
p5287
(dp5288
g5259
I10
sg5264
L12L
sg5265
S'12'
p5289
sssg5265
S'2/11'
p5290
ssVQtWeb 3.0
p5291
(dp5292
S'total_runs'
p5293
L2L
sS'score'
p5294
I6
sS'results'
p5295
(dp5296
S'maxconn'
p5297
(dp5298
g5294
I10
sS'median'
p5299
L60L
sS'display'
p5300
S'60'
p5301
ssS'parscript'
p5302
(dp5303
g5294
I10
sg5299
L1L
sg5300
S'yes'
p5304
ssS'parcssjs'
p5305
(dp5306
g5294
I1
sg5299
L0L
sg5300
S'no'
p5307
ssS'cacheresredir'
p5308
(dp5309
g5294
I10
sg5299
L1L
sg5300
g5304
ssS'cacheexp'
p5310
(dp5311
g5294
I10
sg5299
L1L
sg5300
g5304
ssS'gzip'
p5312
(dp5313
g5294
I10
sg5299
L1L
sg5300
g5304
ssS'prefetch'
p5314
(dp5315
g5294
I1
sg5299
L0L
sg5300
g5307
ssS'cacheredir'
p5316
(dp5317
g5294
I1
sg5299
L0L
sg5300
g5307
ssS'parsheet'
p5318
(dp5319
g5294
I10
sg5299
L1L
sg5300
g5304
ssS'du'
p5320
(dp5321
g5294
I10
sg5299
L1L
sg5300
g5304
ssS'hostconn'
p5322
(dp5323
g5294
I5
sg5299
L2L
sg5300
g34
sssg5300
S'7/11'
p5324
ssVMicroB 0.2
p5325
(dp5326
S'total_runs'
p5327
L2L
sS'score'
p5328
I6
sS'results'
p5329
(dp5330
S'maxconn'
p5331
(dp5332
g5328
I0
sS'median'
p5333
L0L
sS'display'
p5334
g46
ssS'parscript'
p5335
(dp5336
g5328
I1
sg5333
L0L
sg5334
S'no'
p5337
ssS'parcssjs'
p5338
(dp5339
g5328
I1
sg5333
L0L
sg5334
g5337
ssS'cacheresredir'
p5340
(dp5341
g5328
I10
sg5333
L1L
sg5334
S'yes'
p5342
ssS'cacheexp'
p5343
(dp5344
g5328
I10
sg5333
L1L
sg5334
g5342
ssS'gzip'
p5345
(dp5346
g5328
I10
sg5333
L1L
sg5334
g5342
ssS'prefetch'
p5347
(dp5348
g5328
I10
sg5333
L1L
sg5334
g5342
ssS'cacheredir'
p5349
(dp5350
g5328
I1
sg5333
L0L
sg5334
g5337
ssS'parsheet'
p5351
(dp5352
g5328
I10
sg5333
L1L
sg5334
g5342
ssS'du'
p5353
(dp5354
g5328
I10
sg5333
L1L
sg5334
g5342
ssS'hostconn'
p5355
(dp5356
g5328
I10
sg5333
L4L
sg5334
g11
sssg5334
S'7/11'
p5357
ssVMicroB 0.3
p5358
(dp5359
S'total_runs'
p5360
L3L
sS'score'
p5361
I6
sS'results'
p5362
(dp5363
S'maxconn'
p5364
(dp5365
g5361
I10
sS'median'
p5366
L23L
sS'display'
p5367
S'23'
p5368
ssS'parscript'
p5369
(dp5370
g5361
I1
sg5366
L0L
sg5367
S'no'
p5371
ssS'parcssjs'
p5372
(dp5373
g5361
I1
sg5366
L0L
sg5367
g5371
ssS'cacheresredir'
p5374
(dp5375
g5361
I10
sg5366
L1L
sg5367
S'yes'
p5376
ssS'cacheexp'
p5377
(dp5378
g5361
I10
sg5366
L1L
sg5367
g5376
ssS'gzip'
p5379
(dp5380
g5361
I10
sg5366
L1L
sg5367
g5376
ssS'prefetch'
p5381
(dp5382
g5361
I1
sg5366
L0L
sg5367
g5371
ssS'cacheredir'
p5383
(dp5384
g5361
I1
sg5366
L0L
sg5367
g5371
ssS'parsheet'
p5385
(dp5386
g5361
I10
sg5366
L1L
sg5367
g5376
ssS'du'
p5387
(dp5388
g5361
I10
sg5366
L1L
sg5367
g5376
ssS'hostconn'
p5389
(dp5390
g5361
I10
sg5366
L3L
sg5367
S'3'
p5391
sssg5367
S'7/11'
p5392
ssViCab 4.2
p5393
(dp5394
S'total_runs'
p5395
L4L
sS'score'
p5396
I6
sS'results'
p5397
(dp5398
S'maxconn'
p5399
(dp5400
g5396
I10
sS'median'
p5401
L60L
sS'display'
p5402
S'60'
p5403
ssS'parscript'
p5404
(dp5405
g5396
I1
sg5401
L0L
sg5402
S'no'
p5406
ssS'parcssjs'
p5407
(dp5408
g5396
I1
sg5401
L0L
sg5402
g5406
ssS'cacheresredir'
p5409
(dp5410
g5396
I10
sg5401
L1L
sg5402
S'yes'
p5411
ssS'cacheexp'
p5412
(dp5413
g5396
I10
sg5401
L1L
sg5402
g5411
ssS'gzip'
p5414
(dp5415
g5396
I10
sg5401
L1L
sg5402
g5411
ssS'prefetch'
p5416
(dp5417
g5396
I1
sg5401
L0L
sg5402
g5406
ssS'cacheredir'
p5418
(dp5419
g5396
I1
sg5401
L0L
sg5402
g5406
ssS'parsheet'
p5420
(dp5421
g5396
I10
sg5401
L1L
sg5402
g5411
ssS'du'
p5422
(dp5423
g5396
I10
sg5401
L1L
sg5402
g5411
ssS'hostconn'
p5424
(dp5425
g5396
I10
sg5401
L4L
sg5402
g11
sssg5402
S'7/11'
p5426
ssViCab 4.1
p5427
(dp5428
S'total_runs'
p5429
L1L
sS'score'
p5430
I6
sS'results'
p5431
(dp5432
S'maxconn'
p5433
(dp5434
g5430
I10
sS'median'
p5435
L60L
sS'display'
p5436
S'60'
p5437
ssS'parscript'
p5438
(dp5439
g5430
I1
sg5435
L0L
sg5436
S'no'
p5440
ssS'parcssjs'
p5441
(dp5442
g5430
I1
sg5435
L0L
sg5436
g5440
ssS'cacheresredir'
p5443
(dp5444
g5430
I10
sg5435
L1L
sg5436
S'yes'
p5445
ssS'cacheexp'
p5446
(dp5447
g5430
I10
sg5435
L1L
sg5436
g5445
ssS'gzip'
p5448
(dp5449
g5430
I10
sg5435
L1L
sg5436
g5445
ssS'prefetch'
p5450
(dp5451
g5430
I1
sg5435
L0L
sg5436
g5440
ssS'cacheredir'
p5452
(dp5453
g5430
I1
sg5435
L0L
sg5436
g5440
ssS'parsheet'
p5454
(dp5455
g5430
I10
sg5435
L1L
sg5436
g5445
ssS'du'
p5456
(dp5457
g5430
I10
sg5435
L1L
sg5436
g5445
ssS'hostconn'
p5458
(dp5459
g5430
I10
sg5435
L4L
sg5436
g11
sssg5436
S'7/11'
p5460
ssVIE 5.0
p5461
(dp5462
S'total_runs'
p5463
L1L
sS'score'
p5464
I3
sS'results'
p5465
(dp5466
S'maxconn'
p5467
(dp5468
g5464
I0
sS'median'
p5469
L4L
sS'display'
p5470
g11
ssS'parscript'
p5471
(dp5472
g5464
I1
sg5469
L0L
sg5470
S'no'
p5473
ssS'parcssjs'
p5474
(dp5475
g5464
I1
sg5469
L0L
sg5470
g5473
ssS'cacheresredir'
p5476
(dp5477
g5464
I10
sg5469
L1L
sg5470
S'yes'
p5478
ssS'cacheexp'
p5479
(dp5480
g5464
I10
sg5469
L1L
sg5470
g5478
ssS'gzip'
p5481
(dp5482
g5464
I1
sg5469
L0L
sg5470
g5473
ssS'prefetch'
p5483
(dp5484
g5464
I1
sg5469
L0L
sg5470
g5473
ssS'cacheredir'
p5485
(dp5486
g5464
I1
sg5469
L0L
sg5470
g5473
ssS'parsheet'
p5487
(dp5488
g5464
I1
sg5469
L0L
sg5470
g5473
ssS'du'
p5489
(dp5490
g5464
I1
sg5469
L0L
sg5470
g5473
ssS'hostconn'
p5491
(dp5492
g5464
I10
sg5469
L4L
sg5470
g11
sssg5470
S'3/11'
p5493
ssVNetscape 8.1
p5494
(dp5495
S'total_runs'
p5496
L2L
sS'score'
p5497
I5
sS'results'
p5498
(dp5499
S'maxconn'
p5500
(dp5501
g5497
I10
sS'median'
p5502
L24L
sS'display'
p5503
S'24'
p5504
ssS'parscript'
p5505
(dp5506
g5497
I1
sg5502
L0L
sg5503
S'no'
p5507
ssS'parcssjs'
p5508
(dp5509
g5497
I1
sg5502
L0L
sg5503
g5507
ssS'cacheresredir'
p5510
(dp5511
g5497
I10
sg5502
L1L
sg5503
S'yes'
p5512
ssS'cacheexp'
p5513
(dp5514
g5497
I10
sg5502
L1L
sg5503
g5512
ssS'gzip'
p5515
(dp5516
g5497
I10
sg5502
L1L
sg5503
g5512
ssS'prefetch'
p5517
(dp5518
g5497
I10
sg5502
L1L
sg5503
g5512
ssS'cacheredir'
p5519
(dp5520
g5497
I1
sg5502
L0L
sg5503
g5507
ssS'parsheet'
p5521
(dp5522
g5497
I1
sg5502
L0L
sg5503
g5507
ssS'du'
p5523
(dp5524
g5497
I10
sg5502
L1L
sg5503
g5512
ssS'hostconn'
p5525
(dp5526
g5497
I5
sg5502
L2L
sg5503
g34
sssg5503
S'6/11'
p5527
ssVAndroid 0.5
p5528
(dp5529
S'total_runs'
p5530
L1L
sS'score'
p5531
I6
sS'results'
p5532
(dp5533
S'maxconn'
p5534
(dp5535
g5531
I10
sS'median'
p5536
L30L
sS'display'
p5537
S'30'
p5538
ssS'parscript'
p5539
(dp5540
g5531
I1
sg5536
L0L
sg5537
S'no'
p5541
ssS'parcssjs'
p5542
(dp5543
g5531
I1
sg5536
L0L
sg5537
g5541
ssS'cacheresredir'
p5544
(dp5545
g5531
I1
sg5536
L0L
sg5537
g5541
ssS'cacheexp'
p5546
(dp5547
g5531
I10
sg5536
L1L
sg5537
S'yes'
p5548
ssS'gzip'
p5549
(dp5550
g5531
I10
sg5536
L1L
sg5537
g5548
ssS'prefetch'
p5551
(dp5552
g5531
I10
sg5536
L1L
sg5537
g5548
ssS'cacheredir'
p5553
(dp5554
g5531
I1
sg5536
L0L
sg5537
g5541
ssS'parsheet'
p5555
(dp5556
g5531
I10
sg5536
L1L
sg5537
g5548
ssS'du'
p5557
(dp5558
g5531
I10
sg5536
L1L
sg5537
g5548
ssS'hostconn'
p5559
(dp5560
g5531
I10
sg5536
L6L
sg5537
g272
sssg5537
S'7/11'
p5561
ssVIE 5.5
p5562
(dp5563
S'total_runs'
p5564
L22L
sS'score'
p5565
I3
sS'results'
p5566
(dp5567
S'maxconn'
p5568
(dp5569
g5565
I10
sS'median'
p5570
L60L
sS'display'
p5571
S'60'
p5572
ssS'parscript'
p5573
(dp5574
g5565
I1
sg5570
L0L
sg5571
S'no'
p5575
ssS'parcssjs'
p5576
(dp5577
g5565
I1
sg5570
L0L
sg5571
g5575
ssS'cacheresredir'
p5578
(dp5579
g5565
I1
sg5570
L0L
sg5571
g5575
ssS'cacheexp'
p5580
(dp5581
g5565
I10
sg5570
L1L
sg5571
S'yes'
p5582
ssS'gzip'
p5583
(dp5584
g5565
I10
sg5570
L1L
sg5571
g5582
ssS'prefetch'
p5585
(dp5586
g5565
I1
sg5570
L0L
sg5571
g5575
ssS'cacheredir'
p5587
(dp5588
g5565
I1
sg5570
L0L
sg5571
g5575
ssS'parsheet'
p5589
(dp5590
g5565
I10
sg5570
L1L
sg5571
g5582
ssS'du'
p5591
(dp5592
g5565
I1
sg5570
L0L
sg5571
g5575
ssS'hostconn'
p5593
(dp5594
g5565
I5
sg5570
L2L
sg5571
g34
sssg5571
S'4/11'
p5595
ssVIceWeasel 3.1
p5596
(dp5597
S'total_runs'
p5598
L1L
sS'score'
p5599
I8
sS'results'
p5600
(dp5601
S'maxconn'
p5602
(dp5603
g5599
I10
sS'median'
p5604
L30L
sS'display'
p5605
S'30'
p5606
ssS'parscript'
p5607
(dp5608
g5599
I10
sg5604
L1L
sg5605
S'yes'
p5609
ssS'parcssjs'
p5610
(dp5611
g5599
I1
sg5604
L0L
sg5605
S'no'
p5612
ssS'cacheresredir'
p5613
(dp5614
g5599
I10
sg5604
L1L
sg5605
g5609
ssS'cacheexp'
p5615
(dp5616
g5599
I10
sg5604
L1L
sg5605
g5609
ssS'gzip'
p5617
(dp5618
g5599
I10
sg5604
L1L
sg5605
g5609
ssS'prefetch'
p5619
(dp5620
g5599
I10
sg5604
L1L
sg5605
g5609
ssS'cacheredir'
p5621
(dp5622
g5599
I10
sg5604
L1L
sg5605
g5609
ssS'parsheet'
p5623
(dp5624
g5599
I10
sg5604
L1L
sg5605
g5609
ssS'du'
p5625
(dp5626
g5599
I10
sg5604
L1L
sg5605
g5609
ssS'hostconn'
p5627
(dp5628
g5599
I10
sg5604
L6L
sg5605
g272
sssg5605
S'10/11'
p5629
ssVBlackberry 8100
p5630
(dp5631
S'total_runs'
p5632
L1L
sS'score'
p5633
I5
sS'results'
p5634
(dp5635
S'maxconn'
p5636
(dp5637
g5633
I0
sS'median'
p5638
L8L
sS'display'
p5639
g147
ssS'parscript'
p5640
(dp5641
g5633
I10
sg5638
L1L
sg5639
S'yes'
p5642
ssS'parcssjs'
p5643
(dp5644
g5633
I1
sg5638
L0L
sg5639
S'no'
p5645
ssS'cacheresredir'
p5646
(dp5647
g5633
I10
sg5638
L1L
sg5639
g5642
ssS'cacheexp'
p5648
(dp5649
g5633
I10
sg5638
L1L
sg5639
g5642
ssS'gzip'
p5650
(dp5651
g5633
I1
sg5638
L0L
sg5639
g5645
ssS'prefetch'
p5652
(dp5653
g5633
I10
sg5638
L1L
sg5639
g5642
ssS'cacheredir'
p5654
(dp5655
g5633
I1
sg5638
L0L
sg5639
g5645
ssS'parsheet'
p5656
(dp5657
g5633
I10
sg5638
L1L
sg5639
g5642
ssS'du'
p5658
(dp5659
g5633
I1
sg5638
L0L
sg5639
g5645
ssS'hostconn'
p5660
(dp5661
g5633
I10
sg5638
L8L
sg5639
g147
sssg5639
S'6/11'
p5662
ssVVienna 2.3
p5663
(dp5664
S'total_runs'
p5665
L5L
sS'score'
p5666
I6
sS'results'
p5667
(dp5668
S'maxconn'
p5669
(dp5670
g5666
I10
sS'median'
p5671
L60L
sS'display'
p5672
S'60'
p5673
ssS'parscript'
p5674
(dp5675
g5666
I1
sg5671
L0L
sg5672
S'no'
p5676
ssS'parcssjs'
p5677
(dp5678
g5666
I1
sg5671
L0L
sg5672
g5676
ssS'cacheresredir'
p5679
(dp5680
g5666
I10
sg5671
L1L
sg5672
S'yes'
p5681
ssS'cacheexp'
p5682
(dp5683
g5666
I10
sg5671
L1L
sg5672
g5681
ssS'gzip'
p5684
(dp5685
g5666
I10
sg5671
L1L
sg5672
g5681
ssS'prefetch'
p5686
(dp5687
g5666
I1
sg5671
L0L
sg5672
g5676
ssS'cacheredir'
p5688
(dp5689
g5666
I1
sg5671
L0L
sg5672
g5676
ssS'parsheet'
p5690
(dp5691
g5666
I10
sg5671
L1L
sg5672
g5681
ssS'du'
p5692
(dp5693
g5666
I10
sg5671
L1L
sg5672
g5681
ssS'hostconn'
p5694
(dp5695
g5666
I10
sg5671
L4L
sg5672
g11
sssg5672
S'7/11'
p5696
ssVIE Mobile 7.11
p5697
(dp5698
S'total_runs'
p5699
L1L
sS'score'
p5700
I3
sS'results'
p5701
(dp5702
S'maxconn'
p5703
(dp5704
g5700
I0
sS'median'
p5705
L0L
sS'display'
p5706
g46
ssS'parscript'
p5707
(dp5708
g5700
I1
sg5705
L0L
sg5706
S'no'
p5709
ssS'parcssjs'
p5710
(dp5711
g5700
I1
sg5705
L0L
sg5706
g5709
ssS'cacheresredir'
p5712
(dp5713
g5700
I1
sg5705
L0L
sg5706
g5709
ssS'cacheexp'
p5714
(dp5715
g5700
I10
sg5705
L1L
sg5706
S'yes'
p5716
ssS'gzip'
p5717
(dp5718
g5700
I1
sg5705
L0L
sg5706
g5709
ssS'prefetch'
p5719
(dp5720
g5700
I10
sg5705
L1L
sg5706
g5716
ssS'cacheredir'
p5721
(dp5722
g5700
I1
sg5705
L0L
sg5706
g5709
ssS'parsheet'
p5723
(dp5724
g5700
I10
sg5705
L1L
sg5706
g5716
ssS'du'
p5725
(dp5726
g5700
I1
sg5705
L0L
sg5706
g5709
ssS'hostconn'
p5727
(dp5728
g5700
I0
sg5705
L0L
sg5706
g46
sssg5706
S'3/11'
p5729
ssVKonqueror 4.3
p5730
(dp5731
S'total_runs'
p5732
L2L
sS'score'
p5733
I5
sS'results'
p5734
(dp5735
S'maxconn'
p5736
(dp5737
g5733
I0
sS'median'
p5738
L6L
sS'display'
p5739
g272
ssS'parscript'
p5740
(dp5741
g5733
I1
sg5738
L0L
sg5739
S'no'
p5742
ssS'parcssjs'
p5743
(dp5744
g5733
I1
sg5738
L0L
sg5739
g5742
ssS'cacheresredir'
p5745
(dp5746
g5733
I10
sg5738
L1L
sg5739
S'yes'
p5747
ssS'cacheexp'
p5748
(dp5749
g5733
I10
sg5738
L1L
sg5739
g5747
ssS'gzip'
p5750
(dp5751
g5733
I10
sg5738
L1L
sg5739
g5747
ssS'prefetch'
p5752
(dp5753
g5733
I1
sg5738
L0L
sg5739
g5742
ssS'cacheredir'
p5754
(dp5755
g5733
I1
sg5738
L0L
sg5739
g5742
ssS'parsheet'
p5756
(dp5757
g5733
I10
sg5738
L1L
sg5739
g5747
ssS'du'
p5758
(dp5759
g5733
I10
sg5738
L1L
sg5739
g5747
ssS'hostconn'
p5760
(dp5761
g5733
I10
sg5738
L3L
sg5739
g5391
sssg5739
S'6/11'
p5762
ssVKonqueror 4.2
p5763
(dp5764
S'total_runs'
p5765
L14L
sS'score'
p5766
I5
sS'results'
p5767
(dp5768
S'maxconn'
p5769
(dp5770
g5766
I0
sS'median'
p5771
L5L
sS'display'
p5772
g829
ssS'parscript'
p5773
(dp5774
g5766
I1
sg5771
L0L
sg5772
S'no'
p5775
ssS'parcssjs'
p5776
(dp5777
g5766
I1
sg5771
L0L
sg5772
g5775
ssS'cacheresredir'
p5778
(dp5779
g5766
I10
sg5771
L1L
sg5772
S'yes'
p5780
ssS'cacheexp'
p5781
(dp5782
g5766
I10
sg5771
L1L
sg5772
g5780
ssS'gzip'
p5783
(dp5784
g5766
I10
sg5771
L1L
sg5772
g5780
ssS'prefetch'
p5785
(dp5786
g5766
I1
sg5771
L0L
sg5772
g5775
ssS'cacheredir'
p5787
(dp5788
g5766
I1
sg5771
L0L
sg5772
g5775
ssS'parsheet'
p5789
(dp5790
g5766
I10
sg5771
L1L
sg5772
g5780
ssS'du'
p5791
(dp5792
g5766
I10
sg5771
L1L
sg5772
g5780
ssS'hostconn'
p5793
(dp5794
g5766
I10
sg5771
L5L
sg5772
g829
sssg5772
S'6/11'
p5795
ssVOmniWeb 563.34
p5796
(dp5797
S'total_runs'
p5798
L1L
sS'score'
p5799
I4
sS'results'
p5800
(dp5801
S'maxconn'
p5802
(dp5803
g5799
I5
sS'median'
p5804
L10L
sS'display'
p5805
S'10'
p5806
ssS'parscript'
p5807
(dp5808
g5799
I1
sg5804
L0L
sg5805
S'no'
p5809
ssS'parcssjs'
p5810
(dp5811
g5799
I1
sg5804
L0L
sg5805
g5809
ssS'cacheresredir'
p5812
(dp5813
g5799
I10
sg5804
L1L
sg5805
S'yes'
p5814
ssS'cacheexp'
p5815
(dp5816
g5799
I10
sg5804
L1L
sg5805
g5814
ssS'gzip'
p5817
(dp5818
g5799
I10
sg5804
L1L
sg5805
g5814
ssS'prefetch'
p5819
(dp5820
g5799
I1
sg5804
L0L
sg5805
g5809
ssS'cacheredir'
p5821
(dp5822
g5799
I1
sg5804
L0L
sg5805
g5809
ssS'parsheet'
p5823
(dp5824
g5799
I1
sg5804
L0L
sg5805
g5809
ssS'du'
p5825
(dp5826
g5799
I10
sg5804
L1L
sg5805
g5814
ssS'hostconn'
p5827
(dp5828
g5799
I10
sg5804
L4L
sg5805
g11
sssg5805
S'5/11'
p5829
ssVKonqueror 4.1
p5830
(dp5831
S'total_runs'
p5832
L45L
sS'score'
p5833
I6
sS'results'
p5834
(dp5835
S'maxconn'
p5836
(dp5837
g5833
I0
sS'median'
p5838
L5L
sS'display'
p5839
g829
ssS'parscript'
p5840
(dp5841
g5833
I10
sg5838
L1L
sg5839
S'yes'
p5842
ssS'parcssjs'
p5843
(dp5844
g5833
I1
sg5838
L0L
sg5839
S'no'
p5845
ssS'cacheresredir'
p5846
(dp5847
g5833
I10
sg5838
L1L
sg5839
g5842
ssS'cacheexp'
p5848
(dp5849
g5833
I10
sg5838
L1L
sg5839
g5842
ssS'gzip'
p5850
(dp5851
g5833
I10
sg5838
L1L
sg5839
g5842
ssS'prefetch'
p5852
(dp5853
g5833
I1
sg5838
L0L
sg5839
g5845
ssS'cacheredir'
p5854
(dp5855
g5833
I1
sg5838
L0L
sg5839
g5845
ssS'parsheet'
p5856
(dp5857
g5833
I10
sg5838
L1L
sg5839
g5842
ssS'du'
p5858
(dp5859
g5833
I10
sg5838
L1L
sg5839
g5842
ssS'hostconn'
p5860
(dp5861
g5833
I10
sg5838
L5L
sg5839
g829
sssg5839
S'7/11'
p5862
ssVSafari 3.1
p5863
(dp5864
S'total_runs'
p5865
L226L
sS'score'
p5866
I6
sS'results'
p5867
(dp5868
S'maxconn'
p5869
(dp5870
g5866
I10
sS'median'
p5871
L60L
sS'display'
p5872
S'60'
p5873
ssS'parscript'
p5874
(dp5875
g5866
I1
sg5871
L0L
sg5872
S'no'
p5876
ssS'parcssjs'
p5877
(dp5878
g5866
I1
sg5871
L0L
sg5872
g5876
ssS'cacheresredir'
p5879
(dp5880
g5866
I10
sg5871
L1L
sg5872
S'yes'
p5881
ssS'cacheexp'
p5882
(dp5883
g5866
I10
sg5871
L1L
sg5872
g5881
ssS'gzip'
p5884
(dp5885
g5866
I10
sg5871
L1L
sg5872
g5881
ssS'prefetch'
p5886
(dp5887
g5866
I1
sg5871
L0L
sg5872
g5876
ssS'cacheredir'
p5888
(dp5889
g5866
I1
sg5871
L0L
sg5872
g5876
ssS'parsheet'
p5890
(dp5891
g5866
I10
sg5871
L1L
sg5872
g5881
ssS'du'
p5892
(dp5893
g5866
I10
sg5871
L1L
sg5872
g5881
ssS'hostconn'
p5894
(dp5895
g5866
I10
sg5871
L4L
sg5872
g11
sssg5872
S'7/11'
p5896
ssVSafari 3.0
p5897
(dp5898
S'total_runs'
p5899
L24L
sS'score'
p5900
I5
sS'results'
p5901
(dp5902
S'maxconn'
p5903
(dp5904
g5900
I10
sS'median'
p5905
L58L
sS'display'
p5906
S'58'
p5907
ssS'parscript'
p5908
(dp5909
g5900
I1
sg5905
L0L
sg5906
S'no'
p5910
ssS'parcssjs'
p5911
(dp5912
g5900
I1
sg5905
L0L
sg5906
g5910
ssS'cacheresredir'
p5913
(dp5914
g5900
I1
sg5905
L0L
sg5906
g5910
ssS'cacheexp'
p5915
(dp5916
g5900
I10
sg5905
L1L
sg5906
S'yes'
p5917
ssS'gzip'
p5918
(dp5919
g5900
I10
sg5905
L1L
sg5906
g5917
ssS'prefetch'
p5920
(dp5921
g5900
I1
sg5905
L0L
sg5906
g5910
ssS'cacheredir'
p5922
(dp5923
g5900
I1
sg5905
L0L
sg5906
g5910
ssS'parsheet'
p5924
(dp5925
g5900
I10
sg5905
L1L
sg5906
g5917
ssS'du'
p5926
(dp5927
g5900
I10
sg5905
L1L
sg5906
g5917
ssS'hostconn'
p5928
(dp5929
g5900
I10
sg5905
L4L
sg5906
g11
sssg5906
S'6/11'
p5930
ssVPhoenix 0.4
p5931
(dp5932
S'total_runs'
p5933
L1L
sS'score'
p5934
I4
sS'results'
p5935
(dp5936
S'maxconn'
p5937
(dp5938
g5934
I10
sS'median'
p5939
L24L
sS'display'
p5940
S'24'
p5941
ssS'parscript'
p5942
(dp5943
g5934
I1
sg5939
L0L
sg5940
S'no'
p5944
ssS'parcssjs'
p5945
(dp5946
g5934
I1
sg5939
L0L
sg5940
g5944
ssS'cacheresredir'
p5947
(dp5948
g5934
I10
sg5939
L1L
sg5940
S'yes'
p5949
ssS'cacheexp'
p5950
(dp5951
g5934
I10
sg5939
L1L
sg5940
g5949
ssS'gzip'
p5952
(dp5953
g5934
I10
sg5939
L1L
sg5940
g5949
ssS'prefetch'
p5954
(dp5955
g5934
I1
sg5939
L0L
sg5940
g5944
ssS'cacheredir'
p5956
(dp5957
g5934
I1
sg5939
L0L
sg5940
g5944
ssS'parsheet'
p5958
(dp5959
g5934
I1
sg5939
L0L
sg5940
g5944
ssS'du'
p5960
(dp5961
g5934
I10
sg5939
L1L
sg5940
g5949
ssS'hostconn'
p5962
(dp5963
g5934
I5
sg5939
L2L
sg5940
g34
sssg5940
S'5/11'
p5964
ssVKonqueror 4.0
p5965
(dp5966
S'total_runs'
p5967
L1L
sS'score'
p5968
I4
sS'results'
p5969
(dp5970
S'maxconn'
p5971
(dp5972
g5968
I0
sS'median'
p5973
L5L
sS'display'
p5974
g829
ssS'parscript'
p5975
(dp5976
g5968
I1
sg5973
L0L
sg5974
S'no'
p5977
ssS'parcssjs'
p5978
(dp5979
g5968
I1
sg5973
L0L
sg5974
g5977
ssS'cacheresredir'
p5980
(dp5981
g5968
I10
sg5973
L1L
sg5974
S'yes'
p5982
ssS'cacheexp'
p5983
(dp5984
g5968
I10
sg5973
L1L
sg5974
g5982
ssS'gzip'
p5985
(dp5986
g5968
I10
sg5973
L1L
sg5974
g5982
ssS'prefetch'
p5987
(dp5988
g5968
I1
sg5973
L0L
sg5974
g5977
ssS'cacheredir'
p5989
(dp5990
g5968
I1
sg5973
L0L
sg5974
g5977
ssS'parsheet'
p5991
(dp5992
g5968
I10
sg5973
L1L
sg5974
g5982
ssS'du'
p5993
(dp5994
g5968
I1
sg5973
L0L
sg5974
g5977
ssS'hostconn'
p5995
(dp5996
g5968
I10
sg5973
L5L
sg5974
g829
sssg5974
S'5/11'
p5997
ssVPhoenix 0.1
p5998
(dp5999
S'total_runs'
p6000
L1L
sS'score'
p6001
I4
sS'results'
p6002
(dp6003
S'maxconn'
p6004
(dp6005
g6001
I10
sS'median'
p6006
L24L
sS'display'
p6007
S'24'
p6008
ssS'parscript'
p6009
(dp6010
g6001
I1
sg6006
L0L
sg6007
S'no'
p6011
ssS'parcssjs'
p6012
(dp6013
g6001
I1
sg6006
L0L
sg6007
g6011
ssS'cacheresredir'
p6014
(dp6015
g6001
I10
sg6006
L1L
sg6007
S'yes'
p6016
ssS'cacheexp'
p6017
(dp6018
g6001
I10
sg6006
L1L
sg6007
g6016
ssS'gzip'
p6019
(dp6020
g6001
I10
sg6006
L1L
sg6007
g6016
ssS'prefetch'
p6021
(dp6022
g6001
I1
sg6006
L0L
sg6007
g6011
ssS'cacheredir'
p6023
(dp6024
g6001
I1
sg6006
L0L
sg6007
g6011
ssS'parsheet'
p6025
(dp6026
g6001
I1
sg6006
L0L
sg6007
g6011
ssS'du'
p6027
(dp6028
g6001
I10
sg6006
L1L
sg6007
g6016
ssS'hostconn'
p6029
(dp6030
g6001
I5
sg6006
L2L
sg6007
g34
sssg6007
S'5/11'
p6031
ssVIE 9.0
p6032
(dp6033
S'total_runs'
p6034
L1L
sS'score'
p6035
I3
sS'results'
p6036
(dp6037
S'maxconn'
p6038
(dp6039
g6035
I10
sS'median'
p6040
L60L
sS'display'
p6041
S'60'
p6042
ssS'parscript'
p6043
(dp6044
g6035
I1
sg6040
L0L
sg6041
S'no'
p6045
ssS'parcssjs'
p6046
(dp6047
g6035
I1
sg6040
L0L
sg6041
g6045
ssS'cacheresredir'
p6048
(dp6049
g6035
I1
sg6040
L0L
sg6041
g6045
ssS'cacheexp'
p6050
(dp6051
g6035
I10
sg6040
L1L
sg6041
S'yes'
p6052
ssS'gzip'
p6053
(dp6054
g6035
I10
sg6040
L1L
sg6041
g6052
ssS'prefetch'
p6055
(dp6056
g6035
I1
sg6040
L0L
sg6041
g6045
ssS'cacheredir'
p6057
(dp6058
g6035
I1
sg6040
L0L
sg6041
g6045
ssS'parsheet'
p6059
(dp6060
g6035
I1
sg6040
L0L
sg6041
g6045
ssS'du'
p6061
(dp6062
g6035
I1
sg6040
L0L
sg6041
g6045
ssS'hostconn'
p6063
(dp6064
g6035
I10
sg6040
L8L
sg6041
g147
sssg6041
S'4/11'
p6065
ssVNetNewsWire 2.1
p6066
(dp6067
S'total_runs'
p6068
L1L
sS'score'
p6069
I6
sS'results'
p6070
(dp6071
S'maxconn'
p6072
(dp6073
g6069
I10
sS'median'
p6074
L31L
sS'display'
p6075
S'31'
p6076
ssS'parscript'
p6077
(dp6078
g6069
I1
sg6074
L0L
sg6075
S'no'
p6079
ssS'parcssjs'
p6080
(dp6081
g6069
I1
sg6074
L0L
sg6075
g6079
ssS'cacheresredir'
p6082
(dp6083
g6069
I10
sg6074
L1L
sg6075
S'yes'
p6084
ssS'cacheexp'
p6085
(dp6086
g6069
I10
sg6074
L1L
sg6075
g6084
ssS'gzip'
p6087
(dp6088
g6069
I10
sg6074
L1L
sg6075
g6084
ssS'prefetch'
p6089
(dp6090
g6069
I1
sg6074
L0L
sg6075
g6079
ssS'cacheredir'
p6091
(dp6092
g6069
I1
sg6074
L0L
sg6075
g6079
ssS'parsheet'
p6093
(dp6094
g6069
I10
sg6074
L1L
sg6075
g6084
ssS'du'
p6095
(dp6096
g6069
I10
sg6074
L1L
sg6075
g6084
ssS'hostconn'
p6097
(dp6098
g6069
I10
sg6074
L3L
sg6075
g5391
sssg6075
S'7/11'
p6099
ssVOpera 7.11
p6100
(dp6101
S'total_runs'
p6102
L2L
sS'score'
p6103
I3
sS'results'
p6104
(dp6105
S'maxconn'
p6106
(dp6107
g6103
I5
sS'median'
p6108
L20L
sS'display'
p6109
S'20'
p6110
ssS'parscript'
p6111
(dp6112
g6103
I1
sg6108
L0L
sg6109
S'no'
p6113
ssS'parcssjs'
p6114
(dp6115
g6103
I1
sg6108
L0L
sg6109
g6113
ssS'cacheresredir'
p6116
(dp6117
g6103
I1
sg6108
L0L
sg6109
g6113
ssS'cacheexp'
p6118
(dp6119
g6103
I1
sg6108
L0L
sg6109
g6113
ssS'gzip'
p6120
(dp6121
g6103
I10
sg6108
L1L
sg6109
S'yes'
p6122
ssS'prefetch'
p6123
(dp6124
g6103
I1
sg6108
L0L
sg6109
g6113
ssS'cacheredir'
p6125
(dp6126
g6103
I1
sg6108
L0L
sg6109
g6113
ssS'parsheet'
p6127
(dp6128
g6103
I10
sg6108
L1L
sg6109
g6122
ssS'du'
p6129
(dp6130
g6103
I1
sg6108
L0L
sg6109
g6113
ssS'hostconn'
p6131
(dp6132
g6103
I10
sg6108
L4L
sg6109
g11
sssg6109
S'3/11'
p6133
ssVArora 0.5
p6134
(dp6135
S'total_runs'
p6136
L1L
sS'score'
p6137
I5
sS'results'
p6138
(dp6139
S'maxconn'
p6140
(dp6141
g6137
I10
sS'median'
p6142
L53L
sS'display'
p6143
S'53'
p6144
ssS'parscript'
p6145
(dp6146
g6137
I1
sg6142
L0L
sg6143
S'no'
p6147
ssS'parcssjs'
p6148
(dp6149
g6137
I1
sg6142
L0L
sg6143
g6147
ssS'cacheresredir'
p6150
(dp6151
g6137
I10
sg6142
L1L
sg6143
S'yes'
p6152
ssS'cacheexp'
p6153
(dp6154
g6137
I10
sg6142
L1L
sg6143
g6152
ssS'gzip'
p6155
(dp6156
g6137
I10
sg6142
L1L
sg6143
g6152
ssS'prefetch'
p6157
(dp6158
g6137
I1
sg6142
L0L
sg6143
g6147
ssS'cacheredir'
p6159
(dp6160
g6137
I1
sg6142
L0L
sg6143
g6147
ssS'parsheet'
p6161
(dp6162
g6137
I10
sg6142
L1L
sg6143
g6152
ssS'du'
p6163
(dp6164
g6137
I10
sg6142
L1L
sg6143
g6152
ssS'hostconn'
p6165
(dp6166
g6137
I5
sg6142
L2L
sg6143
g34
sssg6143
S'6/11'
p6167
ssVArora 0.7
p6168
(dp6169
S'total_runs'
p6170
L2L
sS'score'
p6171
I6
sS'results'
p6172
(dp6173
S'maxconn'
p6174
(dp6175
g6171
I10
sS'median'
p6176
L60L
sS'display'
p6177
S'60'
p6178
ssS'parscript'
p6179
(dp6180
g6171
I10
sg6176
L1L
sg6177
S'yes'
p6181
ssS'parcssjs'
p6182
(dp6183
g6171
I1
sg6176
L0L
sg6177
S'no'
p6184
ssS'cacheresredir'
p6185
(dp6186
g6171
I10
sg6176
L1L
sg6177
g6181
ssS'cacheexp'
p6187
(dp6188
g6171
I10
sg6176
L1L
sg6177
g6181
ssS'gzip'
p6189
(dp6190
g6171
I10
sg6176
L1L
sg6177
g6181
ssS'prefetch'
p6191
(dp6192
g6171
I1
sg6176
L0L
sg6177
g6184
ssS'cacheredir'
p6193
(dp6194
g6171
I1
sg6176
L0L
sg6177
g6184
ssS'parsheet'
p6195
(dp6196
g6171
I10
sg6176
L1L
sg6177
g6181
ssS'du'
p6197
(dp6198
g6171
I10
sg6176
L1L
sg6177
g6181
ssS'hostconn'
p6199
(dp6200
g6171
I5
sg6176
L2L
sg6177
g34
sssg6177
S'7/11'
p6201
ssVIE 4.01
p6202
(dp6203
S'total_runs'
p6204
L2L
sS'score'
p6205
I0
sS'results'
p6206
(dp6207
S'maxconn'
p6208
(dp6209
g6205
I0
sS'median'
p6210
NsS'display'
p6211
g1302
ssS'parscript'
p6212
(dp6213
g6205
I0
sg6210
Nsg6211
g1302
ssS'parcssjs'
p6214
(dp6215
g6205
I0
sg6210
Nsg6211
g1302
ssS'cacheresredir'
p6216
(dp6217
g6205
I0
sg6210
Nsg6211
g1302
ssS'cacheexp'
p6218
(dp6219
g6205
I0
sg6210
Nsg6211
g1302
ssS'gzip'
p6220
(dp6221
g6205
I0
sg6210
Nsg6211
g1302
ssS'prefetch'
p6222
(dp6223
g6205
I0
sg6210
Nsg6211
g1302
ssS'cacheredir'
p6224
(dp6225
g6205
I0
sg6210
Nsg6211
g1302
ssS'parsheet'
p6226
(dp6227
g6205
I0
sg6210
Nsg6211
g1302
ssS'du'
p6228
(dp6229
g6205
I0
sg6210
Nsg6211
g1302
ssS'hostconn'
p6230
(dp6231
g6205
I0
sg6210
Nsg6211
g1302
sssg6211
S'0/11'
p6232
ssVSafari 3.2
p6233
(dp6234
S'total_runs'
p6235
L561L
sS'score'
p6236
I6
sS'results'
p6237
(dp6238
S'maxconn'
p6239
(dp6240
g6236
I10
sS'median'
p6241
L60L
sS'display'
p6242
S'60'
p6243
ssS'parscript'
p6244
(dp6245
g6236
I1
sg6241
L0L
sg6242
S'no'
p6246
ssS'parcssjs'
p6247
(dp6248
g6236
I1
sg6241
L0L
sg6242
g6246
ssS'cacheresredir'
p6249
(dp6250
g6236
I10
sg6241
L1L
sg6242
S'yes'
p6251
ssS'cacheexp'
p6252
(dp6253
g6236
I10
sg6241
L1L
sg6242
g6251
ssS'gzip'
p6254
(dp6255
g6236
I10
sg6241
L1L
sg6242
g6251
ssS'prefetch'
p6256
(dp6257
g6236
I1
sg6241
L0L
sg6242
g6246
ssS'cacheredir'
p6258
(dp6259
g6236
I1
sg6241
L0L
sg6242
g6246
ssS'parsheet'
p6260
(dp6261
g6236
I10
sg6241
L1L
sg6242
g6251
ssS'du'
p6262
(dp6263
g6236
I10
sg6241
L1L
sg6242
g6251
ssS'hostconn'
p6264
(dp6265
g6236
I10
sg6241
L4L
sg6242
g11
sssg6242
S'7/11'
p6266
ssVMaxthon 2.0
p6267
(dp6268
S'total_runs'
p6269
L36L
sS'score'
p6270
I3
sS'results'
p6271
(dp6272
S'maxconn'
p6273
(dp6274
g6270
I10
sS'median'
p6275
L60L
sS'display'
p6276
S'60'
p6277
ssS'parscript'
p6278
(dp6279
g6270
I1
sg6275
L0L
sg6276
S'no'
p6280
ssS'parcssjs'
p6281
(dp6282
g6270
I1
sg6275
L0L
sg6276
g6280
ssS'cacheresredir'
p6283
(dp6284
g6270
I1
sg6275
L0L
sg6276
g6280
ssS'cacheexp'
p6285
(dp6286
g6270
I10
sg6275
L1L
sg6276
S'yes'
p6287
ssS'gzip'
p6288
(dp6289
g6270
I10
sg6275
L1L
sg6276
g6287
ssS'prefetch'
p6290
(dp6291
g6270
I1
sg6275
L0L
sg6276
g6280
ssS'cacheredir'
p6292
(dp6293
g6270
I1
sg6275
L0L
sg6276
g6280
ssS'parsheet'
p6294
(dp6295
g6270
I1
sg6275
L0L
sg6276
g6280
ssS'du'
p6296
(dp6297
g6270
I1
sg6275
L0L
sg6276
g6280
ssS'hostconn'
p6298
(dp6299
g6270
I10
sg6275
L6L
sg6276
g272
sssg6276
S'4/11'
p6300
ssVArora 0.9
p6301
(dp6302
S'total_runs'
p6303
L1L
sS'score'
p6304
I6
sS'results'
p6305
(dp6306
S'maxconn'
p6307
(dp6308
g6304
I10
sS'median'
p6309
L60L
sS'display'
p6310
S'60'
p6311
ssS'parscript'
p6312
(dp6313
g6304
I10
sg6309
L1L
sg6310
S'yes'
p6314
ssS'parcssjs'
p6315
(dp6316
g6304
I1
sg6309
L0L
sg6310
S'no'
p6317
ssS'cacheresredir'
p6318
(dp6319
g6304
I10
sg6309
L1L
sg6310
g6314
ssS'cacheexp'
p6320
(dp6321
g6304
I10
sg6309
L1L
sg6310
g6314
ssS'gzip'
p6322
(dp6323
g6304
I10
sg6309
L1L
sg6310
g6314
ssS'prefetch'
p6324
(dp6325
g6304
I1
sg6309
L0L
sg6310
g6317
ssS'cacheredir'
p6326
(dp6327
g6304
I1
sg6309
L0L
sg6310
g6317
ssS'parsheet'
p6328
(dp6329
g6304
I10
sg6309
L1L
sg6310
g6314
ssS'du'
p6330
(dp6331
g6304
I10
sg6309
L1L
sg6310
g6314
ssS'hostconn'
p6332
(dp6333
g6304
I5
sg6309
L2L
sg6310
g34
sssg6310
S'7/11'
p6334
ssVOpera 9.00
p6335
(dp6336
S'total_runs'
p6337
L5L
sS'score'
p6338
I5
sS'results'
p6339
(dp6340
S'maxconn'
p6341
(dp6342
g6338
I5
sS'median'
p6343
L20L
sS'display'
p6344
S'20'
p6345
ssS'parscript'
p6346
(dp6347
g6338
I10
sg6343
L1L
sg6344
S'yes'
p6348
ssS'parcssjs'
p6349
(dp6350
g6338
I1
sg6343
L0L
sg6344
S'no'
p6351
ssS'cacheresredir'
p6352
(dp6353
g6338
I1
sg6343
L0L
sg6344
g6351
ssS'cacheexp'
p6354
(dp6355
g6338
I10
sg6343
L1L
sg6344
g6348
ssS'gzip'
p6356
(dp6357
g6338
I10
sg6343
L1L
sg6344
g6348
ssS'prefetch'
p6358
(dp6359
g6338
I1
sg6343
L0L
sg6344
g6351
ssS'cacheredir'
p6360
(dp6361
g6338
I1
sg6343
L0L
sg6344
g6351
ssS'parsheet'
p6362
(dp6363
g6338
I10
sg6343
L1L
sg6344
g6348
ssS'du'
p6364
(dp6365
g6338
I10
sg6343
L1L
sg6344
g6348
ssS'hostconn'
p6366
(dp6367
g6338
I10
sg6343
L4L
sg6344
g11
sssg6344
S'6/11'
p6368
ssVOpera 9.01
p6369
(dp6370
S'total_runs'
p6371
L1L
sS'score'
p6372
I3
sS'results'
p6373
(dp6374
S'maxconn'
p6375
(dp6376
g6372
I0
sS'median'
p6377
L4L
sS'display'
p6378
g11
ssS'parscript'
p6379
(dp6380
g6372
I1
sg6377
L0L
sg6378
S'no'
p6381
ssS'parcssjs'
p6382
(dp6383
g6372
I1
sg6377
L0L
sg6378
g6381
ssS'cacheresredir'
p6384
(dp6385
g6372
I1
sg6377
L0L
sg6378
g6381
ssS'cacheexp'
p6386
(dp6387
g6372
I10
sg6377
L1L
sg6378
S'yes'
p6388
ssS'gzip'
p6389
(dp6390
g6372
I10
sg6377
L1L
sg6378
g6388
ssS'prefetch'
p6391
(dp6392
g6372
I1
sg6377
L0L
sg6378
g6381
ssS'cacheredir'
p6393
(dp6394
g6372
I1
sg6377
L0L
sg6378
g6381
ssS'parsheet'
p6395
(dp6396
g6372
I10
sg6377
L1L
sg6378
g6388
ssS'du'
p6397
(dp6398
g6372
I10
sg6377
L1L
sg6378
g6388
ssS'hostconn'
p6399
(dp6400
g6372
I0
sg6377
L1L
sg6378
g419
sssg6378
S'4/11'
p6401
ssVOpera 9.02
p6402
(dp6403
S'total_runs'
p6404
L2L
sS'score'
p6405
I4
sS'results'
p6406
(dp6407
S'maxconn'
p6408
(dp6409
g6405
I10
sS'median'
p6410
L32L
sS'display'
p6411
S'32'
p6412
ssS'parscript'
p6413
(dp6414
g6405
I1
sg6410
L0L
sg6411
S'no'
p6415
ssS'parcssjs'
p6416
(dp6417
g6405
I1
sg6410
L0L
sg6411
g6415
ssS'cacheresredir'
p6418
(dp6419
g6405
I1
sg6410
L0L
sg6411
g6415
ssS'cacheexp'
p6420
(dp6421
g6405
I10
sg6410
L1L
sg6411
S'yes'
p6422
ssS'gzip'
p6423
(dp6424
g6405
I1
sg6410
L0L
sg6411
g6415
ssS'prefetch'
p6425
(dp6426
g6405
I1
sg6410
L0L
sg6411
g6415
ssS'cacheredir'
p6427
(dp6428
g6405
I1
sg6410
L0L
sg6411
g6415
ssS'parsheet'
p6429
(dp6430
g6405
I10
sg6410
L1L
sg6411
g6422
ssS'du'
p6431
(dp6432
g6405
I10
sg6410
L1L
sg6411
g6422
ssS'hostconn'
p6433
(dp6434
g6405
I10
sg6410
L4L
sg6411
g11
sssg6411
S'5/11'
p6435
ssVMy Internet Browser 3.0
p6436
(dp6437
S'total_runs'
p6438
L1L
sS'score'
p6439
I6
sS'results'
p6440
(dp6441
S'maxconn'
p6442
(dp6443
g6439
I10
sS'median'
p6444
L30L
sS'display'
p6445
S'30'
p6446
ssS'parscript'
p6447
(dp6448
g6439
I1
sg6444
L0L
sg6445
S'no'
p6449
ssS'parcssjs'
p6450
(dp6451
g6439
I1
sg6444
L0L
sg6445
g6449
ssS'cacheresredir'
p6452
(dp6453
g6439
I1
sg6444
L0L
sg6445
g6449
ssS'cacheexp'
p6454
(dp6455
g6439
I10
sg6444
L1L
sg6445
S'yes'
p6456
ssS'gzip'
p6457
(dp6458
g6439
I10
sg6444
L1L
sg6445
g6456
ssS'prefetch'
p6459
(dp6460
g6439
I10
sg6444
L1L
sg6445
g6456
ssS'cacheredir'
p6461
(dp6462
g6439
I1
sg6444
L0L
sg6445
g6449
ssS'parsheet'
p6463
(dp6464
g6439
I10
sg6444
L1L
sg6445
g6456
ssS'du'
p6465
(dp6466
g6439
I10
sg6444
L1L
sg6445
g6456
ssS'hostconn'
p6467
(dp6468
g6439
I10
sg6444
L6L
sg6445
g272
sssg6445
S'7/11'
p6469
ssVUzbl 0
p6470
(dp6471
S'total_runs'
p6472
L6L
sS'score'
p6473
I4
sS'results'
p6474
(dp6475
S'maxconn'
p6476
(dp6477
g6473
I5
sS'median'
p6478
L10L
sS'display'
p6479
S'10'
p6480
ssS'parscript'
p6481
(dp6482
g6473
I10
sg6478
L1L
sg6479
S'yes'
p6483
ssS'parcssjs'
p6484
(dp6485
g6473
I1
sg6478
L0L
sg6479
S'no'
p6486
ssS'cacheresredir'
p6487
(dp6488
g6473
I10
sg6478
L1L
sg6479
g6483
ssS'cacheexp'
p6489
(dp6490
g6473
I10
sg6478
L1L
sg6479
g6483
ssS'gzip'
p6491
(dp6492
g6473
I1
sg6478
L0L
sg6479
g6486
ssS'prefetch'
p6493
(dp6494
g6473
I1
sg6478
L0L
sg6479
g6486
ssS'cacheredir'
p6495
(dp6496
g6473
I1
sg6478
L0L
sg6479
g6486
ssS'parsheet'
p6497
(dp6498
g6473
I10
sg6478
L1L
sg6479
g6483
ssS'du'
p6499
(dp6500
g6473
I10
sg6478
L1L
sg6479
g6483
ssS'hostconn'
p6501
(dp6502
g6473
I5
sg6478
L2L
sg6479
g34
sssg6479
S'5/11'
p6503
ssVIE 5.23
p6504
(dp6505
S'total_runs'
p6506
L6L
sS'score'
p6507
I3
sS'results'
p6508
(dp6509
S'maxconn'
p6510
(dp6511
g6507
I0
sS'median'
p6512
L4L
sS'display'
p6513
g11
ssS'parscript'
p6514
(dp6515
g6507
I1
sg6512
L0L
sg6513
S'no'
p6516
ssS'parcssjs'
p6517
(dp6518
g6507
I1
sg6512
L0L
sg6513
g6516
ssS'cacheresredir'
p6519
(dp6520
g6507
I10
sg6512
L1L
sg6513
S'yes'
p6521
ssS'cacheexp'
p6522
(dp6523
g6507
I10
sg6512
L1L
sg6513
g6521
ssS'gzip'
p6524
(dp6525
g6507
I1
sg6512
L0L
sg6513
g6516
ssS'prefetch'
p6526
(dp6527
g6507
I1
sg6512
L0L
sg6513
g6516
ssS'cacheredir'
p6528
(dp6529
g6507
I1
sg6512
L0L
sg6513
g6516
ssS'parsheet'
p6530
(dp6531
g6507
I1
sg6512
L0L
sg6513
g6516
ssS'du'
p6532
(dp6533
g6507
I1
sg6512
L0L
sg6513
g6516
ssS'hostconn'
p6534
(dp6535
g6507
I10
sg6512
L4L
sg6513
g11
sssg6513
S'3/11'
p6536
ssVOpera 9.26
p6537
(dp6538
S'total_runs'
p6539
L7L
sS'score'
p6540
I4
sS'results'
p6541
(dp6542
S'maxconn'
p6543
(dp6544
g6540
I5
sS'median'
p6545
L20L
sS'display'
p6546
S'20'
p6547
ssS'parscript'
p6548
(dp6549
g6540
I1
sg6545
L0L
sg6546
S'no'
p6550
ssS'parcssjs'
p6551
(dp6552
g6540
I1
sg6545
L0L
sg6546
g6550
ssS'cacheresredir'
p6553
(dp6554
g6540
I1
sg6545
L0L
sg6546
g6550
ssS'cacheexp'
p6555
(dp6556
g6540
I10
sg6545
L1L
sg6546
S'yes'
p6557
ssS'gzip'
p6558
(dp6559
g6540
I10
sg6545
L1L
sg6546
g6557
ssS'prefetch'
p6560
(dp6561
g6540
I1
sg6545
L0L
sg6546
g6550
ssS'cacheredir'
p6562
(dp6563
g6540
I1
sg6545
L0L
sg6546
g6550
ssS'parsheet'
p6564
(dp6565
g6540
I10
sg6545
L1L
sg6546
g6557
ssS'du'
p6566
(dp6567
g6540
I10
sg6545
L1L
sg6546
g6557
ssS'hostconn'
p6568
(dp6569
g6540
I10
sg6545
L4L
sg6546
g11
sssg6546
S'5/11'
p6570
ssVPolaris 6.10
p6571
(dp6572
S'total_runs'
p6573
L1L
sS'score'
p6574
I8
sS'results'
p6575
(dp6576
S'maxconn'
p6577
(dp6578
g6574
I10
sS'median'
p6579
L50L
sS'display'
p6580
S'50'
p6581
ssS'parscript'
p6582
(dp6583
g6574
I10
sg6579
L1L
sg6580
S'yes'
p6584
ssS'parcssjs'
p6585
(dp6586
g6574
I1
sg6579
L0L
sg6580
S'no'
p6587
ssS'cacheresredir'
p6588
(dp6589
g6574
I10
sg6579
L1L
sg6580
g6584
ssS'cacheexp'
p6590
(dp6591
g6574
I10
sg6579
L1L
sg6580
g6584
ssS'gzip'
p6592
(dp6593
g6574
I10
sg6579
L1L
sg6580
g6584
ssS'prefetch'
p6594
(dp6595
g6574
I1
sg6579
L0L
sg6580
g6587
ssS'cacheredir'
p6596
(dp6597
g6574
I10
sg6579
L1L
sg6580
g6584
ssS'parsheet'
p6598
(dp6599
g6574
I10
sg6579
L1L
sg6580
g6584
ssS'du'
p6600
(dp6601
g6574
I10
sg6579
L1L
sg6580
g6584
ssS'hostconn'
p6602
(dp6603
g6574
I10
sg6579
L10L
sg6580
S'10'
p6604
sssg6580
S'9/11'
p6605
ssVOpera 9.80
p6606
(dp6607
S'total_runs'
p6608
L1L
sS'score'
p6609
I5
sS'results'
p6610
(dp6611
S'maxconn'
p6612
(dp6613
g6609
I5
sS'median'
p6614
L20L
sS'display'
p6615
S'20'
p6616
ssS'parscript'
p6617
(dp6618
g6609
I1
sg6614
L0L
sg6615
S'no'
p6619
ssS'parcssjs'
p6620
(dp6621
g6609
I1
sg6614
L0L
sg6615
g6619
ssS'cacheresredir'
p6622
(dp6623
g6609
I10
sg6614
L1L
sg6615
S'yes'
p6624
ssS'cacheexp'
p6625
(dp6626
g6609
I10
sg6614
L1L
sg6615
g6624
ssS'gzip'
p6627
(dp6628
g6609
I10
sg6614
L1L
sg6615
g6624
ssS'prefetch'
p6629
(dp6630
g6609
I1
sg6614
L0L
sg6615
g6619
ssS'cacheredir'
p6631
(dp6632
g6609
I1
sg6614
L0L
sg6615
g6619
ssS'parsheet'
p6633
(dp6634
g6609
I10
sg6614
L1L
sg6615
g6624
ssS'du'
p6635
(dp6636
g6609
I10
sg6614
L1L
sg6615
g6624
ssS'hostconn'
p6637
(dp6638
g6609
I10
sg6614
L4L
sg6615
g11
sssg6615
S'6/11'
p6639
ssVIceweasel 2.0
p6640
(dp6641
S'total_runs'
p6642
L13L
sS'score'
p6643
I6
sS'results'
p6644
(dp6645
S'maxconn'
p6646
(dp6647
g6643
I10
sS'median'
p6648
L23L
sS'display'
p6649
S'23'
p6650
ssS'parscript'
p6651
(dp6652
g6643
I1
sg6648
L0L
sg6649
S'no'
p6653
ssS'parcssjs'
p6654
(dp6655
g6643
I1
sg6648
L0L
sg6649
g6653
ssS'cacheresredir'
p6656
(dp6657
g6643
I10
sg6648
L1L
sg6649
S'yes'
p6658
ssS'cacheexp'
p6659
(dp6660
g6643
I10
sg6648
L1L
sg6649
g6658
ssS'gzip'
p6661
(dp6662
g6643
I10
sg6648
L1L
sg6649
g6658
ssS'prefetch'
p6663
(dp6664
g6643
I10
sg6648
L1L
sg6649
g6658
ssS'cacheredir'
p6665
(dp6666
g6643
I10
sg6648
L1L
sg6649
g6658
ssS'parsheet'
p6667
(dp6668
g6643
I1
sg6648
L0L
sg6649
g6653
ssS'du'
p6669
(dp6670
g6643
I10
sg6648
L1L
sg6649
g6658
ssS'hostconn'
p6671
(dp6672
g6643
I5
sg6648
L2L
sg6649
g34
sssg6649
S'7/11'
p6673
ssVMicroB 1.0
p6674
(dp6675
S'total_runs'
p6676
L1L
sS'score'
p6677
I8
sS'results'
p6678
(dp6679
S'maxconn'
p6680
(dp6681
g6677
I10
sS'median'
p6682
L30L
sS'display'
p6683
S'30'
p6684
ssS'parscript'
p6685
(dp6686
g6677
I10
sg6682
L1L
sg6683
S'yes'
p6687
ssS'parcssjs'
p6688
(dp6689
g6677
I1
sg6682
L0L
sg6683
S'no'
p6690
ssS'cacheresredir'
p6691
(dp6692
g6677
I10
sg6682
L1L
sg6683
g6687
ssS'cacheexp'
p6693
(dp6694
g6677
I10
sg6682
L1L
sg6683
g6687
ssS'gzip'
p6695
(dp6696
g6677
I10
sg6682
L1L
sg6683
g6687
ssS'prefetch'
p6697
(dp6698
g6677
I10
sg6682
L1L
sg6683
g6687
ssS'cacheredir'
p6699
(dp6700
g6677
I10
sg6682
L1L
sg6683
g6687
ssS'parsheet'
p6701
(dp6702
g6677
I10
sg6682
L1L
sg6683
g6687
ssS'du'
p6703
(dp6704
g6677
I10
sg6682
L1L
sg6683
g6687
ssS'hostconn'
p6705
(dp6706
g6677
I10
sg6682
L6L
sg6683
g272
sssg6683
S'10/11'
p6707
ssVCamino 1.0
p6708
(dp6709
S'total_runs'
p6710
L1L
sS'score'
p6711
I6
sS'results'
p6712
(dp6713
S'maxconn'
p6714
(dp6715
g6711
I10
sS'median'
p6716
L24L
sS'display'
p6717
S'24'
p6718
ssS'parscript'
p6719
(dp6720
g6711
I1
sg6716
L0L
sg6717
S'no'
p6721
ssS'parcssjs'
p6722
(dp6723
g6711
I1
sg6716
L0L
sg6717
g6721
ssS'cacheresredir'
p6724
(dp6725
g6711
I10
sg6716
L1L
sg6717
S'yes'
p6726
ssS'cacheexp'
p6727
(dp6728
g6711
I10
sg6716
L1L
sg6717
g6726
ssS'gzip'
p6729
(dp6730
g6711
I10
sg6716
L1L
sg6717
g6726
ssS'prefetch'
p6731
(dp6732
g6711
I10
sg6716
L1L
sg6717
g6726
ssS'cacheredir'
p6733
(dp6734
g6711
I10
sg6716
L1L
sg6717
g6726
ssS'parsheet'
p6735
(dp6736
g6711
I1
sg6716
L0L
sg6717
g6721
ssS'du'
p6737
(dp6738
g6711
I10
sg6716
L1L
sg6717
g6726
ssS'hostconn'
p6739
(dp6740
g6711
I5
sg6716
L2L
sg6717
g34
sssg6717
S'7/11'
p6741
ssVJasmine 1.0
p6742
(dp6743
S'total_runs'
p6744
L3L
sS'score'
p6745
I3
sS'results'
p6746
(dp6747
S'maxconn'
p6748
(dp6749
g6745
I0
sS'median'
p6750
L5L
sS'display'
p6751
g829
ssS'parscript'
p6752
(dp6753
g6745
I1
sg6750
L0L
sg6751
S'no'
p6754
ssS'parcssjs'
p6755
(dp6756
g6745
I1
sg6750
L0L
sg6751
g6754
ssS'cacheresredir'
p6757
(dp6758
g6745
I1
sg6750
L0L
sg6751
g6754
ssS'cacheexp'
p6759
(dp6760
g6745
I1
sg6750
L0L
sg6751
g6754
ssS'gzip'
p6761
(dp6762
g6745
I10
sg6750
L1L
sg6751
S'yes'
p6763
ssS'prefetch'
p6764
(dp6765
g6745
I1
sg6750
L0L
sg6751
g6754
ssS'cacheredir'
p6766
(dp6767
g6745
I1
sg6750
L0L
sg6751
g6754
ssS'parsheet'
p6768
(dp6769
g6745
I10
sg6750
L1L
sg6751
g6763
ssS'du'
p6770
(dp6771
g6745
I10
sg6750
L1L
sg6751
g6763
ssS'hostconn'
p6772
(dp6773
g6745
I10
sg6750
L5L
sg6751
g829
sssg6751
S'4/11'
p6774
ssVCamino 1.6
p6775
(dp6776
S'total_runs'
p6777
L33L
sS'score'
p6778
I6
sS'results'
p6779
(dp6780
S'maxconn'
p6781
(dp6782
g6778
I10
sS'median'
p6783
L24L
sS'display'
p6784
S'24'
p6785
ssS'parscript'
p6786
(dp6787
g6778
I1
sg6783
L0L
sg6784
S'no'
p6788
ssS'parcssjs'
p6789
(dp6790
g6778
I1
sg6783
L0L
sg6784
g6788
ssS'cacheresredir'
p6791
(dp6792
g6778
I10
sg6783
L1L
sg6784
S'yes'
p6793
ssS'cacheexp'
p6794
(dp6795
g6778
I10
sg6783
L1L
sg6784
g6793
ssS'gzip'
p6796
(dp6797
g6778
I10
sg6783
L1L
sg6784
g6793
ssS'prefetch'
p6798
(dp6799
g6778
I10
sg6783
L1L
sg6784
g6793
ssS'cacheredir'
p6800
(dp6801
g6778
I10
sg6783
L1L
sg6784
g6793
ssS'parsheet'
p6802
(dp6803
g6778
I1
sg6783
L0L
sg6784
g6788
ssS'du'
p6804
(dp6805
g6778
I10
sg6783
L1L
sg6784
g6793
ssS'hostconn'
p6806
(dp6807
g6778
I5
sg6783
L2L
sg6784
g34
sssg6784
S'7/11'
p6808
ssVCamino 1.5
p6809
(dp6810
S'total_runs'
p6811
L2L
sS'score'
p6812
I6
sS'results'
p6813
(dp6814
S'maxconn'
p6815
(dp6816
g6812
I10
sS'median'
p6817
L24L
sS'display'
p6818
S'24'
p6819
ssS'parscript'
p6820
(dp6821
g6812
I1
sg6817
L0L
sg6818
S'no'
p6822
ssS'parcssjs'
p6823
(dp6824
g6812
I1
sg6817
L0L
sg6818
g6822
ssS'cacheresredir'
p6825
(dp6826
g6812
I10
sg6817
L1L
sg6818
S'yes'
p6827
ssS'cacheexp'
p6828
(dp6829
g6812
I10
sg6817
L1L
sg6818
g6827
ssS'gzip'
p6830
(dp6831
g6812
I10
sg6817
L1L
sg6818
g6827
ssS'prefetch'
p6832
(dp6833
g6812
I10
sg6817
L1L
sg6818
g6827
ssS'cacheredir'
p6834
(dp6835
g6812
I10
sg6817
L1L
sg6818
g6827
ssS'parsheet'
p6836
(dp6837
g6812
I1
sg6817
L0L
sg6818
g6822
ssS'du'
p6838
(dp6839
g6812
I10
sg6817
L1L
sg6818
g6827
ssS'hostconn'
p6840
(dp6841
g6812
I5
sg6817
L2L
sg6818
g34
sssg6818
S'7/11'
p6842
ssVOpera 9.27
p6843
(dp6844
S'total_runs'
p6845
L43L
sS'score'
p6846
I4
sS'results'
p6847
(dp6848
S'maxconn'
p6849
(dp6850
g6846
I5
sS'median'
p6851
L20L
sS'display'
p6852
S'20'
p6853
ssS'parscript'
p6854
(dp6855
g6846
I1
sg6851
L0L
sg6852
S'no'
p6856
ssS'parcssjs'
p6857
(dp6858
g6846
I1
sg6851
L0L
sg6852
g6856
ssS'cacheresredir'
p6859
(dp6860
g6846
I1
sg6851
L0L
sg6852
g6856
ssS'cacheexp'
p6861
(dp6862
g6846
I10
sg6851
L1L
sg6852
S'yes'
p6863
ssS'gzip'
p6864
(dp6865
g6846
I10
sg6851
L1L
sg6852
g6863
ssS'prefetch'
p6866
(dp6867
g6846
I1
sg6851
L0L
sg6852
g6856
ssS'cacheredir'
p6868
(dp6869
g6846
I1
sg6851
L0L
sg6852
g6856
ssS'parsheet'
p6870
(dp6871
g6846
I10
sg6851
L1L
sg6852
g6863
ssS'du'
p6872
(dp6873
g6846
I10
sg6851
L1L
sg6852
g6863
ssS'hostconn'
p6874
(dp6875
g6846
I10
sg6851
L4L
sg6852
g11
sssg6852
S'5/11'
p6876
ssVMaxthon 3.0
p6877
(dp6878
S'total_runs'
p6879
L9L
sS'score'
p6880
I8
sS'results'
p6881
(dp6882
S'maxconn'
p6883
(dp6884
g6880
I10
sS'median'
p6885
L60L
sS'display'
p6886
S'60'
p6887
ssS'parscript'
p6888
(dp6889
g6880
I10
sg6885
L1L
sg6886
S'yes'
p6890
ssS'parcssjs'
p6891
(dp6892
g6880
I1
sg6885
L0L
sg6886
S'no'
p6893
ssS'cacheresredir'
p6894
(dp6895
g6880
I10
sg6885
L1L
sg6886
g6890
ssS'cacheexp'
p6896
(dp6897
g6880
I10
sg6885
L1L
sg6886
g6890
ssS'gzip'
p6898
(dp6899
g6880
I10
sg6885
L1L
sg6886
g6890
ssS'prefetch'
p6900
(dp6901
g6880
I1
sg6885
L0L
sg6886
g6893
ssS'cacheredir'
p6902
(dp6903
g6880
I10
sg6885
L1L
sg6886
g6890
ssS'parsheet'
p6904
(dp6905
g6880
I10
sg6885
L1L
sg6886
g6890
ssS'du'
p6906
(dp6907
g6880
I10
sg6885
L1L
sg6886
g6890
ssS'hostconn'
p6908
(dp6909
g6880
I10
sg6885
L6L
sg6886
g272
sssg6886
S'9/11'
p6910
ssVChrome 2.0
p6911
(dp6912
S'total_runs'
p6913
L474L
sS'score'
p6914
I8
sS'results'
p6915
(dp6916
S'maxconn'
p6917
(dp6918
g6914
I10
sS'median'
p6919
L60L
sS'display'
p6920
S'60'
p6921
ssS'parscript'
p6922
(dp6923
g6914
I10
sg6919
L1L
sg6920
S'yes'
p6924
ssS'parcssjs'
p6925
(dp6926
g6914
I1
sg6919
L0L
sg6920
S'no'
p6927
ssS'cacheresredir'
p6928
(dp6929
g6914
I10
sg6919
L1L
sg6920
g6924
ssS'cacheexp'
p6930
(dp6931
g6914
I10
sg6919
L1L
sg6920
g6924
ssS'gzip'
p6932
(dp6933
g6914
I10
sg6919
L1L
sg6920
g6924
ssS'prefetch'
p6934
(dp6935
g6914
I1
sg6919
L0L
sg6920
g6927
ssS'cacheredir'
p6936
(dp6937
g6914
I10
sg6919
L1L
sg6920
g6924
ssS'parsheet'
p6938
(dp6939
g6914
I10
sg6919
L1L
sg6920
g6924
ssS'du'
p6940
(dp6941
g6914
I10
sg6919
L1L
sg6920
g6924
ssS'hostconn'
p6942
(dp6943
g6914
I10
sg6919
L6L
sg6920
g272
sssg6920
S'9/11'
p6944
ssVBlackberry 8320
p6945
(dp6946
S'total_runs'
p6947
L2L
sS'score'
p6948
I5
sS'results'
p6949
(dp6950
S'maxconn'
p6951
(dp6952
g6948
I0
sS'median'
p6953
L8L
sS'display'
p6954
g147
ssS'parscript'
p6955
(dp6956
g6948
I10
sg6953
L1L
sg6954
S'yes'
p6957
ssS'parcssjs'
p6958
(dp6959
g6948
I1
sg6953
L0L
sg6954
S'no'
p6960
ssS'cacheresredir'
p6961
(dp6962
g6948
I10
sg6953
L1L
sg6954
g6957
ssS'cacheexp'
p6963
(dp6964
g6948
I10
sg6953
L1L
sg6954
g6957
ssS'gzip'
p6965
(dp6966
g6948
I1
sg6953
L0L
sg6954
g6960
ssS'prefetch'
p6967
(dp6968
g6948
I10
sg6953
L1L
sg6954
g6957
ssS'cacheredir'
p6969
(dp6970
g6948
I1
sg6953
L0L
sg6954
g6960
ssS'parsheet'
p6971
(dp6972
g6948
I10
sg6953
L1L
sg6954
g6957
ssS'du'
p6973
(dp6974
g6948
I1
sg6953
L0L
sg6954
g6960
ssS'hostconn'
p6975
(dp6976
g6948
I10
sg6953
L8L
sg6954
g147
sssg6954
S'6/11'
p6977
ssVNokia 5800
p6978
(dp6979
S'total_runs'
p6980
L2L
sS'score'
p6981
I8
sS'results'
p6982
(dp6983
S'maxconn'
p6984
(dp6985
g6981
I5
sS'median'
p6986
L16L
sS'display'
p6987
S'16'
p6988
ssS'parscript'
p6989
(dp6990
g6981
I10
sg6986
L1L
sg6987
S'yes'
p6991
ssS'parcssjs'
p6992
(dp6993
g6981
I1
sg6986
L0L
sg6987
S'no'
p6994
ssS'cacheresredir'
p6995
(dp6996
g6981
I10
sg6986
L1L
sg6987
g6991
ssS'cacheexp'
p6997
(dp6998
g6981
I10
sg6986
L1L
sg6987
g6991
ssS'gzip'
p6999
(dp7000
g6981
I10
sg6986
L1L
sg6987
g6991
ssS'prefetch'
p7001
(dp7002
g6981
I10
sg6986
L1L
sg6987
g6991
ssS'cacheredir'
p7003
(dp7004
g6981
I10
sg6986
L1L
sg6987
g6991
ssS'parsheet'
p7005
(dp7006
g6981
I10
sg6986
L1L
sg6987
g6991
ssS'du'
p7007
(dp7008
g6981
I10
sg6986
L1L
sg6987
g6991
ssS'hostconn'
p7009
(dp7010
g6981
I10
sg6986
L16L
sg6987
S'16'
p7011
sssg6987
S'9/11'
p7012
ssVPlayStation 3
p7013
(dp7014
S'total_runs'
p7015
L5L
sS'score'
p7016
I3
sS'results'
p7017
(dp7018
S'maxconn'
p7019
(dp7020
g7016
I0
sS'median'
p7021
L4L
sS'display'
p7022
g11
ssS'parscript'
p7023
(dp7024
g7016
I1
sg7021
L0L
sg7022
S'no'
p7025
ssS'parcssjs'
p7026
(dp7027
g7016
I1
sg7021
L0L
sg7022
g7025
ssS'cacheresredir'
p7028
(dp7029
g7016
I1
sg7021
L0L
sg7022
g7025
ssS'cacheexp'
p7030
(dp7031
g7016
I10
sg7021
L1L
sg7022
S'yes'
p7032
ssS'gzip'
p7033
(dp7034
g7016
I1
sg7021
L0L
sg7022
g7025
ssS'prefetch'
p7035
(dp7036
g7016
I1
sg7021
L0L
sg7022
g7025
ssS'cacheredir'
p7037
(dp7038
g7016
I10
sg7021
L1L
sg7022
g7032
ssS'parsheet'
p7039
(dp7040
g7016
I1
sg7021
L0L
sg7022
g7025
ssS'du'
p7041
(dp7042
g7016
I10
sg7021
L1L
sg7022
g7032
ssS'hostconn'
p7043
(dp7044
g7016
I10
sg7021
L4L
sg7022
g11
sssg7022
S'4/11'
p7045
ssVBlackberry 8120
p7046
(dp7047
S'total_runs'
p7048
L1L
sS'score'
p7049
I5
sS'results'
p7050
(dp7051
S'maxconn'
p7052
(dp7053
g7049
I0
sS'median'
p7054
L0L
sS'display'
p7055
g46
ssS'parscript'
p7056
(dp7057
g7049
I1
sg7054
L0L
sg7055
S'no'
p7058
ssS'parcssjs'
p7059
(dp7060
g7049
I10
sg7054
L1L
sg7055
S'yes'
p7061
ssS'cacheresredir'
p7062
(dp7063
g7049
I10
sg7054
L1L
sg7055
g7061
ssS'cacheexp'
p7064
(dp7065
g7049
I10
sg7054
L1L
sg7055
g7061
ssS'gzip'
p7066
(dp7067
g7049
I10
sg7054
L1L
sg7055
g7061
ssS'prefetch'
p7068
(dp7069
g7049
I10
sg7054
L1L
sg7055
g7061
ssS'cacheredir'
p7070
(dp7071
g7049
I1
sg7054
L0L
sg7055
g7058
ssS'parsheet'
p7072
(dp7073
g7049
I10
sg7054
L1L
sg7055
g7061
ssS'du'
p7074
(dp7075
g7049
I1
sg7054
L0L
sg7055
g7058
ssS'hostconn'
p7076
(dp7077
g7049
I0
sg7054
L0L
sg7055
g46
sssg7055
S'6/11'
p7078
ssVQtWeb 2.0
p7079
(dp7080
S'total_runs'
p7081
L1L
sS'score'
p7082
I7
sS'results'
p7083
(dp7084
S'maxconn'
p7085
(dp7086
g7082
I10
sS'median'
p7087
L60L
sS'display'
p7088
S'60'
p7089
ssS'parscript'
p7090
(dp7091
g7082
I10
sg7087
L1L
sg7088
S'yes'
p7092
ssS'parcssjs'
p7093
(dp7094
g7082
I1
sg7087
L0L
sg7088
S'no'
p7095
ssS'cacheresredir'
p7096
(dp7097
g7082
I10
sg7087
L1L
sg7088
g7092
ssS'cacheexp'
p7098
(dp7099
g7082
I10
sg7087
L1L
sg7088
g7092
ssS'gzip'
p7100
(dp7101
g7082
I10
sg7087
L1L
sg7088
g7092
ssS'prefetch'
p7102
(dp7103
g7082
I1
sg7087
L0L
sg7088
g7095
ssS'cacheredir'
p7104
(dp7105
g7082
I10
sg7087
L1L
sg7088
g7092
ssS'parsheet'
p7106
(dp7107
g7082
I10
sg7087
L1L
sg7088
g7092
ssS'du'
p7108
(dp7109
g7082
I10
sg7087
L1L
sg7088
g7092
ssS'hostconn'
p7110
(dp7111
g7082
I5
sg7087
L2L
sg7088
g34
sssg7088
S'8/11'
p7112
ssVBlackberry 8800
p7113
(dp7114
S'total_runs'
p7115
L1L
sS'score'
p7116
I5
sS'results'
p7117
(dp7118
S'maxconn'
p7119
(dp7120
g7116
I0
sS'median'
p7121
L4L
sS'display'
p7122
g11
ssS'parscript'
p7123
(dp7124
g7116
I10
sg7121
L1L
sg7122
S'yes'
p7125
ssS'parcssjs'
p7126
(dp7127
g7116
I1
sg7121
L0L
sg7122
S'no'
p7128
ssS'cacheresredir'
p7129
(dp7130
g7116
I10
sg7121
L1L
sg7122
g7125
ssS'cacheexp'
p7131
(dp7132
g7116
I10
sg7121
L1L
sg7122
g7125
ssS'gzip'
p7133
(dp7134
g7116
I1
sg7121
L0L
sg7122
g7128
ssS'prefetch'
p7135
(dp7136
g7116
I10
sg7121
L1L
sg7122
g7125
ssS'cacheredir'
p7137
(dp7138
g7116
I1
sg7121
L0L
sg7122
g7128
ssS'parsheet'
p7139
(dp7140
g7116
I10
sg7121
L1L
sg7122
g7125
ssS'du'
p7141
(dp7142
g7116
I1
sg7121
L0L
sg7122
g7128
ssS'hostconn'
p7143
(dp7144
g7116
I10
sg7121
L4L
sg7122
g11
sssg7122
S'6/11'
p7145
ssVChrome 0.5
p7146
(dp7147
S'total_runs'
p7148
L18L
sS'score'
p7149
I8
sS'results'
p7150
(dp7151
S'maxconn'
p7152
(dp7153
g7149
I10
sS'median'
p7154
L60L
sS'display'
p7155
S'60'
p7156
ssS'parscript'
p7157
(dp7158
g7149
I10
sg7154
L1L
sg7155
S'yes'
p7159
ssS'parcssjs'
p7160
(dp7161
g7149
I1
sg7154
L0L
sg7155
S'no'
p7162
ssS'cacheresredir'
p7163
(dp7164
g7149
I10
sg7154
L1L
sg7155
g7159
ssS'cacheexp'
p7165
(dp7166
g7149
I10
sg7154
L1L
sg7155
g7159
ssS'gzip'
p7167
(dp7168
g7149
I10
sg7154
L1L
sg7155
g7159
ssS'prefetch'
p7169
(dp7170
g7149
I1
sg7154
L0L
sg7155
g7162
ssS'cacheredir'
p7171
(dp7172
g7149
I10
sg7154
L1L
sg7155
g7159
ssS'parsheet'
p7173
(dp7174
g7149
I10
sg7154
L1L
sg7155
g7159
ssS'du'
p7175
(dp7176
g7149
I10
sg7154
L1L
sg7155
g7159
ssS'hostconn'
p7177
(dp7178
g7149
I10
sg7154
L6L
sg7155
g272
sssg7155
S'9/11'
p7179
ssVChrome 0.2
p7180
(dp7181
S'total_runs'
p7182
L97L
sS'score'
p7183
I6
sS'results'
p7184
(dp7185
S'maxconn'
p7186
(dp7187
g7183
I0
sS'median'
p7188
L0L
sS'display'
p7189
g46
ssS'parscript'
p7190
(dp7191
g7183
I1
sg7188
L0L
sg7189
S'no'
p7192
ssS'parcssjs'
p7193
(dp7194
g7183
I1
sg7188
L0L
sg7189
g7192
ssS'cacheresredir'
p7195
(dp7196
g7183
I10
sg7188
L1L
sg7189
S'yes'
p7197
ssS'cacheexp'
p7198
(dp7199
g7183
I10
sg7188
L1L
sg7189
g7197
ssS'gzip'
p7200
(dp7201
g7183
I10
sg7188
L1L
sg7189
g7197
ssS'prefetch'
p7202
(dp7203
g7183
I1
sg7188
L0L
sg7189
g7192
ssS'cacheredir'
p7204
(dp7205
g7183
I10
sg7188
L1L
sg7189
g7197
ssS'parsheet'
p7206
(dp7207
g7183
I10
sg7188
L1L
sg7189
g7197
ssS'du'
p7208
(dp7209
g7183
I10
sg7188
L1L
sg7189
g7197
ssS'hostconn'
p7210
(dp7211
g7183
I10
sg7188
L6L
sg7189
g272
sssg7189
S'7/11'
p7212
ssVAndroid 0.6
p7213
(dp7214
S'total_runs'
p7215
L2L
sS'score'
p7216
I4
sS'results'
p7217
(dp7218
S'maxconn'
p7219
(dp7220
g7216
I0
sS'median'
p7221
L2L
sS'display'
p7222
g34
ssS'parscript'
p7223
(dp7224
g7216
I1
sg7221
L0L
sg7222
S'no'
p7225
ssS'parcssjs'
p7226
(dp7227
g7216
I1
sg7221
L0L
sg7222
g7225
ssS'cacheresredir'
p7228
(dp7229
g7216
I1
sg7221
L0L
sg7222
g7225
ssS'cacheexp'
p7230
(dp7231
g7216
I10
sg7221
L1L
sg7222
S'yes'
p7232
ssS'gzip'
p7233
(dp7234
g7216
I10
sg7221
L1L
sg7222
g7232
ssS'prefetch'
p7235
(dp7236
g7216
I1
sg7221
L0L
sg7222
g7225
ssS'cacheredir'
p7237
(dp7238
g7216
I10
sg7221
L1L
sg7222
g7232
ssS'parsheet'
p7239
(dp7240
g7216
I10
sg7221
L1L
sg7222
g7232
ssS'du'
p7241
(dp7242
g7216
I10
sg7221
L1L
sg7222
g7232
ssS'hostconn'
p7243
(dp7244
g7216
I5
sg7221
L2L
sg7222
g34
sssg7222
S'5/11'
p7245
ssVObigo 05
p7246
(dp7247
S'total_runs'
p7248
L1L
sS'score'
p7249
I3
sS'results'
p7250
(dp7251
S'maxconn'
p7252
(dp7253
g7249
I5
sS'median'
p7254
L10L
sS'display'
p7255
S'10'
p7256
ssS'parscript'
p7257
(dp7258
g7249
I1
sg7254
L0L
sg7255
S'no'
p7259
ssS'parcssjs'
p7260
(dp7261
g7249
I1
sg7254
L0L
sg7255
g7259
ssS'cacheresredir'
p7262
(dp7263
g7249
I1
sg7254
L0L
sg7255
g7259
ssS'cacheexp'
p7264
(dp7265
g7249
I10
sg7254
L1L
sg7255
S'yes'
p7266
ssS'gzip'
p7267
(dp7268
g7249
I10
sg7254
L1L
sg7255
g7266
ssS'prefetch'
p7269
(dp7270
g7249
I1
sg7254
L0L
sg7255
g7259
ssS'cacheredir'
p7271
(dp7272
g7249
I1
sg7254
L0L
sg7255
g7259
ssS'parsheet'
p7273
(dp7274
g7249
I1
sg7254
L0L
sg7255
g7259
ssS'du'
p7275
(dp7276
g7249
I10
sg7254
L1L
sg7255
g7266
ssS'hostconn'
p7277
(dp7278
g7249
I10
sg7254
L9L
sg7255
g215
sssg7255
S'4/11'
p7279
ssVNetscape 9.0
p7280
(dp7281
S'total_runs'
p7282
L9L
sS'score'
p7283
I5
sS'results'
p7284
(dp7285
S'maxconn'
p7286
(dp7287
g7283
I10
sS'median'
p7288
L24L
sS'display'
p7289
S'24'
p7290
ssS'parscript'
p7291
(dp7292
g7283
I1
sg7288
L0L
sg7289
S'no'
p7293
ssS'parcssjs'
p7294
(dp7295
g7283
I1
sg7288
L0L
sg7289
g7293
ssS'cacheresredir'
p7296
(dp7297
g7283
I10
sg7288
L1L
sg7289
S'yes'
p7298
ssS'cacheexp'
p7299
(dp7300
g7283
I10
sg7288
L1L
sg7289
g7298
ssS'gzip'
p7301
(dp7302
g7283
I10
sg7288
L1L
sg7289
g7298
ssS'prefetch'
p7303
(dp7304
g7283
I1
sg7288
L0L
sg7289
g7293
ssS'cacheredir'
p7305
(dp7306
g7283
I10
sg7288
L1L
sg7289
g7298
ssS'parsheet'
p7307
(dp7308
g7283
I1
sg7288
L0L
sg7289
g7293
ssS'du'
p7309
(dp7310
g7283
I10
sg7288
L1L
sg7289
g7298
ssS'hostconn'
p7311
(dp7312
g7283
I5
sg7288
L2L
sg7289
g34
sssg7289
S'6/11'
p7313
ssVEpiphany 2.22
p7314
(dp7315
S'total_runs'
p7316
L42L
sS'score'
p7317
I6
sS'results'
p7318
(dp7319
S'maxconn'
p7320
(dp7321
g7317
I10
sS'median'
p7322
L30L
sS'display'
p7323
S'30'
p7324
ssS'parscript'
p7325
(dp7326
g7317
I1
sg7322
L0L
sg7323
S'no'
p7327
ssS'parcssjs'
p7328
(dp7329
g7317
I1
sg7322
L0L
sg7323
g7327
ssS'cacheresredir'
p7330
(dp7331
g7317
I1
sg7322
L0L
sg7323
g7327
ssS'cacheexp'
p7332
(dp7333
g7317
I10
sg7322
L1L
sg7323
S'yes'
p7334
ssS'gzip'
p7335
(dp7336
g7317
I10
sg7322
L1L
sg7323
g7334
ssS'prefetch'
p7337
(dp7338
g7317
I10
sg7322
L1L
sg7323
g7334
ssS'cacheredir'
p7339
(dp7340
g7317
I1
sg7322
L0L
sg7323
g7327
ssS'parsheet'
p7341
(dp7342
g7317
I10
sg7322
L1L
sg7323
g7334
ssS'du'
p7343
(dp7344
g7317
I10
sg7322
L1L
sg7323
g7334
ssS'hostconn'
p7345
(dp7346
g7317
I10
sg7322
L6L
sg7323
g272
sssg7323
S'7/11'
p7347
ssVNetFront 3.5
p7348
(dp7349
S'total_runs'
p7350
L2L
sS'score'
p7351
I4
sS'results'
p7352
(dp7353
S'maxconn'
p7354
(dp7355
g7351
I0
sS'median'
p7356
L0L
sS'display'
p7357
g46
ssS'parscript'
p7358
(dp7359
g7351
I1
sg7356
L0L
sg7357
S'no'
p7360
ssS'parcssjs'
p7361
(dp7362
g7351
I1
sg7356
L0L
sg7357
g7360
ssS'cacheresredir'
p7363
(dp7364
g7351
I10
sg7356
L1L
sg7357
S'yes'
p7365
ssS'cacheexp'
p7366
(dp7367
g7351
I10
sg7356
L1L
sg7357
g7365
ssS'gzip'
p7368
(dp7369
g7351
I10
sg7356
L1L
sg7357
g7365
ssS'prefetch'
p7370
(dp7371
g7351
I10
sg7356
L1L
sg7357
g7365
ssS'cacheredir'
p7372
(dp7373
g7351
I1
sg7356
L0L
sg7357
g7360
ssS'parsheet'
p7374
(dp7375
g7351
I1
sg7356
L0L
sg7357
g7360
ssS'du'
p7376
(dp7377
g7351
I10
sg7356
L1L
sg7357
g7365
ssS'hostconn'
p7378
(dp7379
g7351
I0
sg7356
L0L
sg7357
g46
sssg7357
S'5/11'
p7380
ssVNetFront 3.4
p7381
(dp7382
S'total_runs'
p7383
L6L
sS'score'
p7384
I3
sS'results'
p7385
(dp7386
S'maxconn'
p7387
(dp7388
g7384
I0
sS'median'
p7389
L0L
sS'display'
p7390
g46
ssS'parscript'
p7391
(dp7392
g7384
I1
sg7389
L0L
sg7390
S'no'
p7393
ssS'parcssjs'
p7394
(dp7395
g7384
I1
sg7389
L0L
sg7390
g7393
ssS'cacheresredir'
p7396
(dp7397
g7384
I1
sg7389
L0L
sg7390
g7393
ssS'cacheexp'
p7398
(dp7399
g7384
I10
sg7389
L1L
sg7390
S'yes'
p7400
ssS'gzip'
p7401
(dp7402
g7384
I10
sg7389
L1L
sg7390
g7400
ssS'prefetch'
p7403
(dp7404
g7384
I1
sg7389
L0L
sg7390
g7393
ssS'cacheredir'
p7405
(dp7406
g7384
I1
sg7389
L0L
sg7390
g7393
ssS'parsheet'
p7407
(dp7408
g7384
I10
sg7389
L1L
sg7390
g7400
ssS'du'
p7409
(dp7410
g7384
I10
sg7389
L1L
sg7390
g7400
ssS'hostconn'
p7411
(dp7412
g7384
I0
sg7389
L0L
sg7390
g46
sssg7390
S'4/11'
p7413
ssVNetFront 3.3
p7414
(dp7415
S'total_runs'
p7416
L27L
sS'score'
p7417
I5
sS'results'
p7418
(dp7419
S'maxconn'
p7420
(dp7421
g7417
I0
sS'median'
p7422
L0L
sS'display'
p7423
g46
ssS'parscript'
p7424
(dp7425
g7417
I1
sg7422
L0L
sg7423
S'no'
p7426
ssS'parcssjs'
p7427
(dp7428
g7417
I1
sg7422
L0L
sg7423
g7426
ssS'cacheresredir'
p7429
(dp7430
g7417
I10
sg7422
L1L
sg7423
S'yes'
p7431
ssS'cacheexp'
p7432
(dp7433
g7417
I10
sg7422
L1L
sg7423
g7431
ssS'gzip'
p7434
(dp7435
g7417
I10
sg7422
L1L
sg7423
g7431
ssS'prefetch'
p7436
(dp7437
g7417
I10
sg7422
L1L
sg7423
g7431
ssS'cacheredir'
p7438
(dp7439
g7417
I1
sg7422
L0L
sg7423
g7426
ssS'parsheet'
p7440
(dp7441
g7417
I10
sg7422
L1L
sg7423
g7431
ssS'du'
p7442
(dp7443
g7417
I10
sg7422
L1L
sg7423
g7431
ssS'hostconn'
p7444
(dp7445
g7417
I0
sg7422
L0L
sg7423
g46
sssg7423
S'6/11'
p7446
ssVOmniWeb 607.17
p7447
(dp7448
S'total_runs'
p7449
L1L
sS'score'
p7450
I6
sS'results'
p7451
(dp7452
S'maxconn'
p7453
(dp7454
g7450
I10
sS'median'
p7455
L60L
sS'display'
p7456
S'60'
p7457
ssS'parscript'
p7458
(dp7459
g7450
I1
sg7455
L0L
sg7456
S'no'
p7460
ssS'parcssjs'
p7461
(dp7462
g7450
I1
sg7455
L0L
sg7456
g7460
ssS'cacheresredir'
p7463
(dp7464
g7450
I10
sg7455
L1L
sg7456
S'yes'
p7465
ssS'cacheexp'
p7466
(dp7467
g7450
I10
sg7455
L1L
sg7456
g7465
ssS'gzip'
p7468
(dp7469
g7450
I10
sg7455
L1L
sg7456
g7465
ssS'prefetch'
p7470
(dp7471
g7450
I1
sg7455
L0L
sg7456
g7460
ssS'cacheredir'
p7472
(dp7473
g7450
I1
sg7455
L0L
sg7456
g7460
ssS'parsheet'
p7474
(dp7475
g7450
I10
sg7455
L1L
sg7456
g7465
ssS'du'
p7476
(dp7477
g7450
I10
sg7455
L1L
sg7456
g7465
ssS'hostconn'
p7478
(dp7479
g7450
I10
sg7455
L4L
sg7456
g11
sssg7456
S'7/11'
p7480
ssVMidori 0.1
p7481
(dp7482
S'total_runs'
p7483
L5L
sS'score'
p7484
I4
sS'results'
p7485
(dp7486
S'maxconn'
p7487
(dp7488
g7484
I5
sS'median'
p7489
L10L
sS'display'
p7490
S'10'
p7491
ssS'parscript'
p7492
(dp7493
g7484
I10
sg7489
L1L
sg7490
S'yes'
p7494
ssS'parcssjs'
p7495
(dp7496
g7484
I1
sg7489
L0L
sg7490
S'no'
p7497
ssS'cacheresredir'
p7498
(dp7499
g7484
I10
sg7489
L1L
sg7490
g7494
ssS'cacheexp'
p7500
(dp7501
g7484
I10
sg7489
L1L
sg7490
g7494
ssS'gzip'
p7502
(dp7503
g7484
I1
sg7489
L0L
sg7490
g7497
ssS'prefetch'
p7504
(dp7505
g7484
I1
sg7489
L0L
sg7490
g7497
ssS'cacheredir'
p7506
(dp7507
g7484
I1
sg7489
L0L
sg7490
g7497
ssS'parsheet'
p7508
(dp7509
g7484
I10
sg7489
L1L
sg7490
g7494
ssS'du'
p7510
(dp7511
g7484
I10
sg7489
L1L
sg7490
g7494
ssS'hostconn'
p7512
(dp7513
g7484
I5
sg7489
L2L
sg7490
g34
sssg7490
S'5/11'
p7514
ssVNokia 82
p7515
(dp7516
S'total_runs'
p7517
L3L
sS'score'
p7518
I5
sS'results'
p7519
(dp7520
S'maxconn'
p7521
(dp7522
g7518
I0
sS'median'
p7523
L7L
sS'display'
p7524
g113
ssS'parscript'
p7525
(dp7526
g7518
I10
sg7523
L1L
sg7524
S'yes'
p7527
ssS'parcssjs'
p7528
(dp7529
g7518
I1
sg7523
L0L
sg7524
S'no'
p7530
ssS'cacheresredir'
p7531
(dp7532
g7518
I1
sg7523
L0L
sg7524
g7530
ssS'cacheexp'
p7533
(dp7534
g7518
I10
sg7523
L1L
sg7524
g7527
ssS'gzip'
p7535
(dp7536
g7518
I10
sg7523
L1L
sg7524
g7527
ssS'prefetch'
p7537
(dp7538
g7518
I10
sg7523
L1L
sg7524
g7527
ssS'cacheredir'
p7539
(dp7540
g7518
I1
sg7523
L0L
sg7524
g7530
ssS'parsheet'
p7541
(dp7542
g7518
I10
sg7523
L1L
sg7524
g7527
ssS'du'
p7543
(dp7544
g7518
I1
sg7523
L0L
sg7524
g7530
ssS'hostconn'
p7545
(dp7546
g7518
I10
sg7523
L7L
sg7524
g113
sssg7524
S'6/11'
p7547
ssVOpera 10.50
p7548
(dp7549
S'total_runs'
p7550
L1L
sS'score'
p7551
I4
sS'results'
p7552
(dp7553
S'maxconn'
p7554
(dp7555
g7551
I5
sS'median'
p7556
L20L
sS'display'
p7557
S'20'
p7558
ssS'parscript'
p7559
(dp7560
g7551
I1
sg7556
L0L
sg7557
S'no'
p7561
ssS'parcssjs'
p7562
(dp7563
g7551
I1
sg7556
L0L
sg7557
g7561
ssS'cacheresredir'
p7564
(dp7565
g7551
I1
sg7556
L0L
sg7557
g7561
ssS'cacheexp'
p7566
(dp7567
g7551
I10
sg7556
L1L
sg7557
S'yes'
p7568
ssS'gzip'
p7569
(dp7570
g7551
I10
sg7556
L1L
sg7557
g7568
ssS'prefetch'
p7571
(dp7572
g7551
I1
sg7556
L0L
sg7557
g7561
ssS'cacheredir'
p7573
(dp7574
g7551
I1
sg7556
L0L
sg7557
g7561
ssS'parsheet'
p7575
(dp7576
g7551
I10
sg7556
L1L
sg7557
g7568
ssS'du'
p7577
(dp7578
g7551
I10
sg7556
L1L
sg7557
g7568
ssS'hostconn'
p7579
(dp7580
g7551
I10
sg7556
L4L
sg7557
g11
sssg7557
S'5/11'
p7581
ssVWii
p7582
(dp7583
S'total_runs'
p7584
L6L
sS'score'
p7585
I4
sS'results'
p7586
(dp7587
S'maxconn'
p7588
(dp7589
g7585
I0
sS'median'
p7590
L3L
sS'display'
p7591
g5391
ssS'parscript'
p7592
(dp7593
g7585
I10
sg7590
L1L
sg7591
S'yes'
p7594
ssS'parcssjs'
p7595
(dp7596
g7585
I1
sg7590
L0L
sg7591
S'no'
p7597
ssS'cacheresredir'
p7598
(dp7599
g7585
I1
sg7590
L0L
sg7591
g7597
ssS'cacheexp'
p7600
(dp7601
g7585
I10
sg7590
L1L
sg7591
g7594
ssS'gzip'
p7602
(dp7603
g7585
I10
sg7590
L1L
sg7591
g7594
ssS'prefetch'
p7604
(dp7605
g7585
I1
sg7590
L0L
sg7591
g7597
ssS'cacheredir'
p7606
(dp7607
g7585
I1
sg7590
L0L
sg7591
g7597
ssS'parsheet'
p7608
(dp7609
g7585
I10
sg7590
L1L
sg7591
g7594
ssS'du'
p7610
(dp7611
g7585
I10
sg7590
L1L
sg7591
g7594
ssS'hostconn'
p7612
(dp7613
g7585
I5
sg7590
L2L
sg7591
g34
sssg7591
S'5/11'
p7614
ssVNokia 85
p7615
(dp7616
S'total_runs'
p7617
L1L
sS'score'
p7618
I4
sS'results'
p7619
(dp7620
S'maxconn'
p7621
(dp7622
g7618
I0
sS'median'
p7623
L0L
sS'display'
p7624
g46
ssS'parscript'
p7625
(dp7626
g7618
I10
sg7623
L1L
sg7624
S'yes'
p7627
ssS'parcssjs'
p7628
(dp7629
g7618
I1
sg7623
L0L
sg7624
S'no'
p7630
ssS'cacheresredir'
p7631
(dp7632
g7618
I1
sg7623
L0L
sg7624
g7630
ssS'cacheexp'
p7633
(dp7634
g7618
I10
sg7623
L1L
sg7624
g7627
ssS'gzip'
p7635
(dp7636
g7618
I10
sg7623
L1L
sg7624
g7627
ssS'prefetch'
p7637
(dp7638
g7618
I1
sg7623
L0L
sg7624
g7630
ssS'cacheredir'
p7639
(dp7640
g7618
I1
sg7623
L0L
sg7624
g7630
ssS'parsheet'
p7641
(dp7642
g7618
I10
sg7623
L1L
sg7624
g7627
ssS'du'
p7643
(dp7644
g7618
I10
sg7623
L1L
sg7624
g7627
ssS'hostconn'
p7645
(dp7646
g7618
I0
sg7623
L0L
sg7624
g46
sssg7624
S'5/11'
p7647
ssViPhone 2.2
p7648
(dp7649
S'total_runs'
p7650
L86L
sS'score'
p7651
I7
sS'results'
p7652
(dp7653
S'maxconn'
p7654
(dp7655
g7651
I10
sS'median'
p7656
L60L
sS'display'
p7657
S'60'
p7658
ssS'parscript'
p7659
(dp7660
g7651
I10
sg7656
L1L
sg7657
S'yes'
p7661
ssS'parcssjs'
p7662
(dp7663
g7651
I1
sg7656
L0L
sg7657
S'no'
p7664
ssS'cacheresredir'
p7665
(dp7666
g7651
I10
sg7656
L1L
sg7657
g7661
ssS'cacheexp'
p7667
(dp7668
g7651
I10
sg7656
L1L
sg7657
g7661
ssS'gzip'
p7669
(dp7670
g7651
I10
sg7656
L1L
sg7657
g7661
ssS'prefetch'
p7671
(dp7672
g7651
I1
sg7656
L0L
sg7657
g7664
ssS'cacheredir'
p7673
(dp7674
g7651
I1
sg7656
L0L
sg7657
g7664
ssS'parsheet'
p7675
(dp7676
g7651
I10
sg7656
L1L
sg7657
g7661
ssS'du'
p7677
(dp7678
g7651
I10
sg7656
L1L
sg7657
g7661
ssS'hostconn'
p7679
(dp7680
g7651
I10
sg7656
L4L
sg7657
g11
sssg7657
S'8/11'
p7681
ssVQtWeb 1.2
p7682
(dp7683
S'total_runs'
p7684
L1L
sS'score'
p7685
I6
sS'results'
p7686
(dp7687
S'maxconn'
p7688
(dp7689
g7685
I10
sS'median'
p7690
L60L
sS'display'
p7691
S'60'
p7692
ssS'parscript'
p7693
(dp7694
g7685
I10
sg7690
L1L
sg7691
S'yes'
p7695
ssS'parcssjs'
p7696
(dp7697
g7685
I1
sg7690
L0L
sg7691
S'no'
p7698
ssS'cacheresredir'
p7699
(dp7700
g7685
I10
sg7690
L1L
sg7691
g7695
ssS'cacheexp'
p7701
(dp7702
g7685
I10
sg7690
L1L
sg7691
g7695
ssS'gzip'
p7703
(dp7704
g7685
I10
sg7690
L1L
sg7691
g7695
ssS'prefetch'
p7705
(dp7706
g7685
I1
sg7690
L0L
sg7691
g7698
ssS'cacheredir'
p7707
(dp7708
g7685
I1
sg7690
L0L
sg7691
g7698
ssS'parsheet'
p7709
(dp7710
g7685
I10
sg7690
L1L
sg7691
g7695
ssS'du'
p7711
(dp7712
g7685
I10
sg7690
L1L
sg7691
g7695
ssS'hostconn'
p7713
(dp7714
g7685
I5
sg7690
L2L
sg7691
g34
sssg7691
S'7/11'
p7715
ssVOpera 9.70
p7716
(dp7717
S'total_runs'
p7718
L2L
sS'score'
p7719
I4
sS'results'
p7720
(dp7721
S'maxconn'
p7722
(dp7723
g7719
I5
sS'median'
p7724
L20L
sS'display'
p7725
S'20'
p7726
ssS'parscript'
p7727
(dp7728
g7719
I1
sg7724
L0L
sg7725
S'no'
p7729
ssS'parcssjs'
p7730
(dp7731
g7719
I1
sg7724
L0L
sg7725
g7729
ssS'cacheresredir'
p7732
(dp7733
g7719
I1
sg7724
L0L
sg7725
g7729
ssS'cacheexp'
p7734
(dp7735
g7719
I10
sg7724
L1L
sg7725
S'yes'
p7736
ssS'gzip'
p7737
(dp7738
g7719
I10
sg7724
L1L
sg7725
g7736
ssS'prefetch'
p7739
(dp7740
g7719
I1
sg7724
L0L
sg7725
g7729
ssS'cacheredir'
p7741
(dp7742
g7719
I1
sg7724
L0L
sg7725
g7729
ssS'parsheet'
p7743
(dp7744
g7719
I10
sg7724
L1L
sg7725
g7736
ssS'du'
p7745
(dp7746
g7719
I10
sg7724
L1L
sg7725
g7736
ssS'hostconn'
p7747
(dp7748
g7719
I10
sg7724
L4L
sg7725
g11
sssg7725
S'5/11'
p7749
ssVBlackberry 9500
p7750
(dp7751
S'total_runs'
p7752
L3L
sS'score'
p7753
I4
sS'results'
p7754
(dp7755
S'maxconn'
p7756
(dp7757
g7753
I0
sS'median'
p7758
L5L
sS'display'
p7759
g829
ssS'parscript'
p7760
(dp7761
g7753
I1
sg7758
L0L
sg7759
S'no'
p7762
ssS'parcssjs'
p7763
(dp7764
g7753
I1
sg7758
L0L
sg7759
g7762
ssS'cacheresredir'
p7765
(dp7766
g7753
I10
sg7758
L1L
sg7759
S'yes'
p7767
ssS'cacheexp'
p7768
(dp7769
g7753
I10
sg7758
L1L
sg7759
g7767
ssS'gzip'
p7770
(dp7771
g7753
I10
sg7758
L1L
sg7759
g7767
ssS'prefetch'
p7772
(dp7773
g7753
I1
sg7758
L0L
sg7759
g7762
ssS'cacheredir'
p7774
(dp7775
g7753
I10
sg7758
L1L
sg7759
g7767
ssS'parsheet'
p7776
(dp7777
g7753
I1
sg7758
L0L
sg7759
g7762
ssS'du'
p7778
(dp7779
g7753
I1
sg7758
L0L
sg7759
g7762
ssS'hostconn'
p7780
(dp7781
g7753
I10
sg7758
L5L
sg7759
g829
sssg7759
S'5/11'
p7782
ssVNokia 79
p7783
(dp7784
S'total_runs'
p7785
L1L
sS'score'
p7786
I5
sS'results'
p7787
(dp7788
S'maxconn'
p7789
(dp7790
g7786
I0
sS'median'
p7791
L7L
sS'display'
p7792
g113
ssS'parscript'
p7793
(dp7794
g7786
I10
sg7791
L1L
sg7792
S'yes'
p7795
ssS'parcssjs'
p7796
(dp7797
g7786
I1
sg7791
L0L
sg7792
S'no'
p7798
ssS'cacheresredir'
p7799
(dp7800
g7786
I1
sg7791
L0L
sg7792
g7798
ssS'cacheexp'
p7801
(dp7802
g7786
I10
sg7791
L1L
sg7792
g7795
ssS'gzip'
p7803
(dp7804
g7786
I10
sg7791
L1L
sg7792
g7795
ssS'prefetch'
p7805
(dp7806
g7786
I1
sg7791
L0L
sg7792
g7798
ssS'cacheredir'
p7807
(dp7808
g7786
I1
sg7791
L0L
sg7792
g7798
ssS'parsheet'
p7809
(dp7810
g7786
I10
sg7791
L1L
sg7792
g7795
ssS'du'
p7811
(dp7812
g7786
I10
sg7791
L1L
sg7792
g7795
ssS'hostconn'
p7813
(dp7814
g7786
I10
sg7791
L7L
sg7792
g113
sssg7792
S'6/11'
p7815
ssViRider 2.52
p7816
(dp7817
S'total_runs'
p7818
L1L
sS'score'
p7819
I5
sS'results'
p7820
(dp7821
S'maxconn'
p7822
(dp7823
g7819
I10
sS'median'
p7824
L28L
sS'display'
p7825
S'28'
p7826
ssS'parscript'
p7827
(dp7828
g7819
I10
sg7824
L1L
sg7825
S'yes'
p7829
ssS'parcssjs'
p7830
(dp7831
g7819
I1
sg7824
L0L
sg7825
S'no'
p7832
ssS'cacheresredir'
p7833
(dp7834
g7819
I1
sg7824
L0L
sg7825
g7832
ssS'cacheexp'
p7835
(dp7836
g7819
I10
sg7824
L1L
sg7825
g7829
ssS'gzip'
p7837
(dp7838
g7819
I10
sg7824
L1L
sg7825
g7829
ssS'prefetch'
p7839
(dp7840
g7819
I1
sg7824
L0L
sg7825
g7832
ssS'cacheredir'
p7841
(dp7842
g7819
I1
sg7824
L0L
sg7825
g7832
ssS'parsheet'
p7843
(dp7844
g7819
I10
sg7824
L1L
sg7825
g7829
ssS'du'
p7845
(dp7846
g7819
I10
sg7824
L1L
sg7825
g7829
ssS'hostconn'
p7847
(dp7848
g7819
I5
sg7824
L2L
sg7825
g34
sssg7825
S'6/11'
p7849
ss.