(dp0
S'Opera 9.7'
p1
(dp2
S'total_runs'
p3
L1L
sS'score'
p4
I4
sS'results'
p5
(dp6
S'maxconn'
p7
(dp8
g4
I0
sS'median'
p9
L4L
sS'display'
p10
S'4'
p11
ssS'parscript'
p12
(dp13
g4
I10
sg9
L1L
sg10
S'yes'
p14
ssS'parcssjs'
p15
(dp16
g4
I1
sg9
L0L
sg10
S'no'
p17
ssS'cacheresredir'
p18
(dp19
g4
I1
sg9
L0L
sg10
g17
ssS'cacheexp'
p20
(dp21
g4
I10
sg9
L1L
sg10
g14
ssS'gzip'
p22
(dp23
g4
I10
sg9
L1L
sg10
g14
ssS'prefetch'
p24
(dp25
g4
I1
sg9
L0L
sg10
g17
ssS'cacheredir'
p26
(dp27
g4
I1
sg9
L0L
sg10
g17
ssS'parsheet'
p28
(dp29
g4
I10
sg9
L1L
sg10
g14
ssS'du'
p30
(dp31
g4
I10
sg9
L1L
sg10
g14
ssS'hostconn'
p32
(dp33
g4
I5
sg9
L2L
sg10
S'2'
p34
sssg10
S'5/11'
p35
ssS'Opera 9.6'
p36
(dp37
S'total_runs'
p38
L2L
sS'score'
p39
I4
sS'results'
p40
(dp41
S'maxconn'
p42
(dp43
g39
I0
sS'median'
p44
L0L
sS'display'
p45
S'0'
p46
ssS'parscript'
p47
(dp48
g39
I10
sg44
L1L
sg45
S'yes'
p49
ssS'parcssjs'
p50
(dp51
g39
I1
sg44
L0L
sg45
S'no'
p52
ssS'cacheresredir'
p53
(dp54
g39
I1
sg44
L0L
sg45
g52
ssS'cacheexp'
p55
(dp56
g39
I10
sg44
L1L
sg45
g49
ssS'gzip'
p57
(dp58
g39
I10
sg44
L1L
sg45
g49
ssS'prefetch'
p59
(dp60
g39
I1
sg44
L0L
sg45
g52
ssS'cacheredir'
p61
(dp62
g39
I1
sg44
L0L
sg45
g52
ssS'parsheet'
p63
(dp64
g39
I10
sg44
L1L
sg45
g49
ssS'du'
p65
(dp66
g39
I10
sg44
L1L
sg45
g49
ssS'hostconn'
p67
(dp68
g39
I5
sg44
L2L
sg45
g34
sssg45
S'5/11'
p69
ssS'Opera 9.5'
p70
(dp71
S'total_runs'
p72
L3L
sS'score'
p73
I4
sS'results'
p74
(dp75
S'maxconn'
p76
(dp77
g73
I0
sS'median'
p78
L4L
sS'display'
p79
g11
ssS'parscript'
p80
(dp81
g73
I10
sg78
L1L
sg79
S'yes'
p82
ssS'parcssjs'
p83
(dp84
g73
I1
sg78
L0L
sg79
S'no'
p85
ssS'cacheresredir'
p86
(dp87
g73
I1
sg78
L0L
sg79
g85
ssS'cacheexp'
p88
(dp89
g73
I10
sg78
L1L
sg79
g82
ssS'gzip'
p90
(dp91
g73
I10
sg78
L1L
sg79
g82
ssS'prefetch'
p92
(dp93
g73
I1
sg78
L0L
sg79
g85
ssS'cacheredir'
p94
(dp95
g73
I1
sg78
L0L
sg79
g85
ssS'parsheet'
p96
(dp97
g73
I10
sg78
L1L
sg79
g82
ssS'du'
p98
(dp99
g73
I10
sg78
L1L
sg79
g82
ssS'hostconn'
p100
(dp101
g73
I5
sg78
L2L
sg79
g34
sssg79
S'5/11'
p102
ssS'Nokia 78'
p103
(dp104
S'total_runs'
p105
L1L
sS'score'
p106
I5
sS'results'
p107
(dp108
S'maxconn'
p109
(dp110
g106
I0
sS'median'
p111
L7L
sS'display'
p112
S'7'
p113
ssS'parscript'
p114
(dp115
g106
I10
sg111
L1L
sg112
S'yes'
p116
ssS'parcssjs'
p117
(dp118
g106
I1
sg111
L0L
sg112
S'no'
p119
ssS'cacheresredir'
p120
(dp121
g106
I1
sg111
L0L
sg112
g119
ssS'cacheexp'
p122
(dp123
g106
I10
sg111
L1L
sg112
g116
ssS'gzip'
p124
(dp125
g106
I10
sg111
L1L
sg112
g116
ssS'prefetch'
p126
(dp127
g106
I1
sg111
L0L
sg112
g119
ssS'cacheredir'
p128
(dp129
g106
I1
sg111
L0L
sg112
g119
ssS'parsheet'
p130
(dp131
g106
I10
sg111
L1L
sg112
g116
ssS'du'
p132
(dp133
g106
I10
sg111
L1L
sg112
g116
ssS'hostconn'
p134
(dp135
g106
I10
sg111
L7L
sg112
g113
sssg112
S'6/11'
p136
ssS'Blackberry 8330'
p137
(dp138
S'total_runs'
p139
L1L
sS'score'
p140
I5
sS'results'
p141
(dp142
S'maxconn'
p143
(dp144
g140
I0
sS'median'
p145
L8L
sS'display'
p146
S'8'
p147
ssS'parscript'
p148
(dp149
g140
I10
sg145
L1L
sg146
S'yes'
p150
ssS'parcssjs'
p151
(dp152
g140
I1
sg145
L0L
sg146
S'no'
p153
ssS'cacheresredir'
p154
(dp155
g140
I10
sg145
L1L
sg146
g150
ssS'cacheexp'
p156
(dp157
g140
I10
sg145
L1L
sg146
g150
ssS'gzip'
p158
(dp159
g140
I1
sg145
L0L
sg146
g153
ssS'prefetch'
p160
(dp161
g140
I10
sg145
L1L
sg146
g150
ssS'cacheredir'
p162
(dp163
g140
I1
sg145
L0L
sg146
g153
ssS'parsheet'
p164
(dp165
g140
I10
sg145
L1L
sg146
g150
ssS'du'
p166
(dp167
g140
I1
sg145
L0L
sg146
g153
ssS'hostconn'
p168
(dp169
g140
I10
sg145
L8L
sg146
g147
sssg146
S'6/11'
p170
ssS'Opera 9.0'
p171
(dp172
S'total_runs'
p173
L2L
sS'score'
p174
I4
sS'results'
p175
(dp176
S'maxconn'
p177
(dp178
g174
I5
sS'median'
p179
L20L
sS'display'
p180
S'20'
p181
ssS'parscript'
p182
(dp183
g174
I1
sg179
L0L
sg180
S'no'
p184
ssS'parcssjs'
p185
(dp186
g174
I1
sg179
L0L
sg180
g184
ssS'cacheresredir'
p187
(dp188
g174
I1
sg179
L0L
sg180
g184
ssS'cacheexp'
p189
(dp190
g174
I10
sg179
L1L
sg180
S'yes'
p191
ssS'gzip'
p192
(dp193
g174
I10
sg179
L1L
sg180
g191
ssS'prefetch'
p194
(dp195
g174
I1
sg179
L0L
sg180
g184
ssS'cacheredir'
p196
(dp197
g174
I1
sg179
L0L
sg180
g184
ssS'parsheet'
p198
(dp199
g174
I10
sg179
L1L
sg180
g191
ssS'du'
p200
(dp201
g174
I10
sg179
L1L
sg180
g191
ssS'hostconn'
p202
(dp203
g174
I10
sg179
L4L
sg180
g11
sssg180
S'5/11'
p204
ssS'Maxthon 0'
p205
(dp206
S'total_runs'
p207
L12L
sS'score'
p208
I3
sS'results'
p209
(dp210
S'maxconn'
p211
(dp212
g208
I0
sS'median'
p213
L9L
sS'display'
p214
S'9'
p215
ssS'parscript'
p216
(dp217
g208
I1
sg213
L0L
sg214
S'no'
p218
ssS'parcssjs'
p219
(dp220
g208
I1
sg213
L0L
sg214
g218
ssS'cacheresredir'
p221
(dp222
g208
I1
sg213
L0L
sg214
g218
ssS'cacheexp'
p223
(dp224
g208
I10
sg213
L1L
sg214
S'yes'
p225
ssS'gzip'
p226
(dp227
g208
I10
sg213
L1L
sg214
g225
ssS'prefetch'
p228
(dp229
g208
I1
sg213
L0L
sg214
g218
ssS'cacheredir'
p230
(dp231
g208
I1
sg213
L0L
sg214
g218
ssS'parsheet'
p232
(dp233
g208
I10
sg213
L1L
sg214
g225
ssS'du'
p234
(dp235
g208
I1
sg213
L0L
sg214
g218
ssS'hostconn'
p236
(dp237
g208
I10
sg213
L9L
sg214
g215
sssg214
S'4/11'
p238
ssS'Firefox (Shiretoko) 3.5'
p239
(dp240
S'total_runs'
p241
L62L
sS'score'
p242
I8
sS'results'
p243
(dp244
S'maxconn'
p245
(dp246
g242
I10
sS'median'
p247
L30L
sS'display'
p248
S'30'
p249
ssS'parscript'
p250
(dp251
g242
I10
sg247
L1L
sg248
S'yes'
p252
ssS'parcssjs'
p253
(dp254
g242
I1
sg247
L0L
sg248
S'no'
p255
ssS'cacheresredir'
p256
(dp257
g242
I10
sg247
L1L
sg248
g252
ssS'cacheexp'
p258
(dp259
g242
I10
sg247
L1L
sg248
g252
ssS'gzip'
p260
(dp261
g242
I10
sg247
L1L
sg248
g252
ssS'prefetch'
p262
(dp263
g242
I10
sg247
L1L
sg248
g252
ssS'cacheredir'
p264
(dp265
g242
I10
sg247
L1L
sg248
g252
ssS'parsheet'
p266
(dp267
g242
I10
sg247
L1L
sg248
g252
ssS'du'
p268
(dp269
g242
I10
sg247
L1L
sg248
g252
ssS'hostconn'
p270
(dp271
g242
I10
sg247
L6L
sg248
S'6'
p272
sssg248
S'10/11'
p273
ssS'Blackberry 8130'
p274
(dp275
S'total_runs'
p276
L1L
sS'score'
p277
I5
sS'results'
p278
(dp279
S'maxconn'
p280
(dp281
g277
I0
sS'median'
p282
L4L
sS'display'
p283
g11
ssS'parscript'
p284
(dp285
g277
I10
sg282
L1L
sg283
S'yes'
p286
ssS'parcssjs'
p287
(dp288
g277
I1
sg282
L0L
sg283
S'no'
p289
ssS'cacheresredir'
p290
(dp291
g277
I10
sg282
L1L
sg283
g286
ssS'cacheexp'
p292
(dp293
g277
I10
sg282
L1L
sg283
g286
ssS'gzip'
p294
(dp295
g277
I1
sg282
L0L
sg283
g289
ssS'prefetch'
p296
(dp297
g277
I10
sg282
L1L
sg283
g286
ssS'cacheredir'
p298
(dp299
g277
I1
sg282
L0L
sg283
g289
ssS'parsheet'
p300
(dp301
g277
I10
sg282
L1L
sg283
g286
ssS'du'
p302
(dp303
g277
I1
sg282
L0L
sg283
g289
ssS'hostconn'
p304
(dp305
g277
I10
sg282
L4L
sg283
g11
sssg283
S'6/11'
p306
ssS'Firefox (Shiretoko) 3.0'
p307
(dp308
S'total_runs'
p309
L1L
sS'score'
p310
I8
sS'results'
p311
(dp312
S'maxconn'
p313
(dp314
g310
I10
sS'median'
p315
L30L
sS'display'
p316
S'30'
p317
ssS'parscript'
p318
(dp319
g310
I1
sg315
L0L
sg316
S'no'
p320
ssS'parcssjs'
p321
(dp322
g310
I1
sg315
L0L
sg316
g320
ssS'cacheresredir'
p323
(dp324
g310
I10
sg315
L1L
sg316
S'yes'
p325
ssS'cacheexp'
p326
(dp327
g310
I10
sg315
L1L
sg316
g325
ssS'gzip'
p328
(dp329
g310
I10
sg315
L1L
sg316
g325
ssS'prefetch'
p330
(dp331
g310
I10
sg315
L1L
sg316
g325
ssS'cacheredir'
p332
(dp333
g310
I10
sg315
L1L
sg316
g325
ssS'parsheet'
p334
(dp335
g310
I10
sg315
L1L
sg316
g325
ssS'du'
p336
(dp337
g310
I10
sg315
L1L
sg316
g325
ssS'hostconn'
p338
(dp339
g310
I10
sg315
L6L
sg316
g272
sssg316
S'9/11'
p340
ssS'Opera 6.05'
p341
(dp342
S'total_runs'
p343
L1L
sS'score'
p344
I3
sS'results'
p345
(dp346
S'maxconn'
p347
(dp348
g344
I5
sS'median'
p349
L20L
sS'display'
p350
S'20'
p351
ssS'parscript'
p352
(dp353
g344
I1
sg349
L0L
sg350
S'no'
p354
ssS'parcssjs'
p355
(dp356
g344
I1
sg349
L0L
sg350
g354
ssS'cacheresredir'
p357
(dp358
g344
I1
sg349
L0L
sg350
g354
ssS'cacheexp'
p359
(dp360
g344
I1
sg349
L0L
sg350
g354
ssS'gzip'
p361
(dp362
g344
I10
sg349
L1L
sg350
S'yes'
p363
ssS'prefetch'
p364
(dp365
g344
I1
sg349
L0L
sg350
g354
ssS'cacheredir'
p366
(dp367
g344
I10
sg349
L1L
sg350
g363
ssS'parsheet'
p368
(dp369
g344
I10
sg349
L1L
sg350
g363
ssS'du'
p370
(dp371
g344
I1
sg349
L0L
sg350
g354
ssS'hostconn'
p372
(dp373
g344
I10
sg349
L4L
sg350
g11
sssg350
S'4/11'
p374
ssS'Blackberry 8520'
p375
(dp376
S'total_runs'
p377
L1L
sS'score'
p378
I7
sS'results'
p379
(dp380
S'maxconn'
p381
(dp382
g378
I0
sS'median'
p383
L1L
sS'display'
p384
S'1'
p385
ssS'parscript'
p386
(dp387
g378
I10
sg383
L1L
sg384
S'yes'
p388
ssS'parcssjs'
p389
(dp390
g378
I1
sg383
L0L
sg384
S'no'
p391
ssS'cacheresredir'
p392
(dp393
g378
I10
sg383
L1L
sg384
g388
ssS'cacheexp'
p394
(dp395
g378
I10
sg383
L1L
sg384
g388
ssS'gzip'
p396
(dp397
g378
I1
sg383
L0L
sg384
g391
ssS'prefetch'
p398
(dp399
g378
I10
sg383
L1L
sg384
g388
ssS'cacheredir'
p400
(dp401
g378
I10
sg383
L1L
sg384
g388
ssS'parsheet'
p402
(dp403
g378
I10
sg383
L1L
sg384
g388
ssS'du'
p404
(dp405
g378
I10
sg383
L1L
sg384
g388
ssS'hostconn'
p406
(dp407
g378
I10
sg383
L4L
sg384
g11
sssg384
S'8/11'
p408
ssS'Netscape 6.2'
p409
(dp410
S'total_runs'
p411
L1L
sS'score'
p412
I4
sS'results'
p413
(dp414
S'maxconn'
p415
(dp416
g412
I5
sS'median'
p417
L16L
sS'display'
p418
S'16'
p419
ssS'parscript'
p420
(dp421
g412
I1
sg417
L0L
sg418
S'no'
p422
ssS'parcssjs'
p423
(dp424
g412
I1
sg417
L0L
sg418
g422
ssS'cacheresredir'
p425
(dp426
g412
I10
sg417
L1L
sg418
S'yes'
p427
ssS'cacheexp'
p428
(dp429
g412
I10
sg417
L1L
sg418
g427
ssS'gzip'
p430
(dp431
g412
I10
sg417
L1L
sg418
g427
ssS'prefetch'
p432
(dp433
g412
I1
sg417
L0L
sg418
g422
ssS'cacheredir'
p434
(dp435
g412
I1
sg417
L0L
sg418
g422
ssS'parsheet'
p436
(dp437
g412
I1
sg417
L0L
sg418
g422
ssS'du'
p438
(dp439
g412
I10
sg417
L1L
sg418
g427
ssS'hostconn'
p440
(dp441
g412
I10
sg417
L8L
sg418
g147
sssg418
S'5/11'
p442
ssS'Opera Mini 3.1'
p443
(dp444
S'total_runs'
p445
L5L
sS'score'
p446
I5
sS'results'
p447
(dp448
S'maxconn'
p449
(dp450
g446
I10
sS'median'
p451
L60L
sS'display'
p452
S'60'
p453
ssS'parscript'
p454
(dp455
g446
I1
sg451
L0L
sg452
S'no'
p456
ssS'parcssjs'
p457
(dp458
g446
I1
sg451
L0L
sg452
g456
ssS'cacheresredir'
p459
(dp460
g446
I1
sg451
L0L
sg452
g456
ssS'cacheexp'
p461
(dp462
g446
I10
sg451
L1L
sg452
S'yes'
p463
ssS'gzip'
p464
(dp465
g446
I10
sg451
L1L
sg452
g463
ssS'prefetch'
p466
(dp467
g446
I1
sg451
L0L
sg452
g456
ssS'cacheredir'
p468
(dp469
g446
I1
sg451
L0L
sg452
g456
ssS'parsheet'
p470
(dp471
g446
I10
sg451
L1L
sg452
g463
ssS'du'
p472
(dp473
g446
I10
sg451
L1L
sg452
g463
ssS'hostconn'
p474
(dp475
g446
I10
sg451
L10L
sg452
S'10'
p476
sssg452
S'6/11'
p477
ssS'Other'
p478
(dp479
S'total_runs'
p480
L72L
sS'score'
p481
I6
sS'results'
p482
(dp483
S'maxconn'
p484
(dp485
g481
I10
sS'median'
p486
L29L
sS'display'
p487
S'29'
p488
ssS'parscript'
p489
(dp490
g481
I10
sg486
L1L
sg487
S'yes'
p491
ssS'parcssjs'
p492
(dp493
g481
I1
sg486
L0L
sg487
S'no'
p494
ssS'cacheresredir'
p495
(dp496
g481
I10
sg486
L1L
sg487
g491
ssS'cacheexp'
p497
(dp498
g481
I10
sg486
L1L
sg487
g491
ssS'gzip'
p499
(dp500
g481
I10
sg486
L1L
sg487
g491
ssS'prefetch'
p501
(dp502
g481
I1
sg486
L0L
sg487
g494
ssS'cacheredir'
p503
(dp504
g481
I1
sg486
L0L
sg487
g494
ssS'parsheet'
p505
(dp506
g481
I10
sg486
L1L
sg487
g491
ssS'du'
p507
(dp508
g481
I10
sg486
L1L
sg487
g491
ssS'hostconn'
p509
(dp510
g481
I5
sg486
L2L
sg487
g34
sssg487
S'7/11'
p511
ssS'Swiftfox 3.5'
p512
(dp513
S'total_runs'
p514
L1L
sS'score'
p515
I8
sS'results'
p516
(dp517
S'maxconn'
p518
(dp519
g515
I10
sS'median'
p520
L40L
sS'display'
p521
S'40'
p522
ssS'parscript'
p523
(dp524
g515
I10
sg520
L1L
sg521
S'yes'
p525
ssS'parcssjs'
p526
(dp527
g515
I1
sg520
L0L
sg521
S'no'
p528
ssS'cacheresredir'
p529
(dp530
g515
I10
sg520
L1L
sg521
g525
ssS'cacheexp'
p531
(dp532
g515
I10
sg520
L1L
sg521
g525
ssS'gzip'
p533
(dp534
g515
I10
sg520
L1L
sg521
g525
ssS'prefetch'
p535
(dp536
g515
I1
sg520
L0L
sg521
g528
ssS'cacheredir'
p537
(dp538
g515
I10
sg520
L1L
sg521
g525
ssS'parsheet'
p539
(dp540
g515
I10
sg520
L1L
sg521
g525
ssS'du'
p541
(dp542
g515
I10
sg520
L1L
sg521
g525
ssS'hostconn'
p543
(dp544
g515
I10
sg520
L6L
sg521
g272
sssg521
S'9/11'
p545
ssS'Netscape 9.0b1'
p546
(dp547
S'total_runs'
p548
L1L
sS'score'
p549
I5
sS'results'
p550
(dp551
S'maxconn'
p552
(dp553
g549
I10
sS'median'
p554
L24L
sS'display'
p555
S'24'
p556
ssS'parscript'
p557
(dp558
g549
I1
sg554
L0L
sg555
S'no'
p559
ssS'parcssjs'
p560
(dp561
g549
I1
sg554
L0L
sg555
g559
ssS'cacheresredir'
p562
(dp563
g549
I10
sg554
L1L
sg555
S'yes'
p564
ssS'cacheexp'
p565
(dp566
g549
I10
sg554
L1L
sg555
g564
ssS'gzip'
p567
(dp568
g549
I10
sg554
L1L
sg555
g564
ssS'prefetch'
p569
(dp570
g549
I1
sg554
L0L
sg555
g559
ssS'cacheredir'
p571
(dp572
g549
I10
sg554
L1L
sg555
g564
ssS'parsheet'
p573
(dp574
g549
I1
sg554
L0L
sg555
g559
ssS'du'
p575
(dp576
g549
I10
sg554
L1L
sg555
g564
ssS'hostconn'
p577
(dp578
g549
I5
sg554
L2L
sg555
g34
sssg555
S'6/11'
p579
ssS'Opera 9.62'
p580
(dp581
S'total_runs'
p582
L1220L
sS'score'
p583
I4
sS'results'
p584
(dp585
S'maxconn'
p586
(dp587
g583
I5
sS'median'
p588
L20L
sS'display'
p589
S'20'
p590
ssS'parscript'
p591
(dp592
g583
I1
sg588
L0L
sg589
S'no'
p593
ssS'parcssjs'
p594
(dp595
g583
I1
sg588
L0L
sg589
g593
ssS'cacheresredir'
p596
(dp597
g583
I1
sg588
L0L
sg589
g593
ssS'cacheexp'
p598
(dp599
g583
I10
sg588
L1L
sg589
S'yes'
p600
ssS'gzip'
p601
(dp602
g583
I10
sg588
L1L
sg589
g600
ssS'prefetch'
p603
(dp604
g583
I1
sg588
L0L
sg589
g593
ssS'cacheredir'
p605
(dp606
g583
I1
sg588
L0L
sg589
g593
ssS'parsheet'
p607
(dp608
g583
I10
sg588
L1L
sg589
g600
ssS'du'
p609
(dp610
g583
I10
sg588
L1L
sg589
g600
ssS'hostconn'
p611
(dp612
g583
I10
sg588
L4L
sg589
g11
sssg589
S'5/11'
p613
ssS'OmniWeb 558.46'
p614
(dp615
S'total_runs'
p616
L1L
sS'score'
p617
I3
sS'results'
p618
(dp619
S'maxconn'
p620
(dp621
g617
I5
sS'median'
p622
L10L
sS'display'
p623
S'10'
p624
ssS'parscript'
p625
(dp626
g617
I1
sg622
L0L
sg623
S'no'
p627
ssS'parcssjs'
p628
(dp629
g617
I1
sg622
L0L
sg623
g627
ssS'cacheresredir'
p630
(dp631
g617
I10
sg622
L1L
sg623
S'yes'
p632
ssS'cacheexp'
p633
(dp634
g617
I1
sg622
L0L
sg623
g627
ssS'gzip'
p635
(dp636
g617
I10
sg622
L1L
sg623
g632
ssS'prefetch'
p637
(dp638
g617
I1
sg622
L0L
sg623
g627
ssS'cacheredir'
p639
(dp640
g617
I1
sg622
L0L
sg623
g627
ssS'parsheet'
p641
(dp642
g617
I1
sg622
L0L
sg623
g627
ssS'du'
p643
(dp644
g617
I10
sg622
L1L
sg623
g632
ssS'hostconn'
p645
(dp646
g617
I10
sg622
L4L
sg623
g11
sssg623
S'4/11'
p647
ssS'Fluid 0.9'
p648
(dp649
S'total_runs'
p650
L2L
sS'score'
p651
I6
sS'results'
p652
(dp653
S'maxconn'
p654
(dp655
g651
I10
sS'median'
p656
L60L
sS'display'
p657
S'60'
p658
ssS'parscript'
p659
(dp660
g651
I1
sg656
L0L
sg657
S'no'
p661
ssS'parcssjs'
p662
(dp663
g651
I1
sg656
L0L
sg657
g661
ssS'cacheresredir'
p664
(dp665
g651
I10
sg656
L1L
sg657
S'yes'
p666
ssS'cacheexp'
p667
(dp668
g651
I10
sg656
L1L
sg657
g666
ssS'gzip'
p669
(dp670
g651
I10
sg656
L1L
sg657
g666
ssS'prefetch'
p671
(dp672
g651
I1
sg656
L0L
sg657
g661
ssS'cacheredir'
p673
(dp674
g651
I1
sg656
L0L
sg657
g661
ssS'parsheet'
p675
(dp676
g651
I10
sg656
L1L
sg657
g666
ssS'du'
p677
(dp678
g651
I10
sg656
L1L
sg657
g666
ssS'hostconn'
p679
(dp680
g651
I10
sg656
L4L
sg657
g11
sssg657
S'7/11'
p681
ssS'Opera 8.00'
p682
(dp683
S'total_runs'
p684
L3L
sS'score'
p685
I5
sS'results'
p686
(dp687
S'maxconn'
p688
(dp689
g685
I5
sS'median'
p690
L18L
sS'display'
p691
S'18'
p692
ssS'parscript'
p693
(dp694
g685
I10
sg690
L1L
sg691
S'yes'
p695
ssS'parcssjs'
p696
(dp697
g685
I1
sg690
L0L
sg691
S'no'
p698
ssS'cacheresredir'
p699
(dp700
g685
I1
sg690
L0L
sg691
g698
ssS'cacheexp'
p701
(dp702
g685
I10
sg690
L1L
sg691
g695
ssS'gzip'
p703
(dp704
g685
I10
sg690
L1L
sg691
g695
ssS'prefetch'
p705
(dp706
g685
I1
sg690
L0L
sg691
g698
ssS'cacheredir'
p707
(dp708
g685
I1
sg690
L0L
sg691
g698
ssS'parsheet'
p709
(dp710
g685
I10
sg690
L1L
sg691
g695
ssS'du'
p711
(dp712
g685
I10
sg690
L1L
sg691
g695
ssS'hostconn'
p713
(dp714
g685
I10
sg690
L14L
sg691
S'14'
p715
sssg691
S'6/11'
p716
ssS'Opera 7.23'
p717
(dp718
S'total_runs'
p719
L1L
sS'score'
p720
I3
sS'results'
p721
(dp722
S'maxconn'
p723
(dp724
g720
I5
sS'median'
p725
L20L
sS'display'
p726
S'20'
p727
ssS'parscript'
p728
(dp729
g720
I1
sg725
L0L
sg726
S'no'
p730
ssS'parcssjs'
p731
(dp732
g720
I1
sg725
L0L
sg726
g730
ssS'cacheresredir'
p733
(dp734
g720
I1
sg725
L0L
sg726
g730
ssS'cacheexp'
p735
(dp736
g720
I1
sg725
L0L
sg726
g730
ssS'gzip'
p737
(dp738
g720
I10
sg725
L1L
sg726
S'yes'
p739
ssS'prefetch'
p740
(dp741
g720
I1
sg725
L0L
sg726
g730
ssS'cacheredir'
p742
(dp743
g720
I1
sg725
L0L
sg726
g730
ssS'parsheet'
p744
(dp745
g720
I10
sg725
L1L
sg726
g739
ssS'du'
p746
(dp747
g720
I10
sg725
L1L
sg726
g739
ssS'hostconn'
p748
(dp749
g720
I10
sg725
L4L
sg726
g11
sssg726
S'4/11'
p750
ssS'Sleipnir 2.7'
p751
(dp752
S'total_runs'
p753
L1L
sS'score'
p754
I5
sS'results'
p755
(dp756
S'maxconn'
p757
(dp758
g754
I10
sS'median'
p759
L60L
sS'display'
p760
S'60'
p761
ssS'parscript'
p762
(dp763
g754
I10
sg759
L1L
sg760
S'yes'
p764
ssS'parcssjs'
p765
(dp766
g754
I1
sg759
L0L
sg760
S'no'
p767
ssS'cacheresredir'
p768
(dp769
g754
I1
sg759
L0L
sg760
g767
ssS'cacheexp'
p770
(dp771
g754
I10
sg759
L1L
sg760
g764
ssS'gzip'
p772
(dp773
g754
I10
sg759
L1L
sg760
g764
ssS'prefetch'
p774
(dp775
g754
I1
sg759
L0L
sg760
g767
ssS'cacheredir'
p776
(dp777
g754
I1
sg759
L0L
sg760
g767
ssS'parsheet'
p778
(dp779
g754
I10
sg759
L1L
sg760
g764
ssS'du'
p780
(dp781
g754
I10
sg759
L1L
sg760
g764
ssS'hostconn'
p782
(dp783
g754
I5
sg759
L2L
sg760
g34
sssg760
S'6/11'
p784
ssS'iPhone 3.0'
p785
(dp786
S'total_runs'
p787
L51L
sS'score'
p788
I7
sS'results'
p789
(dp790
S'maxconn'
p791
(dp792
g788
I10
sS'median'
p793
L60L
sS'display'
p794
S'60'
p795
ssS'parscript'
p796
(dp797
g788
I10
sg793
L1L
sg794
S'yes'
p798
ssS'parcssjs'
p799
(dp800
g788
I1
sg793
L0L
sg794
S'no'
p801
ssS'cacheresredir'
p802
(dp803
g788
I10
sg793
L1L
sg794
g798
ssS'cacheexp'
p804
(dp805
g788
I10
sg793
L1L
sg794
g798
ssS'gzip'
p806
(dp807
g788
I10
sg793
L1L
sg794
g798
ssS'prefetch'
p808
(dp809
g788
I1
sg793
L0L
sg794
g801
ssS'cacheredir'
p810
(dp811
g788
I1
sg793
L0L
sg794
g801
ssS'parsheet'
p812
(dp813
g788
I10
sg793
L1L
sg794
g798
ssS'du'
p814
(dp815
g788
I10
sg793
L1L
sg794
g798
ssS'hostconn'
p816
(dp817
g788
I10
sg793
L6L
sg794
g272
sssg794
S'8/11'
p818
ssS'iPhone 3.1'
p819
(dp820
S'total_runs'
p821
L4L
sS'score'
p822
I7
sS'results'
p823
(dp824
S'maxconn'
p825
(dp826
g822
I10
sS'median'
p827
L60L
sS'display'
p828
S'60'
p829
ssS'parscript'
p830
(dp831
g822
I10
sg827
L1L
sg828
S'yes'
p832
ssS'parcssjs'
p833
(dp834
g822
I1
sg827
L0L
sg828
S'no'
p835
ssS'cacheresredir'
p836
(dp837
g822
I10
sg827
L1L
sg828
g832
ssS'cacheexp'
p838
(dp839
g822
I10
sg827
L1L
sg828
g832
ssS'gzip'
p840
(dp841
g822
I10
sg827
L1L
sg828
g832
ssS'prefetch'
p842
(dp843
g822
I1
sg827
L0L
sg828
g835
ssS'cacheredir'
p844
(dp845
g822
I1
sg827
L0L
sg828
g835
ssS'parsheet'
p846
(dp847
g822
I10
sg827
L1L
sg828
g832
ssS'du'
p848
(dp849
g822
I10
sg827
L1L
sg828
g832
ssS'hostconn'
p850
(dp851
g822
I10
sg827
L6L
sg828
g272
sssg828
S'8/11'
p852
ssS'Nokia 96'
p853
(dp854
S'total_runs'
p855
L1L
sS'score'
p856
I4
sS'results'
p857
(dp858
S'maxconn'
p859
(dp860
g856
I0
sS'median'
p861
L0L
sS'display'
p862
g46
ssS'parscript'
p863
(dp864
g856
I10
sg861
L1L
sg862
S'yes'
p865
ssS'parcssjs'
p866
(dp867
g856
I1
sg861
L0L
sg862
S'no'
p868
ssS'cacheresredir'
p869
(dp870
g856
I1
sg861
L0L
sg862
g868
ssS'cacheexp'
p871
(dp872
g856
I1
sg861
L0L
sg862
g868
ssS'gzip'
p873
(dp874
g856
I10
sg861
L1L
sg862
g865
ssS'prefetch'
p875
(dp876
g856
I1
sg861
L0L
sg862
g868
ssS'cacheredir'
p877
(dp878
g856
I1
sg861
L0L
sg862
g868
ssS'parsheet'
p879
(dp880
g856
I10
sg861
L1L
sg862
g865
ssS'du'
p881
(dp882
g856
I10
sg861
L1L
sg862
g865
ssS'hostconn'
p883
(dp884
g856
I10
sg861
L7L
sg862
g113
sssg862
S'5/11'
p885
ssS'Camino 2.0'
p886
(dp887
S'total_runs'
p888
L1L
sS'score'
p889
I5
sS'results'
p890
(dp891
S'maxconn'
p892
(dp893
g889
I10
sS'median'
p894
L29L
sS'display'
p895
S'29'
p896
ssS'parscript'
p897
(dp898
g889
I1
sg894
L0L
sg895
S'no'
p899
ssS'parcssjs'
p900
(dp901
g889
I1
sg894
L0L
sg895
g899
ssS'cacheresredir'
p902
(dp903
g889
I1
sg894
L0L
sg895
g899
ssS'cacheexp'
p904
(dp905
g889
I10
sg894
L1L
sg895
S'yes'
p906
ssS'gzip'
p907
(dp908
g889
I10
sg894
L1L
sg895
g906
ssS'prefetch'
p909
(dp910
g889
I1
sg894
L0L
sg895
g899
ssS'cacheredir'
p911
(dp912
g889
I1
sg894
L0L
sg895
g899
ssS'parsheet'
p913
(dp914
g889
I10
sg894
L1L
sg895
g906
ssS'du'
p915
(dp916
g889
I10
sg894
L1L
sg895
g906
ssS'hostconn'
p917
(dp918
g889
I10
sg894
L6L
sg895
g272
sssg895
S'6/11'
p919
ssS'Iceweasel 3.0'
p920
(dp921
S'total_runs'
p922
L94L
sS'score'
p923
I6
sS'results'
p924
(dp925
S'maxconn'
p926
(dp927
g923
I10
sS'median'
p928
L30L
sS'display'
p929
S'30'
p930
ssS'parscript'
p931
(dp932
g923
I1
sg928
L0L
sg929
S'no'
p933
ssS'parcssjs'
p934
(dp935
g923
I1
sg928
L0L
sg929
g933
ssS'cacheresredir'
p936
(dp937
g923
I1
sg928
L0L
sg929
g933
ssS'cacheexp'
p938
(dp939
g923
I10
sg928
L1L
sg929
S'yes'
p940
ssS'gzip'
p941
(dp942
g923
I10
sg928
L1L
sg929
g940
ssS'prefetch'
p943
(dp944
g923
I10
sg928
L1L
sg929
g940
ssS'cacheredir'
p945
(dp946
g923
I1
sg928
L0L
sg929
g933
ssS'parsheet'
p947
(dp948
g923
I10
sg928
L1L
sg929
g940
ssS'du'
p949
(dp950
g923
I10
sg928
L1L
sg929
g940
ssS'hostconn'
p951
(dp952
g923
I10
sg928
L6L
sg929
g272
sssg929
S'7/11'
p953
ssS'Flock 1.2'
p954
(dp955
S'total_runs'
p956
L3L
sS'score'
p957
I6
sS'results'
p958
(dp959
S'maxconn'
p960
(dp961
g957
I10
sS'median'
p962
L24L
sS'display'
p963
S'24'
p964
ssS'parscript'
p965
(dp966
g957
I1
sg962
L0L
sg963
S'no'
p967
ssS'parcssjs'
p968
(dp969
g957
I1
sg962
L0L
sg963
g967
ssS'cacheresredir'
p970
(dp971
g957
I10
sg962
L1L
sg963
S'yes'
p972
ssS'cacheexp'
p973
(dp974
g957
I10
sg962
L1L
sg963
g972
ssS'gzip'
p975
(dp976
g957
I10
sg962
L1L
sg963
g972
ssS'prefetch'
p977
(dp978
g957
I10
sg962
L1L
sg963
g972
ssS'cacheredir'
p979
(dp980
g957
I10
sg962
L1L
sg963
g972
ssS'parsheet'
p981
(dp982
g957
I1
sg962
L0L
sg963
g967
ssS'du'
p983
(dp984
g957
I10
sg962
L1L
sg963
g972
ssS'hostconn'
p985
(dp986
g957
I5
sg962
L2L
sg963
g34
sssg963
S'7/11'
p987
ssS'Opera 9.23'
p988
(dp989
S'total_runs'
p990
L5L
sS'score'
p991
I4
sS'results'
p992
(dp993
S'maxconn'
p994
(dp995
g991
I5
sS'median'
p996
L18L
sS'display'
p997
S'18'
p998
ssS'parscript'
p999
(dp1000
g991
I1
sg996
L0L
sg997
S'no'
p1001
ssS'parcssjs'
p1002
(dp1003
g991
I1
sg996
L0L
sg997
g1001
ssS'cacheresredir'
p1004
(dp1005
g991
I1
sg996
L0L
sg997
g1001
ssS'cacheexp'
p1006
(dp1007
g991
I10
sg996
L1L
sg997
S'yes'
p1008
ssS'gzip'
p1009
(dp1010
g991
I10
sg996
L1L
sg997
g1008
ssS'prefetch'
p1011
(dp1012
g991
I1
sg996
L0L
sg997
g1001
ssS'cacheredir'
p1013
(dp1014
g991
I1
sg996
L0L
sg997
g1001
ssS'parsheet'
p1015
(dp1016
g991
I10
sg996
L1L
sg997
g1008
ssS'du'
p1017
(dp1018
g991
I10
sg996
L1L
sg997
g1008
ssS'hostconn'
p1019
(dp1020
g991
I10
sg996
L4L
sg997
g11
sssg997
S'5/11'
p1021
ssS'Blackberry 9530'
p1022
(dp1023
S'total_runs'
p1024
L3L
sS'score'
p1025
I6
sS'results'
p1026
(dp1027
S'maxconn'
p1028
(dp1029
g1025
I0
sS'median'
p1030
L4L
sS'display'
p1031
g11
ssS'parscript'
p1032
(dp1033
g1025
I10
sg1030
L1L
sg1031
S'yes'
p1034
ssS'parcssjs'
p1035
(dp1036
g1025
I1
sg1030
L0L
sg1031
S'no'
p1037
ssS'cacheresredir'
p1038
(dp1039
g1025
I10
sg1030
L1L
sg1031
g1034
ssS'cacheexp'
p1040
(dp1041
g1025
I10
sg1030
L1L
sg1031
g1034
ssS'gzip'
p1042
(dp1043
g1025
I1
sg1030
L0L
sg1031
g1037
ssS'prefetch'
p1044
(dp1045
g1025
I10
sg1030
L1L
sg1031
g1034
ssS'cacheredir'
p1046
(dp1047
g1025
I10
sg1030
L1L
sg1031
g1034
ssS'parsheet'
p1048
(dp1049
g1025
I10
sg1030
L1L
sg1031
g1034
ssS'du'
p1050
(dp1051
g1025
I1
sg1030
L0L
sg1031
g1037
ssS'hostconn'
p1052
(dp1053
g1025
I10
sg1030
L5L
sg1031
S'5'
p1054
sssg1031
S'7/11'
p1055
ssS'Jasmine 0.8'
p1056
(dp1057
S'total_runs'
p1058
L1L
sS'score'
p1059
I4
sS'results'
p1060
(dp1061
S'maxconn'
p1062
(dp1063
g1059
I0
sS'median'
p1064
L1L
sS'display'
p1065
g385
ssS'parscript'
p1066
(dp1067
g1059
I1
sg1064
L0L
sg1065
S'no'
p1068
ssS'parcssjs'
p1069
(dp1070
g1059
I1
sg1064
L0L
sg1065
g1068
ssS'cacheresredir'
p1071
(dp1072
g1059
I1
sg1064
L0L
sg1065
g1068
ssS'cacheexp'
p1073
(dp1074
g1059
I10
sg1064
L1L
sg1065
S'yes'
p1075
ssS'gzip'
p1076
(dp1077
g1059
I10
sg1064
L1L
sg1065
g1075
ssS'prefetch'
p1078
(dp1079
g1059
I10
sg1064
L1L
sg1065
g1075
ssS'cacheredir'
p1080
(dp1081
g1059
I1
sg1064
L0L
sg1065
g1068
ssS'parsheet'
p1082
(dp1083
g1059
I10
sg1064
L1L
sg1065
g1075
ssS'du'
p1084
(dp1085
g1059
I10
sg1064
L1L
sg1065
g1075
ssS'hostconn'
p1086
(dp1087
g1059
I0
sg1064
L1L
sg1065
g385
sssg1065
S'5/11'
p1088
ssS'Camino 0.8'
p1089
(dp1090
S'total_runs'
p1091
L1L
sS'score'
p1092
I5
sS'results'
p1093
(dp1094
S'maxconn'
p1095
(dp1096
g1092
I0
sS'median'
p1097
L4L
sS'display'
p1098
g11
ssS'parscript'
p1099
(dp1100
g1092
I1
sg1097
L0L
sg1098
S'no'
p1101
ssS'parcssjs'
p1102
(dp1103
g1092
I1
sg1097
L0L
sg1098
g1101
ssS'cacheresredir'
p1104
(dp1105
g1092
I10
sg1097
L1L
sg1098
S'yes'
p1106
ssS'cacheexp'
p1107
(dp1108
g1092
I10
sg1097
L1L
sg1098
g1106
ssS'gzip'
p1109
(dp1110
g1092
I10
sg1097
L1L
sg1098
g1106
ssS'prefetch'
p1111
(dp1112
g1092
I10
sg1097
L1L
sg1098
g1106
ssS'cacheredir'
p1113
(dp1114
g1092
I1
sg1097
L0L
sg1098
g1101
ssS'parsheet'
p1115
(dp1116
g1092
I1
sg1097
L0L
sg1098
g1101
ssS'du'
p1117
(dp1118
g1092
I10
sg1097
L1L
sg1098
g1106
ssS'hostconn'
p1119
(dp1120
g1092
I10
sg1097
L4L
sg1098
g11
sssg1098
S'6/11'
p1121
ssS'Opera 7.54'
p1122
(dp1123
S'total_runs'
p1124
L1L
sS'score'
p1125
I4
sS'results'
p1126
(dp1127
S'maxconn'
p1128
(dp1129
g1125
I5
sS'median'
p1130
L20L
sS'display'
p1131
S'20'
p1132
ssS'parscript'
p1133
(dp1134
g1125
I1
sg1130
L0L
sg1131
S'no'
p1135
ssS'parcssjs'
p1136
(dp1137
g1125
I1
sg1130
L0L
sg1131
g1135
ssS'cacheresredir'
p1138
(dp1139
g1125
I1
sg1130
L0L
sg1131
g1135
ssS'cacheexp'
p1140
(dp1141
g1125
I10
sg1130
L1L
sg1131
S'yes'
p1142
ssS'gzip'
p1143
(dp1144
g1125
I10
sg1130
L1L
sg1131
g1142
ssS'prefetch'
p1145
(dp1146
g1125
I1
sg1130
L0L
sg1131
g1135
ssS'cacheredir'
p1147
(dp1148
g1125
I1
sg1130
L0L
sg1131
g1135
ssS'parsheet'
p1149
(dp1150
g1125
I10
sg1130
L1L
sg1131
g1142
ssS'du'
p1151
(dp1152
g1125
I10
sg1130
L1L
sg1131
g1142
ssS'hostconn'
p1153
(dp1154
g1125
I10
sg1130
L4L
sg1131
g11
sssg1131
S'5/11'
p1155
ssS'Chrome 3.0'
p1156
(dp1157
S'total_runs'
p1158
L196L
sS'score'
p1159
I8
sS'results'
p1160
(dp1161
S'maxconn'
p1162
(dp1163
g1159
I10
sS'median'
p1164
L60L
sS'display'
p1165
S'60'
p1166
ssS'parscript'
p1167
(dp1168
g1159
I10
sg1164
L1L
sg1165
S'yes'
p1169
ssS'parcssjs'
p1170
(dp1171
g1159
I1
sg1164
L0L
sg1165
S'no'
p1172
ssS'cacheresredir'
p1173
(dp1174
g1159
I10
sg1164
L1L
sg1165
g1169
ssS'cacheexp'
p1175
(dp1176
g1159
I10
sg1164
L1L
sg1165
g1169
ssS'gzip'
p1177
(dp1178
g1159
I10
sg1164
L1L
sg1165
g1169
ssS'prefetch'
p1179
(dp1180
g1159
I1
sg1164
L0L
sg1165
g1172
ssS'cacheredir'
p1181
(dp1182
g1159
I10
sg1164
L1L
sg1165
g1169
ssS'parsheet'
p1183
(dp1184
g1159
I10
sg1164
L1L
sg1165
g1169
ssS'du'
p1185
(dp1186
g1159
I10
sg1164
L1L
sg1165
g1169
ssS'hostconn'
p1187
(dp1188
g1159
I10
sg1164
L6L
sg1165
g272
sssg1165
S'9/11'
p1189
ssS'Blackberry 9000'
p1190
(dp1191
S'total_runs'
p1192
L5L
sS'score'
p1193
I6
sS'results'
p1194
(dp1195
S'maxconn'
p1196
(dp1197
g1193
I0
sS'median'
p1198
L4L
sS'display'
p1199
g11
ssS'parscript'
p1200
(dp1201
g1193
I10
sg1198
L1L
sg1199
S'yes'
p1202
ssS'parcssjs'
p1203
(dp1204
g1193
I1
sg1198
L0L
sg1199
S'no'
p1205
ssS'cacheresredir'
p1206
(dp1207
g1193
I10
sg1198
L1L
sg1199
g1202
ssS'cacheexp'
p1208
(dp1209
g1193
I10
sg1198
L1L
sg1199
g1202
ssS'gzip'
p1210
(dp1211
g1193
I1
sg1198
L0L
sg1199
g1205
ssS'prefetch'
p1212
(dp1213
g1193
I10
sg1198
L1L
sg1199
g1202
ssS'cacheredir'
p1214
(dp1215
g1193
I10
sg1198
L1L
sg1199
g1202
ssS'parsheet'
p1216
(dp1217
g1193
I10
sg1198
L1L
sg1199
g1202
ssS'du'
p1218
(dp1219
g1193
I1
sg1198
L0L
sg1199
g1205
ssS'hostconn'
p1220
(dp1221
g1193
I10
sg1198
L6L
sg1199
g272
sssg1199
S'7/11'
p1222
ssS'Links 2.1'
p1223
(dp1224
S'total_runs'
p1225
L1L
sS'score'
p1226
I7
sS'results'
p1227
(dp1228
S'maxconn'
p1229
(dp1230
g1226
I10
sS'median'
p1231
L30L
sS'display'
p1232
S'30'
p1233
ssS'parscript'
p1234
(dp1235
g1226
I0
sg1231
Nsg1232
S''
p1236
ssS'parcssjs'
p1237
(dp1238
g1226
I1
sg1231
L0L
sg1232
S'no'
p1239
ssS'cacheresredir'
p1240
(dp1241
g1226
I10
sg1231
L1L
sg1232
S'yes'
p1242
ssS'cacheexp'
p1243
(dp1244
g1226
I10
sg1231
L1L
sg1232
g1242
ssS'gzip'
p1245
(dp1246
g1226
I1
sg1231
L0L
sg1232
g1239
ssS'prefetch'
p1247
(dp1248
g1226
I10
sg1231
L1L
sg1232
g1242
ssS'cacheredir'
p1249
(dp1250
g1226
I10
sg1231
L1L
sg1232
g1242
ssS'parsheet'
p1251
(dp1252
g1226
I10
sg1231
L1L
sg1232
g1242
ssS'du'
p1253
(dp1254
g1226
I10
sg1231
L1L
sg1232
g1242
ssS'hostconn'
p1255
(dp1256
g1226
I10
sg1231
L15L
sg1232
S'15'
p1257
sssg1232
S'8/11'
p1258
ssS'Firefox 1.0'
p1259
(dp1260
S'total_runs'
p1261
L6L
sS'score'
p1262
I5
sS'results'
p1263
(dp1264
S'maxconn'
p1265
(dp1266
g1262
I10
sS'median'
p1267
L24L
sS'display'
p1268
S'24'
p1269
ssS'parscript'
p1270
(dp1271
g1262
I1
sg1267
L0L
sg1268
S'no'
p1272
ssS'parcssjs'
p1273
(dp1274
g1262
I1
sg1267
L0L
sg1268
g1272
ssS'cacheresredir'
p1275
(dp1276
g1262
I10
sg1267
L1L
sg1268
S'yes'
p1277
ssS'cacheexp'
p1278
(dp1279
g1262
I10
sg1267
L1L
sg1268
g1277
ssS'gzip'
p1280
(dp1281
g1262
I10
sg1267
L1L
sg1268
g1277
ssS'prefetch'
p1282
(dp1283
g1262
I10
sg1267
L1L
sg1268
g1277
ssS'cacheredir'
p1284
(dp1285
g1262
I1
sg1267
L0L
sg1268
g1272
ssS'parsheet'
p1286
(dp1287
g1262
I1
sg1267
L0L
sg1268
g1272
ssS'du'
p1288
(dp1289
g1262
I10
sg1267
L1L
sg1268
g1277
ssS'hostconn'
p1290
(dp1291
g1262
I5
sg1267
L2L
sg1268
g34
sssg1268
S'6/11'
p1292
ssS'Firefox 1.5'
p1293
(dp1294
S'total_runs'
p1295
L17L
sS'score'
p1296
I6
sS'results'
p1297
(dp1298
S'maxconn'
p1299
(dp1300
g1296
I10
sS'median'
p1301
L24L
sS'display'
p1302
S'24'
p1303
ssS'parscript'
p1304
(dp1305
g1296
I1
sg1301
L0L
sg1302
S'no'
p1306
ssS'parcssjs'
p1307
(dp1308
g1296
I1
sg1301
L0L
sg1302
g1306
ssS'cacheresredir'
p1309
(dp1310
g1296
I10
sg1301
L1L
sg1302
S'yes'
p1311
ssS'cacheexp'
p1312
(dp1313
g1296
I10
sg1301
L1L
sg1302
g1311
ssS'gzip'
p1314
(dp1315
g1296
I10
sg1301
L1L
sg1302
g1311
ssS'prefetch'
p1316
(dp1317
g1296
I10
sg1301
L1L
sg1302
g1311
ssS'cacheredir'
p1318
(dp1319
g1296
I10
sg1301
L1L
sg1302
g1311
ssS'parsheet'
p1320
(dp1321
g1296
I1
sg1301
L0L
sg1302
g1306
ssS'du'
p1322
(dp1323
g1296
I10
sg1301
L1L
sg1302
g1311
ssS'hostconn'
p1324
(dp1325
g1296
I5
sg1301
L2L
sg1302
g34
sssg1302
S'7/11'
p1326
ssS'Opera 9.20'
p1327
(dp1328
S'total_runs'
p1329
L5L
sS'score'
p1330
I4
sS'results'
p1331
(dp1332
S'maxconn'
p1333
(dp1334
g1330
I5
sS'median'
p1335
L20L
sS'display'
p1336
S'20'
p1337
ssS'parscript'
p1338
(dp1339
g1330
I1
sg1335
L0L
sg1336
S'no'
p1340
ssS'parcssjs'
p1341
(dp1342
g1330
I1
sg1335
L0L
sg1336
g1340
ssS'cacheresredir'
p1343
(dp1344
g1330
I1
sg1335
L0L
sg1336
g1340
ssS'cacheexp'
p1345
(dp1346
g1330
I10
sg1335
L1L
sg1336
S'yes'
p1347
ssS'gzip'
p1348
(dp1349
g1330
I10
sg1335
L1L
sg1336
g1347
ssS'prefetch'
p1350
(dp1351
g1330
I1
sg1335
L0L
sg1336
g1340
ssS'cacheredir'
p1352
(dp1353
g1330
I1
sg1335
L0L
sg1336
g1340
ssS'parsheet'
p1354
(dp1355
g1330
I10
sg1335
L1L
sg1336
g1347
ssS'du'
p1356
(dp1357
g1330
I10
sg1335
L1L
sg1336
g1347
ssS'hostconn'
p1358
(dp1359
g1330
I10
sg1335
L4L
sg1336
g11
sssg1336
S'5/11'
p1360
ssS'Chrome 1.0'
p1361
(dp1362
S'total_runs'
p1363
L424L
sS'score'
p1364
I7
sS'results'
p1365
(dp1366
S'maxconn'
p1367
(dp1368
g1364
I10
sS'median'
p1369
L60L
sS'display'
p1370
S'60'
p1371
ssS'parscript'
p1372
(dp1373
g1364
I1
sg1369
L0L
sg1370
S'no'
p1374
ssS'parcssjs'
p1375
(dp1376
g1364
I1
sg1369
L0L
sg1370
g1374
ssS'cacheresredir'
p1377
(dp1378
g1364
I10
sg1369
L1L
sg1370
S'yes'
p1379
ssS'cacheexp'
p1380
(dp1381
g1364
I10
sg1369
L1L
sg1370
g1379
ssS'gzip'
p1382
(dp1383
g1364
I10
sg1369
L1L
sg1370
g1379
ssS'prefetch'
p1384
(dp1385
g1364
I1
sg1369
L0L
sg1370
g1374
ssS'cacheredir'
p1386
(dp1387
g1364
I10
sg1369
L1L
sg1370
g1379
ssS'parsheet'
p1388
(dp1389
g1364
I10
sg1369
L1L
sg1370
g1379
ssS'du'
p1390
(dp1391
g1364
I10
sg1369
L1L
sg1370
g1379
ssS'hostconn'
p1392
(dp1393
g1364
I10
sg1369
L6L
sg1370
g272
sssg1370
S'8/11'
p1394
ssS'Shiira 0.9'
p1395
(dp1396
S'total_runs'
p1397
L7L
sS'score'
p1398
I6
sS'results'
p1399
(dp1400
S'maxconn'
p1401
(dp1402
g1398
I10
sS'median'
p1403
L60L
sS'display'
p1404
S'60'
p1405
ssS'parscript'
p1406
(dp1407
g1398
I1
sg1403
L0L
sg1404
S'no'
p1408
ssS'parcssjs'
p1409
(dp1410
g1398
I1
sg1403
L0L
sg1404
g1408
ssS'cacheresredir'
p1411
(dp1412
g1398
I10
sg1403
L1L
sg1404
S'yes'
p1413
ssS'cacheexp'
p1414
(dp1415
g1398
I10
sg1403
L1L
sg1404
g1413
ssS'gzip'
p1416
(dp1417
g1398
I10
sg1403
L1L
sg1404
g1413
ssS'prefetch'
p1418
(dp1419
g1398
I1
sg1403
L0L
sg1404
g1408
ssS'cacheredir'
p1420
(dp1421
g1398
I1
sg1403
L0L
sg1404
g1408
ssS'parsheet'
p1422
(dp1423
g1398
I10
sg1403
L1L
sg1404
g1413
ssS'du'
p1424
(dp1425
g1398
I10
sg1403
L1L
sg1404
g1413
ssS'hostconn'
p1426
(dp1427
g1398
I10
sg1403
L4L
sg1404
g11
sssg1404
S'7/11'
p1428
ssS'Blackberry 8900'
p1429
(dp1430
S'total_runs'
p1431
L2L
sS'score'
p1432
I6
sS'results'
p1433
(dp1434
S'maxconn'
p1435
(dp1436
g1432
I5
sS'median'
p1437
L11L
sS'display'
p1438
S'11'
p1439
ssS'parscript'
p1440
(dp1441
g1432
I10
sg1437
L1L
sg1438
S'yes'
p1442
ssS'parcssjs'
p1443
(dp1444
g1432
I1
sg1437
L0L
sg1438
S'no'
p1445
ssS'cacheresredir'
p1446
(dp1447
g1432
I10
sg1437
L1L
sg1438
g1442
ssS'cacheexp'
p1448
(dp1449
g1432
I10
sg1437
L1L
sg1438
g1442
ssS'gzip'
p1450
(dp1451
g1432
I1
sg1437
L0L
sg1438
g1445
ssS'prefetch'
p1452
(dp1453
g1432
I10
sg1437
L1L
sg1438
g1442
ssS'cacheredir'
p1454
(dp1455
g1432
I10
sg1437
L1L
sg1438
g1442
ssS'parsheet'
p1456
(dp1457
g1432
I10
sg1437
L1L
sg1438
g1442
ssS'du'
p1458
(dp1459
g1432
I1
sg1437
L0L
sg1438
g1445
ssS'hostconn'
p1460
(dp1461
g1432
I10
sg1437
L12L
sg1438
S'12'
p1462
sssg1438
S'7/11'
p1463
ssS'Avant 1'
p1464
(dp1465
S'total_runs'
p1466
L32L
sS'score'
p1467
I3
sS'results'
p1468
(dp1469
S'maxconn'
p1470
(dp1471
g1467
I10
sS'median'
p1472
L60L
sS'display'
p1473
S'60'
p1474
ssS'parscript'
p1475
(dp1476
g1467
I1
sg1472
L0L
sg1473
S'no'
p1477
ssS'parcssjs'
p1478
(dp1479
g1467
I1
sg1472
L0L
sg1473
g1477
ssS'cacheresredir'
p1480
(dp1481
g1467
I1
sg1472
L0L
sg1473
g1477
ssS'cacheexp'
p1482
(dp1483
g1467
I10
sg1472
L1L
sg1473
S'yes'
p1484
ssS'gzip'
p1485
(dp1486
g1467
I10
sg1472
L1L
sg1473
g1484
ssS'prefetch'
p1487
(dp1488
g1467
I1
sg1472
L0L
sg1473
g1477
ssS'cacheredir'
p1489
(dp1490
g1467
I1
sg1472
L0L
sg1473
g1477
ssS'parsheet'
p1491
(dp1492
g1467
I10
sg1472
L1L
sg1473
g1484
ssS'du'
p1493
(dp1494
g1467
I1
sg1472
L0L
sg1473
g1477
ssS'hostconn'
p1495
(dp1496
g1467
I5
sg1472
L2L
sg1473
g34
sssg1473
S'4/11'
p1497
ssS'Netscape 8.0'
p1498
(dp1499
S'total_runs'
p1500
L1L
sS'score'
p1501
I4
sS'results'
p1502
(dp1503
S'maxconn'
p1504
(dp1505
g1501
I10
sS'median'
p1506
L24L
sS'display'
p1507
S'24'
p1508
ssS'parscript'
p1509
(dp1510
g1501
I1
sg1506
L0L
sg1507
S'no'
p1511
ssS'parcssjs'
p1512
(dp1513
g1501
I1
sg1506
L0L
sg1507
g1511
ssS'cacheresredir'
p1514
(dp1515
g1501
I10
sg1506
L1L
sg1507
S'yes'
p1516
ssS'cacheexp'
p1517
(dp1518
g1501
I10
sg1506
L1L
sg1507
g1516
ssS'gzip'
p1519
(dp1520
g1501
I10
sg1506
L1L
sg1507
g1516
ssS'prefetch'
p1521
(dp1522
g1501
I1
sg1506
L0L
sg1507
g1511
ssS'cacheredir'
p1523
(dp1524
g1501
I1
sg1506
L0L
sg1507
g1511
ssS'parsheet'
p1525
(dp1526
g1501
I1
sg1506
L0L
sg1507
g1511
ssS'du'
p1527
(dp1528
g1501
I10
sg1506
L1L
sg1507
g1516
ssS'hostconn'
p1529
(dp1530
g1501
I5
sg1506
L2L
sg1507
g34
sssg1507
S'5/11'
p1531
ssS'MyIE2 0'
p1532
(dp1533
S'total_runs'
p1534
L7L
sS'score'
p1535
I6
sS'results'
p1536
(dp1537
S'maxconn'
p1538
(dp1539
g1535
I10
sS'median'
p1540
L60L
sS'display'
p1541
S'60'
p1542
ssS'parscript'
p1543
(dp1544
g1535
I10
sg1540
L1L
sg1541
S'yes'
p1545
ssS'parcssjs'
p1546
(dp1547
g1535
I1
sg1540
L0L
sg1541
S'no'
p1548
ssS'cacheresredir'
p1549
(dp1550
g1535
I1
sg1540
L0L
sg1541
g1548
ssS'cacheexp'
p1551
(dp1552
g1535
I10
sg1540
L1L
sg1541
g1545
ssS'gzip'
p1553
(dp1554
g1535
I10
sg1540
L1L
sg1541
g1545
ssS'prefetch'
p1555
(dp1556
g1535
I1
sg1540
L0L
sg1541
g1548
ssS'cacheredir'
p1557
(dp1558
g1535
I1
sg1540
L0L
sg1541
g1548
ssS'parsheet'
p1559
(dp1560
g1535
I10
sg1540
L1L
sg1541
g1545
ssS'du'
p1561
(dp1562
g1535
I10
sg1540
L1L
sg1541
g1545
ssS'hostconn'
p1563
(dp1564
g1535
I10
sg1540
L10L
sg1541
S'10'
p1565
sssg1541
S'7/11'
p1566
ssS'Nokia 66'
p1567
(dp1568
S'total_runs'
p1569
L2L
sS'score'
p1570
I5
sS'results'
p1571
(dp1572
S'maxconn'
p1573
(dp1574
g1570
I0
sS'median'
p1575
L7L
sS'display'
p1576
g113
ssS'parscript'
p1577
(dp1578
g1570
I10
sg1575
L1L
sg1576
S'yes'
p1579
ssS'parcssjs'
p1580
(dp1581
g1570
I1
sg1575
L0L
sg1576
S'no'
p1582
ssS'cacheresredir'
p1583
(dp1584
g1570
I1
sg1575
L0L
sg1576
g1582
ssS'cacheexp'
p1585
(dp1586
g1570
I10
sg1575
L1L
sg1576
g1579
ssS'gzip'
p1587
(dp1588
g1570
I10
sg1575
L1L
sg1576
g1579
ssS'prefetch'
p1589
(dp1590
g1570
I10
sg1575
L1L
sg1576
g1579
ssS'cacheredir'
p1591
(dp1592
g1570
I1
sg1575
L0L
sg1576
g1582
ssS'parsheet'
p1593
(dp1594
g1570
I10
sg1575
L1L
sg1576
g1579
ssS'du'
p1595
(dp1596
g1570
I1
sg1575
L0L
sg1576
g1582
ssS'hostconn'
p1597
(dp1598
g1570
I10
sg1575
L7L
sg1576
g113
sssg1576
S'6/11'
p1599
ssS'Bon Echo 2.0'
p1600
(dp1601
S'total_runs'
p1602
L2L
sS'score'
p1603
I7
sS'results'
p1604
(dp1605
S'maxconn'
p1606
(dp1607
g1603
I10
sS'median'
p1608
L49L
sS'display'
p1609
S'49'
p1610
ssS'parscript'
p1611
(dp1612
g1603
I1
sg1608
L0L
sg1609
S'no'
p1613
ssS'parcssjs'
p1614
(dp1615
g1603
I1
sg1608
L0L
sg1609
g1613
ssS'cacheresredir'
p1616
(dp1617
g1603
I10
sg1608
L1L
sg1609
S'yes'
p1618
ssS'cacheexp'
p1619
(dp1620
g1603
I10
sg1608
L1L
sg1609
g1618
ssS'gzip'
p1621
(dp1622
g1603
I10
sg1608
L1L
sg1609
g1618
ssS'prefetch'
p1623
(dp1624
g1603
I10
sg1608
L1L
sg1609
g1618
ssS'cacheredir'
p1625
(dp1626
g1603
I10
sg1608
L1L
sg1609
g1618
ssS'parsheet'
p1627
(dp1628
g1603
I1
sg1608
L0L
sg1609
g1613
ssS'du'
p1629
(dp1630
g1603
I10
sg1608
L1L
sg1609
g1618
ssS'hostconn'
p1631
(dp1632
g1603
I10
sg1608
L8L
sg1609
g147
sssg1609
S'8/11'
p1633
ssS'Fresco 4.10'
p1634
(dp1635
S'total_runs'
p1636
L1L
sS'score'
p1637
I6
sS'results'
p1638
(dp1639
S'maxconn'
p1640
(dp1641
g1637
I10
sS'median'
p1642
L30L
sS'display'
p1643
S'30'
p1644
ssS'parscript'
p1645
(dp1646
g1637
I1
sg1642
L0L
sg1643
S'no'
p1647
ssS'parcssjs'
p1648
(dp1649
g1637
I1
sg1642
L0L
sg1643
g1647
ssS'cacheresredir'
p1650
(dp1651
g1637
I1
sg1642
L0L
sg1643
g1647
ssS'cacheexp'
p1652
(dp1653
g1637
I10
sg1642
L1L
sg1643
S'yes'
p1654
ssS'gzip'
p1655
(dp1656
g1637
I10
sg1642
L1L
sg1643
g1654
ssS'prefetch'
p1657
(dp1658
g1637
I10
sg1642
L1L
sg1643
g1654
ssS'cacheredir'
p1659
(dp1660
g1637
I1
sg1642
L0L
sg1643
g1647
ssS'parsheet'
p1661
(dp1662
g1637
I10
sg1642
L1L
sg1643
g1654
ssS'du'
p1663
(dp1664
g1637
I10
sg1642
L1L
sg1643
g1654
ssS'hostconn'
p1665
(dp1666
g1637
I10
sg1642
L6L
sg1643
g272
sssg1643
S'7/11'
p1667
ssS'OmniWeb 563.60'
p1668
(dp1669
S'total_runs'
p1670
L1L
sS'score'
p1671
I4
sS'results'
p1672
(dp1673
S'maxconn'
p1674
(dp1675
g1671
I5
sS'median'
p1676
L10L
sS'display'
p1677
S'10'
p1678
ssS'parscript'
p1679
(dp1680
g1671
I1
sg1676
L0L
sg1677
S'no'
p1681
ssS'parcssjs'
p1682
(dp1683
g1671
I1
sg1676
L0L
sg1677
g1681
ssS'cacheresredir'
p1684
(dp1685
g1671
I10
sg1676
L1L
sg1677
S'yes'
p1686
ssS'cacheexp'
p1687
(dp1688
g1671
I10
sg1676
L1L
sg1677
g1686
ssS'gzip'
p1689
(dp1690
g1671
I10
sg1676
L1L
sg1677
g1686
ssS'prefetch'
p1691
(dp1692
g1671
I1
sg1676
L0L
sg1677
g1681
ssS'cacheredir'
p1693
(dp1694
g1671
I1
sg1676
L0L
sg1677
g1681
ssS'parsheet'
p1695
(dp1696
g1671
I1
sg1676
L0L
sg1677
g1681
ssS'du'
p1697
(dp1698
g1671
I10
sg1676
L1L
sg1677
g1686
ssS'hostconn'
p1699
(dp1700
g1671
I10
sg1676
L4L
sg1677
g11
sssg1677
S'5/11'
p1701
ssS'Flock 2.0'
p1702
(dp1703
S'total_runs'
p1704
L24L
sS'score'
p1705
I7
sS'results'
p1706
(dp1707
S'maxconn'
p1708
(dp1709
g1705
I10
sS'median'
p1710
L31L
sS'display'
p1711
S'31'
p1712
ssS'parscript'
p1713
(dp1714
g1705
I1
sg1710
L0L
sg1711
S'no'
p1715
ssS'parcssjs'
p1716
(dp1717
g1705
I1
sg1710
L0L
sg1711
g1715
ssS'cacheresredir'
p1718
(dp1719
g1705
I10
sg1710
L1L
sg1711
S'yes'
p1720
ssS'cacheexp'
p1721
(dp1722
g1705
I10
sg1710
L1L
sg1711
g1720
ssS'gzip'
p1723
(dp1724
g1705
I10
sg1710
L1L
sg1711
g1720
ssS'prefetch'
p1725
(dp1726
g1705
I10
sg1710
L1L
sg1711
g1720
ssS'cacheredir'
p1727
(dp1728
g1705
I1
sg1710
L0L
sg1711
g1715
ssS'parsheet'
p1729
(dp1730
g1705
I10
sg1710
L1L
sg1711
g1720
ssS'du'
p1731
(dp1732
g1705
I10
sg1710
L1L
sg1711
g1720
ssS'hostconn'
p1733
(dp1734
g1705
I10
sg1710
L6L
sg1711
g272
sssg1711
S'8/11'
p1735
ssS'OLPC 0'
p1736
(dp1737
S'total_runs'
p1738
L1L
sS'score'
p1739
I6
sS'results'
p1740
(dp1741
S'maxconn'
p1742
(dp1743
g1739
I10
sS'median'
p1744
L24L
sS'display'
p1745
S'24'
p1746
ssS'parscript'
p1747
(dp1748
g1739
I1
sg1744
L0L
sg1745
S'no'
p1749
ssS'parcssjs'
p1750
(dp1751
g1739
I1
sg1744
L0L
sg1745
g1749
ssS'cacheresredir'
p1752
(dp1753
g1739
I10
sg1744
L1L
sg1745
S'yes'
p1754
ssS'cacheexp'
p1755
(dp1756
g1739
I10
sg1744
L1L
sg1745
g1754
ssS'gzip'
p1757
(dp1758
g1739
I10
sg1744
L1L
sg1745
g1754
ssS'prefetch'
p1759
(dp1760
g1739
I10
sg1744
L1L
sg1745
g1754
ssS'cacheredir'
p1761
(dp1762
g1739
I1
sg1744
L0L
sg1745
g1749
ssS'parsheet'
p1763
(dp1764
g1739
I10
sg1744
L1L
sg1745
g1754
ssS'du'
p1765
(dp1766
g1739
I10
sg1744
L1L
sg1745
g1754
ssS'hostconn'
p1767
(dp1768
g1739
I5
sg1744
L2L
sg1745
g34
sssg1745
S'7/11'
p1769
ssS'Iron 2.0'
p1770
(dp1771
S'total_runs'
p1772
L22L
sS'score'
p1773
I8
sS'results'
p1774
(dp1775
S'maxconn'
p1776
(dp1777
g1773
I10
sS'median'
p1778
L60L
sS'display'
p1779
S'60'
p1780
ssS'parscript'
p1781
(dp1782
g1773
I10
sg1778
L1L
sg1779
S'yes'
p1783
ssS'parcssjs'
p1784
(dp1785
g1773
I1
sg1778
L0L
sg1779
S'no'
p1786
ssS'cacheresredir'
p1787
(dp1788
g1773
I10
sg1778
L1L
sg1779
g1783
ssS'cacheexp'
p1789
(dp1790
g1773
I10
sg1778
L1L
sg1779
g1783
ssS'gzip'
p1791
(dp1792
g1773
I10
sg1778
L1L
sg1779
g1783
ssS'prefetch'
p1793
(dp1794
g1773
I1
sg1778
L0L
sg1779
g1786
ssS'cacheredir'
p1795
(dp1796
g1773
I10
sg1778
L1L
sg1779
g1783
ssS'parsheet'
p1797
(dp1798
g1773
I10
sg1778
L1L
sg1779
g1783
ssS'du'
p1799
(dp1800
g1773
I10
sg1778
L1L
sg1779
g1783
ssS'hostconn'
p1801
(dp1802
g1773
I10
sg1778
L6L
sg1779
g272
sssg1779
S'9/11'
p1803
ssS'Opera 9.60'
p1804
(dp1805
S'total_runs'
p1806
L271L
sS'score'
p1807
I4
sS'results'
p1808
(dp1809
S'maxconn'
p1810
(dp1811
g1807
I5
sS'median'
p1812
L20L
sS'display'
p1813
S'20'
p1814
ssS'parscript'
p1815
(dp1816
g1807
I1
sg1812
L0L
sg1813
S'no'
p1817
ssS'parcssjs'
p1818
(dp1819
g1807
I1
sg1812
L0L
sg1813
g1817
ssS'cacheresredir'
p1820
(dp1821
g1807
I1
sg1812
L0L
sg1813
g1817
ssS'cacheexp'
p1822
(dp1823
g1807
I10
sg1812
L1L
sg1813
S'yes'
p1824
ssS'gzip'
p1825
(dp1826
g1807
I10
sg1812
L1L
sg1813
g1824
ssS'prefetch'
p1827
(dp1828
g1807
I1
sg1812
L0L
sg1813
g1817
ssS'cacheredir'
p1829
(dp1830
g1807
I1
sg1812
L0L
sg1813
g1817
ssS'parsheet'
p1831
(dp1832
g1807
I10
sg1812
L1L
sg1813
g1824
ssS'du'
p1833
(dp1834
g1807
I10
sg1812
L1L
sg1813
g1824
ssS'hostconn'
p1835
(dp1836
g1807
I10
sg1812
L4L
sg1813
g11
sssg1813
S'5/11'
p1837
ssS'IE 6.0'
p1838
(dp1839
S'total_runs'
p1840
L306L
sS'score'
p1841
I3
sS'results'
p1842
(dp1843
S'maxconn'
p1844
(dp1845
g1841
I10
sS'median'
p1846
L54L
sS'display'
p1847
S'54'
p1848
ssS'parscript'
p1849
(dp1850
g1841
I1
sg1846
L0L
sg1847
S'no'
p1851
ssS'parcssjs'
p1852
(dp1853
g1841
I1
sg1846
L0L
sg1847
g1851
ssS'cacheresredir'
p1854
(dp1855
g1841
I1
sg1846
L0L
sg1847
g1851
ssS'cacheexp'
p1856
(dp1857
g1841
I10
sg1846
L1L
sg1847
S'yes'
p1858
ssS'gzip'
p1859
(dp1860
g1841
I10
sg1846
L1L
sg1847
g1858
ssS'prefetch'
p1861
(dp1862
g1841
I1
sg1846
L0L
sg1847
g1851
ssS'cacheredir'
p1863
(dp1864
g1841
I1
sg1846
L0L
sg1847
g1851
ssS'parsheet'
p1865
(dp1866
g1841
I10
sg1846
L1L
sg1847
g1858
ssS'du'
p1867
(dp1868
g1841
I1
sg1846
L0L
sg1847
g1851
ssS'hostconn'
p1869
(dp1870
g1841
I5
sg1846
L2L
sg1847
g34
sssg1847
S'4/11'
p1871
ssS'Lunascape 4.9'
p1872
(dp1873
S'total_runs'
p1874
L75L
sS'score'
p1875
I8
sS'results'
p1876
(dp1877
S'maxconn'
p1878
(dp1879
g1875
I10
sS'median'
p1880
L30L
sS'display'
p1881
S'30'
p1882
ssS'parscript'
p1883
(dp1884
g1875
I10
sg1880
L1L
sg1881
S'yes'
p1885
ssS'parcssjs'
p1886
(dp1887
g1875
I1
sg1880
L0L
sg1881
S'no'
p1888
ssS'cacheresredir'
p1889
(dp1890
g1875
I10
sg1880
L1L
sg1881
g1885
ssS'cacheexp'
p1891
(dp1892
g1875
I10
sg1880
L1L
sg1881
g1885
ssS'gzip'
p1893
(dp1894
g1875
I10
sg1880
L1L
sg1881
g1885
ssS'prefetch'
p1895
(dp1896
g1875
I10
sg1880
L1L
sg1881
g1885
ssS'cacheredir'
p1897
(dp1898
g1875
I10
sg1880
L1L
sg1881
g1885
ssS'parsheet'
p1899
(dp1900
g1875
I10
sg1880
L1L
sg1881
g1885
ssS'du'
p1901
(dp1902
g1875
I10
sg1880
L1L
sg1881
g1885
ssS'hostconn'
p1903
(dp1904
g1875
I10
sg1880
L6L
sg1881
g272
sssg1881
S'10/11'
p1905
ssS'Fennec 0.7'
p1906
(dp1907
S'total_runs'
p1908
L1L
sS'score'
p1909
I5
sS'results'
p1910
(dp1911
S'maxconn'
p1912
(dp1913
g1909
I0
sS'median'
p1914
L6L
sS'display'
p1915
g272
ssS'parscript'
p1916
(dp1917
g1909
I1
sg1914
L0L
sg1915
S'no'
p1918
ssS'parcssjs'
p1919
(dp1920
g1909
I1
sg1914
L0L
sg1915
g1918
ssS'cacheresredir'
p1921
(dp1922
g1909
I1
sg1914
L0L
sg1915
g1918
ssS'cacheexp'
p1923
(dp1924
g1909
I10
sg1914
L1L
sg1915
S'yes'
p1925
ssS'gzip'
p1926
(dp1927
g1909
I10
sg1914
L1L
sg1915
g1925
ssS'prefetch'
p1928
(dp1929
g1909
I10
sg1914
L1L
sg1915
g1925
ssS'cacheredir'
p1930
(dp1931
g1909
I1
sg1914
L0L
sg1915
g1918
ssS'parsheet'
p1932
(dp1933
g1909
I10
sg1914
L1L
sg1915
g1925
ssS'du'
p1934
(dp1935
g1909
I10
sg1914
L1L
sg1915
g1925
ssS'hostconn'
p1936
(dp1937
g1909
I10
sg1914
L4L
sg1915
g11
sssg1915
S'6/11'
p1938
ssS'SeaMonkey 1.1'
p1939
(dp1940
S'total_runs'
p1941
L48L
sS'score'
p1942
I6
sS'results'
p1943
(dp1944
S'maxconn'
p1945
(dp1946
g1942
I10
sS'median'
p1947
L24L
sS'display'
p1948
S'24'
p1949
ssS'parscript'
p1950
(dp1951
g1942
I1
sg1947
L0L
sg1948
S'no'
p1952
ssS'parcssjs'
p1953
(dp1954
g1942
I1
sg1947
L0L
sg1948
g1952
ssS'cacheresredir'
p1955
(dp1956
g1942
I10
sg1947
L1L
sg1948
S'yes'
p1957
ssS'cacheexp'
p1958
(dp1959
g1942
I10
sg1947
L1L
sg1948
g1957
ssS'gzip'
p1960
(dp1961
g1942
I10
sg1947
L1L
sg1948
g1957
ssS'prefetch'
p1962
(dp1963
g1942
I10
sg1947
L1L
sg1948
g1957
ssS'cacheredir'
p1964
(dp1965
g1942
I10
sg1947
L1L
sg1948
g1957
ssS'parsheet'
p1966
(dp1967
g1942
I1
sg1947
L0L
sg1948
g1952
ssS'du'
p1968
(dp1969
g1942
I10
sg1947
L1L
sg1948
g1957
ssS'hostconn'
p1970
(dp1971
g1942
I5
sg1947
L2L
sg1948
g34
sssg1948
S'7/11'
p1972
ssS'Opera Mini 4.2'
p1973
(dp1974
S'total_runs'
p1975
L20L
sS'score'
p1976
I4
sS'results'
p1977
(dp1978
S'maxconn'
p1979
(dp1980
g1976
I10
sS'median'
p1981
L60L
sS'display'
p1982
S'60'
p1983
ssS'parscript'
p1984
(dp1985
g1976
I1
sg1981
L0L
sg1982
S'no'
p1986
ssS'parcssjs'
p1987
(dp1988
g1976
I1
sg1981
L0L
sg1982
g1986
ssS'cacheresredir'
p1989
(dp1990
g1976
I1
sg1981
L0L
sg1982
g1986
ssS'cacheexp'
p1991
(dp1992
g1976
I1
sg1981
L0L
sg1982
g1986
ssS'gzip'
p1993
(dp1994
g1976
I10
sg1981
L1L
sg1982
S'yes'
p1995
ssS'prefetch'
p1996
(dp1997
g1976
I1
sg1981
L0L
sg1982
g1986
ssS'cacheredir'
p1998
(dp1999
g1976
I1
sg1981
L0L
sg1982
g1986
ssS'parsheet'
p2000
(dp2001
g1976
I10
sg1981
L1L
sg1982
g1995
ssS'du'
p2002
(dp2003
g1976
I10
sg1981
L1L
sg1982
g1995
ssS'hostconn'
p2004
(dp2005
g1976
I10
sg1981
L10L
sg1982
S'10'
p2006
sssg1982
S'5/11'
p2007
ssS'Opera Mini 4.3'
p2008
(dp2009
S'total_runs'
p2010
L1L
sS'score'
p2011
I4
sS'results'
p2012
(dp2013
S'maxconn'
p2014
(dp2015
g2011
I10
sS'median'
p2016
L60L
sS'display'
p2017
S'60'
p2018
ssS'parscript'
p2019
(dp2020
g2011
I1
sg2016
L0L
sg2017
S'no'
p2021
ssS'parcssjs'
p2022
(dp2023
g2011
I1
sg2016
L0L
sg2017
g2021
ssS'cacheresredir'
p2024
(dp2025
g2011
I1
sg2016
L0L
sg2017
g2021
ssS'cacheexp'
p2026
(dp2027
g2011
I1
sg2016
L0L
sg2017
g2021
ssS'gzip'
p2028
(dp2029
g2011
I10
sg2016
L1L
sg2017
S'yes'
p2030
ssS'prefetch'
p2031
(dp2032
g2011
I1
sg2016
L0L
sg2017
g2021
ssS'cacheredir'
p2033
(dp2034
g2011
I1
sg2016
L0L
sg2017
g2021
ssS'parsheet'
p2035
(dp2036
g2011
I10
sg2016
L1L
sg2017
g2030
ssS'du'
p2037
(dp2038
g2011
I10
sg2016
L1L
sg2017
g2030
ssS'hostconn'
p2039
(dp2040
g2011
I10
sg2016
L10L
sg2017
S'10'
p2041
sssg2017
S'5/11'
p2042
ssS'Opera Mini 4.0'
p2043
(dp2044
S'total_runs'
p2045
L17L
sS'score'
p2046
I4
sS'results'
p2047
(dp2048
S'maxconn'
p2049
(dp2050
g2046
I10
sS'median'
p2051
L60L
sS'display'
p2052
S'60'
p2053
ssS'parscript'
p2054
(dp2055
g2046
I1
sg2051
L0L
sg2052
S'no'
p2056
ssS'parcssjs'
p2057
(dp2058
g2046
I1
sg2051
L0L
sg2052
g2056
ssS'cacheresredir'
p2059
(dp2060
g2046
I1
sg2051
L0L
sg2052
g2056
ssS'cacheexp'
p2061
(dp2062
g2046
I1
sg2051
L0L
sg2052
g2056
ssS'gzip'
p2063
(dp2064
g2046
I10
sg2051
L1L
sg2052
S'yes'
p2065
ssS'prefetch'
p2066
(dp2067
g2046
I1
sg2051
L0L
sg2052
g2056
ssS'cacheredir'
p2068
(dp2069
g2046
I1
sg2051
L0L
sg2052
g2056
ssS'parsheet'
p2070
(dp2071
g2046
I10
sg2051
L1L
sg2052
g2065
ssS'du'
p2072
(dp2073
g2046
I10
sg2051
L1L
sg2052
g2065
ssS'hostconn'
p2074
(dp2075
g2046
I10
sg2051
L10L
sg2052
S'10'
p2076
sssg2052
S'5/11'
p2077
ssS'Opera Mini 4.1'
p2078
(dp2079
S'total_runs'
p2080
L2L
sS'score'
p2081
I4
sS'results'
p2082
(dp2083
S'maxconn'
p2084
(dp2085
g2081
I10
sS'median'
p2086
L60L
sS'display'
p2087
S'60'
p2088
ssS'parscript'
p2089
(dp2090
g2081
I1
sg2086
L0L
sg2087
S'no'
p2091
ssS'parcssjs'
p2092
(dp2093
g2081
I1
sg2086
L0L
sg2087
g2091
ssS'cacheresredir'
p2094
(dp2095
g2081
I1
sg2086
L0L
sg2087
g2091
ssS'cacheexp'
p2096
(dp2097
g2081
I1
sg2086
L0L
sg2087
g2091
ssS'gzip'
p2098
(dp2099
g2081
I10
sg2086
L1L
sg2087
S'yes'
p2100
ssS'prefetch'
p2101
(dp2102
g2081
I1
sg2086
L0L
sg2087
g2091
ssS'cacheredir'
p2103
(dp2104
g2081
I1
sg2086
L0L
sg2087
g2091
ssS'parsheet'
p2105
(dp2106
g2081
I10
sg2086
L1L
sg2087
g2100
ssS'du'
p2107
(dp2108
g2081
I10
sg2086
L1L
sg2087
g2100
ssS'hostconn'
p2109
(dp2110
g2081
I10
sg2086
L10L
sg2087
S'10'
p2111
sssg2087
S'5/11'
p2112
ssS'Epiphany 2.14'
p2113
(dp2114
S'total_runs'
p2115
L2L
sS'score'
p2116
I6
sS'results'
p2117
(dp2118
S'maxconn'
p2119
(dp2120
g2116
I10
sS'median'
p2121
L24L
sS'display'
p2122
S'24'
p2123
ssS'parscript'
p2124
(dp2125
g2116
I1
sg2121
L0L
sg2122
S'no'
p2126
ssS'parcssjs'
p2127
(dp2128
g2116
I1
sg2121
L0L
sg2122
g2126
ssS'cacheresredir'
p2129
(dp2130
g2116
I10
sg2121
L1L
sg2122
S'yes'
p2131
ssS'cacheexp'
p2132
(dp2133
g2116
I10
sg2121
L1L
sg2122
g2131
ssS'gzip'
p2134
(dp2135
g2116
I10
sg2121
L1L
sg2122
g2131
ssS'prefetch'
p2136
(dp2137
g2116
I10
sg2121
L1L
sg2122
g2131
ssS'cacheredir'
p2138
(dp2139
g2116
I10
sg2121
L1L
sg2122
g2131
ssS'parsheet'
p2140
(dp2141
g2116
I1
sg2121
L0L
sg2122
g2126
ssS'du'
p2142
(dp2143
g2116
I10
sg2121
L1L
sg2122
g2131
ssS'hostconn'
p2144
(dp2145
g2116
I5
sg2121
L2L
sg2122
g34
sssg2122
S'7/11'
p2146
ssS'Bolt 0.862'
p2147
(dp2148
S'total_runs'
p2149
L1L
sS'score'
p2150
I4
sS'results'
p2151
(dp2152
S'maxconn'
p2153
(dp2154
g2150
I0
sS'median'
p2155
L5L
sS'display'
p2156
g1054
ssS'parscript'
p2157
(dp2158
g2150
I1
sg2155
L0L
sg2156
S'no'
p2159
ssS'parcssjs'
p2160
(dp2161
g2150
I1
sg2155
L0L
sg2156
g2159
ssS'cacheresredir'
p2162
(dp2163
g2150
I1
sg2155
L0L
sg2156
g2159
ssS'cacheexp'
p2164
(dp2165
g2150
I1
sg2155
L0L
sg2156
g2159
ssS'gzip'
p2166
(dp2167
g2150
I10
sg2155
L1L
sg2156
S'yes'
p2168
ssS'prefetch'
p2169
(dp2170
g2150
I1
sg2155
L0L
sg2156
g2159
ssS'cacheredir'
p2171
(dp2172
g2150
I10
sg2155
L1L
sg2156
g2168
ssS'parsheet'
p2173
(dp2174
g2150
I10
sg2155
L1L
sg2156
g2168
ssS'du'
p2175
(dp2176
g2150
I10
sg2155
L1L
sg2156
g2168
ssS'hostconn'
p2177
(dp2178
g2150
I10
sg2155
L5L
sg2156
g1054
sssg2156
S'5/11'
p2179
ssS'Iron 0.2'
p2180
(dp2181
S'total_runs'
p2182
L5L
sS'score'
p2183
I7
sS'results'
p2184
(dp2185
S'maxconn'
p2186
(dp2187
g2183
I10
sS'median'
p2188
L60L
sS'display'
p2189
S'60'
p2190
ssS'parscript'
p2191
(dp2192
g2183
I1
sg2188
L0L
sg2189
S'no'
p2193
ssS'parcssjs'
p2194
(dp2195
g2183
I1
sg2188
L0L
sg2189
g2193
ssS'cacheresredir'
p2196
(dp2197
g2183
I10
sg2188
L1L
sg2189
S'yes'
p2198
ssS'cacheexp'
p2199
(dp2200
g2183
I10
sg2188
L1L
sg2189
g2198
ssS'gzip'
p2201
(dp2202
g2183
I10
sg2188
L1L
sg2189
g2198
ssS'prefetch'
p2203
(dp2204
g2183
I1
sg2188
L0L
sg2189
g2193
ssS'cacheredir'
p2205
(dp2206
g2183
I10
sg2188
L1L
sg2189
g2198
ssS'parsheet'
p2207
(dp2208
g2183
I10
sg2188
L1L
sg2189
g2198
ssS'du'
p2209
(dp2210
g2183
I10
sg2188
L1L
sg2189
g2198
ssS'hostconn'
p2211
(dp2212
g2183
I10
sg2188
L6L
sg2189
g272
sssg2189
S'8/11'
p2213
ssS'Iron 0.3'
p2214
(dp2215
S'total_runs'
p2216
L8L
sS'score'
p2217
I8
sS'results'
p2218
(dp2219
S'maxconn'
p2220
(dp2221
g2217
I10
sS'median'
p2222
L60L
sS'display'
p2223
S'60'
p2224
ssS'parscript'
p2225
(dp2226
g2217
I10
sg2222
L1L
sg2223
S'yes'
p2227
ssS'parcssjs'
p2228
(dp2229
g2217
I1
sg2222
L0L
sg2223
S'no'
p2230
ssS'cacheresredir'
p2231
(dp2232
g2217
I10
sg2222
L1L
sg2223
g2227
ssS'cacheexp'
p2233
(dp2234
g2217
I10
sg2222
L1L
sg2223
g2227
ssS'gzip'
p2235
(dp2236
g2217
I10
sg2222
L1L
sg2223
g2227
ssS'prefetch'
p2237
(dp2238
g2217
I1
sg2222
L0L
sg2223
g2230
ssS'cacheredir'
p2239
(dp2240
g2217
I10
sg2222
L1L
sg2223
g2227
ssS'parsheet'
p2241
(dp2242
g2217
I10
sg2222
L1L
sg2223
g2227
ssS'du'
p2243
(dp2244
g2217
I10
sg2222
L1L
sg2223
g2227
ssS'hostconn'
p2245
(dp2246
g2217
I10
sg2222
L6L
sg2223
g272
sssg2223
S'9/11'
p2247
ssS'Iron 0.4'
p2248
(dp2249
S'total_runs'
p2250
L5L
sS'score'
p2251
I8
sS'results'
p2252
(dp2253
S'maxconn'
p2254
(dp2255
g2251
I10
sS'median'
p2256
L60L
sS'display'
p2257
S'60'
p2258
ssS'parscript'
p2259
(dp2260
g2251
I10
sg2256
L1L
sg2257
S'yes'
p2261
ssS'parcssjs'
p2262
(dp2263
g2251
I1
sg2256
L0L
sg2257
S'no'
p2264
ssS'cacheresredir'
p2265
(dp2266
g2251
I10
sg2256
L1L
sg2257
g2261
ssS'cacheexp'
p2267
(dp2268
g2251
I10
sg2256
L1L
sg2257
g2261
ssS'gzip'
p2269
(dp2270
g2251
I10
sg2256
L1L
sg2257
g2261
ssS'prefetch'
p2271
(dp2272
g2251
I1
sg2256
L0L
sg2257
g2264
ssS'cacheredir'
p2273
(dp2274
g2251
I10
sg2256
L1L
sg2257
g2261
ssS'parsheet'
p2275
(dp2276
g2251
I10
sg2256
L1L
sg2257
g2261
ssS'du'
p2277
(dp2278
g2251
I10
sg2256
L1L
sg2257
g2261
ssS'hostconn'
p2279
(dp2280
g2251
I10
sg2256
L6L
sg2257
g272
sssg2257
S'9/11'
p2281
ssS'IE 4.0'
p2282
(dp2283
S'total_runs'
p2284
L1L
sS'score'
p2285
I8
sS'results'
p2286
(dp2287
S'maxconn'
p2288
(dp2289
g2285
I10
sS'median'
p2290
L60L
sS'display'
p2291
S'60'
p2292
ssS'parscript'
p2293
(dp2294
g2285
I1
sg2290
L0L
sg2291
S'no'
p2295
ssS'parcssjs'
p2296
(dp2297
g2285
I1
sg2290
L0L
sg2291
g2295
ssS'cacheresredir'
p2298
(dp2299
g2285
I10
sg2290
L1L
sg2291
S'yes'
p2300
ssS'cacheexp'
p2301
(dp2302
g2285
I10
sg2290
L1L
sg2291
g2300
ssS'gzip'
p2303
(dp2304
g2285
I10
sg2290
L1L
sg2291
g2300
ssS'prefetch'
p2305
(dp2306
g2285
I10
sg2290
L1L
sg2291
g2300
ssS'cacheredir'
p2307
(dp2308
g2285
I10
sg2290
L1L
sg2291
g2300
ssS'parsheet'
p2309
(dp2310
g2285
I10
sg2290
L1L
sg2291
g2300
ssS'du'
p2311
(dp2312
g2285
I10
sg2290
L1L
sg2291
g2300
ssS'hostconn'
p2313
(dp2314
g2285
I10
sg2290
L14L
sg2291
S'14'
p2315
sssg2291
S'9/11'
p2316
ssS'Kazehakase 0.5'
p2317
(dp2318
S'total_runs'
p2319
L6L
sS'score'
p2320
I6
sS'results'
p2321
(dp2322
S'maxconn'
p2323
(dp2324
g2320
I10
sS'median'
p2325
L29L
sS'display'
p2326
S'29'
p2327
ssS'parscript'
p2328
(dp2329
g2320
I1
sg2325
L0L
sg2326
S'no'
p2330
ssS'parcssjs'
p2331
(dp2332
g2320
I1
sg2325
L0L
sg2326
g2330
ssS'cacheresredir'
p2333
(dp2334
g2320
I1
sg2325
L0L
sg2326
g2330
ssS'cacheexp'
p2335
(dp2336
g2320
I10
sg2325
L1L
sg2326
S'yes'
p2337
ssS'gzip'
p2338
(dp2339
g2320
I10
sg2325
L1L
sg2326
g2337
ssS'prefetch'
p2340
(dp2341
g2320
I10
sg2325
L1L
sg2326
g2337
ssS'cacheredir'
p2342
(dp2343
g2320
I1
sg2325
L0L
sg2326
g2330
ssS'parsheet'
p2344
(dp2345
g2320
I10
sg2325
L1L
sg2326
g2337
ssS'du'
p2346
(dp2347
g2320
I10
sg2325
L1L
sg2326
g2337
ssS'hostconn'
p2348
(dp2349
g2320
I10
sg2325
L6L
sg2326
g272
sssg2326
S'7/11'
p2350
ssS'Nokia 6103'
p2351
(dp2352
S'total_runs'
p2353
L1L
sS'score'
p2354
I5
sS'results'
p2355
(dp2356
S'maxconn'
p2357
(dp2358
g2354
I10
sS'median'
p2359
L30L
sS'display'
p2360
S'30'
p2361
ssS'parscript'
p2362
(dp2363
g2354
I1
sg2359
L0L
sg2360
S'no'
p2364
ssS'parcssjs'
p2365
(dp2366
g2354
I1
sg2359
L0L
sg2360
g2364
ssS'cacheresredir'
p2367
(dp2368
g2354
I10
sg2359
L1L
sg2360
S'yes'
p2369
ssS'cacheexp'
p2370
(dp2371
g2354
I10
sg2359
L1L
sg2360
g2369
ssS'gzip'
p2372
(dp2373
g2354
I1
sg2359
L0L
sg2360
g2364
ssS'prefetch'
p2374
(dp2375
g2354
I10
sg2359
L1L
sg2360
g2369
ssS'cacheredir'
p2376
(dp2377
g2354
I1
sg2359
L0L
sg2360
g2364
ssS'parsheet'
p2378
(dp2379
g2354
I10
sg2359
L1L
sg2360
g2369
ssS'du'
p2380
(dp2381
g2354
I10
sg2359
L1L
sg2360
g2369
ssS'hostconn'
p2382
(dp2383
g2354
I5
sg2359
L2L
sg2360
g34
sssg2360
S'6/11'
p2384
ssS'Opera 9.24'
p2385
(dp2386
S'total_runs'
p2387
L12L
sS'score'
p2388
I4
sS'results'
p2389
(dp2390
S'maxconn'
p2391
(dp2392
g2388
I5
sS'median'
p2393
L20L
sS'display'
p2394
S'20'
p2395
ssS'parscript'
p2396
(dp2397
g2388
I1
sg2393
L0L
sg2394
S'no'
p2398
ssS'parcssjs'
p2399
(dp2400
g2388
I1
sg2393
L0L
sg2394
g2398
ssS'cacheresredir'
p2401
(dp2402
g2388
I1
sg2393
L0L
sg2394
g2398
ssS'cacheexp'
p2403
(dp2404
g2388
I10
sg2393
L1L
sg2394
S'yes'
p2405
ssS'gzip'
p2406
(dp2407
g2388
I10
sg2393
L1L
sg2394
g2405
ssS'prefetch'
p2408
(dp2409
g2388
I1
sg2393
L0L
sg2394
g2398
ssS'cacheredir'
p2410
(dp2411
g2388
I1
sg2393
L0L
sg2394
g2398
ssS'parsheet'
p2412
(dp2413
g2388
I10
sg2393
L1L
sg2394
g2405
ssS'du'
p2414
(dp2415
g2388
I10
sg2393
L1L
sg2394
g2405
ssS'hostconn'
p2416
(dp2417
g2388
I10
sg2393
L4L
sg2394
g11
sssg2394
S'5/11'
p2418
ssS'Opera 10.00'
p2419
(dp2420
S'total_runs'
p2421
L1244L
sS'score'
p2422
I6
sS'results'
p2423
(dp2424
S'maxconn'
p2425
(dp2426
g2422
I10
sS'median'
p2427
L49L
sS'display'
p2428
S'49'
p2429
ssS'parscript'
p2430
(dp2431
g2422
I1
sg2427
L0L
sg2428
S'no'
p2432
ssS'parcssjs'
p2433
(dp2434
g2422
I1
sg2427
L0L
sg2428
g2432
ssS'cacheresredir'
p2435
(dp2436
g2422
I10
sg2427
L1L
sg2428
S'yes'
p2437
ssS'cacheexp'
p2438
(dp2439
g2422
I10
sg2427
L1L
sg2428
g2437
ssS'gzip'
p2440
(dp2441
g2422
I10
sg2427
L1L
sg2428
g2437
ssS'prefetch'
p2442
(dp2443
g2422
I1
sg2427
L0L
sg2428
g2432
ssS'cacheredir'
p2444
(dp2445
g2422
I1
sg2427
L0L
sg2428
g2432
ssS'parsheet'
p2446
(dp2447
g2422
I10
sg2427
L1L
sg2428
g2437
ssS'du'
p2448
(dp2449
g2422
I10
sg2427
L1L
sg2428
g2437
ssS'hostconn'
p2450
(dp2451
g2422
I10
sg2427
L8L
sg2428
g147
sssg2428
S'7/11'
p2452
ssS'Nokia 71'
p2453
(dp2454
S'total_runs'
p2455
L10L
sS'score'
p2456
I3
sS'results'
p2457
(dp2458
S'maxconn'
p2459
(dp2460
g2456
I0
sS'median'
p2461
L7L
sS'display'
p2462
g113
ssS'parscript'
p2463
(dp2464
g2456
I10
sg2461
L1L
sg2462
S'yes'
p2465
ssS'parcssjs'
p2466
(dp2467
g2456
I1
sg2461
L0L
sg2462
S'no'
p2468
ssS'cacheresredir'
p2469
(dp2470
g2456
I1
sg2461
L0L
sg2462
g2468
ssS'cacheexp'
p2471
(dp2472
g2456
I10
sg2461
L1L
sg2462
g2465
ssS'gzip'
p2473
(dp2474
g2456
I10
sg2461
L1L
sg2462
g2465
ssS'prefetch'
p2475
(dp2476
g2456
I1
sg2461
L0L
sg2462
g2468
ssS'cacheredir'
p2477
(dp2478
g2456
I1
sg2461
L0L
sg2462
g2468
ssS'parsheet'
p2479
(dp2480
g2456
I10
sg2461
L1L
sg2462
g2465
ssS'du'
p2481
(dp2482
g2456
I1
sg2461
L0L
sg2462
g2468
ssS'hostconn'
p2483
(dp2484
g2456
I0
sg2461
L0L
sg2462
g46
sssg2462
S'4/11'
p2485
ssS'Opera 9.25'
p2486
(dp2487
S'total_runs'
p2488
L14L
sS'score'
p2489
I4
sS'results'
p2490
(dp2491
S'maxconn'
p2492
(dp2493
g2489
I5
sS'median'
p2494
L20L
sS'display'
p2495
S'20'
p2496
ssS'parscript'
p2497
(dp2498
g2489
I1
sg2494
L0L
sg2495
S'no'
p2499
ssS'parcssjs'
p2500
(dp2501
g2489
I1
sg2494
L0L
sg2495
g2499
ssS'cacheresredir'
p2502
(dp2503
g2489
I1
sg2494
L0L
sg2495
g2499
ssS'cacheexp'
p2504
(dp2505
g2489
I10
sg2494
L1L
sg2495
S'yes'
p2506
ssS'gzip'
p2507
(dp2508
g2489
I10
sg2494
L1L
sg2495
g2506
ssS'prefetch'
p2509
(dp2510
g2489
I1
sg2494
L0L
sg2495
g2499
ssS'cacheredir'
p2511
(dp2512
g2489
I1
sg2494
L0L
sg2495
g2499
ssS'parsheet'
p2513
(dp2514
g2489
I10
sg2494
L1L
sg2495
g2506
ssS'du'
p2515
(dp2516
g2489
I10
sg2494
L1L
sg2495
g2506
ssS'hostconn'
p2517
(dp2518
g2489
I10
sg2494
L4L
sg2495
g11
sssg2495
S'5/11'
p2519
ssS'Nokia 75'
p2520
(dp2521
S'total_runs'
p2522
L1L
sS'score'
p2523
I4
sS'results'
p2524
(dp2525
S'maxconn'
p2526
(dp2527
g2523
I5
sS'median'
p2528
L14L
sS'display'
p2529
S'14'
p2530
ssS'parscript'
p2531
(dp2532
g2523
I10
sg2528
L1L
sg2529
S'yes'
p2533
ssS'parcssjs'
p2534
(dp2535
g2523
I1
sg2528
L0L
sg2529
S'no'
p2536
ssS'cacheresredir'
p2537
(dp2538
g2523
I1
sg2528
L0L
sg2529
g2536
ssS'cacheexp'
p2539
(dp2540
g2523
I10
sg2528
L1L
sg2529
g2533
ssS'gzip'
p2541
(dp2542
g2523
I1
sg2528
L0L
sg2529
g2536
ssS'prefetch'
p2543
(dp2544
g2523
I1
sg2528
L0L
sg2529
g2536
ssS'cacheredir'
p2545
(dp2546
g2523
I1
sg2528
L0L
sg2529
g2536
ssS'parsheet'
p2547
(dp2548
g2523
I10
sg2528
L1L
sg2529
g2533
ssS'du'
p2549
(dp2550
g2523
I10
sg2528
L1L
sg2529
g2533
ssS'hostconn'
p2551
(dp2552
g2523
I10
sg2528
L12L
sg2529
S'12'
p2553
sssg2529
S'5/11'
p2554
ssS'Sleipnir 2.8'
p2555
(dp2556
S'total_runs'
p2557
L11L
sS'score'
p2558
I4
sS'results'
p2559
(dp2560
S'maxconn'
p2561
(dp2562
g2558
I10
sS'median'
p2563
L60L
sS'display'
p2564
S'60'
p2565
ssS'parscript'
p2566
(dp2567
g2558
I1
sg2563
L0L
sg2564
S'no'
p2568
ssS'parcssjs'
p2569
(dp2570
g2558
I1
sg2563
L0L
sg2564
g2568
ssS'cacheresredir'
p2571
(dp2572
g2558
I1
sg2563
L0L
sg2564
g2568
ssS'cacheexp'
p2573
(dp2574
g2558
I10
sg2563
L1L
sg2564
S'yes'
p2575
ssS'gzip'
p2576
(dp2577
g2558
I10
sg2563
L1L
sg2564
g2575
ssS'prefetch'
p2578
(dp2579
g2558
I1
sg2563
L0L
sg2564
g2568
ssS'cacheredir'
p2580
(dp2581
g2558
I1
sg2563
L0L
sg2564
g2568
ssS'parsheet'
p2582
(dp2583
g2558
I10
sg2563
L1L
sg2564
g2575
ssS'du'
p2584
(dp2585
g2558
I1
sg2563
L0L
sg2564
g2568
ssS'hostconn'
p2586
(dp2587
g2558
I10
sg2563
L6L
sg2564
g272
sssg2564
S'5/11'
p2588
ssS'Palm Pre 1.0'
p2589
(dp2590
S'total_runs'
p2591
L10L
sS'score'
p2592
I4
sS'results'
p2593
(dp2594
S'maxconn'
p2595
(dp2596
g2592
I5
sS'median'
p2597
L11L
sS'display'
p2598
S'11'
p2599
ssS'parscript'
p2600
(dp2601
g2592
I1
sg2597
L0L
sg2598
S'no'
p2602
ssS'parcssjs'
p2603
(dp2604
g2592
I1
sg2597
L0L
sg2598
g2602
ssS'cacheresredir'
p2605
(dp2606
g2592
I1
sg2597
L0L
sg2598
g2602
ssS'cacheexp'
p2607
(dp2608
g2592
I10
sg2597
L1L
sg2598
S'yes'
p2609
ssS'gzip'
p2610
(dp2611
g2592
I10
sg2597
L1L
sg2598
g2609
ssS'prefetch'
p2612
(dp2613
g2592
I1
sg2597
L0L
sg2598
g2602
ssS'cacheredir'
p2614
(dp2615
g2592
I1
sg2597
L0L
sg2598
g2602
ssS'parsheet'
p2616
(dp2617
g2592
I10
sg2597
L1L
sg2598
g2609
ssS'du'
p2618
(dp2619
g2592
I10
sg2597
L1L
sg2598
g2609
ssS'hostconn'
p2620
(dp2621
g2592
I10
sg2597
L10L
sg2598
S'10'
p2622
sssg2598
S'5/11'
p2623
ssS'Iceape 1.0'
p2624
(dp2625
S'total_runs'
p2626
L1L
sS'score'
p2627
I6
sS'results'
p2628
(dp2629
S'maxconn'
p2630
(dp2631
g2627
I10
sS'median'
p2632
L24L
sS'display'
p2633
S'24'
p2634
ssS'parscript'
p2635
(dp2636
g2627
I1
sg2632
L0L
sg2633
S'no'
p2637
ssS'parcssjs'
p2638
(dp2639
g2627
I1
sg2632
L0L
sg2633
g2637
ssS'cacheresredir'
p2640
(dp2641
g2627
I10
sg2632
L1L
sg2633
S'yes'
p2642
ssS'cacheexp'
p2643
(dp2644
g2627
I10
sg2632
L1L
sg2633
g2642
ssS'gzip'
p2645
(dp2646
g2627
I10
sg2632
L1L
sg2633
g2642
ssS'prefetch'
p2647
(dp2648
g2627
I10
sg2632
L1L
sg2633
g2642
ssS'cacheredir'
p2649
(dp2650
g2627
I10
sg2632
L1L
sg2633
g2642
ssS'parsheet'
p2651
(dp2652
g2627
I1
sg2632
L0L
sg2633
g2637
ssS'du'
p2653
(dp2654
g2627
I10
sg2632
L1L
sg2633
g2642
ssS'hostconn'
p2655
(dp2656
g2627
I5
sg2632
L2L
sg2633
g34
sssg2633
S'7/11'
p2657
ssS'Iceape 1.1'
p2658
(dp2659
S'total_runs'
p2660
L5L
sS'score'
p2661
I6
sS'results'
p2662
(dp2663
S'maxconn'
p2664
(dp2665
g2661
I10
sS'median'
p2666
L24L
sS'display'
p2667
S'24'
p2668
ssS'parscript'
p2669
(dp2670
g2661
I1
sg2666
L0L
sg2667
S'no'
p2671
ssS'parcssjs'
p2672
(dp2673
g2661
I1
sg2666
L0L
sg2667
g2671
ssS'cacheresredir'
p2674
(dp2675
g2661
I10
sg2666
L1L
sg2667
S'yes'
p2676
ssS'cacheexp'
p2677
(dp2678
g2661
I10
sg2666
L1L
sg2667
g2676
ssS'gzip'
p2679
(dp2680
g2661
I10
sg2666
L1L
sg2667
g2676
ssS'prefetch'
p2681
(dp2682
g2661
I10
sg2666
L1L
sg2667
g2676
ssS'cacheredir'
p2683
(dp2684
g2661
I10
sg2666
L1L
sg2667
g2676
ssS'parsheet'
p2685
(dp2686
g2661
I1
sg2666
L0L
sg2667
g2671
ssS'du'
p2687
(dp2688
g2661
I10
sg2666
L1L
sg2667
g2676
ssS'hostconn'
p2689
(dp2690
g2661
I5
sg2666
L2L
sg2667
g34
sssg2667
S'7/11'
p2691
ssS'Shiira 1.1'
p2692
(dp2693
S'total_runs'
p2694
L1L
sS'score'
p2695
I6
sS'results'
p2696
(dp2697
S'maxconn'
p2698
(dp2699
g2695
I10
sS'median'
p2700
L60L
sS'display'
p2701
S'60'
p2702
ssS'parscript'
p2703
(dp2704
g2695
I1
sg2700
L0L
sg2701
S'no'
p2705
ssS'parcssjs'
p2706
(dp2707
g2695
I1
sg2700
L0L
sg2701
g2705
ssS'cacheresredir'
p2708
(dp2709
g2695
I10
sg2700
L1L
sg2701
S'yes'
p2710
ssS'cacheexp'
p2711
(dp2712
g2695
I10
sg2700
L1L
sg2701
g2710
ssS'gzip'
p2713
(dp2714
g2695
I10
sg2700
L1L
sg2701
g2710
ssS'prefetch'
p2715
(dp2716
g2695
I1
sg2700
L0L
sg2701
g2705
ssS'cacheredir'
p2717
(dp2718
g2695
I1
sg2700
L0L
sg2701
g2705
ssS'parsheet'
p2719
(dp2720
g2695
I10
sg2700
L1L
sg2701
g2710
ssS'du'
p2721
(dp2722
g2695
I10
sg2700
L1L
sg2701
g2710
ssS'hostconn'
p2723
(dp2724
g2695
I10
sg2700
L4L
sg2701
g11
sssg2701
S'7/11'
p2725
ssS'Firefox 3.07'
p2726
(dp2727
S'total_runs'
p2728
L1L
sS'score'
p2729
I8
sS'results'
p2730
(dp2731
S'maxconn'
p2732
(dp2733
g2729
I10
sS'median'
p2734
L28L
sS'display'
p2735
S'28'
p2736
ssS'parscript'
p2737
(dp2738
g2729
I10
sg2734
L1L
sg2735
S'yes'
p2739
ssS'parcssjs'
p2740
(dp2741
g2729
I1
sg2734
L0L
sg2735
S'no'
p2742
ssS'cacheresredir'
p2743
(dp2744
g2729
I10
sg2734
L1L
sg2735
g2739
ssS'cacheexp'
p2745
(dp2746
g2729
I10
sg2734
L1L
sg2735
g2739
ssS'gzip'
p2747
(dp2748
g2729
I10
sg2734
L1L
sg2735
g2739
ssS'prefetch'
p2749
(dp2750
g2729
I1
sg2734
L0L
sg2735
g2742
ssS'cacheredir'
p2751
(dp2752
g2729
I10
sg2734
L1L
sg2735
g2739
ssS'parsheet'
p2753
(dp2754
g2729
I10
sg2734
L1L
sg2735
g2739
ssS'du'
p2755
(dp2756
g2729
I10
sg2734
L1L
sg2735
g2739
ssS'hostconn'
p2757
(dp2758
g2729
I10
sg2734
L8L
sg2735
g147
sssg2735
S'9/11'
p2759
ssS'Flock 0.7'
p2760
(dp2761
S'total_runs'
p2762
L1L
sS'score'
p2763
I6
sS'results'
p2764
(dp2765
S'maxconn'
p2766
(dp2767
g2763
I10
sS'median'
p2768
L24L
sS'display'
p2769
S'24'
p2770
ssS'parscript'
p2771
(dp2772
g2763
I1
sg2768
L0L
sg2769
S'no'
p2773
ssS'parcssjs'
p2774
(dp2775
g2763
I1
sg2768
L0L
sg2769
g2773
ssS'cacheresredir'
p2776
(dp2777
g2763
I10
sg2768
L1L
sg2769
S'yes'
p2778
ssS'cacheexp'
p2779
(dp2780
g2763
I10
sg2768
L1L
sg2769
g2778
ssS'gzip'
p2781
(dp2782
g2763
I10
sg2768
L1L
sg2769
g2778
ssS'prefetch'
p2783
(dp2784
g2763
I10
sg2768
L1L
sg2769
g2778
ssS'cacheredir'
p2785
(dp2786
g2763
I10
sg2768
L1L
sg2769
g2778
ssS'parsheet'
p2787
(dp2788
g2763
I1
sg2768
L0L
sg2769
g2773
ssS'du'
p2789
(dp2790
g2763
I10
sg2768
L1L
sg2769
g2778
ssS'hostconn'
p2791
(dp2792
g2763
I5
sg2768
L2L
sg2769
g34
sssg2769
S'7/11'
p2793
ssS'Firefox 3.9'
p2794
(dp2795
S'total_runs'
p2796
L1L
sS'score'
p2797
I4
sS'results'
p2798
(dp2799
S'maxconn'
p2800
(dp2801
g2797
I10
sS'median'
p2802
L29L
sS'display'
p2803
S'29'
p2804
ssS'parscript'
p2805
(dp2806
g2797
I1
sg2802
L0L
sg2803
S'no'
p2807
ssS'parcssjs'
p2808
(dp2809
g2797
I1
sg2802
L0L
sg2803
g2807
ssS'cacheresredir'
p2810
(dp2811
g2797
I1
sg2802
L0L
sg2803
g2807
ssS'cacheexp'
p2812
(dp2813
g2797
I1
sg2802
L0L
sg2803
g2807
ssS'gzip'
p2814
(dp2815
g2797
I10
sg2802
L1L
sg2803
S'yes'
p2816
ssS'prefetch'
p2817
(dp2818
g2797
I1
sg2802
L0L
sg2803
g2807
ssS'cacheredir'
p2819
(dp2820
g2797
I1
sg2802
L0L
sg2803
g2807
ssS'parsheet'
p2821
(dp2822
g2797
I10
sg2802
L1L
sg2803
g2816
ssS'du'
p2823
(dp2824
g2797
I10
sg2802
L1L
sg2803
g2816
ssS'hostconn'
p2825
(dp2826
g2797
I10
sg2802
L6L
sg2803
g272
sssg2803
S'5/11'
p2827
ssS'iPhone 2.1'
p2828
(dp2829
S'total_runs'
p2830
L31L
sS'score'
p2831
I7
sS'results'
p2832
(dp2833
S'maxconn'
p2834
(dp2835
g2831
I10
sS'median'
p2836
L60L
sS'display'
p2837
S'60'
p2838
ssS'parscript'
p2839
(dp2840
g2831
I10
sg2836
L1L
sg2837
S'yes'
p2841
ssS'parcssjs'
p2842
(dp2843
g2831
I1
sg2836
L0L
sg2837
S'no'
p2844
ssS'cacheresredir'
p2845
(dp2846
g2831
I10
sg2836
L1L
sg2837
g2841
ssS'cacheexp'
p2847
(dp2848
g2831
I10
sg2836
L1L
sg2837
g2841
ssS'gzip'
p2849
(dp2850
g2831
I10
sg2836
L1L
sg2837
g2841
ssS'prefetch'
p2851
(dp2852
g2831
I1
sg2836
L0L
sg2837
g2844
ssS'cacheredir'
p2853
(dp2854
g2831
I1
sg2836
L0L
sg2837
g2844
ssS'parsheet'
p2855
(dp2856
g2831
I10
sg2836
L1L
sg2837
g2841
ssS'du'
p2857
(dp2858
g2831
I10
sg2836
L1L
sg2837
g2841
ssS'hostconn'
p2859
(dp2860
g2831
I10
sg2836
L4L
sg2837
g11
sssg2837
S'8/11'
p2861
ssS'iPhone 2.0'
p2862
(dp2863
S'total_runs'
p2864
L5L
sS'score'
p2865
I5
sS'results'
p2866
(dp2867
S'maxconn'
p2868
(dp2869
g2865
I0
sS'median'
p2870
L1L
sS'display'
p2871
g385
ssS'parscript'
p2872
(dp2873
g2865
I10
sg2870
L1L
sg2871
S'yes'
p2874
ssS'parcssjs'
p2875
(dp2876
g2865
I1
sg2870
L0L
sg2871
S'no'
p2877
ssS'cacheresredir'
p2878
(dp2879
g2865
I10
sg2870
L1L
sg2871
g2874
ssS'cacheexp'
p2880
(dp2881
g2865
I10
sg2870
L1L
sg2871
g2874
ssS'gzip'
p2882
(dp2883
g2865
I10
sg2870
L1L
sg2871
g2874
ssS'prefetch'
p2884
(dp2885
g2865
I1
sg2870
L0L
sg2871
g2877
ssS'cacheredir'
p2886
(dp2887
g2865
I1
sg2870
L0L
sg2871
g2877
ssS'parsheet'
p2888
(dp2889
g2865
I10
sg2870
L1L
sg2871
g2874
ssS'du'
p2890
(dp2891
g2865
I10
sg2870
L1L
sg2871
g2874
ssS'hostconn'
p2892
(dp2893
g2865
I0
sg2870
L1L
sg2871
g385
sssg2871
S'6/11'
p2894
ssS'iPhone 2.2'
p2895
(dp2896
S'total_runs'
p2897
L86L
sS'score'
p2898
I7
sS'results'
p2899
(dp2900
S'maxconn'
p2901
(dp2902
g2898
I10
sS'median'
p2903
L60L
sS'display'
p2904
S'60'
p2905
ssS'parscript'
p2906
(dp2907
g2898
I10
sg2903
L1L
sg2904
S'yes'
p2908
ssS'parcssjs'
p2909
(dp2910
g2898
I1
sg2903
L0L
sg2904
S'no'
p2911
ssS'cacheresredir'
p2912
(dp2913
g2898
I10
sg2903
L1L
sg2904
g2908
ssS'cacheexp'
p2914
(dp2915
g2898
I10
sg2903
L1L
sg2904
g2908
ssS'gzip'
p2916
(dp2917
g2898
I10
sg2903
L1L
sg2904
g2908
ssS'prefetch'
p2918
(dp2919
g2898
I1
sg2903
L0L
sg2904
g2911
ssS'cacheredir'
p2920
(dp2921
g2898
I1
sg2903
L0L
sg2904
g2911
ssS'parsheet'
p2922
(dp2923
g2898
I10
sg2903
L1L
sg2904
g2908
ssS'du'
p2924
(dp2925
g2898
I10
sg2903
L1L
sg2904
g2908
ssS'hostconn'
p2926
(dp2927
g2898
I10
sg2903
L4L
sg2904
g11
sssg2904
S'8/11'
p2928
ssS'Firefox 3.1'
p2929
(dp2930
S'total_runs'
p2931
L1L
sS'score'
p2932
I8
sS'results'
p2933
(dp2934
S'maxconn'
p2935
(dp2936
g2932
I10
sS'median'
p2937
L27L
sS'display'
p2938
S'27'
p2939
ssS'parscript'
p2940
(dp2941
g2932
I10
sg2937
L1L
sg2938
S'yes'
p2942
ssS'parcssjs'
p2943
(dp2944
g2932
I1
sg2937
L0L
sg2938
S'no'
p2945
ssS'cacheresredir'
p2946
(dp2947
g2932
I10
sg2937
L1L
sg2938
g2942
ssS'cacheexp'
p2948
(dp2949
g2932
I10
sg2937
L1L
sg2938
g2942
ssS'gzip'
p2950
(dp2951
g2932
I10
sg2937
L1L
sg2938
g2942
ssS'prefetch'
p2952
(dp2953
g2932
I10
sg2937
L1L
sg2938
g2942
ssS'cacheredir'
p2954
(dp2955
g2932
I10
sg2937
L1L
sg2938
g2942
ssS'parsheet'
p2956
(dp2957
g2932
I10
sg2937
L1L
sg2938
g2942
ssS'du'
p2958
(dp2959
g2932
I10
sg2937
L1L
sg2938
g2942
ssS'hostconn'
p2960
(dp2961
g2932
I10
sg2937
L6L
sg2938
g272
sssg2938
S'10/11'
p2962
ssS'Firefox 3.0'
p2963
(dp2964
S'total_runs'
p2965
L5559L
sS'score'
p2966
I6
sS'results'
p2967
(dp2968
S'maxconn'
p2969
(dp2970
g2966
I10
sS'median'
p2971
L30L
sS'display'
p2972
S'30'
p2973
ssS'parscript'
p2974
(dp2975
g2966
I1
sg2971
L0L
sg2972
S'no'
p2976
ssS'parcssjs'
p2977
(dp2978
g2966
I1
sg2971
L0L
sg2972
g2976
ssS'cacheresredir'
p2979
(dp2980
g2966
I1
sg2971
L0L
sg2972
g2976
ssS'cacheexp'
p2981
(dp2982
g2966
I10
sg2971
L1L
sg2972
S'yes'
p2983
ssS'gzip'
p2984
(dp2985
g2966
I10
sg2971
L1L
sg2972
g2983
ssS'prefetch'
p2986
(dp2987
g2966
I10
sg2971
L1L
sg2972
g2983
ssS'cacheredir'
p2988
(dp2989
g2966
I1
sg2971
L0L
sg2972
g2976
ssS'parsheet'
p2990
(dp2991
g2966
I10
sg2971
L1L
sg2972
g2983
ssS'du'
p2992
(dp2993
g2966
I10
sg2971
L1L
sg2972
g2983
ssS'hostconn'
p2994
(dp2995
g2966
I10
sg2971
L6L
sg2972
g272
sssg2972
S'7/11'
p2996
ssS'Opera 9.21'
p2997
(dp2998
S'total_runs'
p2999
L2L
sS'score'
p3000
I4
sS'results'
p3001
(dp3002
S'maxconn'
p3003
(dp3004
g3000
I5
sS'median'
p3005
L20L
sS'display'
p3006
S'20'
p3007
ssS'parscript'
p3008
(dp3009
g3000
I1
sg3005
L0L
sg3006
S'no'
p3010
ssS'parcssjs'
p3011
(dp3012
g3000
I1
sg3005
L0L
sg3006
g3010
ssS'cacheresredir'
p3013
(dp3014
g3000
I1
sg3005
L0L
sg3006
g3010
ssS'cacheexp'
p3015
(dp3016
g3000
I10
sg3005
L1L
sg3006
S'yes'
p3017
ssS'gzip'
p3018
(dp3019
g3000
I10
sg3005
L1L
sg3006
g3017
ssS'prefetch'
p3020
(dp3021
g3000
I1
sg3005
L0L
sg3006
g3010
ssS'cacheredir'
p3022
(dp3023
g3000
I1
sg3005
L0L
sg3006
g3010
ssS'parsheet'
p3024
(dp3025
g3000
I10
sg3005
L1L
sg3006
g3017
ssS'du'
p3026
(dp3027
g3000
I10
sg3005
L1L
sg3006
g3017
ssS'hostconn'
p3028
(dp3029
g3000
I10
sg3005
L4L
sg3006
g11
sssg3006
S'5/11'
p3030
ssS'Firefox 3.5'
p3031
(dp3032
S'total_runs'
p3033
L1028L
sS'score'
p3034
I9
sS'results'
p3035
(dp3036
S'maxconn'
p3037
(dp3038
g3034
I10
sS'median'
p3039
L30L
sS'display'
p3040
S'30'
p3041
ssS'parscript'
p3042
(dp3043
g3034
I10
sg3039
L1L
sg3040
S'yes'
p3044
ssS'parcssjs'
p3045
(dp3046
g3034
I1
sg3039
L0L
sg3040
S'no'
p3047
ssS'cacheresredir'
p3048
(dp3049
g3034
I10
sg3039
L1L
sg3040
g3044
ssS'cacheexp'
p3050
(dp3051
g3034
I10
sg3039
L1L
sg3040
g3044
ssS'gzip'
p3052
(dp3053
g3034
I10
sg3039
L1L
sg3040
g3044
ssS'prefetch'
p3054
(dp3055
g3034
I10
sg3039
L1L
sg3040
g3044
ssS'cacheredir'
p3056
(dp3057
g3034
I10
sg3039
L1L
sg3040
g3044
ssS'parsheet'
p3058
(dp3059
g3034
I10
sg3039
L1L
sg3040
g3044
ssS'du'
p3060
(dp3061
g3034
I10
sg3039
L1L
sg3040
g3044
ssS'hostconn'
p3062
(dp3063
g3034
I10
sg3039
L6L
sg3040
g272
sssg3040
S'10/11'
p3064
ssS'Firefox 3.6'
p3065
(dp3066
S'total_runs'
p3067
L1L
sS'score'
p3068
I9
sS'results'
p3069
(dp3070
S'maxconn'
p3071
(dp3072
g3068
I10
sS'median'
p3073
L30L
sS'display'
p3074
S'30'
p3075
ssS'parscript'
p3076
(dp3077
g3068
I10
sg3073
L1L
sg3074
S'yes'
p3078
ssS'parcssjs'
p3079
(dp3080
g3068
I10
sg3073
L1L
sg3074
g3078
ssS'cacheresredir'
p3081
(dp3082
g3068
I10
sg3073
L1L
sg3074
g3078
ssS'cacheexp'
p3083
(dp3084
g3068
I10
sg3073
L1L
sg3074
g3078
ssS'gzip'
p3085
(dp3086
g3068
I10
sg3073
L1L
sg3074
g3078
ssS'prefetch'
p3087
(dp3088
g3068
I10
sg3073
L1L
sg3074
g3078
ssS'cacheredir'
p3089
(dp3090
g3068
I10
sg3073
L1L
sg3074
g3078
ssS'parsheet'
p3091
(dp3092
g3068
I10
sg3073
L1L
sg3074
g3078
ssS'du'
p3093
(dp3094
g3068
I10
sg3073
L1L
sg3074
g3078
ssS'hostconn'
p3095
(dp3096
g3068
I10
sg3073
L6L
sg3074
g272
sssg3074
S'11/11'
p3097
ssS'Firefox 2.0'
p3098
(dp3099
S'total_runs'
p3100
L377L
sS'score'
p3101
I6
sS'results'
p3102
(dp3103
S'maxconn'
p3104
(dp3105
g3101
I10
sS'median'
p3106
L24L
sS'display'
p3107
S'24'
p3108
ssS'parscript'
p3109
(dp3110
g3101
I1
sg3106
L0L
sg3107
S'no'
p3111
ssS'parcssjs'
p3112
(dp3113
g3101
I1
sg3106
L0L
sg3107
g3111
ssS'cacheresredir'
p3114
(dp3115
g3101
I10
sg3106
L1L
sg3107
S'yes'
p3116
ssS'cacheexp'
p3117
(dp3118
g3101
I10
sg3106
L1L
sg3107
g3116
ssS'gzip'
p3119
(dp3120
g3101
I10
sg3106
L1L
sg3107
g3116
ssS'prefetch'
p3121
(dp3122
g3101
I10
sg3106
L1L
sg3107
g3116
ssS'cacheredir'
p3123
(dp3124
g3101
I10
sg3106
L1L
sg3107
g3116
ssS'parsheet'
p3125
(dp3126
g3101
I1
sg3106
L0L
sg3107
g3111
ssS'du'
p3127
(dp3128
g3101
I10
sg3106
L1L
sg3107
g3116
ssS'hostconn'
p3129
(dp3130
g3101
I5
sg3106
L2L
sg3107
g34
sssg3107
S'7/11'
p3131
ssS'Opera 9.63'
p3132
(dp3133
S'total_runs'
p3134
L691L
sS'score'
p3135
I5
sS'results'
p3136
(dp3137
S'maxconn'
p3138
(dp3139
g3135
I10
sS'median'
p3140
L45L
sS'display'
p3141
S'45'
p3142
ssS'parscript'
p3143
(dp3144
g3135
I1
sg3140
L0L
sg3141
S'no'
p3145
ssS'parcssjs'
p3146
(dp3147
g3135
I1
sg3140
L0L
sg3141
g3145
ssS'cacheresredir'
p3148
(dp3149
g3135
I1
sg3140
L0L
sg3141
g3145
ssS'cacheexp'
p3150
(dp3151
g3135
I10
sg3140
L1L
sg3141
S'yes'
p3152
ssS'gzip'
p3153
(dp3154
g3135
I10
sg3140
L1L
sg3141
g3152
ssS'prefetch'
p3155
(dp3156
g3135
I1
sg3140
L0L
sg3141
g3145
ssS'cacheredir'
p3157
(dp3158
g3135
I1
sg3140
L0L
sg3141
g3145
ssS'parsheet'
p3159
(dp3160
g3135
I10
sg3140
L1L
sg3141
g3152
ssS'du'
p3161
(dp3162
g3135
I10
sg3140
L1L
sg3141
g3152
ssS'hostconn'
p3163
(dp3164
g3135
I10
sg3140
L8L
sg3141
g147
sssg3141
S'6/11'
p3165
ssS'Android 1.5'
p3166
(dp3167
S'total_runs'
p3168
L14L
sS'score'
p3169
I7
sS'results'
p3170
(dp3171
S'maxconn'
p3172
(dp3173
g3169
I0
sS'median'
p3174
L4L
sS'display'
p3175
g11
ssS'parscript'
p3176
(dp3177
g3169
I10
sg3174
L1L
sg3175
S'yes'
p3178
ssS'parcssjs'
p3179
(dp3180
g3169
I1
sg3174
L0L
sg3175
S'no'
p3181
ssS'cacheresredir'
p3182
(dp3183
g3169
I10
sg3174
L1L
sg3175
g3178
ssS'cacheexp'
p3184
(dp3185
g3169
I10
sg3174
L1L
sg3175
g3178
ssS'gzip'
p3186
(dp3187
g3169
I10
sg3174
L1L
sg3175
g3178
ssS'prefetch'
p3188
(dp3189
g3169
I1
sg3174
L0L
sg3175
g3181
ssS'cacheredir'
p3190
(dp3191
g3169
I10
sg3174
L1L
sg3175
g3178
ssS'parsheet'
p3192
(dp3193
g3169
I10
sg3174
L1L
sg3175
g3178
ssS'du'
p3194
(dp3195
g3169
I10
sg3174
L1L
sg3175
g3178
ssS'hostconn'
p3196
(dp3197
g3169
I10
sg3174
L4L
sg3175
g11
sssg3175
S'8/11'
p3198
ssS'Chrome 4.0'
p3199
(dp3200
S'total_runs'
p3201
L35L
sS'score'
p3202
I8
sS'results'
p3203
(dp3204
S'maxconn'
p3205
(dp3206
g3202
I10
sS'median'
p3207
L60L
sS'display'
p3208
S'60'
p3209
ssS'parscript'
p3210
(dp3211
g3202
I10
sg3207
L1L
sg3208
S'yes'
p3212
ssS'parcssjs'
p3213
(dp3214
g3202
I1
sg3207
L0L
sg3208
S'no'
p3215
ssS'cacheresredir'
p3216
(dp3217
g3202
I10
sg3207
L1L
sg3208
g3212
ssS'cacheexp'
p3218
(dp3219
g3202
I10
sg3207
L1L
sg3208
g3212
ssS'gzip'
p3220
(dp3221
g3202
I10
sg3207
L1L
sg3208
g3212
ssS'prefetch'
p3222
(dp3223
g3202
I1
sg3207
L0L
sg3208
g3215
ssS'cacheredir'
p3224
(dp3225
g3202
I10
sg3207
L1L
sg3208
g3212
ssS'parsheet'
p3226
(dp3227
g3202
I10
sg3207
L1L
sg3208
g3212
ssS'du'
p3228
(dp3229
g3202
I10
sg3207
L1L
sg3208
g3212
ssS'hostconn'
p3230
(dp3231
g3202
I10
sg3207
L4L
sg3208
g11
sssg3208
S'9/11'
p3232
ssS'Obigo 2'
p3233
(dp3234
S'total_runs'
p3235
L7L
sS'score'
p3236
I3
sS'results'
p3237
(dp3238
S'maxconn'
p3239
(dp3240
g3236
I0
sS'median'
p3241
L4L
sS'display'
p3242
g11
ssS'parscript'
p3243
(dp3244
g3236
I10
sg3241
L1L
sg3242
S'yes'
p3245
ssS'parcssjs'
p3246
(dp3247
g3236
I1
sg3241
L0L
sg3242
S'no'
p3248
ssS'cacheresredir'
p3249
(dp3250
g3236
I1
sg3241
L0L
sg3242
g3248
ssS'cacheexp'
p3251
(dp3252
g3236
I10
sg3241
L1L
sg3242
g3245
ssS'gzip'
p3253
(dp3254
g3236
I1
sg3241
L0L
sg3242
g3248
ssS'prefetch'
p3255
(dp3256
g3236
I10
sg3241
L1L
sg3242
g3245
ssS'cacheredir'
p3257
(dp3258
g3236
I1
sg3241
L0L
sg3242
g3248
ssS'parsheet'
p3259
(dp3260
g3236
I1
sg3241
L0L
sg3242
g3248
ssS'du'
p3261
(dp3262
g3236
I10
sg3241
L1L
sg3242
g3245
ssS'hostconn'
p3263
(dp3264
g3236
I5
sg3241
L2L
sg3242
g34
sssg3242
S'4/11'
p3265
ssS'Android 1.1'
p3266
(dp3267
S'total_runs'
p3268
L9L
sS'score'
p3269
I7
sS'results'
p3270
(dp3271
S'maxconn'
p3272
(dp3273
g3269
I0
sS'median'
p3274
L4L
sS'display'
p3275
g11
ssS'parscript'
p3276
(dp3277
g3269
I10
sg3274
L1L
sg3275
S'yes'
p3278
ssS'parcssjs'
p3279
(dp3280
g3269
I1
sg3274
L0L
sg3275
S'no'
p3281
ssS'cacheresredir'
p3282
(dp3283
g3269
I10
sg3274
L1L
sg3275
g3278
ssS'cacheexp'
p3284
(dp3285
g3269
I10
sg3274
L1L
sg3275
g3278
ssS'gzip'
p3286
(dp3287
g3269
I10
sg3274
L1L
sg3275
g3278
ssS'prefetch'
p3288
(dp3289
g3269
I1
sg3274
L0L
sg3275
g3281
ssS'cacheredir'
p3290
(dp3291
g3269
I10
sg3274
L1L
sg3275
g3278
ssS'parsheet'
p3292
(dp3293
g3269
I10
sg3274
L1L
sg3275
g3278
ssS'du'
p3294
(dp3295
g3269
I10
sg3274
L1L
sg3275
g3278
ssS'hostconn'
p3296
(dp3297
g3269
I10
sg3274
L4L
sg3275
g11
sssg3275
S'8/11'
p3298
ssS'Android 1.0'
p3299
(dp3300
S'total_runs'
p3301
L22L
sS'score'
p3302
I7
sS'results'
p3303
(dp3304
S'maxconn'
p3305
(dp3306
g3302
I0
sS'median'
p3307
L4L
sS'display'
p3308
g11
ssS'parscript'
p3309
(dp3310
g3302
I10
sg3307
L1L
sg3308
S'yes'
p3311
ssS'parcssjs'
p3312
(dp3313
g3302
I1
sg3307
L0L
sg3308
S'no'
p3314
ssS'cacheresredir'
p3315
(dp3316
g3302
I10
sg3307
L1L
sg3308
g3311
ssS'cacheexp'
p3317
(dp3318
g3302
I10
sg3307
L1L
sg3308
g3311
ssS'gzip'
p3319
(dp3320
g3302
I10
sg3307
L1L
sg3308
g3311
ssS'prefetch'
p3321
(dp3322
g3302
I1
sg3307
L0L
sg3308
g3314
ssS'cacheredir'
p3323
(dp3324
g3302
I10
sg3307
L1L
sg3308
g3311
ssS'parsheet'
p3325
(dp3326
g3302
I10
sg3307
L1L
sg3308
g3311
ssS'du'
p3327
(dp3328
g3302
I10
sg3307
L1L
sg3308
g3311
ssS'hostconn'
p3329
(dp3330
g3302
I10
sg3307
L4L
sg3308
g11
sssg3308
S'8/11'
p3331
ssS'iCab 5.0'
p3332
(dp3333
S'total_runs'
p3334
L2L
sS'score'
p3335
I3
sS'results'
p3336
(dp3337
S'maxconn'
p3338
(dp3339
g3335
I5
sS'median'
p3340
L12L
sS'display'
p3341
S'12'
p3342
ssS'parscript'
p3343
(dp3344
g3335
I1
sg3340
L0L
sg3341
S'no'
p3345
ssS'parcssjs'
p3346
(dp3347
g3335
I1
sg3340
L0L
sg3341
g3345
ssS'cacheresredir'
p3348
(dp3349
g3335
I10
sg3340
L1L
sg3341
S'yes'
p3350
ssS'cacheexp'
p3351
(dp3352
g3335
I10
sg3340
L1L
sg3341
g3350
ssS'gzip'
p3353
(dp3354
g3335
I1
sg3340
L0L
sg3341
g3345
ssS'prefetch'
p3355
(dp3356
g3335
I1
sg3340
L0L
sg3341
g3345
ssS'cacheredir'
p3357
(dp3358
g3335
I1
sg3340
L0L
sg3341
g3345
ssS'parsheet'
p3359
(dp3360
g3335
I1
sg3340
L0L
sg3341
g3345
ssS'du'
p3361
(dp3362
g3335
I10
sg3340
L1L
sg3341
g3350
ssS'hostconn'
p3363
(dp3364
g3335
I10
sg3340
L12L
sg3341
S'12'
p3365
sssg3341
S'4/11'
p3366
ssS'Nokia 6620'
p3367
(dp3368
S'total_runs'
p3369
L1L
sS'score'
p3370
I8
sS'results'
p3371
(dp3372
S'maxconn'
p3373
(dp3374
g3370
I10
sS'median'
p3375
L30L
sS'display'
p3376
S'30'
p3377
ssS'parscript'
p3378
(dp3379
g3370
I1
sg3375
L0L
sg3376
S'no'
p3380
ssS'parcssjs'
p3381
(dp3382
g3370
I1
sg3375
L0L
sg3376
g3380
ssS'cacheresredir'
p3383
(dp3384
g3370
I10
sg3375
L1L
sg3376
S'yes'
p3385
ssS'cacheexp'
p3386
(dp3387
g3370
I10
sg3375
L1L
sg3376
g3385
ssS'gzip'
p3388
(dp3389
g3370
I10
sg3375
L1L
sg3376
g3385
ssS'prefetch'
p3390
(dp3391
g3370
I10
sg3375
L1L
sg3376
g3385
ssS'cacheredir'
p3392
(dp3393
g3370
I10
sg3375
L1L
sg3376
g3385
ssS'parsheet'
p3394
(dp3395
g3370
I10
sg3375
L1L
sg3376
g3385
ssS'du'
p3396
(dp3397
g3370
I10
sg3375
L1L
sg3376
g3385
ssS'hostconn'
p3398
(dp3399
g3370
I10
sg3375
L4L
sg3376
g11
sssg3376
S'9/11'
p3400
ssS'Opera 9.61'
p3401
(dp3402
S'total_runs'
p3403
L166L
sS'score'
p3404
I4
sS'results'
p3405
(dp3406
S'maxconn'
p3407
(dp3408
g3404
I5
sS'median'
p3409
L20L
sS'display'
p3410
S'20'
p3411
ssS'parscript'
p3412
(dp3413
g3404
I1
sg3409
L0L
sg3410
S'no'
p3414
ssS'parcssjs'
p3415
(dp3416
g3404
I1
sg3409
L0L
sg3410
g3414
ssS'cacheresredir'
p3417
(dp3418
g3404
I1
sg3409
L0L
sg3410
g3414
ssS'cacheexp'
p3419
(dp3420
g3404
I10
sg3409
L1L
sg3410
S'yes'
p3421
ssS'gzip'
p3422
(dp3423
g3404
I10
sg3409
L1L
sg3410
g3421
ssS'prefetch'
p3424
(dp3425
g3404
I1
sg3409
L0L
sg3410
g3414
ssS'cacheredir'
p3426
(dp3427
g3404
I1
sg3409
L0L
sg3410
g3414
ssS'parsheet'
p3428
(dp3429
g3404
I10
sg3409
L1L
sg3410
g3421
ssS'du'
p3430
(dp3431
g3404
I10
sg3409
L1L
sg3410
g3421
ssS'hostconn'
p3432
(dp3433
g3404
I10
sg3409
L4L
sg3410
g11
sssg3410
S'5/11'
p3434
ssS'Swiftfox 3.0'
p3435
(dp3436
S'total_runs'
p3437
L6L
sS'score'
p3438
I7
sS'results'
p3439
(dp3440
S'maxconn'
p3441
(dp3442
g3438
I10
sS'median'
p3443
L32L
sS'display'
p3444
S'32'
p3445
ssS'parscript'
p3446
(dp3447
g3438
I1
sg3443
L0L
sg3444
S'no'
p3448
ssS'parcssjs'
p3449
(dp3450
g3438
I1
sg3443
L0L
sg3444
g3448
ssS'cacheresredir'
p3451
(dp3452
g3438
I10
sg3443
L1L
sg3444
S'yes'
p3453
ssS'cacheexp'
p3454
(dp3455
g3438
I10
sg3443
L1L
sg3444
g3453
ssS'gzip'
p3456
(dp3457
g3438
I10
sg3443
L1L
sg3444
g3453
ssS'prefetch'
p3458
(dp3459
g3438
I10
sg3443
L1L
sg3444
g3453
ssS'cacheredir'
p3460
(dp3461
g3438
I1
sg3443
L0L
sg3444
g3448
ssS'parsheet'
p3462
(dp3463
g3438
I10
sg3443
L1L
sg3444
g3453
ssS'du'
p3464
(dp3465
g3438
I10
sg3443
L1L
sg3444
g3453
ssS'hostconn'
p3466
(dp3467
g3438
I10
sg3443
L6L
sg3444
g272
sssg3444
S'8/11'
p3468
ssS'Obigo 7'
p3469
(dp3470
S'total_runs'
p3471
L2L
sS'score'
p3472
I3
sS'results'
p3473
(dp3474
S'maxconn'
p3475
(dp3476
g3472
I0
sS'median'
p3477
L8L
sS'display'
p3478
g147
ssS'parscript'
p3479
(dp3480
g3472
I1
sg3477
L0L
sg3478
S'no'
p3481
ssS'parcssjs'
p3482
(dp3483
g3472
I1
sg3477
L0L
sg3478
g3481
ssS'cacheresredir'
p3484
(dp3485
g3472
I1
sg3477
L0L
sg3478
g3481
ssS'cacheexp'
p3486
(dp3487
g3472
I10
sg3477
L1L
sg3478
S'yes'
p3488
ssS'gzip'
p3489
(dp3490
g3472
I10
sg3477
L1L
sg3478
g3488
ssS'prefetch'
p3491
(dp3492
g3472
I1
sg3477
L0L
sg3478
g3481
ssS'cacheredir'
p3493
(dp3494
g3472
I1
sg3477
L0L
sg3478
g3481
ssS'parsheet'
p3495
(dp3496
g3472
I1
sg3477
L0L
sg3478
g3481
ssS'du'
p3497
(dp3498
g3472
I1
sg3477
L0L
sg3478
g3481
ssS'hostconn'
p3499
(dp3500
g3472
I10
sg3477
L6L
sg3478
g272
sssg3478
S'3/11'
p3501
ssS'ANTGalio 2.2'
p3502
(dp3503
S'total_runs'
p3504
L2L
sS'score'
p3505
I3
sS'results'
p3506
(dp3507
S'maxconn'
p3508
(dp3509
g3505
I10
sS'median'
p3510
L53L
sS'display'
p3511
S'53'
p3512
ssS'parscript'
p3513
(dp3514
g3505
I1
sg3510
L0L
sg3511
S'no'
p3515
ssS'parcssjs'
p3516
(dp3517
g3505
I1
sg3510
L0L
sg3511
g3515
ssS'cacheresredir'
p3518
(dp3519
g3505
I1
sg3510
L0L
sg3511
g3515
ssS'cacheexp'
p3520
(dp3521
g3505
I1
sg3510
L0L
sg3511
g3515
ssS'gzip'
p3522
(dp3523
g3505
I1
sg3510
L0L
sg3511
g3515
ssS'prefetch'
p3524
(dp3525
g3505
I1
sg3510
L0L
sg3511
g3515
ssS'cacheredir'
p3526
(dp3527
g3505
I1
sg3510
L0L
sg3511
g3515
ssS'parsheet'
p3528
(dp3529
g3505
I1
sg3510
L0L
sg3511
g3515
ssS'du'
p3530
(dp3531
g3505
I10
sg3510
L1L
sg3511
S'yes'
p3532
ssS'hostconn'
p3533
(dp3534
g3505
I10
sg3510
L7L
sg3511
g113
sssg3511
S'3/11'
p3535
ssS'Opera 8.65'
p3536
(dp3537
S'total_runs'
p3538
L2L
sS'score'
p3539
I3
sS'results'
p3540
(dp3541
S'maxconn'
p3542
(dp3543
g3539
I0
sS'median'
p3544
L0L
sS'display'
p3545
g46
ssS'parscript'
p3546
(dp3547
g3539
I1
sg3544
L0L
sg3545
S'no'
p3548
ssS'parcssjs'
p3549
(dp3550
g3539
I1
sg3544
L0L
sg3545
g3548
ssS'cacheresredir'
p3551
(dp3552
g3539
I1
sg3544
L0L
sg3545
g3548
ssS'cacheexp'
p3553
(dp3554
g3539
I10
sg3544
L1L
sg3545
S'yes'
p3555
ssS'gzip'
p3556
(dp3557
g3539
I1
sg3544
L0L
sg3545
g3548
ssS'prefetch'
p3558
(dp3559
g3539
I1
sg3544
L0L
sg3545
g3548
ssS'cacheredir'
p3560
(dp3561
g3539
I1
sg3544
L0L
sg3545
g3548
ssS'parsheet'
p3562
(dp3563
g3539
I10
sg3544
L1L
sg3545
g3555
ssS'du'
p3564
(dp3565
g3539
I10
sg3544
L1L
sg3545
g3555
ssS'hostconn'
p3566
(dp3567
g3539
I5
sg3544
L2L
sg3545
g34
sssg3545
S'3/11'
p3568
ssS'Opera 9.52'
p3569
(dp3570
S'total_runs'
p3571
L105L
sS'score'
p3572
I4
sS'results'
p3573
(dp3574
S'maxconn'
p3575
(dp3576
g3572
I5
sS'median'
p3577
L20L
sS'display'
p3578
S'20'
p3579
ssS'parscript'
p3580
(dp3581
g3572
I1
sg3577
L0L
sg3578
S'no'
p3582
ssS'parcssjs'
p3583
(dp3584
g3572
I1
sg3577
L0L
sg3578
g3582
ssS'cacheresredir'
p3585
(dp3586
g3572
I1
sg3577
L0L
sg3578
g3582
ssS'cacheexp'
p3587
(dp3588
g3572
I10
sg3577
L1L
sg3578
S'yes'
p3589
ssS'gzip'
p3590
(dp3591
g3572
I10
sg3577
L1L
sg3578
g3589
ssS'prefetch'
p3592
(dp3593
g3572
I1
sg3577
L0L
sg3578
g3582
ssS'cacheredir'
p3594
(dp3595
g3572
I1
sg3577
L0L
sg3578
g3582
ssS'parsheet'
p3596
(dp3597
g3572
I10
sg3577
L1L
sg3578
g3589
ssS'du'
p3598
(dp3599
g3572
I10
sg3577
L1L
sg3578
g3589
ssS'hostconn'
p3600
(dp3601
g3572
I10
sg3577
L4L
sg3578
g11
sssg3578
S'5/11'
p3602
ssS'Opera 9.51'
p3603
(dp3604
S'total_runs'
p3605
L63L
sS'score'
p3606
I4
sS'results'
p3607
(dp3608
S'maxconn'
p3609
(dp3610
g3606
I5
sS'median'
p3611
L20L
sS'display'
p3612
S'20'
p3613
ssS'parscript'
p3614
(dp3615
g3606
I1
sg3611
L0L
sg3612
S'no'
p3616
ssS'parcssjs'
p3617
(dp3618
g3606
I1
sg3611
L0L
sg3612
g3616
ssS'cacheresredir'
p3619
(dp3620
g3606
I1
sg3611
L0L
sg3612
g3616
ssS'cacheexp'
p3621
(dp3622
g3606
I10
sg3611
L1L
sg3612
S'yes'
p3623
ssS'gzip'
p3624
(dp3625
g3606
I10
sg3611
L1L
sg3612
g3623
ssS'prefetch'
p3626
(dp3627
g3606
I1
sg3611
L0L
sg3612
g3616
ssS'cacheredir'
p3628
(dp3629
g3606
I1
sg3611
L0L
sg3612
g3616
ssS'parsheet'
p3630
(dp3631
g3606
I10
sg3611
L1L
sg3612
g3623
ssS'du'
p3632
(dp3633
g3606
I10
sg3611
L1L
sg3612
g3623
ssS'hostconn'
p3634
(dp3635
g3606
I10
sg3611
L4L
sg3612
g11
sssg3612
S'5/11'
p3636
ssS'Opera 9.50'
p3637
(dp3638
S'total_runs'
p3639
L44L
sS'score'
p3640
I4
sS'results'
p3641
(dp3642
S'maxconn'
p3643
(dp3644
g3640
I5
sS'median'
p3645
L18L
sS'display'
p3646
S'18'
p3647
ssS'parscript'
p3648
(dp3649
g3640
I1
sg3645
L0L
sg3646
S'no'
p3650
ssS'parcssjs'
p3651
(dp3652
g3640
I1
sg3645
L0L
sg3646
g3650
ssS'cacheresredir'
p3653
(dp3654
g3640
I1
sg3645
L0L
sg3646
g3650
ssS'cacheexp'
p3655
(dp3656
g3640
I10
sg3645
L1L
sg3646
S'yes'
p3657
ssS'gzip'
p3658
(dp3659
g3640
I10
sg3645
L1L
sg3646
g3657
ssS'prefetch'
p3660
(dp3661
g3640
I1
sg3645
L0L
sg3646
g3650
ssS'cacheredir'
p3662
(dp3663
g3640
I1
sg3645
L0L
sg3646
g3650
ssS'parsheet'
p3664
(dp3665
g3640
I10
sg3645
L1L
sg3646
g3657
ssS'du'
p3666
(dp3667
g3640
I10
sg3645
L1L
sg3646
g3657
ssS'hostconn'
p3668
(dp3669
g3640
I10
sg3645
L4L
sg3646
g11
sssg3646
S'5/11'
p3670
ssS'IE Mobile 8.12'
p3671
(dp3672
S'total_runs'
p3673
L2L
sS'score'
p3674
I3
sS'results'
p3675
(dp3676
S'maxconn'
p3677
(dp3678
g3674
I5
sS'median'
p3679
L15L
sS'display'
p3680
S'15'
p3681
ssS'parscript'
p3682
(dp3683
g3674
I1
sg3679
L0L
sg3680
S'no'
p3684
ssS'parcssjs'
p3685
(dp3686
g3674
I1
sg3679
L0L
sg3680
g3684
ssS'cacheresredir'
p3687
(dp3688
g3674
I1
sg3679
L0L
sg3680
g3684
ssS'cacheexp'
p3689
(dp3690
g3674
I10
sg3679
L1L
sg3680
S'yes'
p3691
ssS'gzip'
p3692
(dp3693
g3674
I10
sg3679
L1L
sg3680
g3691
ssS'prefetch'
p3694
(dp3695
g3674
I1
sg3679
L0L
sg3680
g3684
ssS'cacheredir'
p3696
(dp3697
g3674
I1
sg3679
L0L
sg3680
g3684
ssS'parsheet'
p3698
(dp3699
g3674
I10
sg3679
L1L
sg3680
g3691
ssS'du'
p3700
(dp3701
g3674
I1
sg3679
L0L
sg3680
g3684
ssS'hostconn'
p3702
(dp3703
g3674
I10
sg3679
L4L
sg3680
g11
sssg3680
S'4/11'
p3704
ssS'Opera 10.10'
p3705
(dp3706
S'total_runs'
p3707
L14L
sS'score'
p3708
I6
sS'results'
p3709
(dp3710
S'maxconn'
p3711
(dp3712
g3708
I10
sS'median'
p3713
L60L
sS'display'
p3714
S'60'
p3715
ssS'parscript'
p3716
(dp3717
g3708
I1
sg3713
L0L
sg3714
S'no'
p3718
ssS'parcssjs'
p3719
(dp3720
g3708
I1
sg3713
L0L
sg3714
g3718
ssS'cacheresredir'
p3721
(dp3722
g3708
I10
sg3713
L1L
sg3714
S'yes'
p3723
ssS'cacheexp'
p3724
(dp3725
g3708
I10
sg3713
L1L
sg3714
g3723
ssS'gzip'
p3726
(dp3727
g3708
I10
sg3713
L1L
sg3714
g3723
ssS'prefetch'
p3728
(dp3729
g3708
I1
sg3713
L0L
sg3714
g3718
ssS'cacheredir'
p3730
(dp3731
g3708
I1
sg3713
L0L
sg3714
g3718
ssS'parsheet'
p3732
(dp3733
g3708
I10
sg3713
L1L
sg3714
g3723
ssS'du'
p3734
(dp3735
g3708
I10
sg3713
L1L
sg3714
g3723
ssS'hostconn'
p3736
(dp3737
g3708
I10
sg3713
L8L
sg3714
g147
sssg3714
S'7/11'
p3738
ssS'Chrome 0.4'
p3739
(dp3740
S'total_runs'
p3741
L352L
sS'score'
p3742
I7
sS'results'
p3743
(dp3744
S'maxconn'
p3745
(dp3746
g3742
I10
sS'median'
p3747
L60L
sS'display'
p3748
S'60'
p3749
ssS'parscript'
p3750
(dp3751
g3742
I1
sg3747
L0L
sg3748
S'no'
p3752
ssS'parcssjs'
p3753
(dp3754
g3742
I1
sg3747
L0L
sg3748
g3752
ssS'cacheresredir'
p3755
(dp3756
g3742
I10
sg3747
L1L
sg3748
S'yes'
p3757
ssS'cacheexp'
p3758
(dp3759
g3742
I10
sg3747
L1L
sg3748
g3757
ssS'gzip'
p3760
(dp3761
g3742
I10
sg3747
L1L
sg3748
g3757
ssS'prefetch'
p3762
(dp3763
g3742
I1
sg3747
L0L
sg3748
g3752
ssS'cacheredir'
p3764
(dp3765
g3742
I10
sg3747
L1L
sg3748
g3757
ssS'parsheet'
p3766
(dp3767
g3742
I10
sg3747
L1L
sg3748
g3757
ssS'du'
p3768
(dp3769
g3742
I10
sg3747
L1L
sg3748
g3757
ssS'hostconn'
p3770
(dp3771
g3742
I10
sg3747
L6L
sg3748
g272
sssg3748
S'8/11'
p3772
ssS'Vodafone 1.0'
p3773
(dp3774
S'total_runs'
p3775
L2L
sS'score'
p3776
I3
sS'results'
p3777
(dp3778
S'maxconn'
p3779
(dp3780
g3776
I0
sS'median'
p3781
L0L
sS'display'
p3782
g46
ssS'parscript'
p3783
(dp3784
g3776
I1
sg3781
L0L
sg3782
S'no'
p3785
ssS'parcssjs'
p3786
(dp3787
g3776
I1
sg3781
L0L
sg3782
g3785
ssS'cacheresredir'
p3788
(dp3789
g3776
I10
sg3781
L1L
sg3782
S'yes'
p3790
ssS'cacheexp'
p3791
(dp3792
g3776
I10
sg3781
L1L
sg3782
g3790
ssS'gzip'
p3793
(dp3794
g3776
I1
sg3781
L0L
sg3782
g3785
ssS'prefetch'
p3795
(dp3796
g3776
I1
sg3781
L0L
sg3782
g3785
ssS'cacheredir'
p3797
(dp3798
g3776
I1
sg3781
L0L
sg3782
g3785
ssS'parsheet'
p3799
(dp3800
g3776
I10
sg3781
L1L
sg3782
g3790
ssS'du'
p3801
(dp3802
g3776
I10
sg3781
L1L
sg3782
g3790
ssS'hostconn'
p3803
(dp3804
g3776
I0
sg3781
L0L
sg3782
g46
sssg3782
S'4/11'
p3805
ssS'Nokia 95'
p3806
(dp3807
S'total_runs'
p3808
L11L
sS'score'
p3809
I3
sS'results'
p3810
(dp3811
S'maxconn'
p3812
(dp3813
g3809
I0
sS'median'
p3814
L5L
sS'display'
p3815
g1054
ssS'parscript'
p3816
(dp3817
g3809
I10
sg3814
L1L
sg3815
S'yes'
p3818
ssS'parcssjs'
p3819
(dp3820
g3809
I1
sg3814
L0L
sg3815
S'no'
p3821
ssS'cacheresredir'
p3822
(dp3823
g3809
I1
sg3814
L0L
sg3815
g3821
ssS'cacheexp'
p3824
(dp3825
g3809
I10
sg3814
L1L
sg3815
g3818
ssS'gzip'
p3826
(dp3827
g3809
I10
sg3814
L1L
sg3815
g3818
ssS'prefetch'
p3828
(dp3829
g3809
I1
sg3814
L0L
sg3815
g3821
ssS'cacheredir'
p3830
(dp3831
g3809
I1
sg3814
L0L
sg3815
g3821
ssS'parsheet'
p3832
(dp3833
g3809
I10
sg3814
L1L
sg3815
g3818
ssS'du'
p3834
(dp3835
g3809
I1
sg3814
L0L
sg3815
g3821
ssS'hostconn'
p3836
(dp3837
g3809
I0
sg3814
L0L
sg3815
g46
sssg3815
S'4/11'
p3838
ssS'IE 8.0'
p3839
(dp3840
S'total_runs'
p3841
L340L
sS'score'
p3842
I6
sS'results'
p3843
(dp3844
S'maxconn'
p3845
(dp3846
g3842
I10
sS'median'
p3847
L60L
sS'display'
p3848
S'60'
p3849
ssS'parscript'
p3850
(dp3851
g3842
I10
sg3847
L1L
sg3848
S'yes'
p3852
ssS'parcssjs'
p3853
(dp3854
g3842
I1
sg3847
L0L
sg3848
S'no'
p3855
ssS'cacheresredir'
p3856
(dp3857
g3842
I1
sg3847
L0L
sg3848
g3855
ssS'cacheexp'
p3858
(dp3859
g3842
I10
sg3847
L1L
sg3848
g3852
ssS'gzip'
p3860
(dp3861
g3842
I10
sg3847
L1L
sg3848
g3852
ssS'prefetch'
p3862
(dp3863
g3842
I1
sg3847
L0L
sg3848
g3855
ssS'cacheredir'
p3864
(dp3865
g3842
I1
sg3847
L0L
sg3848
g3855
ssS'parsheet'
p3866
(dp3867
g3842
I10
sg3847
L1L
sg3848
g3852
ssS'du'
p3868
(dp3869
g3842
I10
sg3847
L1L
sg3848
g3852
ssS'hostconn'
p3870
(dp3871
g3842
I10
sg3847
L6L
sg3848
g272
sssg3848
S'7/11'
p3872
ssS'Opera 5.12'
p3873
(dp3874
S'total_runs'
p3875
L1L
sS'score'
p3876
I3
sS'results'
p3877
(dp3878
S'maxconn'
p3879
(dp3880
g3876
I5
sS'median'
p3881
L20L
sS'display'
p3882
S'20'
p3883
ssS'parscript'
p3884
(dp3885
g3876
I1
sg3881
L0L
sg3882
S'no'
p3886
ssS'parcssjs'
p3887
(dp3888
g3876
I1
sg3881
L0L
sg3882
g3886
ssS'cacheresredir'
p3889
(dp3890
g3876
I10
sg3881
L1L
sg3882
S'yes'
p3891
ssS'cacheexp'
p3892
(dp3893
g3876
I1
sg3881
L0L
sg3882
g3886
ssS'gzip'
p3894
(dp3895
g3876
I10
sg3881
L1L
sg3882
g3891
ssS'prefetch'
p3896
(dp3897
g3876
I1
sg3881
L0L
sg3882
g3886
ssS'cacheredir'
p3898
(dp3899
g3876
I1
sg3881
L0L
sg3882
g3886
ssS'parsheet'
p3900
(dp3901
g3876
I10
sg3881
L1L
sg3882
g3891
ssS'du'
p3902
(dp3903
g3876
I1
sg3881
L0L
sg3882
g3886
ssS'hostconn'
p3904
(dp3905
g3876
I10
sg3881
L4L
sg3882
g11
sssg3882
S'4/11'
p3906
ssS'NetNewsWire 3.1'
p3907
(dp3908
S'total_runs'
p3909
L18L
sS'score'
p3910
I6
sS'results'
p3911
(dp3912
S'maxconn'
p3913
(dp3914
g3910
I10
sS'median'
p3915
L60L
sS'display'
p3916
S'60'
p3917
ssS'parscript'
p3918
(dp3919
g3910
I1
sg3915
L0L
sg3916
S'no'
p3920
ssS'parcssjs'
p3921
(dp3922
g3910
I1
sg3915
L0L
sg3916
g3920
ssS'cacheresredir'
p3923
(dp3924
g3910
I10
sg3915
L1L
sg3916
S'yes'
p3925
ssS'cacheexp'
p3926
(dp3927
g3910
I10
sg3915
L1L
sg3916
g3925
ssS'gzip'
p3928
(dp3929
g3910
I10
sg3915
L1L
sg3916
g3925
ssS'prefetch'
p3930
(dp3931
g3910
I1
sg3915
L0L
sg3916
g3920
ssS'cacheredir'
p3932
(dp3933
g3910
I1
sg3915
L0L
sg3916
g3920
ssS'parsheet'
p3934
(dp3935
g3910
I10
sg3915
L1L
sg3916
g3925
ssS'du'
p3936
(dp3937
g3910
I10
sg3915
L1L
sg3916
g3925
ssS'hostconn'
p3938
(dp3939
g3910
I10
sg3915
L4L
sg3916
g11
sssg3916
S'7/11'
p3940
ssS'Netscape 7.1'
p3941
(dp3942
S'total_runs'
p3943
L1L
sS'score'
p3944
I3
sS'results'
p3945
(dp3946
S'maxconn'
p3947
(dp3948
g3944
I10
sS'median'
p3949
L24L
sS'display'
p3950
S'24'
p3951
ssS'parscript'
p3952
(dp3953
g3944
I1
sg3949
L0L
sg3950
S'no'
p3954
ssS'parcssjs'
p3955
(dp3956
g3944
I1
sg3949
L0L
sg3950
g3954
ssS'cacheresredir'
p3957
(dp3958
g3944
I1
sg3949
L0L
sg3950
g3954
ssS'cacheexp'
p3959
(dp3960
g3944
I1
sg3949
L0L
sg3950
g3954
ssS'gzip'
p3961
(dp3962
g3944
I10
sg3949
L1L
sg3950
S'yes'
p3963
ssS'prefetch'
p3964
(dp3965
g3944
I1
sg3949
L0L
sg3950
g3954
ssS'cacheredir'
p3966
(dp3967
g3944
I1
sg3949
L0L
sg3950
g3954
ssS'parsheet'
p3968
(dp3969
g3944
I1
sg3949
L0L
sg3950
g3954
ssS'du'
p3970
(dp3971
g3944
I10
sg3949
L1L
sg3950
g3963
ssS'hostconn'
p3972
(dp3973
g3944
I5
sg3949
L2L
sg3950
g34
sssg3950
S'3/11'
p3974
ssS'Opera 9.64'
p3975
(dp3976
S'total_runs'
p3977
L950L
sS'score'
p3978
I5
sS'results'
p3979
(dp3980
S'maxconn'
p3981
(dp3982
g3978
I10
sS'median'
p3983
L59L
sS'display'
p3984
S'59'
p3985
ssS'parscript'
p3986
(dp3987
g3978
I1
sg3983
L0L
sg3984
S'no'
p3988
ssS'parcssjs'
p3989
(dp3990
g3978
I1
sg3983
L0L
sg3984
g3988
ssS'cacheresredir'
p3991
(dp3992
g3978
I1
sg3983
L0L
sg3984
g3988
ssS'cacheexp'
p3993
(dp3994
g3978
I10
sg3983
L1L
sg3984
S'yes'
p3995
ssS'gzip'
p3996
(dp3997
g3978
I10
sg3983
L1L
sg3984
g3995
ssS'prefetch'
p3998
(dp3999
g3978
I1
sg3983
L0L
sg3984
g3988
ssS'cacheredir'
p4000
(dp4001
g3978
I1
sg3983
L0L
sg3984
g3988
ssS'parsheet'
p4002
(dp4003
g3978
I10
sg3983
L1L
sg3984
g3995
ssS'du'
p4004
(dp4005
g3978
I10
sg3983
L1L
sg3984
g3995
ssS'hostconn'
p4006
(dp4007
g3978
I10
sg3983
L8L
sg3984
g147
sssg3984
S'6/11'
p4008
ssS'Safari 4.0'
p4009
(dp4010
S'total_runs'
p4011
L412L
sS'score'
p4012
I7
sS'results'
p4013
(dp4014
S'maxconn'
p4015
(dp4016
g4012
I10
sS'median'
p4017
L60L
sS'display'
p4018
S'60'
p4019
ssS'parscript'
p4020
(dp4021
g4012
I10
sg4017
L1L
sg4018
S'yes'
p4022
ssS'parcssjs'
p4023
(dp4024
g4012
I1
sg4017
L0L
sg4018
S'no'
p4025
ssS'cacheresredir'
p4026
(dp4027
g4012
I10
sg4017
L1L
sg4018
g4022
ssS'cacheexp'
p4028
(dp4029
g4012
I10
sg4017
L1L
sg4018
g4022
ssS'gzip'
p4030
(dp4031
g4012
I10
sg4017
L1L
sg4018
g4022
ssS'prefetch'
p4032
(dp4033
g4012
I1
sg4017
L0L
sg4018
g4025
ssS'cacheredir'
p4034
(dp4035
g4012
I1
sg4017
L0L
sg4018
g4025
ssS'parsheet'
p4036
(dp4037
g4012
I10
sg4017
L1L
sg4018
g4022
ssS'du'
p4038
(dp4039
g4012
I10
sg4017
L1L
sg4018
g4022
ssS'hostconn'
p4040
(dp4041
g4012
I10
sg4017
L4L
sg4018
g11
sssg4018
S'8/11'
p4042
ssS'K-Meleon 1.1'
p4043
(dp4044
S'total_runs'
p4045
L2L
sS'score'
p4046
I6
sS'results'
p4047
(dp4048
S'maxconn'
p4049
(dp4050
g4046
I10
sS'median'
p4051
L24L
sS'display'
p4052
S'24'
p4053
ssS'parscript'
p4054
(dp4055
g4046
I1
sg4051
L0L
sg4052
S'no'
p4056
ssS'parcssjs'
p4057
(dp4058
g4046
I1
sg4051
L0L
sg4052
g4056
ssS'cacheresredir'
p4059
(dp4060
g4046
I10
sg4051
L1L
sg4052
S'yes'
p4061
ssS'cacheexp'
p4062
(dp4063
g4046
I10
sg4051
L1L
sg4052
g4061
ssS'gzip'
p4064
(dp4065
g4046
I10
sg4051
L1L
sg4052
g4061
ssS'prefetch'
p4066
(dp4067
g4046
I10
sg4051
L1L
sg4052
g4061
ssS'cacheredir'
p4068
(dp4069
g4046
I10
sg4051
L1L
sg4052
g4061
ssS'parsheet'
p4070
(dp4071
g4046
I1
sg4051
L0L
sg4052
g4056
ssS'du'
p4072
(dp4073
g4046
I10
sg4051
L1L
sg4052
g4061
ssS'hostconn'
p4074
(dp4075
g4046
I5
sg4051
L2L
sg4052
g34
sssg4052
S'7/11'
p4076
ssS'Palm Blazer 4.5'
p4077
(dp4078
S'total_runs'
p4079
L1L
sS'score'
p4080
I2
sS'results'
p4081
(dp4082
S'maxconn'
p4083
(dp4084
g4080
I0
sS'median'
p4085
L0L
sS'display'
p4086
g46
ssS'parscript'
p4087
(dp4088
g4080
I1
sg4085
L0L
sg4086
S'no'
p4089
ssS'parcssjs'
p4090
(dp4091
g4080
I1
sg4085
L0L
sg4086
g4089
ssS'cacheresredir'
p4092
(dp4093
g4080
I1
sg4085
L0L
sg4086
g4089
ssS'cacheexp'
p4094
(dp4095
g4080
I1
sg4085
L0L
sg4086
g4089
ssS'gzip'
p4096
(dp4097
g4080
I10
sg4085
L1L
sg4086
S'yes'
p4098
ssS'prefetch'
p4099
(dp4100
g4080
I1
sg4085
L0L
sg4086
g4089
ssS'cacheredir'
p4101
(dp4102
g4080
I10
sg4085
L1L
sg4086
g4098
ssS'parsheet'
p4103
(dp4104
g4080
I1
sg4085
L0L
sg4086
g4089
ssS'du'
p4105
(dp4106
g4080
I0
sg4085
Nsg4086
g1236
ssS'hostconn'
p4107
(dp4108
g4080
I0
sg4085
L0L
sg4086
g46
sssg4086
S'2/11'
p4109
ssS'Chrome 0.3'
p4110
(dp4111
S'total_runs'
p4112
L362L
sS'score'
p4113
I7
sS'results'
p4114
(dp4115
S'maxconn'
p4116
(dp4117
g4113
I10
sS'median'
p4118
L60L
sS'display'
p4119
S'60'
p4120
ssS'parscript'
p4121
(dp4122
g4113
I1
sg4118
L0L
sg4119
S'no'
p4123
ssS'parcssjs'
p4124
(dp4125
g4113
I1
sg4118
L0L
sg4119
g4123
ssS'cacheresredir'
p4126
(dp4127
g4113
I10
sg4118
L1L
sg4119
S'yes'
p4128
ssS'cacheexp'
p4129
(dp4130
g4113
I10
sg4118
L1L
sg4119
g4128
ssS'gzip'
p4131
(dp4132
g4113
I10
sg4118
L1L
sg4119
g4128
ssS'prefetch'
p4133
(dp4134
g4113
I1
sg4118
L0L
sg4119
g4123
ssS'cacheredir'
p4135
(dp4136
g4113
I10
sg4118
L1L
sg4119
g4128
ssS'parsheet'
p4137
(dp4138
g4113
I10
sg4118
L1L
sg4119
g4128
ssS'du'
p4139
(dp4140
g4113
I10
sg4118
L1L
sg4119
g4128
ssS'hostconn'
p4141
(dp4142
g4113
I10
sg4118
L6L
sg4119
g272
sssg4119
S'8/11'
p4143
ssS'Firefox (Minefield) 3.0'
p4144
(dp4145
S'total_runs'
p4146
L4L
sS'score'
p4147
I6
sS'results'
p4148
(dp4149
S'maxconn'
p4150
(dp4151
g4147
I5
sS'median'
p4152
L19L
sS'display'
p4153
S'19'
p4154
ssS'parscript'
p4155
(dp4156
g4147
I1
sg4152
L0L
sg4153
S'no'
p4157
ssS'parcssjs'
p4158
(dp4159
g4147
I1
sg4152
L0L
sg4153
g4157
ssS'cacheresredir'
p4160
(dp4161
g4147
I10
sg4152
L1L
sg4153
S'yes'
p4162
ssS'cacheexp'
p4163
(dp4164
g4147
I10
sg4152
L1L
sg4153
g4162
ssS'gzip'
p4165
(dp4166
g4147
I10
sg4152
L1L
sg4153
g4162
ssS'prefetch'
p4167
(dp4168
g4147
I10
sg4152
L1L
sg4153
g4162
ssS'cacheredir'
p4169
(dp4170
g4147
I1
sg4152
L0L
sg4153
g4157
ssS'parsheet'
p4171
(dp4172
g4147
I10
sg4152
L1L
sg4153
g4162
ssS'du'
p4173
(dp4174
g4147
I10
sg4152
L1L
sg4153
g4162
ssS'hostconn'
p4175
(dp4176
g4147
I10
sg4152
L6L
sg4153
g272
sssg4153
S'7/11'
p4177
ssS'Obigo'
p4178
(dp4179
S'total_runs'
p4180
L5L
sS'score'
p4181
I1
sS'results'
p4182
(dp4183
S'maxconn'
p4184
(dp4185
g4181
I0
sS'median'
p4186
L0L
sS'display'
p4187
g46
ssS'parscript'
p4188
(dp4189
g4181
I1
sg4186
L0L
sg4187
S'no'
p4190
ssS'parcssjs'
p4191
(dp4192
g4181
I1
sg4186
L0L
sg4187
g4190
ssS'cacheresredir'
p4193
(dp4194
g4181
I1
sg4186
L0L
sg4187
g4190
ssS'cacheexp'
p4195
(dp4196
g4181
I10
sg4186
L1L
sg4187
S'yes'
p4197
ssS'gzip'
p4198
(dp4199
g4181
I1
sg4186
L0L
sg4187
g4190
ssS'prefetch'
p4200
(dp4201
g4181
I1
sg4186
L0L
sg4187
g4190
ssS'cacheredir'
p4202
(dp4203
g4181
I1
sg4186
L0L
sg4187
g4190
ssS'parsheet'
p4204
(dp4205
g4181
I1
sg4186
L0L
sg4187
g4190
ssS'du'
p4206
(dp4207
g4181
I1
sg4186
L0L
sg4187
g4190
ssS'hostconn'
p4208
(dp4209
g4181
I0
sg4186
L1L
sg4187
g385
sssg4187
S'1/11'
p4210
ssS'Konqueror 3.4'
p4211
(dp4212
S'total_runs'
p4213
L2L
sS'score'
p4214
I4
sS'results'
p4215
(dp4216
S'maxconn'
p4217
(dp4218
g4214
I0
sS'median'
p4219
L5L
sS'display'
p4220
g1054
ssS'parscript'
p4221
(dp4222
g4214
I1
sg4219
L0L
sg4220
S'no'
p4223
ssS'parcssjs'
p4224
(dp4225
g4214
I1
sg4219
L0L
sg4220
g4223
ssS'cacheresredir'
p4226
(dp4227
g4214
I10
sg4219
L1L
sg4220
S'yes'
p4228
ssS'cacheexp'
p4229
(dp4230
g4214
I10
sg4219
L1L
sg4220
g4228
ssS'gzip'
p4231
(dp4232
g4214
I10
sg4219
L1L
sg4220
g4228
ssS'prefetch'
p4233
(dp4234
g4214
I1
sg4219
L0L
sg4220
g4223
ssS'cacheredir'
p4235
(dp4236
g4214
I1
sg4219
L0L
sg4220
g4223
ssS'parsheet'
p4237
(dp4238
g4214
I1
sg4219
L0L
sg4220
g4223
ssS'du'
p4239
(dp4240
g4214
I10
sg4219
L1L
sg4220
g4228
ssS'hostconn'
p4241
(dp4242
g4214
I10
sg4219
L5L
sg4220
g1054
sssg4220
S'5/11'
p4243
ssS'Konqueror 3.5'
p4244
(dp4245
S'total_runs'
p4246
L53L
sS'score'
p4247
I5
sS'results'
p4248
(dp4249
S'maxconn'
p4250
(dp4251
g4247
I0
sS'median'
p4252
L5L
sS'display'
p4253
g1054
ssS'parscript'
p4254
(dp4255
g4247
I1
sg4252
L0L
sg4253
S'no'
p4256
ssS'parcssjs'
p4257
(dp4258
g4247
I1
sg4252
L0L
sg4253
g4256
ssS'cacheresredir'
p4259
(dp4260
g4247
I10
sg4252
L1L
sg4253
S'yes'
p4261
ssS'cacheexp'
p4262
(dp4263
g4247
I10
sg4252
L1L
sg4253
g4261
ssS'gzip'
p4264
(dp4265
g4247
I10
sg4252
L1L
sg4253
g4261
ssS'prefetch'
p4266
(dp4267
g4247
I1
sg4252
L0L
sg4253
g4256
ssS'cacheredir'
p4268
(dp4269
g4247
I1
sg4252
L0L
sg4253
g4256
ssS'parsheet'
p4270
(dp4271
g4247
I10
sg4252
L1L
sg4253
g4261
ssS'du'
p4272
(dp4273
g4247
I10
sg4252
L1L
sg4253
g4261
ssS'hostconn'
p4274
(dp4275
g4247
I10
sg4252
L5L
sg4253
g1054
sssg4253
S'6/11'
p4276
ssS'GranParadiso 3.0'
p4277
(dp4278
S'total_runs'
p4279
L44L
sS'score'
p4280
I6
sS'results'
p4281
(dp4282
S'maxconn'
p4283
(dp4284
g4280
I10
sS'median'
p4285
L30L
sS'display'
p4286
S'30'
p4287
ssS'parscript'
p4288
(dp4289
g4280
I1
sg4285
L0L
sg4286
S'no'
p4290
ssS'parcssjs'
p4291
(dp4292
g4280
I1
sg4285
L0L
sg4286
g4290
ssS'cacheresredir'
p4293
(dp4294
g4280
I1
sg4285
L0L
sg4286
g4290
ssS'cacheexp'
p4295
(dp4296
g4280
I10
sg4285
L1L
sg4286
S'yes'
p4297
ssS'gzip'
p4298
(dp4299
g4280
I10
sg4285
L1L
sg4286
g4297
ssS'prefetch'
p4300
(dp4301
g4280
I10
sg4285
L1L
sg4286
g4297
ssS'cacheredir'
p4302
(dp4303
g4280
I1
sg4285
L0L
sg4286
g4290
ssS'parsheet'
p4304
(dp4305
g4280
I10
sg4285
L1L
sg4286
g4297
ssS'du'
p4306
(dp4307
g4280
I10
sg4285
L1L
sg4286
g4297
ssS'hostconn'
p4308
(dp4309
g4280
I10
sg4285
L6L
sg4286
g272
sssg4286
S'7/11'
p4310
ssS'Opera 9.10'
p4311
(dp4312
S'total_runs'
p4313
L4L
sS'score'
p4314
I4
sS'results'
p4315
(dp4316
S'maxconn'
p4317
(dp4318
g4314
I5
sS'median'
p4319
L20L
sS'display'
p4320
S'20'
p4321
ssS'parscript'
p4322
(dp4323
g4314
I1
sg4319
L0L
sg4320
S'no'
p4324
ssS'parcssjs'
p4325
(dp4326
g4314
I1
sg4319
L0L
sg4320
g4324
ssS'cacheresredir'
p4327
(dp4328
g4314
I1
sg4319
L0L
sg4320
g4324
ssS'cacheexp'
p4329
(dp4330
g4314
I10
sg4319
L1L
sg4320
S'yes'
p4331
ssS'gzip'
p4332
(dp4333
g4314
I10
sg4319
L1L
sg4320
g4331
ssS'prefetch'
p4334
(dp4335
g4314
I1
sg4319
L0L
sg4320
g4324
ssS'cacheredir'
p4336
(dp4337
g4314
I1
sg4319
L0L
sg4320
g4324
ssS'parsheet'
p4338
(dp4339
g4314
I10
sg4319
L1L
sg4320
g4331
ssS'du'
p4340
(dp4341
g4314
I10
sg4319
L1L
sg4320
g4331
ssS'hostconn'
p4342
(dp4343
g4314
I10
sg4319
L4L
sg4320
g11
sssg4320
S'5/11'
p4344
ssS'Iron 3.0'
p4345
(dp4346
S'total_runs'
p4347
L15L
sS'score'
p4348
I8
sS'results'
p4349
(dp4350
S'maxconn'
p4351
(dp4352
g4348
I10
sS'median'
p4353
L60L
sS'display'
p4354
S'60'
p4355
ssS'parscript'
p4356
(dp4357
g4348
I10
sg4353
L1L
sg4354
S'yes'
p4358
ssS'parcssjs'
p4359
(dp4360
g4348
I1
sg4353
L0L
sg4354
S'no'
p4361
ssS'cacheresredir'
p4362
(dp4363
g4348
I10
sg4353
L1L
sg4354
g4358
ssS'cacheexp'
p4364
(dp4365
g4348
I10
sg4353
L1L
sg4354
g4358
ssS'gzip'
p4366
(dp4367
g4348
I10
sg4353
L1L
sg4354
g4358
ssS'prefetch'
p4368
(dp4369
g4348
I1
sg4353
L0L
sg4354
g4361
ssS'cacheredir'
p4370
(dp4371
g4348
I10
sg4353
L1L
sg4354
g4358
ssS'parsheet'
p4372
(dp4373
g4348
I10
sg4353
L1L
sg4354
g4358
ssS'du'
p4374
(dp4375
g4348
I10
sg4353
L1L
sg4354
g4358
ssS'hostconn'
p4376
(dp4377
g4348
I10
sg4353
L6L
sg4354
g272
sssg4354
S'9/11'
p4378
ssS'Opera 8.50'
p4379
(dp4380
S'total_runs'
p4381
L1L
sS'score'
p4382
I4
sS'results'
p4383
(dp4384
S'maxconn'
p4385
(dp4386
g4382
I5
sS'median'
p4387
L20L
sS'display'
p4388
S'20'
p4389
ssS'parscript'
p4390
(dp4391
g4382
I1
sg4387
L0L
sg4388
S'no'
p4392
ssS'parcssjs'
p4393
(dp4394
g4382
I1
sg4387
L0L
sg4388
g4392
ssS'cacheresredir'
p4395
(dp4396
g4382
I1
sg4387
L0L
sg4388
g4392
ssS'cacheexp'
p4397
(dp4398
g4382
I10
sg4387
L1L
sg4388
S'yes'
p4399
ssS'gzip'
p4400
(dp4401
g4382
I10
sg4387
L1L
sg4388
g4399
ssS'prefetch'
p4402
(dp4403
g4382
I1
sg4387
L0L
sg4388
g4392
ssS'cacheredir'
p4404
(dp4405
g4382
I1
sg4387
L0L
sg4388
g4392
ssS'parsheet'
p4406
(dp4407
g4382
I10
sg4387
L1L
sg4388
g4399
ssS'du'
p4408
(dp4409
g4382
I10
sg4387
L1L
sg4388
g4399
ssS'hostconn'
p4410
(dp4411
g4382
I10
sg4387
L8L
sg4388
g147
sssg4388
S'5/11'
p4412
ssS'IE 5.01'
p4413
(dp4414
S'total_runs'
p4415
L7L
sS'score'
p4416
I4
sS'results'
p4417
(dp4418
S'maxconn'
p4419
(dp4420
g4416
I10
sS'median'
p4421
L60L
sS'display'
p4422
S'60'
p4423
ssS'parscript'
p4424
(dp4425
g4416
I1
sg4421
L0L
sg4422
S'no'
p4426
ssS'parcssjs'
p4427
(dp4428
g4416
I1
sg4421
L0L
sg4422
g4426
ssS'cacheresredir'
p4429
(dp4430
g4416
I1
sg4421
L0L
sg4422
g4426
ssS'cacheexp'
p4431
(dp4432
g4416
I10
sg4421
L1L
sg4422
S'yes'
p4433
ssS'gzip'
p4434
(dp4435
g4416
I10
sg4421
L1L
sg4422
g4433
ssS'prefetch'
p4436
(dp4437
g4416
I1
sg4421
L0L
sg4422
g4426
ssS'cacheredir'
p4438
(dp4439
g4416
I1
sg4421
L0L
sg4422
g4426
ssS'parsheet'
p4440
(dp4441
g4416
I10
sg4421
L1L
sg4422
g4433
ssS'du'
p4442
(dp4443
g4416
I1
sg4421
L0L
sg4422
g4426
ssS'hostconn'
p4444
(dp4445
g4416
I10
sg4421
L4L
sg4422
g11
sssg4422
S'5/11'
p4446
ssS'Lunascape 5.0'
p4447
(dp4448
S'total_runs'
p4449
L30L
sS'score'
p4450
I7
sS'results'
p4451
(dp4452
S'maxconn'
p4453
(dp4454
g4450
I10
sS'median'
p4455
L43L
sS'display'
p4456
S'43'
p4457
ssS'parscript'
p4458
(dp4459
g4450
I10
sg4455
L1L
sg4456
S'yes'
p4460
ssS'parcssjs'
p4461
(dp4462
g4450
I1
sg4455
L0L
sg4456
S'no'
p4463
ssS'cacheresredir'
p4464
(dp4465
g4450
I10
sg4455
L1L
sg4456
g4460
ssS'cacheexp'
p4466
(dp4467
g4450
I10
sg4455
L1L
sg4456
g4460
ssS'gzip'
p4468
(dp4469
g4450
I10
sg4455
L1L
sg4456
g4460
ssS'prefetch'
p4470
(dp4471
g4450
I1
sg4455
L0L
sg4456
g4463
ssS'cacheredir'
p4472
(dp4473
g4450
I1
sg4455
L0L
sg4456
g4463
ssS'parsheet'
p4474
(dp4475
g4450
I10
sg4455
L1L
sg4456
g4460
ssS'du'
p4476
(dp4477
g4450
I10
sg4455
L1L
sg4456
g4460
ssS'hostconn'
p4478
(dp4479
g4450
I10
sg4455
L4L
sg4456
g11
sssg4456
S'8/11'
p4480
ssS'Lunascape 5.1'
p4481
(dp4482
S'total_runs'
p4483
L17L
sS'score'
p4484
I7
sS'results'
p4485
(dp4486
S'maxconn'
p4487
(dp4488
g4484
I10
sS'median'
p4489
L30L
sS'display'
p4490
S'30'
p4491
ssS'parscript'
p4492
(dp4493
g4484
I10
sg4489
L1L
sg4490
S'yes'
p4494
ssS'parcssjs'
p4495
(dp4496
g4484
I1
sg4489
L0L
sg4490
S'no'
p4497
ssS'cacheresredir'
p4498
(dp4499
g4484
I10
sg4489
L1L
sg4490
g4494
ssS'cacheexp'
p4500
(dp4501
g4484
I10
sg4489
L1L
sg4490
g4494
ssS'gzip'
p4502
(dp4503
g4484
I10
sg4489
L1L
sg4490
g4494
ssS'prefetch'
p4504
(dp4505
g4484
I1
sg4489
L0L
sg4490
g4497
ssS'cacheredir'
p4506
(dp4507
g4484
I1
sg4489
L0L
sg4490
g4497
ssS'parsheet'
p4508
(dp4509
g4484
I10
sg4489
L1L
sg4490
g4494
ssS'du'
p4510
(dp4511
g4484
I10
sg4489
L1L
sg4490
g4494
ssS'hostconn'
p4512
(dp4513
g4484
I10
sg4489
L4L
sg4490
g11
sssg4490
S'8/11'
p4514
ssS'Opera 8.54'
p4515
(dp4516
S'total_runs'
p4517
L9L
sS'score'
p4518
I4
sS'results'
p4519
(dp4520
S'maxconn'
p4521
(dp4522
g4518
I5
sS'median'
p4523
L20L
sS'display'
p4524
S'20'
p4525
ssS'parscript'
p4526
(dp4527
g4518
I1
sg4523
L0L
sg4524
S'no'
p4528
ssS'parcssjs'
p4529
(dp4530
g4518
I1
sg4523
L0L
sg4524
g4528
ssS'cacheresredir'
p4531
(dp4532
g4518
I1
sg4523
L0L
sg4524
g4528
ssS'cacheexp'
p4533
(dp4534
g4518
I10
sg4523
L1L
sg4524
S'yes'
p4535
ssS'gzip'
p4536
(dp4537
g4518
I10
sg4523
L1L
sg4524
g4535
ssS'prefetch'
p4538
(dp4539
g4518
I1
sg4523
L0L
sg4524
g4528
ssS'cacheredir'
p4540
(dp4541
g4518
I1
sg4523
L0L
sg4524
g4528
ssS'parsheet'
p4542
(dp4543
g4518
I10
sg4523
L1L
sg4524
g4535
ssS'du'
p4544
(dp4545
g4518
I10
sg4523
L1L
sg4524
g4535
ssS'hostconn'
p4546
(dp4547
g4518
I10
sg4523
L8L
sg4524
g147
sssg4524
S'5/11'
p4548
ssS'Netscape 7.2'
p4549
(dp4550
S'total_runs'
p4551
L1L
sS'score'
p4552
I5
sS'results'
p4553
(dp4554
S'maxconn'
p4555
(dp4556
g4552
I10
sS'median'
p4557
L24L
sS'display'
p4558
S'24'
p4559
ssS'parscript'
p4560
(dp4561
g4552
I1
sg4557
L0L
sg4558
S'no'
p4562
ssS'parcssjs'
p4563
(dp4564
g4552
I1
sg4557
L0L
sg4558
g4562
ssS'cacheresredir'
p4565
(dp4566
g4552
I10
sg4557
L1L
sg4558
S'yes'
p4567
ssS'cacheexp'
p4568
(dp4569
g4552
I10
sg4557
L1L
sg4558
g4567
ssS'gzip'
p4570
(dp4571
g4552
I10
sg4557
L1L
sg4558
g4567
ssS'prefetch'
p4572
(dp4573
g4552
I10
sg4557
L1L
sg4558
g4567
ssS'cacheredir'
p4574
(dp4575
g4552
I1
sg4557
L0L
sg4558
g4562
ssS'parsheet'
p4576
(dp4577
g4552
I1
sg4557
L0L
sg4558
g4562
ssS'du'
p4578
(dp4579
g4552
I10
sg4557
L1L
sg4558
g4567
ssS'hostconn'
p4580
(dp4581
g4552
I5
sg4557
L2L
sg4558
g34
sssg4558
S'6/11'
p4582
ssS'Shiira 1.0'
p4583
(dp4584
S'total_runs'
p4585
L1L
sS'score'
p4586
I6
sS'results'
p4587
(dp4588
S'maxconn'
p4589
(dp4590
g4586
I10
sS'median'
p4591
L60L
sS'display'
p4592
S'60'
p4593
ssS'parscript'
p4594
(dp4595
g4586
I1
sg4591
L0L
sg4592
S'no'
p4596
ssS'parcssjs'
p4597
(dp4598
g4586
I1
sg4591
L0L
sg4592
g4596
ssS'cacheresredir'
p4599
(dp4600
g4586
I10
sg4591
L1L
sg4592
S'yes'
p4601
ssS'cacheexp'
p4602
(dp4603
g4586
I10
sg4591
L1L
sg4592
g4601
ssS'gzip'
p4604
(dp4605
g4586
I10
sg4591
L1L
sg4592
g4601
ssS'prefetch'
p4606
(dp4607
g4586
I1
sg4591
L0L
sg4592
g4596
ssS'cacheredir'
p4608
(dp4609
g4586
I1
sg4591
L0L
sg4592
g4596
ssS'parsheet'
p4610
(dp4611
g4586
I10
sg4591
L1L
sg4592
g4601
ssS'du'
p4612
(dp4613
g4586
I10
sg4591
L1L
sg4592
g4601
ssS'hostconn'
p4614
(dp4615
g4586
I10
sg4591
L4L
sg4592
g11
sssg4592
S'7/11'
p4616
ssS'Nokia 51'
p4617
(dp4618
S'total_runs'
p4619
L4L
sS'score'
p4620
I4
sS'results'
p4621
(dp4622
S'maxconn'
p4623
(dp4624
g4620
I0
sS'median'
p4625
L7L
sS'display'
p4626
g113
ssS'parscript'
p4627
(dp4628
g4620
I10
sg4625
L1L
sg4626
S'yes'
p4629
ssS'parcssjs'
p4630
(dp4631
g4620
I1
sg4625
L0L
sg4626
S'no'
p4632
ssS'cacheresredir'
p4633
(dp4634
g4620
I1
sg4625
L0L
sg4626
g4632
ssS'cacheexp'
p4635
(dp4636
g4620
I10
sg4625
L1L
sg4626
g4629
ssS'gzip'
p4637
(dp4638
g4620
I10
sg4625
L1L
sg4626
g4629
ssS'prefetch'
p4639
(dp4640
g4620
I10
sg4625
L1L
sg4626
g4629
ssS'cacheredir'
p4641
(dp4642
g4620
I1
sg4625
L0L
sg4626
g4632
ssS'parsheet'
p4643
(dp4644
g4620
I10
sg4625
L1L
sg4626
g4629
ssS'du'
p4645
(dp4646
g4620
I1
sg4625
L0L
sg4626
g4632
ssS'hostconn'
p4647
(dp4648
g4620
I0
sg4625
L0L
sg4626
g46
sssg4626
S'5/11'
p4649
ssS'IE 7.0'
p4650
(dp4651
S'total_runs'
p4652
L659L
sS'score'
p4653
I3
sS'results'
p4654
(dp4655
S'maxconn'
p4656
(dp4657
g4653
I10
sS'median'
p4658
L60L
sS'display'
p4659
S'60'
p4660
ssS'parscript'
p4661
(dp4662
g4653
I1
sg4658
L0L
sg4659
S'no'
p4663
ssS'parcssjs'
p4664
(dp4665
g4653
I1
sg4658
L0L
sg4659
g4663
ssS'cacheresredir'
p4666
(dp4667
g4653
I1
sg4658
L0L
sg4659
g4663
ssS'cacheexp'
p4668
(dp4669
g4653
I10
sg4658
L1L
sg4659
S'yes'
p4670
ssS'gzip'
p4671
(dp4672
g4653
I10
sg4658
L1L
sg4659
g4670
ssS'prefetch'
p4673
(dp4674
g4653
I1
sg4658
L0L
sg4659
g4663
ssS'cacheredir'
p4675
(dp4676
g4653
I1
sg4658
L0L
sg4659
g4663
ssS'parsheet'
p4677
(dp4678
g4653
I10
sg4658
L1L
sg4659
g4670
ssS'du'
p4679
(dp4680
g4653
I1
sg4658
L0L
sg4659
g4663
ssS'hostconn'
p4681
(dp4682
g4653
I5
sg4658
L2L
sg4659
g34
sssg4659
S'4/11'
p4683
ssS'Bolt 0.920'
p4684
(dp4685
S'total_runs'
p4686
L1L
sS'score'
p4687
I4
sS'results'
p4688
(dp4689
S'maxconn'
p4690
(dp4691
g4687
I0
sS'median'
p4692
L5L
sS'display'
p4693
g1054
ssS'parscript'
p4694
(dp4695
g4687
I1
sg4692
L0L
sg4693
S'no'
p4696
ssS'parcssjs'
p4697
(dp4698
g4687
I1
sg4692
L0L
sg4693
g4696
ssS'cacheresredir'
p4699
(dp4700
g4687
I1
sg4692
L0L
sg4693
g4696
ssS'cacheexp'
p4701
(dp4702
g4687
I1
sg4692
L0L
sg4693
g4696
ssS'gzip'
p4703
(dp4704
g4687
I10
sg4692
L1L
sg4693
S'yes'
p4705
ssS'prefetch'
p4706
(dp4707
g4687
I1
sg4692
L0L
sg4693
g4696
ssS'cacheredir'
p4708
(dp4709
g4687
I10
sg4692
L1L
sg4693
g4705
ssS'parsheet'
p4710
(dp4711
g4687
I10
sg4692
L1L
sg4693
g4705
ssS'du'
p4712
(dp4713
g4687
I10
sg4692
L1L
sg4693
g4705
ssS'hostconn'
p4714
(dp4715
g4687
I10
sg4692
L5L
sg4693
g1054
sssg4693
S'5/11'
p4716
ssS'Blackberry 8830'
p4717
(dp4718
S'total_runs'
p4719
L5L
sS'score'
p4720
I5
sS'results'
p4721
(dp4722
S'maxconn'
p4723
(dp4724
g4720
I0
sS'median'
p4725
L8L
sS'display'
p4726
g147
ssS'parscript'
p4727
(dp4728
g4720
I10
sg4725
L1L
sg4726
S'yes'
p4729
ssS'parcssjs'
p4730
(dp4731
g4720
I1
sg4725
L0L
sg4726
S'no'
p4732
ssS'cacheresredir'
p4733
(dp4734
g4720
I10
sg4725
L1L
sg4726
g4729
ssS'cacheexp'
p4735
(dp4736
g4720
I10
sg4725
L1L
sg4726
g4729
ssS'gzip'
p4737
(dp4738
g4720
I1
sg4725
L0L
sg4726
g4732
ssS'prefetch'
p4739
(dp4740
g4720
I10
sg4725
L1L
sg4726
g4729
ssS'cacheredir'
p4741
(dp4742
g4720
I1
sg4725
L0L
sg4726
g4732
ssS'parsheet'
p4743
(dp4744
g4720
I10
sg4725
L1L
sg4726
g4729
ssS'du'
p4745
(dp4746
g4720
I1
sg4725
L0L
sg4726
g4732
ssS'hostconn'
p4747
(dp4748
g4720
I10
sg4725
L8L
sg4726
g147
sssg4726
S'6/11'
p4749
ssS'Opera 9.22'
p4750
(dp4751
S'total_runs'
p4752
L2L
sS'score'
p4753
I6
sS'results'
p4754
(dp4755
S'maxconn'
p4756
(dp4757
g4753
I5
sS'median'
p4758
L20L
sS'display'
p4759
S'20'
p4760
ssS'parscript'
p4761
(dp4762
g4753
I1
sg4758
L0L
sg4759
S'no'
p4763
ssS'parcssjs'
p4764
(dp4765
g4753
I1
sg4758
L0L
sg4759
g4763
ssS'cacheresredir'
p4766
(dp4767
g4753
I10
sg4758
L1L
sg4759
S'yes'
p4768
ssS'cacheexp'
p4769
(dp4770
g4753
I10
sg4758
L1L
sg4759
g4768
ssS'gzip'
p4771
(dp4772
g4753
I10
sg4758
L1L
sg4759
g4768
ssS'prefetch'
p4773
(dp4774
g4753
I1
sg4758
L0L
sg4759
g4763
ssS'cacheredir'
p4775
(dp4776
g4753
I10
sg4758
L1L
sg4759
g4768
ssS'parsheet'
p4777
(dp4778
g4753
I10
sg4758
L1L
sg4759
g4768
ssS'du'
p4779
(dp4780
g4753
I10
sg4758
L1L
sg4759
g4768
ssS'hostconn'
p4781
(dp4782
g4753
I10
sg4758
L4L
sg4759
g11
sssg4759
S'7/11'
p4783
ssS'Iron 1.0'
p4784
(dp4785
S'total_runs'
p4786
L14L
sS'score'
p4787
I8
sS'results'
p4788
(dp4789
S'maxconn'
p4790
(dp4791
g4787
I10
sS'median'
p4792
L59L
sS'display'
p4793
S'59'
p4794
ssS'parscript'
p4795
(dp4796
g4787
I10
sg4792
L1L
sg4793
S'yes'
p4797
ssS'parcssjs'
p4798
(dp4799
g4787
I1
sg4792
L0L
sg4793
S'no'
p4800
ssS'cacheresredir'
p4801
(dp4802
g4787
I10
sg4792
L1L
sg4793
g4797
ssS'cacheexp'
p4803
(dp4804
g4787
I10
sg4792
L1L
sg4793
g4797
ssS'gzip'
p4805
(dp4806
g4787
I10
sg4792
L1L
sg4793
g4797
ssS'prefetch'
p4807
(dp4808
g4787
I1
sg4792
L0L
sg4793
g4800
ssS'cacheredir'
p4809
(dp4810
g4787
I10
sg4792
L1L
sg4793
g4797
ssS'parsheet'
p4811
(dp4812
g4787
I10
sg4792
L1L
sg4793
g4797
ssS'du'
p4813
(dp4814
g4787
I10
sg4792
L1L
sg4793
g4797
ssS'hostconn'
p4815
(dp4816
g4787
I10
sg4792
L6L
sg4793
g272
sssg4793
S'9/11'
p4817
ssS'OmniWeb 613.0'
p4818
(dp4819
S'total_runs'
p4820
L1L
sS'score'
p4821
I6
sS'results'
p4822
(dp4823
S'maxconn'
p4824
(dp4825
g4821
I10
sS'median'
p4826
L60L
sS'display'
p4827
S'60'
p4828
ssS'parscript'
p4829
(dp4830
g4821
I1
sg4826
L0L
sg4827
S'no'
p4831
ssS'parcssjs'
p4832
(dp4833
g4821
I1
sg4826
L0L
sg4827
g4831
ssS'cacheresredir'
p4834
(dp4835
g4821
I10
sg4826
L1L
sg4827
S'yes'
p4836
ssS'cacheexp'
p4837
(dp4838
g4821
I10
sg4826
L1L
sg4827
g4836
ssS'gzip'
p4839
(dp4840
g4821
I10
sg4826
L1L
sg4827
g4836
ssS'prefetch'
p4841
(dp4842
g4821
I1
sg4826
L0L
sg4827
g4831
ssS'cacheredir'
p4843
(dp4844
g4821
I1
sg4826
L0L
sg4827
g4831
ssS'parsheet'
p4845
(dp4846
g4821
I10
sg4826
L1L
sg4827
g4836
ssS'du'
p4847
(dp4848
g4821
I10
sg4826
L1L
sg4827
g4836
ssS'hostconn'
p4849
(dp4850
g4821
I10
sg4826
L4L
sg4827
g11
sssg4827
S'7/11'
p4851
ssS'Blackberry 7130'
p4852
(dp4853
S'total_runs'
p4854
L1L
sS'score'
p4855
I5
sS'results'
p4856
(dp4857
S'maxconn'
p4858
(dp4859
g4855
I0
sS'median'
p4860
L0L
sS'display'
p4861
g46
ssS'parscript'
p4862
(dp4863
g4855
I1
sg4860
L0L
sg4861
S'no'
p4864
ssS'parcssjs'
p4865
(dp4866
g4855
I10
sg4860
L1L
sg4861
S'yes'
p4867
ssS'cacheresredir'
p4868
(dp4869
g4855
I10
sg4860
L1L
sg4861
g4867
ssS'cacheexp'
p4870
(dp4871
g4855
I10
sg4860
L1L
sg4861
g4867
ssS'gzip'
p4872
(dp4873
g4855
I10
sg4860
L1L
sg4861
g4867
ssS'prefetch'
p4874
(dp4875
g4855
I10
sg4860
L1L
sg4861
g4867
ssS'cacheredir'
p4876
(dp4877
g4855
I1
sg4860
L0L
sg4861
g4864
ssS'parsheet'
p4878
(dp4879
g4855
I10
sg4860
L1L
sg4861
g4867
ssS'du'
p4880
(dp4881
g4855
I1
sg4860
L0L
sg4861
g4864
ssS'hostconn'
p4882
(dp4883
g4855
I0
sg4860
L0L
sg4861
g46
sssg4861
S'6/11'
p4884
ssS'Opera 7.0'
p4885
(dp4886
S'total_runs'
p4887
L1L
sS'score'
p4888
I5
sS'results'
p4889
(dp4890
S'maxconn'
p4891
(dp4892
g4888
I0
sS'median'
p4893
L8L
sS'display'
p4894
g147
ssS'parscript'
p4895
(dp4896
g4888
I1
sg4893
L0L
sg4894
S'no'
p4897
ssS'parcssjs'
p4898
(dp4899
g4888
I1
sg4893
L0L
sg4894
g4897
ssS'cacheresredir'
p4900
(dp4901
g4888
I10
sg4893
L1L
sg4894
S'yes'
p4902
ssS'cacheexp'
p4903
(dp4904
g4888
I10
sg4893
L1L
sg4894
g4902
ssS'gzip'
p4905
(dp4906
g4888
I10
sg4893
L1L
sg4894
g4902
ssS'prefetch'
p4907
(dp4908
g4888
I1
sg4893
L0L
sg4894
g4897
ssS'cacheredir'
p4909
(dp4910
g4888
I10
sg4893
L1L
sg4894
g4902
ssS'parsheet'
p4911
(dp4912
g4888
I10
sg4893
L1L
sg4894
g4902
ssS'du'
p4913
(dp4914
g4888
I1
sg4893
L0L
sg4894
g4897
ssS'hostconn'
p4915
(dp4916
g4888
I10
sg4893
L8L
sg4894
g147
sssg4894
S'6/11'
p4917
ssS'Shiira 1.2'
p4918
(dp4919
S'total_runs'
p4920
L5L
sS'score'
p4921
I6
sS'results'
p4922
(dp4923
S'maxconn'
p4924
(dp4925
g4921
I10
sS'median'
p4926
L60L
sS'display'
p4927
S'60'
p4928
ssS'parscript'
p4929
(dp4930
g4921
I1
sg4926
L0L
sg4927
S'no'
p4931
ssS'parcssjs'
p4932
(dp4933
g4921
I1
sg4926
L0L
sg4927
g4931
ssS'cacheresredir'
p4934
(dp4935
g4921
I10
sg4926
L1L
sg4927
S'yes'
p4936
ssS'cacheexp'
p4937
(dp4938
g4921
I10
sg4926
L1L
sg4927
g4936
ssS'gzip'
p4939
(dp4940
g4921
I10
sg4926
L1L
sg4927
g4936
ssS'prefetch'
p4941
(dp4942
g4921
I1
sg4926
L0L
sg4927
g4931
ssS'cacheredir'
p4943
(dp4944
g4921
I1
sg4926
L0L
sg4927
g4931
ssS'parsheet'
p4945
(dp4946
g4921
I10
sg4926
L1L
sg4927
g4936
ssS'du'
p4947
(dp4948
g4921
I10
sg4926
L1L
sg4927
g4936
ssS'hostconn'
p4949
(dp4950
g4921
I10
sg4926
L4L
sg4927
g11
sssg4927
S'7/11'
p4951
ssS'Sunrise 1.7'
p4952
(dp4953
S'total_runs'
p4954
L3L
sS'score'
p4955
I6
sS'results'
p4956
(dp4957
S'maxconn'
p4958
(dp4959
g4955
I10
sS'median'
p4960
L60L
sS'display'
p4961
S'60'
p4962
ssS'parscript'
p4963
(dp4964
g4955
I1
sg4960
L0L
sg4961
S'no'
p4965
ssS'parcssjs'
p4966
(dp4967
g4955
I1
sg4960
L0L
sg4961
g4965
ssS'cacheresredir'
p4968
(dp4969
g4955
I10
sg4960
L1L
sg4961
S'yes'
p4970
ssS'cacheexp'
p4971
(dp4972
g4955
I10
sg4960
L1L
sg4961
g4970
ssS'gzip'
p4973
(dp4974
g4955
I10
sg4960
L1L
sg4961
g4970
ssS'prefetch'
p4975
(dp4976
g4955
I1
sg4960
L0L
sg4961
g4965
ssS'cacheredir'
p4977
(dp4978
g4955
I1
sg4960
L0L
sg4961
g4965
ssS'parsheet'
p4979
(dp4980
g4955
I10
sg4960
L1L
sg4961
g4970
ssS'du'
p4981
(dp4982
g4955
I10
sg4960
L1L
sg4961
g4970
ssS'hostconn'
p4983
(dp4984
g4955
I10
sg4960
L4L
sg4961
g11
sssg4961
S'7/11'
p4985
ssS'IE Mobile 7.6'
p4986
(dp4987
S'total_runs'
p4988
L1L
sS'score'
p4989
I4
sS'results'
p4990
(dp4991
S'maxconn'
p4992
(dp4993
g4989
I0
sS'median'
p4994
L0L
sS'display'
p4995
g46
ssS'parscript'
p4996
(dp4997
g4989
I1
sg4994
L0L
sg4995
S'no'
p4998
ssS'parcssjs'
p4999
(dp5000
g4989
I1
sg4994
L0L
sg4995
g4998
ssS'cacheresredir'
p5001
(dp5002
g4989
I10
sg4994
L1L
sg4995
S'yes'
p5003
ssS'cacheexp'
p5004
(dp5005
g4989
I10
sg4994
L1L
sg4995
g5003
ssS'gzip'
p5006
(dp5007
g4989
I10
sg4994
L1L
sg4995
g5003
ssS'prefetch'
p5008
(dp5009
g4989
I10
sg4994
L1L
sg4995
g5003
ssS'cacheredir'
p5010
(dp5011
g4989
I1
sg4994
L0L
sg4995
g4998
ssS'parsheet'
p5012
(dp5013
g4989
I10
sg4994
L1L
sg4995
g5003
ssS'du'
p5014
(dp5015
g4989
I1
sg4994
L0L
sg4995
g4998
ssS'hostconn'
p5016
(dp5017
g4989
I0
sg4994
L0L
sg4995
g46
sssg4995
S'5/11'
p5018
ssS'Demeter 1.0'
p5019
(dp5020
S'total_runs'
p5021
L1L
sS'score'
p5022
I6
sS'results'
p5023
(dp5024
S'maxconn'
p5025
(dp5026
g5022
I10
sS'median'
p5027
L60L
sS'display'
p5028
S'60'
p5029
ssS'parscript'
p5030
(dp5031
g5022
I1
sg5027
L0L
sg5028
S'no'
p5032
ssS'parcssjs'
p5033
(dp5034
g5022
I1
sg5027
L0L
sg5028
g5032
ssS'cacheresredir'
p5035
(dp5036
g5022
I10
sg5027
L1L
sg5028
S'yes'
p5037
ssS'cacheexp'
p5038
(dp5039
g5022
I10
sg5027
L1L
sg5028
g5037
ssS'gzip'
p5040
(dp5041
g5022
I10
sg5027
L1L
sg5028
g5037
ssS'prefetch'
p5042
(dp5043
g5022
I1
sg5027
L0L
sg5028
g5032
ssS'cacheredir'
p5044
(dp5045
g5022
I1
sg5027
L0L
sg5028
g5032
ssS'parsheet'
p5046
(dp5047
g5022
I10
sg5027
L1L
sg5028
g5037
ssS'du'
p5048
(dp5049
g5022
I10
sg5027
L1L
sg5028
g5037
ssS'hostconn'
p5050
(dp5051
g5022
I10
sg5027
L4L
sg5028
g11
sssg5028
S'7/11'
p5052
ssS'K-Meleon 1.5'
p5053
(dp5054
S'total_runs'
p5055
L16L
sS'score'
p5056
I6
sS'results'
p5057
(dp5058
S'maxconn'
p5059
(dp5060
g5056
I10
sS'median'
p5061
L24L
sS'display'
p5062
S'24'
p5063
ssS'parscript'
p5064
(dp5065
g5056
I1
sg5061
L0L
sg5062
S'no'
p5066
ssS'parcssjs'
p5067
(dp5068
g5056
I1
sg5061
L0L
sg5062
g5066
ssS'cacheresredir'
p5069
(dp5070
g5056
I10
sg5061
L1L
sg5062
S'yes'
p5071
ssS'cacheexp'
p5072
(dp5073
g5056
I10
sg5061
L1L
sg5062
g5071
ssS'gzip'
p5074
(dp5075
g5056
I10
sg5061
L1L
sg5062
g5071
ssS'prefetch'
p5076
(dp5077
g5056
I10
sg5061
L1L
sg5062
g5071
ssS'cacheredir'
p5078
(dp5079
g5056
I10
sg5061
L1L
sg5062
g5071
ssS'parsheet'
p5080
(dp5081
g5056
I1
sg5061
L0L
sg5062
g5066
ssS'du'
p5082
(dp5083
g5056
I10
sg5061
L1L
sg5062
g5071
ssS'hostconn'
p5084
(dp5085
g5056
I5
sg5061
L2L
sg5062
g34
sssg5062
S'7/11'
p5086
ssS'SeaMonkey 1.0'
p5087
(dp5088
S'total_runs'
p5089
L1L
sS'score'
p5090
I6
sS'results'
p5091
(dp5092
S'maxconn'
p5093
(dp5094
g5090
I10
sS'median'
p5095
L24L
sS'display'
p5096
S'24'
p5097
ssS'parscript'
p5098
(dp5099
g5090
I1
sg5095
L0L
sg5096
S'no'
p5100
ssS'parcssjs'
p5101
(dp5102
g5090
I1
sg5095
L0L
sg5096
g5100
ssS'cacheresredir'
p5103
(dp5104
g5090
I10
sg5095
L1L
sg5096
S'yes'
p5105
ssS'cacheexp'
p5106
(dp5107
g5090
I10
sg5095
L1L
sg5096
g5105
ssS'gzip'
p5108
(dp5109
g5090
I10
sg5095
L1L
sg5096
g5105
ssS'prefetch'
p5110
(dp5111
g5090
I10
sg5095
L1L
sg5096
g5105
ssS'cacheredir'
p5112
(dp5113
g5090
I10
sg5095
L1L
sg5096
g5105
ssS'parsheet'
p5114
(dp5115
g5090
I1
sg5095
L0L
sg5096
g5100
ssS'du'
p5116
(dp5117
g5090
I10
sg5095
L1L
sg5096
g5105
ssS'hostconn'
p5118
(dp5119
g5090
I5
sg5095
L2L
sg5096
g34
sssg5096
S'7/11'
p5120
ssS'Galeon 2.0'
p5121
(dp5122
S'total_runs'
p5123
L8L
sS'score'
p5124
I6
sS'results'
p5125
(dp5126
S'maxconn'
p5127
(dp5128
g5124
I10
sS'median'
p5129
L30L
sS'display'
p5130
S'30'
p5131
ssS'parscript'
p5132
(dp5133
g5124
I1
sg5129
L0L
sg5130
S'no'
p5134
ssS'parcssjs'
p5135
(dp5136
g5124
I1
sg5129
L0L
sg5130
g5134
ssS'cacheresredir'
p5137
(dp5138
g5124
I1
sg5129
L0L
sg5130
g5134
ssS'cacheexp'
p5139
(dp5140
g5124
I10
sg5129
L1L
sg5130
S'yes'
p5141
ssS'gzip'
p5142
(dp5143
g5124
I10
sg5129
L1L
sg5130
g5141
ssS'prefetch'
p5144
(dp5145
g5124
I10
sg5129
L1L
sg5130
g5141
ssS'cacheredir'
p5146
(dp5147
g5124
I1
sg5129
L0L
sg5130
g5134
ssS'parsheet'
p5148
(dp5149
g5124
I10
sg5129
L1L
sg5130
g5141
ssS'du'
p5150
(dp5151
g5124
I10
sg5129
L1L
sg5130
g5141
ssS'hostconn'
p5152
(dp5153
g5124
I10
sg5129
L6L
sg5130
g272
sssg5130
S'7/11'
p5154
ssS'OmniWeb 622.3'
p5155
(dp5156
S'total_runs'
p5157
L5L
sS'score'
p5158
I6
sS'results'
p5159
(dp5160
S'maxconn'
p5161
(dp5162
g5158
I10
sS'median'
p5163
L60L
sS'display'
p5164
S'60'
p5165
ssS'parscript'
p5166
(dp5167
g5158
I1
sg5163
L0L
sg5164
S'no'
p5168
ssS'parcssjs'
p5169
(dp5170
g5158
I1
sg5163
L0L
sg5164
g5168
ssS'cacheresredir'
p5171
(dp5172
g5158
I10
sg5163
L1L
sg5164
S'yes'
p5173
ssS'cacheexp'
p5174
(dp5175
g5158
I10
sg5163
L1L
sg5164
g5173
ssS'gzip'
p5176
(dp5177
g5158
I10
sg5163
L1L
sg5164
g5173
ssS'prefetch'
p5178
(dp5179
g5158
I1
sg5163
L0L
sg5164
g5168
ssS'cacheredir'
p5180
(dp5181
g5158
I1
sg5163
L0L
sg5164
g5168
ssS'parsheet'
p5182
(dp5183
g5158
I10
sg5163
L1L
sg5164
g5173
ssS'du'
p5184
(dp5185
g5158
I10
sg5163
L1L
sg5164
g5173
ssS'hostconn'
p5186
(dp5187
g5158
I10
sg5163
L4L
sg5164
g11
sssg5164
S'7/11'
p5188
ssS'OmniWeb 622.6'
p5189
(dp5190
S'total_runs'
p5191
L1L
sS'score'
p5192
I4
sS'results'
p5193
(dp5194
S'maxconn'
p5195
(dp5196
g5192
I0
sS'median'
p5197
L0L
sS'display'
p5198
g46
ssS'parscript'
p5199
(dp5200
g5192
I1
sg5197
L0L
sg5198
S'no'
p5201
ssS'parcssjs'
p5202
(dp5203
g5192
I1
sg5197
L0L
sg5198
g5201
ssS'cacheresredir'
p5204
(dp5205
g5192
I10
sg5197
L1L
sg5198
S'yes'
p5206
ssS'cacheexp'
p5207
(dp5208
g5192
I10
sg5197
L1L
sg5198
g5206
ssS'gzip'
p5209
(dp5210
g5192
I10
sg5197
L1L
sg5198
g5206
ssS'prefetch'
p5211
(dp5212
g5192
I1
sg5197
L0L
sg5198
g5201
ssS'cacheredir'
p5213
(dp5214
g5192
I1
sg5197
L0L
sg5198
g5201
ssS'parsheet'
p5215
(dp5216
g5192
I10
sg5197
L1L
sg5198
g5206
ssS'du'
p5217
(dp5218
g5192
I1
sg5197
L0L
sg5198
g5201
ssS'hostconn'
p5219
(dp5220
g5192
I10
sg5197
L4L
sg5198
g11
sssg5198
S'5/11'
p5221
ssS'OmniWeb 622.4'
p5222
(dp5223
S'total_runs'
p5224
L3L
sS'score'
p5225
I6
sS'results'
p5226
(dp5227
S'maxconn'
p5228
(dp5229
g5225
I0
sS'median'
p5230
L4L
sS'display'
p5231
g11
ssS'parscript'
p5232
(dp5233
g5225
I1
sg5230
L0L
sg5231
S'no'
p5234
ssS'parcssjs'
p5235
(dp5236
g5225
I1
sg5230
L0L
sg5231
g5234
ssS'cacheresredir'
p5237
(dp5238
g5225
I10
sg5230
L1L
sg5231
S'yes'
p5239
ssS'cacheexp'
p5240
(dp5241
g5225
I10
sg5230
L1L
sg5231
g5239
ssS'gzip'
p5242
(dp5243
g5225
I10
sg5230
L1L
sg5231
g5239
ssS'prefetch'
p5244
(dp5245
g5225
I1
sg5230
L0L
sg5231
g5234
ssS'cacheredir'
p5246
(dp5247
g5225
I10
sg5230
L1L
sg5231
g5239
ssS'parsheet'
p5248
(dp5249
g5225
I10
sg5230
L1L
sg5231
g5239
ssS'du'
p5250
(dp5251
g5225
I10
sg5230
L1L
sg5231
g5239
ssS'hostconn'
p5252
(dp5253
g5225
I10
sg5230
L4L
sg5231
g11
sssg5231
S'7/11'
p5254
ssS'Crazy Browser 3.0'
p5255
(dp5256
S'total_runs'
p5257
L3L
sS'score'
p5258
I2
sS'results'
p5259
(dp5260
S'maxconn'
p5261
(dp5262
g5258
I5
sS'median'
p5263
L16L
sS'display'
p5264
S'16'
p5265
ssS'parscript'
p5266
(dp5267
g5258
I1
sg5263
L0L
sg5264
S'no'
p5268
ssS'parcssjs'
p5269
(dp5270
g5258
I1
sg5263
L0L
sg5264
g5268
ssS'cacheresredir'
p5271
(dp5272
g5258
I1
sg5263
L0L
sg5264
g5268
ssS'cacheexp'
p5273
(dp5274
g5258
I10
sg5263
L1L
sg5264
S'yes'
p5275
ssS'gzip'
p5276
(dp5277
g5258
I1
sg5263
L0L
sg5264
g5268
ssS'prefetch'
p5278
(dp5279
g5258
I1
sg5263
L0L
sg5264
g5268
ssS'cacheredir'
p5280
(dp5281
g5258
I1
sg5263
L0L
sg5264
g5268
ssS'parsheet'
p5282
(dp5283
g5258
I1
sg5263
L0L
sg5264
g5268
ssS'du'
p5284
(dp5285
g5258
I1
sg5263
L0L
sg5264
g5268
ssS'hostconn'
p5286
(dp5287
g5258
I10
sg5263
L12L
sg5264
S'12'
p5288
sssg5264
S'2/11'
p5289
ssS'QtWeb 3.0'
p5290
(dp5291
S'total_runs'
p5292
L2L
sS'score'
p5293
I6
sS'results'
p5294
(dp5295
S'maxconn'
p5296
(dp5297
g5293
I10
sS'median'
p5298
L60L
sS'display'
p5299
S'60'
p5300
ssS'parscript'
p5301
(dp5302
g5293
I10
sg5298
L1L
sg5299
S'yes'
p5303
ssS'parcssjs'
p5304
(dp5305
g5293
I1
sg5298
L0L
sg5299
S'no'
p5306
ssS'cacheresredir'
p5307
(dp5308
g5293
I10
sg5298
L1L
sg5299
g5303
ssS'cacheexp'
p5309
(dp5310
g5293
I10
sg5298
L1L
sg5299
g5303
ssS'gzip'
p5311
(dp5312
g5293
I10
sg5298
L1L
sg5299
g5303
ssS'prefetch'
p5313
(dp5314
g5293
I1
sg5298
L0L
sg5299
g5306
ssS'cacheredir'
p5315
(dp5316
g5293
I1
sg5298
L0L
sg5299
g5306
ssS'parsheet'
p5317
(dp5318
g5293
I10
sg5298
L1L
sg5299
g5303
ssS'du'
p5319
(dp5320
g5293
I10
sg5298
L1L
sg5299
g5303
ssS'hostconn'
p5321
(dp5322
g5293
I5
sg5298
L2L
sg5299
g34
sssg5299
S'7/11'
p5323
ssS'MicroB 0.2'
p5324
(dp5325
S'total_runs'
p5326
L2L
sS'score'
p5327
I6
sS'results'
p5328
(dp5329
S'maxconn'
p5330
(dp5331
g5327
I0
sS'median'
p5332
L0L
sS'display'
p5333
g46
ssS'parscript'
p5334
(dp5335
g5327
I1
sg5332
L0L
sg5333
S'no'
p5336
ssS'parcssjs'
p5337
(dp5338
g5327
I1
sg5332
L0L
sg5333
g5336
ssS'cacheresredir'
p5339
(dp5340
g5327
I10
sg5332
L1L
sg5333
S'yes'
p5341
ssS'cacheexp'
p5342
(dp5343
g5327
I10
sg5332
L1L
sg5333
g5341
ssS'gzip'
p5344
(dp5345
g5327
I10
sg5332
L1L
sg5333
g5341
ssS'prefetch'
p5346
(dp5347
g5327
I10
sg5332
L1L
sg5333
g5341
ssS'cacheredir'
p5348
(dp5349
g5327
I1
sg5332
L0L
sg5333
g5336
ssS'parsheet'
p5350
(dp5351
g5327
I10
sg5332
L1L
sg5333
g5341
ssS'du'
p5352
(dp5353
g5327
I10
sg5332
L1L
sg5333
g5341
ssS'hostconn'
p5354
(dp5355
g5327
I10
sg5332
L4L
sg5333
g11
sssg5333
S'7/11'
p5356
ssS'MicroB 0.3'
p5357
(dp5358
S'total_runs'
p5359
L3L
sS'score'
p5360
I6
sS'results'
p5361
(dp5362
S'maxconn'
p5363
(dp5364
g5360
I10
sS'median'
p5365
L23L
sS'display'
p5366
S'23'
p5367
ssS'parscript'
p5368
(dp5369
g5360
I1
sg5365
L0L
sg5366
S'no'
p5370
ssS'parcssjs'
p5371
(dp5372
g5360
I1
sg5365
L0L
sg5366
g5370
ssS'cacheresredir'
p5373
(dp5374
g5360
I10
sg5365
L1L
sg5366
S'yes'
p5375
ssS'cacheexp'
p5376
(dp5377
g5360
I10
sg5365
L1L
sg5366
g5375
ssS'gzip'
p5378
(dp5379
g5360
I10
sg5365
L1L
sg5366
g5375
ssS'prefetch'
p5380
(dp5381
g5360
I1
sg5365
L0L
sg5366
g5370
ssS'cacheredir'
p5382
(dp5383
g5360
I1
sg5365
L0L
sg5366
g5370
ssS'parsheet'
p5384
(dp5385
g5360
I10
sg5365
L1L
sg5366
g5375
ssS'du'
p5386
(dp5387
g5360
I10
sg5365
L1L
sg5366
g5375
ssS'hostconn'
p5388
(dp5389
g5360
I10
sg5365
L3L
sg5366
S'3'
p5390
sssg5366
S'7/11'
p5391
ssS'iCab 4.2'
p5392
(dp5393
S'total_runs'
p5394
L4L
sS'score'
p5395
I6
sS'results'
p5396
(dp5397
S'maxconn'
p5398
(dp5399
g5395
I10
sS'median'
p5400
L60L
sS'display'
p5401
S'60'
p5402
ssS'parscript'
p5403
(dp5404
g5395
I1
sg5400
L0L
sg5401
S'no'
p5405
ssS'parcssjs'
p5406
(dp5407
g5395
I1
sg5400
L0L
sg5401
g5405
ssS'cacheresredir'
p5408
(dp5409
g5395
I10
sg5400
L1L
sg5401
S'yes'
p5410
ssS'cacheexp'
p5411
(dp5412
g5395
I10
sg5400
L1L
sg5401
g5410
ssS'gzip'
p5413
(dp5414
g5395
I10
sg5400
L1L
sg5401
g5410
ssS'prefetch'
p5415
(dp5416
g5395
I1
sg5400
L0L
sg5401
g5405
ssS'cacheredir'
p5417
(dp5418
g5395
I1
sg5400
L0L
sg5401
g5405
ssS'parsheet'
p5419
(dp5420
g5395
I10
sg5400
L1L
sg5401
g5410
ssS'du'
p5421
(dp5422
g5395
I10
sg5400
L1L
sg5401
g5410
ssS'hostconn'
p5423
(dp5424
g5395
I10
sg5400
L4L
sg5401
g11
sssg5401
S'7/11'
p5425
ssS'iCab 4.1'
p5426
(dp5427
S'total_runs'
p5428
L1L
sS'score'
p5429
I6
sS'results'
p5430
(dp5431
S'maxconn'
p5432
(dp5433
g5429
I10
sS'median'
p5434
L60L
sS'display'
p5435
S'60'
p5436
ssS'parscript'
p5437
(dp5438
g5429
I1
sg5434
L0L
sg5435
S'no'
p5439
ssS'parcssjs'
p5440
(dp5441
g5429
I1
sg5434
L0L
sg5435
g5439
ssS'cacheresredir'
p5442
(dp5443
g5429
I10
sg5434
L1L
sg5435
S'yes'
p5444
ssS'cacheexp'
p5445
(dp5446
g5429
I10
sg5434
L1L
sg5435
g5444
ssS'gzip'
p5447
(dp5448
g5429
I10
sg5434
L1L
sg5435
g5444
ssS'prefetch'
p5449
(dp5450
g5429
I1
sg5434
L0L
sg5435
g5439
ssS'cacheredir'
p5451
(dp5452
g5429
I1
sg5434
L0L
sg5435
g5439
ssS'parsheet'
p5453
(dp5454
g5429
I10
sg5434
L1L
sg5435
g5444
ssS'du'
p5455
(dp5456
g5429
I10
sg5434
L1L
sg5435
g5444
ssS'hostconn'
p5457
(dp5458
g5429
I10
sg5434
L4L
sg5435
g11
sssg5435
S'7/11'
p5459
ssS'IE 5.0'
p5460
(dp5461
S'total_runs'
p5462
L1L
sS'score'
p5463
I3
sS'results'
p5464
(dp5465
S'maxconn'
p5466
(dp5467
g5463
I0
sS'median'
p5468
L4L
sS'display'
p5469
g11
ssS'parscript'
p5470
(dp5471
g5463
I1
sg5468
L0L
sg5469
S'no'
p5472
ssS'parcssjs'
p5473
(dp5474
g5463
I1
sg5468
L0L
sg5469
g5472
ssS'cacheresredir'
p5475
(dp5476
g5463
I10
sg5468
L1L
sg5469
S'yes'
p5477
ssS'cacheexp'
p5478
(dp5479
g5463
I10
sg5468
L1L
sg5469
g5477
ssS'gzip'
p5480
(dp5481
g5463
I1
sg5468
L0L
sg5469
g5472
ssS'prefetch'
p5482
(dp5483
g5463
I1
sg5468
L0L
sg5469
g5472
ssS'cacheredir'
p5484
(dp5485
g5463
I1
sg5468
L0L
sg5469
g5472
ssS'parsheet'
p5486
(dp5487
g5463
I1
sg5468
L0L
sg5469
g5472
ssS'du'
p5488
(dp5489
g5463
I1
sg5468
L0L
sg5469
g5472
ssS'hostconn'
p5490
(dp5491
g5463
I10
sg5468
L4L
sg5469
g11
sssg5469
S'3/11'
p5492
ssS'Netscape 8.1'
p5493
(dp5494
S'total_runs'
p5495
L2L
sS'score'
p5496
I5
sS'results'
p5497
(dp5498
S'maxconn'
p5499
(dp5500
g5496
I10
sS'median'
p5501
L24L
sS'display'
p5502
S'24'
p5503
ssS'parscript'
p5504
(dp5505
g5496
I1
sg5501
L0L
sg5502
S'no'
p5506
ssS'parcssjs'
p5507
(dp5508
g5496
I1
sg5501
L0L
sg5502
g5506
ssS'cacheresredir'
p5509
(dp5510
g5496
I10
sg5501
L1L
sg5502
S'yes'
p5511
ssS'cacheexp'
p5512
(dp5513
g5496
I10
sg5501
L1L
sg5502
g5511
ssS'gzip'
p5514
(dp5515
g5496
I10
sg5501
L1L
sg5502
g5511
ssS'prefetch'
p5516
(dp5517
g5496
I10
sg5501
L1L
sg5502
g5511
ssS'cacheredir'
p5518
(dp5519
g5496
I1
sg5501
L0L
sg5502
g5506
ssS'parsheet'
p5520
(dp5521
g5496
I1
sg5501
L0L
sg5502
g5506
ssS'du'
p5522
(dp5523
g5496
I10
sg5501
L1L
sg5502
g5511
ssS'hostconn'
p5524
(dp5525
g5496
I5
sg5501
L2L
sg5502
g34
sssg5502
S'6/11'
p5526
ssS'Android 0.5'
p5527
(dp5528
S'total_runs'
p5529
L1L
sS'score'
p5530
I6
sS'results'
p5531
(dp5532
S'maxconn'
p5533
(dp5534
g5530
I10
sS'median'
p5535
L30L
sS'display'
p5536
S'30'
p5537
ssS'parscript'
p5538
(dp5539
g5530
I1
sg5535
L0L
sg5536
S'no'
p5540
ssS'parcssjs'
p5541
(dp5542
g5530
I1
sg5535
L0L
sg5536
g5540
ssS'cacheresredir'
p5543
(dp5544
g5530
I1
sg5535
L0L
sg5536
g5540
ssS'cacheexp'
p5545
(dp5546
g5530
I10
sg5535
L1L
sg5536
S'yes'
p5547
ssS'gzip'
p5548
(dp5549
g5530
I10
sg5535
L1L
sg5536
g5547
ssS'prefetch'
p5550
(dp5551
g5530
I10
sg5535
L1L
sg5536
g5547
ssS'cacheredir'
p5552
(dp5553
g5530
I1
sg5535
L0L
sg5536
g5540
ssS'parsheet'
p5554
(dp5555
g5530
I10
sg5535
L1L
sg5536
g5547
ssS'du'
p5556
(dp5557
g5530
I10
sg5535
L1L
sg5536
g5547
ssS'hostconn'
p5558
(dp5559
g5530
I10
sg5535
L6L
sg5536
g272
sssg5536
S'7/11'
p5560
ssS'IE 5.5'
p5561
(dp5562
S'total_runs'
p5563
L22L
sS'score'
p5564
I3
sS'results'
p5565
(dp5566
S'maxconn'
p5567
(dp5568
g5564
I10
sS'median'
p5569
L60L
sS'display'
p5570
S'60'
p5571
ssS'parscript'
p5572
(dp5573
g5564
I1
sg5569
L0L
sg5570
S'no'
p5574
ssS'parcssjs'
p5575
(dp5576
g5564
I1
sg5569
L0L
sg5570
g5574
ssS'cacheresredir'
p5577
(dp5578
g5564
I1
sg5569
L0L
sg5570
g5574
ssS'cacheexp'
p5579
(dp5580
g5564
I10
sg5569
L1L
sg5570
S'yes'
p5581
ssS'gzip'
p5582
(dp5583
g5564
I10
sg5569
L1L
sg5570
g5581
ssS'prefetch'
p5584
(dp5585
g5564
I1
sg5569
L0L
sg5570
g5574
ssS'cacheredir'
p5586
(dp5587
g5564
I1
sg5569
L0L
sg5570
g5574
ssS'parsheet'
p5588
(dp5589
g5564
I10
sg5569
L1L
sg5570
g5581
ssS'du'
p5590
(dp5591
g5564
I1
sg5569
L0L
sg5570
g5574
ssS'hostconn'
p5592
(dp5593
g5564
I5
sg5569
L2L
sg5570
g34
sssg5570
S'4/11'
p5594
ssS'IceWeasel 3.1'
p5595
(dp5596
S'total_runs'
p5597
L1L
sS'score'
p5598
I8
sS'results'
p5599
(dp5600
S'maxconn'
p5601
(dp5602
g5598
I10
sS'median'
p5603
L30L
sS'display'
p5604
S'30'
p5605
ssS'parscript'
p5606
(dp5607
g5598
I10
sg5603
L1L
sg5604
S'yes'
p5608
ssS'parcssjs'
p5609
(dp5610
g5598
I1
sg5603
L0L
sg5604
S'no'
p5611
ssS'cacheresredir'
p5612
(dp5613
g5598
I10
sg5603
L1L
sg5604
g5608
ssS'cacheexp'
p5614
(dp5615
g5598
I10
sg5603
L1L
sg5604
g5608
ssS'gzip'
p5616
(dp5617
g5598
I10
sg5603
L1L
sg5604
g5608
ssS'prefetch'
p5618
(dp5619
g5598
I10
sg5603
L1L
sg5604
g5608
ssS'cacheredir'
p5620
(dp5621
g5598
I10
sg5603
L1L
sg5604
g5608
ssS'parsheet'
p5622
(dp5623
g5598
I10
sg5603
L1L
sg5604
g5608
ssS'du'
p5624
(dp5625
g5598
I10
sg5603
L1L
sg5604
g5608
ssS'hostconn'
p5626
(dp5627
g5598
I10
sg5603
L6L
sg5604
g272
sssg5604
S'10/11'
p5628
ssS'Blackberry 8100'
p5629
(dp5630
S'total_runs'
p5631
L1L
sS'score'
p5632
I5
sS'results'
p5633
(dp5634
S'maxconn'
p5635
(dp5636
g5632
I0
sS'median'
p5637
L8L
sS'display'
p5638
g147
ssS'parscript'
p5639
(dp5640
g5632
I10
sg5637
L1L
sg5638
S'yes'
p5641
ssS'parcssjs'
p5642
(dp5643
g5632
I1
sg5637
L0L
sg5638
S'no'
p5644
ssS'cacheresredir'
p5645
(dp5646
g5632
I10
sg5637
L1L
sg5638
g5641
ssS'cacheexp'
p5647
(dp5648
g5632
I10
sg5637
L1L
sg5638
g5641
ssS'gzip'
p5649
(dp5650
g5632
I1
sg5637
L0L
sg5638
g5644
ssS'prefetch'
p5651
(dp5652
g5632
I10
sg5637
L1L
sg5638
g5641
ssS'cacheredir'
p5653
(dp5654
g5632
I1
sg5637
L0L
sg5638
g5644
ssS'parsheet'
p5655
(dp5656
g5632
I10
sg5637
L1L
sg5638
g5641
ssS'du'
p5657
(dp5658
g5632
I1
sg5637
L0L
sg5638
g5644
ssS'hostconn'
p5659
(dp5660
g5632
I10
sg5637
L8L
sg5638
g147
sssg5638
S'6/11'
p5661
ssS'Vienna 2.3'
p5662
(dp5663
S'total_runs'
p5664
L5L
sS'score'
p5665
I6
sS'results'
p5666
(dp5667
S'maxconn'
p5668
(dp5669
g5665
I10
sS'median'
p5670
L60L
sS'display'
p5671
S'60'
p5672
ssS'parscript'
p5673
(dp5674
g5665
I1
sg5670
L0L
sg5671
S'no'
p5675
ssS'parcssjs'
p5676
(dp5677
g5665
I1
sg5670
L0L
sg5671
g5675
ssS'cacheresredir'
p5678
(dp5679
g5665
I10
sg5670
L1L
sg5671
S'yes'
p5680
ssS'cacheexp'
p5681
(dp5682
g5665
I10
sg5670
L1L
sg5671
g5680
ssS'gzip'
p5683
(dp5684
g5665
I10
sg5670
L1L
sg5671
g5680
ssS'prefetch'
p5685
(dp5686
g5665
I1
sg5670
L0L
sg5671
g5675
ssS'cacheredir'
p5687
(dp5688
g5665
I1
sg5670
L0L
sg5671
g5675
ssS'parsheet'
p5689
(dp5690
g5665
I10
sg5670
L1L
sg5671
g5680
ssS'du'
p5691
(dp5692
g5665
I10
sg5670
L1L
sg5671
g5680
ssS'hostconn'
p5693
(dp5694
g5665
I10
sg5670
L4L
sg5671
g11
sssg5671
S'7/11'
p5695
ssS'IE Mobile 7.11'
p5696
(dp5697
S'total_runs'
p5698
L1L
sS'score'
p5699
I3
sS'results'
p5700
(dp5701
S'maxconn'
p5702
(dp5703
g5699
I0
sS'median'
p5704
L0L
sS'display'
p5705
g46
ssS'parscript'
p5706
(dp5707
g5699
I1
sg5704
L0L
sg5705
S'no'
p5708
ssS'parcssjs'
p5709
(dp5710
g5699
I1
sg5704
L0L
sg5705
g5708
ssS'cacheresredir'
p5711
(dp5712
g5699
I1
sg5704
L0L
sg5705
g5708
ssS'cacheexp'
p5713
(dp5714
g5699
I10
sg5704
L1L
sg5705
S'yes'
p5715
ssS'gzip'
p5716
(dp5717
g5699
I1
sg5704
L0L
sg5705
g5708
ssS'prefetch'
p5718
(dp5719
g5699
I10
sg5704
L1L
sg5705
g5715
ssS'cacheredir'
p5720
(dp5721
g5699
I1
sg5704
L0L
sg5705
g5708
ssS'parsheet'
p5722
(dp5723
g5699
I10
sg5704
L1L
sg5705
g5715
ssS'du'
p5724
(dp5725
g5699
I1
sg5704
L0L
sg5705
g5708
ssS'hostconn'
p5726
(dp5727
g5699
I0
sg5704
L0L
sg5705
g46
sssg5705
S'3/11'
p5728
ssS'Konqueror 4.3'
p5729
(dp5730
S'total_runs'
p5731
L2L
sS'score'
p5732
I5
sS'results'
p5733
(dp5734
S'maxconn'
p5735
(dp5736
g5732
I0
sS'median'
p5737
L6L
sS'display'
p5738
g272
ssS'parscript'
p5739
(dp5740
g5732
I1
sg5737
L0L
sg5738
S'no'
p5741
ssS'parcssjs'
p5742
(dp5743
g5732
I1
sg5737
L0L
sg5738
g5741
ssS'cacheresredir'
p5744
(dp5745
g5732
I10
sg5737
L1L
sg5738
S'yes'
p5746
ssS'cacheexp'
p5747
(dp5748
g5732
I10
sg5737
L1L
sg5738
g5746
ssS'gzip'
p5749
(dp5750
g5732
I10
sg5737
L1L
sg5738
g5746
ssS'prefetch'
p5751
(dp5752
g5732
I1
sg5737
L0L
sg5738
g5741
ssS'cacheredir'
p5753
(dp5754
g5732
I1
sg5737
L0L
sg5738
g5741
ssS'parsheet'
p5755
(dp5756
g5732
I10
sg5737
L1L
sg5738
g5746
ssS'du'
p5757
(dp5758
g5732
I10
sg5737
L1L
sg5738
g5746
ssS'hostconn'
p5759
(dp5760
g5732
I10
sg5737
L3L
sg5738
g5390
sssg5738
S'6/11'
p5761
ssS'Konqueror 4.2'
p5762
(dp5763
S'total_runs'
p5764
L14L
sS'score'
p5765
I5
sS'results'
p5766
(dp5767
S'maxconn'
p5768
(dp5769
g5765
I0
sS'median'
p5770
L5L
sS'display'
p5771
g1054
ssS'parscript'
p5772
(dp5773
g5765
I1
sg5770
L0L
sg5771
S'no'
p5774
ssS'parcssjs'
p5775
(dp5776
g5765
I1
sg5770
L0L
sg5771
g5774
ssS'cacheresredir'
p5777
(dp5778
g5765
I10
sg5770
L1L
sg5771
S'yes'
p5779
ssS'cacheexp'
p5780
(dp5781
g5765
I10
sg5770
L1L
sg5771
g5779
ssS'gzip'
p5782
(dp5783
g5765
I10
sg5770
L1L
sg5771
g5779
ssS'prefetch'
p5784
(dp5785
g5765
I1
sg5770
L0L
sg5771
g5774
ssS'cacheredir'
p5786
(dp5787
g5765
I1
sg5770
L0L
sg5771
g5774
ssS'parsheet'
p5788
(dp5789
g5765
I10
sg5770
L1L
sg5771
g5779
ssS'du'
p5790
(dp5791
g5765
I10
sg5770
L1L
sg5771
g5779
ssS'hostconn'
p5792
(dp5793
g5765
I10
sg5770
L5L
sg5771
g1054
sssg5771
S'6/11'
p5794
ssS'OmniWeb 563.34'
p5795
(dp5796
S'total_runs'
p5797
L1L
sS'score'
p5798
I4
sS'results'
p5799
(dp5800
S'maxconn'
p5801
(dp5802
g5798
I5
sS'median'
p5803
L10L
sS'display'
p5804
S'10'
p5805
ssS'parscript'
p5806
(dp5807
g5798
I1
sg5803
L0L
sg5804
S'no'
p5808
ssS'parcssjs'
p5809
(dp5810
g5798
I1
sg5803
L0L
sg5804
g5808
ssS'cacheresredir'
p5811
(dp5812
g5798
I10
sg5803
L1L
sg5804
S'yes'
p5813
ssS'cacheexp'
p5814
(dp5815
g5798
I10
sg5803
L1L
sg5804
g5813
ssS'gzip'
p5816
(dp5817
g5798
I10
sg5803
L1L
sg5804
g5813
ssS'prefetch'
p5818
(dp5819
g5798
I1
sg5803
L0L
sg5804
g5808
ssS'cacheredir'
p5820
(dp5821
g5798
I1
sg5803
L0L
sg5804
g5808
ssS'parsheet'
p5822
(dp5823
g5798
I1
sg5803
L0L
sg5804
g5808
ssS'du'
p5824
(dp5825
g5798
I10
sg5803
L1L
sg5804
g5813
ssS'hostconn'
p5826
(dp5827
g5798
I10
sg5803
L4L
sg5804
g11
sssg5804
S'5/11'
p5828
ssS'Konqueror 4.1'
p5829
(dp5830
S'total_runs'
p5831
L45L
sS'score'
p5832
I6
sS'results'
p5833
(dp5834
S'maxconn'
p5835
(dp5836
g5832
I0
sS'median'
p5837
L5L
sS'display'
p5838
g1054
ssS'parscript'
p5839
(dp5840
g5832
I10
sg5837
L1L
sg5838
S'yes'
p5841
ssS'parcssjs'
p5842
(dp5843
g5832
I1
sg5837
L0L
sg5838
S'no'
p5844
ssS'cacheresredir'
p5845
(dp5846
g5832
I10
sg5837
L1L
sg5838
g5841
ssS'cacheexp'
p5847
(dp5848
g5832
I10
sg5837
L1L
sg5838
g5841
ssS'gzip'
p5849
(dp5850
g5832
I10
sg5837
L1L
sg5838
g5841
ssS'prefetch'
p5851
(dp5852
g5832
I1
sg5837
L0L
sg5838
g5844
ssS'cacheredir'
p5853
(dp5854
g5832
I1
sg5837
L0L
sg5838
g5844
ssS'parsheet'
p5855
(dp5856
g5832
I10
sg5837
L1L
sg5838
g5841
ssS'du'
p5857
(dp5858
g5832
I10
sg5837
L1L
sg5838
g5841
ssS'hostconn'
p5859
(dp5860
g5832
I10
sg5837
L5L
sg5838
g1054
sssg5838
S'7/11'
p5861
ssS'Safari 3.1'
p5862
(dp5863
S'total_runs'
p5864
L226L
sS'score'
p5865
I6
sS'results'
p5866
(dp5867
S'maxconn'
p5868
(dp5869
g5865
I10
sS'median'
p5870
L60L
sS'display'
p5871
S'60'
p5872
ssS'parscript'
p5873
(dp5874
g5865
I1
sg5870
L0L
sg5871
S'no'
p5875
ssS'parcssjs'
p5876
(dp5877
g5865
I1
sg5870
L0L
sg5871
g5875
ssS'cacheresredir'
p5878
(dp5879
g5865
I10
sg5870
L1L
sg5871
S'yes'
p5880
ssS'cacheexp'
p5881
(dp5882
g5865
I10
sg5870
L1L
sg5871
g5880
ssS'gzip'
p5883
(dp5884
g5865
I10
sg5870
L1L
sg5871
g5880
ssS'prefetch'
p5885
(dp5886
g5865
I1
sg5870
L0L
sg5871
g5875
ssS'cacheredir'
p5887
(dp5888
g5865
I1
sg5870
L0L
sg5871
g5875
ssS'parsheet'
p5889
(dp5890
g5865
I10
sg5870
L1L
sg5871
g5880
ssS'du'
p5891
(dp5892
g5865
I10
sg5870
L1L
sg5871
g5880
ssS'hostconn'
p5893
(dp5894
g5865
I10
sg5870
L4L
sg5871
g11
sssg5871
S'7/11'
p5895
ssS'Safari 3.0'
p5896
(dp5897
S'total_runs'
p5898
L24L
sS'score'
p5899
I5
sS'results'
p5900
(dp5901
S'maxconn'
p5902
(dp5903
g5899
I10
sS'median'
p5904
L58L
sS'display'
p5905
S'58'
p5906
ssS'parscript'
p5907
(dp5908
g5899
I1
sg5904
L0L
sg5905
S'no'
p5909
ssS'parcssjs'
p5910
(dp5911
g5899
I1
sg5904
L0L
sg5905
g5909
ssS'cacheresredir'
p5912
(dp5913
g5899
I1
sg5904
L0L
sg5905
g5909
ssS'cacheexp'
p5914
(dp5915
g5899
I10
sg5904
L1L
sg5905
S'yes'
p5916
ssS'gzip'
p5917
(dp5918
g5899
I10
sg5904
L1L
sg5905
g5916
ssS'prefetch'
p5919
(dp5920
g5899
I1
sg5904
L0L
sg5905
g5909
ssS'cacheredir'
p5921
(dp5922
g5899
I1
sg5904
L0L
sg5905
g5909
ssS'parsheet'
p5923
(dp5924
g5899
I10
sg5904
L1L
sg5905
g5916
ssS'du'
p5925
(dp5926
g5899
I10
sg5904
L1L
sg5905
g5916
ssS'hostconn'
p5927
(dp5928
g5899
I10
sg5904
L4L
sg5905
g11
sssg5905
S'6/11'
p5929
ssS'Phoenix 0.4'
p5930
(dp5931
S'total_runs'
p5932
L1L
sS'score'
p5933
I4
sS'results'
p5934
(dp5935
S'maxconn'
p5936
(dp5937
g5933
I10
sS'median'
p5938
L24L
sS'display'
p5939
S'24'
p5940
ssS'parscript'
p5941
(dp5942
g5933
I1
sg5938
L0L
sg5939
S'no'
p5943
ssS'parcssjs'
p5944
(dp5945
g5933
I1
sg5938
L0L
sg5939
g5943
ssS'cacheresredir'
p5946
(dp5947
g5933
I10
sg5938
L1L
sg5939
S'yes'
p5948
ssS'cacheexp'
p5949
(dp5950
g5933
I10
sg5938
L1L
sg5939
g5948
ssS'gzip'
p5951
(dp5952
g5933
I10
sg5938
L1L
sg5939
g5948
ssS'prefetch'
p5953
(dp5954
g5933
I1
sg5938
L0L
sg5939
g5943
ssS'cacheredir'
p5955
(dp5956
g5933
I1
sg5938
L0L
sg5939
g5943
ssS'parsheet'
p5957
(dp5958
g5933
I1
sg5938
L0L
sg5939
g5943
ssS'du'
p5959
(dp5960
g5933
I10
sg5938
L1L
sg5939
g5948
ssS'hostconn'
p5961
(dp5962
g5933
I5
sg5938
L2L
sg5939
g34
sssg5939
S'5/11'
p5963
ssS'Konqueror 4.0'
p5964
(dp5965
S'total_runs'
p5966
L1L
sS'score'
p5967
I4
sS'results'
p5968
(dp5969
S'maxconn'
p5970
(dp5971
g5967
I0
sS'median'
p5972
L5L
sS'display'
p5973
g1054
ssS'parscript'
p5974
(dp5975
g5967
I1
sg5972
L0L
sg5973
S'no'
p5976
ssS'parcssjs'
p5977
(dp5978
g5967
I1
sg5972
L0L
sg5973
g5976
ssS'cacheresredir'
p5979
(dp5980
g5967
I10
sg5972
L1L
sg5973
S'yes'
p5981
ssS'cacheexp'
p5982
(dp5983
g5967
I10
sg5972
L1L
sg5973
g5981
ssS'gzip'
p5984
(dp5985
g5967
I10
sg5972
L1L
sg5973
g5981
ssS'prefetch'
p5986
(dp5987
g5967
I1
sg5972
L0L
sg5973
g5976
ssS'cacheredir'
p5988
(dp5989
g5967
I1
sg5972
L0L
sg5973
g5976
ssS'parsheet'
p5990
(dp5991
g5967
I10
sg5972
L1L
sg5973
g5981
ssS'du'
p5992
(dp5993
g5967
I1
sg5972
L0L
sg5973
g5976
ssS'hostconn'
p5994
(dp5995
g5967
I10
sg5972
L5L
sg5973
g1054
sssg5973
S'5/11'
p5996
ssS'Phoenix 0.1'
p5997
(dp5998
S'total_runs'
p5999
L1L
sS'score'
p6000
I4
sS'results'
p6001
(dp6002
S'maxconn'
p6003
(dp6004
g6000
I10
sS'median'
p6005
L24L
sS'display'
p6006
S'24'
p6007
ssS'parscript'
p6008
(dp6009
g6000
I1
sg6005
L0L
sg6006
S'no'
p6010
ssS'parcssjs'
p6011
(dp6012
g6000
I1
sg6005
L0L
sg6006
g6010
ssS'cacheresredir'
p6013
(dp6014
g6000
I10
sg6005
L1L
sg6006
S'yes'
p6015
ssS'cacheexp'
p6016
(dp6017
g6000
I10
sg6005
L1L
sg6006
g6015
ssS'gzip'
p6018
(dp6019
g6000
I10
sg6005
L1L
sg6006
g6015
ssS'prefetch'
p6020
(dp6021
g6000
I1
sg6005
L0L
sg6006
g6010
ssS'cacheredir'
p6022
(dp6023
g6000
I1
sg6005
L0L
sg6006
g6010
ssS'parsheet'
p6024
(dp6025
g6000
I1
sg6005
L0L
sg6006
g6010
ssS'du'
p6026
(dp6027
g6000
I10
sg6005
L1L
sg6006
g6015
ssS'hostconn'
p6028
(dp6029
g6000
I5
sg6005
L2L
sg6006
g34
sssg6006
S'5/11'
p6030
ssS'IE 9.0'
p6031
(dp6032
S'total_runs'
p6033
L1L
sS'score'
p6034
I3
sS'results'
p6035
(dp6036
S'maxconn'
p6037
(dp6038
g6034
I10
sS'median'
p6039
L60L
sS'display'
p6040
S'60'
p6041
ssS'parscript'
p6042
(dp6043
g6034
I1
sg6039
L0L
sg6040
S'no'
p6044
ssS'parcssjs'
p6045
(dp6046
g6034
I1
sg6039
L0L
sg6040
g6044
ssS'cacheresredir'
p6047
(dp6048
g6034
I1
sg6039
L0L
sg6040
g6044
ssS'cacheexp'
p6049
(dp6050
g6034
I10
sg6039
L1L
sg6040
S'yes'
p6051
ssS'gzip'
p6052
(dp6053
g6034
I10
sg6039
L1L
sg6040
g6051
ssS'prefetch'
p6054
(dp6055
g6034
I1
sg6039
L0L
sg6040
g6044
ssS'cacheredir'
p6056
(dp6057
g6034
I1
sg6039
L0L
sg6040
g6044
ssS'parsheet'
p6058
(dp6059
g6034
I1
sg6039
L0L
sg6040
g6044
ssS'du'
p6060
(dp6061
g6034
I1
sg6039
L0L
sg6040
g6044
ssS'hostconn'
p6062
(dp6063
g6034
I10
sg6039
L8L
sg6040
g147
sssg6040
S'4/11'
p6064
ssS'NetNewsWire 2.1'
p6065
(dp6066
S'total_runs'
p6067
L1L
sS'score'
p6068
I6
sS'results'
p6069
(dp6070
S'maxconn'
p6071
(dp6072
g6068
I10
sS'median'
p6073
L31L
sS'display'
p6074
S'31'
p6075
ssS'parscript'
p6076
(dp6077
g6068
I1
sg6073
L0L
sg6074
S'no'
p6078
ssS'parcssjs'
p6079
(dp6080
g6068
I1
sg6073
L0L
sg6074
g6078
ssS'cacheresredir'
p6081
(dp6082
g6068
I10
sg6073
L1L
sg6074
S'yes'
p6083
ssS'cacheexp'
p6084
(dp6085
g6068
I10
sg6073
L1L
sg6074
g6083
ssS'gzip'
p6086
(dp6087
g6068
I10
sg6073
L1L
sg6074
g6083
ssS'prefetch'
p6088
(dp6089
g6068
I1
sg6073
L0L
sg6074
g6078
ssS'cacheredir'
p6090
(dp6091
g6068
I1
sg6073
L0L
sg6074
g6078
ssS'parsheet'
p6092
(dp6093
g6068
I10
sg6073
L1L
sg6074
g6083
ssS'du'
p6094
(dp6095
g6068
I10
sg6073
L1L
sg6074
g6083
ssS'hostconn'
p6096
(dp6097
g6068
I10
sg6073
L3L
sg6074
g5390
sssg6074
S'7/11'
p6098
ssS'Opera 7.11'
p6099
(dp6100
S'total_runs'
p6101
L2L
sS'score'
p6102
I3
sS'results'
p6103
(dp6104
S'maxconn'
p6105
(dp6106
g6102
I5
sS'median'
p6107
L20L
sS'display'
p6108
S'20'
p6109
ssS'parscript'
p6110
(dp6111
g6102
I1
sg6107
L0L
sg6108
S'no'
p6112
ssS'parcssjs'
p6113
(dp6114
g6102
I1
sg6107
L0L
sg6108
g6112
ssS'cacheresredir'
p6115
(dp6116
g6102
I1
sg6107
L0L
sg6108
g6112
ssS'cacheexp'
p6117
(dp6118
g6102
I1
sg6107
L0L
sg6108
g6112
ssS'gzip'
p6119
(dp6120
g6102
I10
sg6107
L1L
sg6108
S'yes'
p6121
ssS'prefetch'
p6122
(dp6123
g6102
I1
sg6107
L0L
sg6108
g6112
ssS'cacheredir'
p6124
(dp6125
g6102
I1
sg6107
L0L
sg6108
g6112
ssS'parsheet'
p6126
(dp6127
g6102
I10
sg6107
L1L
sg6108
g6121
ssS'du'
p6128
(dp6129
g6102
I1
sg6107
L0L
sg6108
g6112
ssS'hostconn'
p6130
(dp6131
g6102
I10
sg6107
L4L
sg6108
g11
sssg6108
S'3/11'
p6132
ssS'Arora 0.5'
p6133
(dp6134
S'total_runs'
p6135
L1L
sS'score'
p6136
I5
sS'results'
p6137
(dp6138
S'maxconn'
p6139
(dp6140
g6136
I10
sS'median'
p6141
L53L
sS'display'
p6142
S'53'
p6143
ssS'parscript'
p6144
(dp6145
g6136
I1
sg6141
L0L
sg6142
S'no'
p6146
ssS'parcssjs'
p6147
(dp6148
g6136
I1
sg6141
L0L
sg6142
g6146
ssS'cacheresredir'
p6149
(dp6150
g6136
I10
sg6141
L1L
sg6142
S'yes'
p6151
ssS'cacheexp'
p6152
(dp6153
g6136
I10
sg6141
L1L
sg6142
g6151
ssS'gzip'
p6154
(dp6155
g6136
I10
sg6141
L1L
sg6142
g6151
ssS'prefetch'
p6156
(dp6157
g6136
I1
sg6141
L0L
sg6142
g6146
ssS'cacheredir'
p6158
(dp6159
g6136
I1
sg6141
L0L
sg6142
g6146
ssS'parsheet'
p6160
(dp6161
g6136
I10
sg6141
L1L
sg6142
g6151
ssS'du'
p6162
(dp6163
g6136
I10
sg6141
L1L
sg6142
g6151
ssS'hostconn'
p6164
(dp6165
g6136
I5
sg6141
L2L
sg6142
g34
sssg6142
S'6/11'
p6166
ssS'Arora 0.7'
p6167
(dp6168
S'total_runs'
p6169
L2L
sS'score'
p6170
I6
sS'results'
p6171
(dp6172
S'maxconn'
p6173
(dp6174
g6170
I10
sS'median'
p6175
L60L
sS'display'
p6176
S'60'
p6177
ssS'parscript'
p6178
(dp6179
g6170
I10
sg6175
L1L
sg6176
S'yes'
p6180
ssS'parcssjs'
p6181
(dp6182
g6170
I1
sg6175
L0L
sg6176
S'no'
p6183
ssS'cacheresredir'
p6184
(dp6185
g6170
I10
sg6175
L1L
sg6176
g6180
ssS'cacheexp'
p6186
(dp6187
g6170
I10
sg6175
L1L
sg6176
g6180
ssS'gzip'
p6188
(dp6189
g6170
I10
sg6175
L1L
sg6176
g6180
ssS'prefetch'
p6190
(dp6191
g6170
I1
sg6175
L0L
sg6176
g6183
ssS'cacheredir'
p6192
(dp6193
g6170
I1
sg6175
L0L
sg6176
g6183
ssS'parsheet'
p6194
(dp6195
g6170
I10
sg6175
L1L
sg6176
g6180
ssS'du'
p6196
(dp6197
g6170
I10
sg6175
L1L
sg6176
g6180
ssS'hostconn'
p6198
(dp6199
g6170
I5
sg6175
L2L
sg6176
g34
sssg6176
S'7/11'
p6200
ssS'IE 4.01'
p6201
(dp6202
S'total_runs'
p6203
L2L
sS'score'
p6204
I0
sS'results'
p6205
(dp6206
S'maxconn'
p6207
(dp6208
g6204
I0
sS'median'
p6209
NsS'display'
p6210
g1236
ssS'parscript'
p6211
(dp6212
g6204
I0
sg6209
Nsg6210
g1236
ssS'parcssjs'
p6213
(dp6214
g6204
I0
sg6209
Nsg6210
g1236
ssS'cacheresredir'
p6215
(dp6216
g6204
I0
sg6209
Nsg6210
g1236
ssS'cacheexp'
p6217
(dp6218
g6204
I0
sg6209
Nsg6210
g1236
ssS'gzip'
p6219
(dp6220
g6204
I0
sg6209
Nsg6210
g1236
ssS'prefetch'
p6221
(dp6222
g6204
I0
sg6209
Nsg6210
g1236
ssS'cacheredir'
p6223
(dp6224
g6204
I0
sg6209
Nsg6210
g1236
ssS'parsheet'
p6225
(dp6226
g6204
I0
sg6209
Nsg6210
g1236
ssS'du'
p6227
(dp6228
g6204
I0
sg6209
Nsg6210
g1236
ssS'hostconn'
p6229
(dp6230
g6204
I0
sg6209
Nsg6210
g1236
sssg6210
S'0/11'
p6231
ssS'Safari 3.2'
p6232
(dp6233
S'total_runs'
p6234
L561L
sS'score'
p6235
I6
sS'results'
p6236
(dp6237
S'maxconn'
p6238
(dp6239
g6235
I10
sS'median'
p6240
L60L
sS'display'
p6241
S'60'
p6242
ssS'parscript'
p6243
(dp6244
g6235
I1
sg6240
L0L
sg6241
S'no'
p6245
ssS'parcssjs'
p6246
(dp6247
g6235
I1
sg6240
L0L
sg6241
g6245
ssS'cacheresredir'
p6248
(dp6249
g6235
I10
sg6240
L1L
sg6241
S'yes'
p6250
ssS'cacheexp'
p6251
(dp6252
g6235
I10
sg6240
L1L
sg6241
g6250
ssS'gzip'
p6253
(dp6254
g6235
I10
sg6240
L1L
sg6241
g6250
ssS'prefetch'
p6255
(dp6256
g6235
I1
sg6240
L0L
sg6241
g6245
ssS'cacheredir'
p6257
(dp6258
g6235
I1
sg6240
L0L
sg6241
g6245
ssS'parsheet'
p6259
(dp6260
g6235
I10
sg6240
L1L
sg6241
g6250
ssS'du'
p6261
(dp6262
g6235
I10
sg6240
L1L
sg6241
g6250
ssS'hostconn'
p6263
(dp6264
g6235
I10
sg6240
L4L
sg6241
g11
sssg6241
S'7/11'
p6265
ssS'Maxthon 2.0'
p6266
(dp6267
S'total_runs'
p6268
L36L
sS'score'
p6269
I3
sS'results'
p6270
(dp6271
S'maxconn'
p6272
(dp6273
g6269
I10
sS'median'
p6274
L60L
sS'display'
p6275
S'60'
p6276
ssS'parscript'
p6277
(dp6278
g6269
I1
sg6274
L0L
sg6275
S'no'
p6279
ssS'parcssjs'
p6280
(dp6281
g6269
I1
sg6274
L0L
sg6275
g6279
ssS'cacheresredir'
p6282
(dp6283
g6269
I1
sg6274
L0L
sg6275
g6279
ssS'cacheexp'
p6284
(dp6285
g6269
I10
sg6274
L1L
sg6275
S'yes'
p6286
ssS'gzip'
p6287
(dp6288
g6269
I10
sg6274
L1L
sg6275
g6286
ssS'prefetch'
p6289
(dp6290
g6269
I1
sg6274
L0L
sg6275
g6279
ssS'cacheredir'
p6291
(dp6292
g6269
I1
sg6274
L0L
sg6275
g6279
ssS'parsheet'
p6293
(dp6294
g6269
I1
sg6274
L0L
sg6275
g6279
ssS'du'
p6295
(dp6296
g6269
I1
sg6274
L0L
sg6275
g6279
ssS'hostconn'
p6297
(dp6298
g6269
I10
sg6274
L6L
sg6275
g272
sssg6275
S'4/11'
p6299
ssS'Arora 0.9'
p6300
(dp6301
S'total_runs'
p6302
L1L
sS'score'
p6303
I6
sS'results'
p6304
(dp6305
S'maxconn'
p6306
(dp6307
g6303
I10
sS'median'
p6308
L60L
sS'display'
p6309
S'60'
p6310
ssS'parscript'
p6311
(dp6312
g6303
I10
sg6308
L1L
sg6309
S'yes'
p6313
ssS'parcssjs'
p6314
(dp6315
g6303
I1
sg6308
L0L
sg6309
S'no'
p6316
ssS'cacheresredir'
p6317
(dp6318
g6303
I10
sg6308
L1L
sg6309
g6313
ssS'cacheexp'
p6319
(dp6320
g6303
I10
sg6308
L1L
sg6309
g6313
ssS'gzip'
p6321
(dp6322
g6303
I10
sg6308
L1L
sg6309
g6313
ssS'prefetch'
p6323
(dp6324
g6303
I1
sg6308
L0L
sg6309
g6316
ssS'cacheredir'
p6325
(dp6326
g6303
I1
sg6308
L0L
sg6309
g6316
ssS'parsheet'
p6327
(dp6328
g6303
I10
sg6308
L1L
sg6309
g6313
ssS'du'
p6329
(dp6330
g6303
I10
sg6308
L1L
sg6309
g6313
ssS'hostconn'
p6331
(dp6332
g6303
I5
sg6308
L2L
sg6309
g34
sssg6309
S'7/11'
p6333
ssS'Opera 9.00'
p6334
(dp6335
S'total_runs'
p6336
L5L
sS'score'
p6337
I5
sS'results'
p6338
(dp6339
S'maxconn'
p6340
(dp6341
g6337
I5
sS'median'
p6342
L20L
sS'display'
p6343
S'20'
p6344
ssS'parscript'
p6345
(dp6346
g6337
I10
sg6342
L1L
sg6343
S'yes'
p6347
ssS'parcssjs'
p6348
(dp6349
g6337
I1
sg6342
L0L
sg6343
S'no'
p6350
ssS'cacheresredir'
p6351
(dp6352
g6337
I1
sg6342
L0L
sg6343
g6350
ssS'cacheexp'
p6353
(dp6354
g6337
I10
sg6342
L1L
sg6343
g6347
ssS'gzip'
p6355
(dp6356
g6337
I10
sg6342
L1L
sg6343
g6347
ssS'prefetch'
p6357
(dp6358
g6337
I1
sg6342
L0L
sg6343
g6350
ssS'cacheredir'
p6359
(dp6360
g6337
I1
sg6342
L0L
sg6343
g6350
ssS'parsheet'
p6361
(dp6362
g6337
I10
sg6342
L1L
sg6343
g6347
ssS'du'
p6363
(dp6364
g6337
I10
sg6342
L1L
sg6343
g6347
ssS'hostconn'
p6365
(dp6366
g6337
I10
sg6342
L4L
sg6343
g11
sssg6343
S'6/11'
p6367
ssS'Opera 9.01'
p6368
(dp6369
S'total_runs'
p6370
L1L
sS'score'
p6371
I3
sS'results'
p6372
(dp6373
S'maxconn'
p6374
(dp6375
g6371
I0
sS'median'
p6376
L4L
sS'display'
p6377
g11
ssS'parscript'
p6378
(dp6379
g6371
I1
sg6376
L0L
sg6377
S'no'
p6380
ssS'parcssjs'
p6381
(dp6382
g6371
I1
sg6376
L0L
sg6377
g6380
ssS'cacheresredir'
p6383
(dp6384
g6371
I1
sg6376
L0L
sg6377
g6380
ssS'cacheexp'
p6385
(dp6386
g6371
I10
sg6376
L1L
sg6377
S'yes'
p6387
ssS'gzip'
p6388
(dp6389
g6371
I10
sg6376
L1L
sg6377
g6387
ssS'prefetch'
p6390
(dp6391
g6371
I1
sg6376
L0L
sg6377
g6380
ssS'cacheredir'
p6392
(dp6393
g6371
I1
sg6376
L0L
sg6377
g6380
ssS'parsheet'
p6394
(dp6395
g6371
I10
sg6376
L1L
sg6377
g6387
ssS'du'
p6396
(dp6397
g6371
I10
sg6376
L1L
sg6377
g6387
ssS'hostconn'
p6398
(dp6399
g6371
I0
sg6376
L1L
sg6377
g385
sssg6377
S'4/11'
p6400
ssS'Opera 9.02'
p6401
(dp6402
S'total_runs'
p6403
L2L
sS'score'
p6404
I4
sS'results'
p6405
(dp6406
S'maxconn'
p6407
(dp6408
g6404
I10
sS'median'
p6409
L32L
sS'display'
p6410
S'32'
p6411
ssS'parscript'
p6412
(dp6413
g6404
I1
sg6409
L0L
sg6410
S'no'
p6414
ssS'parcssjs'
p6415
(dp6416
g6404
I1
sg6409
L0L
sg6410
g6414
ssS'cacheresredir'
p6417
(dp6418
g6404
I1
sg6409
L0L
sg6410
g6414
ssS'cacheexp'
p6419
(dp6420
g6404
I10
sg6409
L1L
sg6410
S'yes'
p6421
ssS'gzip'
p6422
(dp6423
g6404
I1
sg6409
L0L
sg6410
g6414
ssS'prefetch'
p6424
(dp6425
g6404
I1
sg6409
L0L
sg6410
g6414
ssS'cacheredir'
p6426
(dp6427
g6404
I1
sg6409
L0L
sg6410
g6414
ssS'parsheet'
p6428
(dp6429
g6404
I10
sg6409
L1L
sg6410
g6421
ssS'du'
p6430
(dp6431
g6404
I10
sg6409
L1L
sg6410
g6421
ssS'hostconn'
p6432
(dp6433
g6404
I10
sg6409
L4L
sg6410
g11
sssg6410
S'5/11'
p6434
ssS'My Internet Browser 3.0'
p6435
(dp6436
S'total_runs'
p6437
L1L
sS'score'
p6438
I6
sS'results'
p6439
(dp6440
S'maxconn'
p6441
(dp6442
g6438
I10
sS'median'
p6443
L30L
sS'display'
p6444
S'30'
p6445
ssS'parscript'
p6446
(dp6447
g6438
I1
sg6443
L0L
sg6444
S'no'
p6448
ssS'parcssjs'
p6449
(dp6450
g6438
I1
sg6443
L0L
sg6444
g6448
ssS'cacheresredir'
p6451
(dp6452
g6438
I1
sg6443
L0L
sg6444
g6448
ssS'cacheexp'
p6453
(dp6454
g6438
I10
sg6443
L1L
sg6444
S'yes'
p6455
ssS'gzip'
p6456
(dp6457
g6438
I10
sg6443
L1L
sg6444
g6455
ssS'prefetch'
p6458
(dp6459
g6438
I10
sg6443
L1L
sg6444
g6455
ssS'cacheredir'
p6460
(dp6461
g6438
I1
sg6443
L0L
sg6444
g6448
ssS'parsheet'
p6462
(dp6463
g6438
I10
sg6443
L1L
sg6444
g6455
ssS'du'
p6464
(dp6465
g6438
I10
sg6443
L1L
sg6444
g6455
ssS'hostconn'
p6466
(dp6467
g6438
I10
sg6443
L6L
sg6444
g272
sssg6444
S'7/11'
p6468
ssS'Uzbl 0'
p6469
(dp6470
S'total_runs'
p6471
L6L
sS'score'
p6472
I4
sS'results'
p6473
(dp6474
S'maxconn'
p6475
(dp6476
g6472
I5
sS'median'
p6477
L10L
sS'display'
p6478
S'10'
p6479
ssS'parscript'
p6480
(dp6481
g6472
I10
sg6477
L1L
sg6478
S'yes'
p6482
ssS'parcssjs'
p6483
(dp6484
g6472
I1
sg6477
L0L
sg6478
S'no'
p6485
ssS'cacheresredir'
p6486
(dp6487
g6472
I10
sg6477
L1L
sg6478
g6482
ssS'cacheexp'
p6488
(dp6489
g6472
I10
sg6477
L1L
sg6478
g6482
ssS'gzip'
p6490
(dp6491
g6472
I1
sg6477
L0L
sg6478
g6485
ssS'prefetch'
p6492
(dp6493
g6472
I1
sg6477
L0L
sg6478
g6485
ssS'cacheredir'
p6494
(dp6495
g6472
I1
sg6477
L0L
sg6478
g6485
ssS'parsheet'
p6496
(dp6497
g6472
I10
sg6477
L1L
sg6478
g6482
ssS'du'
p6498
(dp6499
g6472
I10
sg6477
L1L
sg6478
g6482
ssS'hostconn'
p6500
(dp6501
g6472
I5
sg6477
L2L
sg6478
g34
sssg6478
S'5/11'
p6502
ssS'IE 5.23'
p6503
(dp6504
S'total_runs'
p6505
L6L
sS'score'
p6506
I3
sS'results'
p6507
(dp6508
S'maxconn'
p6509
(dp6510
g6506
I0
sS'median'
p6511
L4L
sS'display'
p6512
g11
ssS'parscript'
p6513
(dp6514
g6506
I1
sg6511
L0L
sg6512
S'no'
p6515
ssS'parcssjs'
p6516
(dp6517
g6506
I1
sg6511
L0L
sg6512
g6515
ssS'cacheresredir'
p6518
(dp6519
g6506
I10
sg6511
L1L
sg6512
S'yes'
p6520
ssS'cacheexp'
p6521
(dp6522
g6506
I10
sg6511
L1L
sg6512
g6520
ssS'gzip'
p6523
(dp6524
g6506
I1
sg6511
L0L
sg6512
g6515
ssS'prefetch'
p6525
(dp6526
g6506
I1
sg6511
L0L
sg6512
g6515
ssS'cacheredir'
p6527
(dp6528
g6506
I1
sg6511
L0L
sg6512
g6515
ssS'parsheet'
p6529
(dp6530
g6506
I1
sg6511
L0L
sg6512
g6515
ssS'du'
p6531
(dp6532
g6506
I1
sg6511
L0L
sg6512
g6515
ssS'hostconn'
p6533
(dp6534
g6506
I10
sg6511
L4L
sg6512
g11
sssg6512
S'3/11'
p6535
ssS'Opera 9.26'
p6536
(dp6537
S'total_runs'
p6538
L7L
sS'score'
p6539
I4
sS'results'
p6540
(dp6541
S'maxconn'
p6542
(dp6543
g6539
I5
sS'median'
p6544
L20L
sS'display'
p6545
S'20'
p6546
ssS'parscript'
p6547
(dp6548
g6539
I1
sg6544
L0L
sg6545
S'no'
p6549
ssS'parcssjs'
p6550
(dp6551
g6539
I1
sg6544
L0L
sg6545
g6549
ssS'cacheresredir'
p6552
(dp6553
g6539
I1
sg6544
L0L
sg6545
g6549
ssS'cacheexp'
p6554
(dp6555
g6539
I10
sg6544
L1L
sg6545
S'yes'
p6556
ssS'gzip'
p6557
(dp6558
g6539
I10
sg6544
L1L
sg6545
g6556
ssS'prefetch'
p6559
(dp6560
g6539
I1
sg6544
L0L
sg6545
g6549
ssS'cacheredir'
p6561
(dp6562
g6539
I1
sg6544
L0L
sg6545
g6549
ssS'parsheet'
p6563
(dp6564
g6539
I10
sg6544
L1L
sg6545
g6556
ssS'du'
p6565
(dp6566
g6539
I10
sg6544
L1L
sg6545
g6556
ssS'hostconn'
p6567
(dp6568
g6539
I10
sg6544
L4L
sg6545
g11
sssg6545
S'5/11'
p6569
ssS'Polaris 6.10'
p6570
(dp6571
S'total_runs'
p6572
L1L
sS'score'
p6573
I8
sS'results'
p6574
(dp6575
S'maxconn'
p6576
(dp6577
g6573
I10
sS'median'
p6578
L50L
sS'display'
p6579
S'50'
p6580
ssS'parscript'
p6581
(dp6582
g6573
I10
sg6578
L1L
sg6579
S'yes'
p6583
ssS'parcssjs'
p6584
(dp6585
g6573
I1
sg6578
L0L
sg6579
S'no'
p6586
ssS'cacheresredir'
p6587
(dp6588
g6573
I10
sg6578
L1L
sg6579
g6583
ssS'cacheexp'
p6589
(dp6590
g6573
I10
sg6578
L1L
sg6579
g6583
ssS'gzip'
p6591
(dp6592
g6573
I10
sg6578
L1L
sg6579
g6583
ssS'prefetch'
p6593
(dp6594
g6573
I1
sg6578
L0L
sg6579
g6586
ssS'cacheredir'
p6595
(dp6596
g6573
I10
sg6578
L1L
sg6579
g6583
ssS'parsheet'
p6597
(dp6598
g6573
I10
sg6578
L1L
sg6579
g6583
ssS'du'
p6599
(dp6600
g6573
I10
sg6578
L1L
sg6579
g6583
ssS'hostconn'
p6601
(dp6602
g6573
I10
sg6578
L10L
sg6579
S'10'
p6603
sssg6579
S'9/11'
p6604
ssS'Opera 9.80'
p6605
(dp6606
S'total_runs'
p6607
L1L
sS'score'
p6608
I5
sS'results'
p6609
(dp6610
S'maxconn'
p6611
(dp6612
g6608
I5
sS'median'
p6613
L20L
sS'display'
p6614
S'20'
p6615
ssS'parscript'
p6616
(dp6617
g6608
I1
sg6613
L0L
sg6614
S'no'
p6618
ssS'parcssjs'
p6619
(dp6620
g6608
I1
sg6613
L0L
sg6614
g6618
ssS'cacheresredir'
p6621
(dp6622
g6608
I10
sg6613
L1L
sg6614
S'yes'
p6623
ssS'cacheexp'
p6624
(dp6625
g6608
I10
sg6613
L1L
sg6614
g6623
ssS'gzip'
p6626
(dp6627
g6608
I10
sg6613
L1L
sg6614
g6623
ssS'prefetch'
p6628
(dp6629
g6608
I1
sg6613
L0L
sg6614
g6618
ssS'cacheredir'
p6630
(dp6631
g6608
I1
sg6613
L0L
sg6614
g6618
ssS'parsheet'
p6632
(dp6633
g6608
I10
sg6613
L1L
sg6614
g6623
ssS'du'
p6634
(dp6635
g6608
I10
sg6613
L1L
sg6614
g6623
ssS'hostconn'
p6636
(dp6637
g6608
I10
sg6613
L4L
sg6614
g11
sssg6614
S'6/11'
p6638
ssS'Iceweasel 2.0'
p6639
(dp6640
S'total_runs'
p6641
L13L
sS'score'
p6642
I6
sS'results'
p6643
(dp6644
S'maxconn'
p6645
(dp6646
g6642
I10
sS'median'
p6647
L23L
sS'display'
p6648
S'23'
p6649
ssS'parscript'
p6650
(dp6651
g6642
I1
sg6647
L0L
sg6648
S'no'
p6652
ssS'parcssjs'
p6653
(dp6654
g6642
I1
sg6647
L0L
sg6648
g6652
ssS'cacheresredir'
p6655
(dp6656
g6642
I10
sg6647
L1L
sg6648
S'yes'
p6657
ssS'cacheexp'
p6658
(dp6659
g6642
I10
sg6647
L1L
sg6648
g6657
ssS'gzip'
p6660
(dp6661
g6642
I10
sg6647
L1L
sg6648
g6657
ssS'prefetch'
p6662
(dp6663
g6642
I10
sg6647
L1L
sg6648
g6657
ssS'cacheredir'
p6664
(dp6665
g6642
I10
sg6647
L1L
sg6648
g6657
ssS'parsheet'
p6666
(dp6667
g6642
I1
sg6647
L0L
sg6648
g6652
ssS'du'
p6668
(dp6669
g6642
I10
sg6647
L1L
sg6648
g6657
ssS'hostconn'
p6670
(dp6671
g6642
I5
sg6647
L2L
sg6648
g34
sssg6648
S'7/11'
p6672
ssS'MicroB 1.0'
p6673
(dp6674
S'total_runs'
p6675
L1L
sS'score'
p6676
I8
sS'results'
p6677
(dp6678
S'maxconn'
p6679
(dp6680
g6676
I10
sS'median'
p6681
L30L
sS'display'
p6682
S'30'
p6683
ssS'parscript'
p6684
(dp6685
g6676
I10
sg6681
L1L
sg6682
S'yes'
p6686
ssS'parcssjs'
p6687
(dp6688
g6676
I1
sg6681
L0L
sg6682
S'no'
p6689
ssS'cacheresredir'
p6690
(dp6691
g6676
I10
sg6681
L1L
sg6682
g6686
ssS'cacheexp'
p6692
(dp6693
g6676
I10
sg6681
L1L
sg6682
g6686
ssS'gzip'
p6694
(dp6695
g6676
I10
sg6681
L1L
sg6682
g6686
ssS'prefetch'
p6696
(dp6697
g6676
I10
sg6681
L1L
sg6682
g6686
ssS'cacheredir'
p6698
(dp6699
g6676
I10
sg6681
L1L
sg6682
g6686
ssS'parsheet'
p6700
(dp6701
g6676
I10
sg6681
L1L
sg6682
g6686
ssS'du'
p6702
(dp6703
g6676
I10
sg6681
L1L
sg6682
g6686
ssS'hostconn'
p6704
(dp6705
g6676
I10
sg6681
L6L
sg6682
g272
sssg6682
S'10/11'
p6706
ssS'WebPilot 8.7'
p6707
(dp6708
S'total_runs'
p6709
L1L
sS'score'
p6710
I4
sS'results'
p6711
(dp6712
S'maxconn'
p6713
(dp6714
g6710
I10
sS'median'
p6715
L48L
sS'display'
p6716
S'48'
p6717
ssS'parscript'
p6718
(dp6719
g6710
I1
sg6715
L0L
sg6716
S'no'
p6720
ssS'parcssjs'
p6721
(dp6722
g6710
I1
sg6715
L0L
sg6716
g6720
ssS'cacheresredir'
p6723
(dp6724
g6710
I1
sg6715
L0L
sg6716
g6720
ssS'cacheexp'
p6725
(dp6726
g6710
I10
sg6715
L1L
sg6716
S'yes'
p6727
ssS'gzip'
p6728
(dp6729
g6710
I10
sg6715
L1L
sg6716
g6727
ssS'prefetch'
p6730
(dp6731
g6710
I1
sg6715
L0L
sg6716
g6720
ssS'cacheredir'
p6732
(dp6733
g6710
I1
sg6715
L0L
sg6716
g6720
ssS'parsheet'
p6734
(dp6735
g6710
I10
sg6715
L1L
sg6716
g6727
ssS'du'
p6736
(dp6737
g6710
I1
sg6715
L0L
sg6716
g6720
ssS'hostconn'
p6738
(dp6739
g6710
I10
sg6715
L16L
sg6716
S'16'
p6740
sssg6716
S'5/11'
p6741
ssS'Camino 1.0'
p6742
(dp6743
S'total_runs'
p6744
L1L
sS'score'
p6745
I6
sS'results'
p6746
(dp6747
S'maxconn'
p6748
(dp6749
g6745
I10
sS'median'
p6750
L24L
sS'display'
p6751
S'24'
p6752
ssS'parscript'
p6753
(dp6754
g6745
I1
sg6750
L0L
sg6751
S'no'
p6755
ssS'parcssjs'
p6756
(dp6757
g6745
I1
sg6750
L0L
sg6751
g6755
ssS'cacheresredir'
p6758
(dp6759
g6745
I10
sg6750
L1L
sg6751
S'yes'
p6760
ssS'cacheexp'
p6761
(dp6762
g6745
I10
sg6750
L1L
sg6751
g6760
ssS'gzip'
p6763
(dp6764
g6745
I10
sg6750
L1L
sg6751
g6760
ssS'prefetch'
p6765
(dp6766
g6745
I10
sg6750
L1L
sg6751
g6760
ssS'cacheredir'
p6767
(dp6768
g6745
I10
sg6750
L1L
sg6751
g6760
ssS'parsheet'
p6769
(dp6770
g6745
I1
sg6750
L0L
sg6751
g6755
ssS'du'
p6771
(dp6772
g6745
I10
sg6750
L1L
sg6751
g6760
ssS'hostconn'
p6773
(dp6774
g6745
I5
sg6750
L2L
sg6751
g34
sssg6751
S'7/11'
p6775
ssS'Jasmine 1.0'
p6776
(dp6777
S'total_runs'
p6778
L3L
sS'score'
p6779
I3
sS'results'
p6780
(dp6781
S'maxconn'
p6782
(dp6783
g6779
I0
sS'median'
p6784
L5L
sS'display'
p6785
g1054
ssS'parscript'
p6786
(dp6787
g6779
I1
sg6784
L0L
sg6785
S'no'
p6788
ssS'parcssjs'
p6789
(dp6790
g6779
I1
sg6784
L0L
sg6785
g6788
ssS'cacheresredir'
p6791
(dp6792
g6779
I1
sg6784
L0L
sg6785
g6788
ssS'cacheexp'
p6793
(dp6794
g6779
I1
sg6784
L0L
sg6785
g6788
ssS'gzip'
p6795
(dp6796
g6779
I10
sg6784
L1L
sg6785
S'yes'
p6797
ssS'prefetch'
p6798
(dp6799
g6779
I1
sg6784
L0L
sg6785
g6788
ssS'cacheredir'
p6800
(dp6801
g6779
I1
sg6784
L0L
sg6785
g6788
ssS'parsheet'
p6802
(dp6803
g6779
I10
sg6784
L1L
sg6785
g6797
ssS'du'
p6804
(dp6805
g6779
I10
sg6784
L1L
sg6785
g6797
ssS'hostconn'
p6806
(dp6807
g6779
I10
sg6784
L5L
sg6785
g1054
sssg6785
S'4/11'
p6808
ssS'Camino 1.6'
p6809
(dp6810
S'total_runs'
p6811
L33L
sS'score'
p6812
I6
sS'results'
p6813
(dp6814
S'maxconn'
p6815
(dp6816
g6812
I10
sS'median'
p6817
L24L
sS'display'
p6818
S'24'
p6819
ssS'parscript'
p6820
(dp6821
g6812
I1
sg6817
L0L
sg6818
S'no'
p6822
ssS'parcssjs'
p6823
(dp6824
g6812
I1
sg6817
L0L
sg6818
g6822
ssS'cacheresredir'
p6825
(dp6826
g6812
I10
sg6817
L1L
sg6818
S'yes'
p6827
ssS'cacheexp'
p6828
(dp6829
g6812
I10
sg6817
L1L
sg6818
g6827
ssS'gzip'
p6830
(dp6831
g6812
I10
sg6817
L1L
sg6818
g6827
ssS'prefetch'
p6832
(dp6833
g6812
I10
sg6817
L1L
sg6818
g6827
ssS'cacheredir'
p6834
(dp6835
g6812
I10
sg6817
L1L
sg6818
g6827
ssS'parsheet'
p6836
(dp6837
g6812
I1
sg6817
L0L
sg6818
g6822
ssS'du'
p6838
(dp6839
g6812
I10
sg6817
L1L
sg6818
g6827
ssS'hostconn'
p6840
(dp6841
g6812
I5
sg6817
L2L
sg6818
g34
sssg6818
S'7/11'
p6842
ssS'Camino 1.5'
p6843
(dp6844
S'total_runs'
p6845
L2L
sS'score'
p6846
I6
sS'results'
p6847
(dp6848
S'maxconn'
p6849
(dp6850
g6846
I10
sS'median'
p6851
L24L
sS'display'
p6852
S'24'
p6853
ssS'parscript'
p6854
(dp6855
g6846
I1
sg6851
L0L
sg6852
S'no'
p6856
ssS'parcssjs'
p6857
(dp6858
g6846
I1
sg6851
L0L
sg6852
g6856
ssS'cacheresredir'
p6859
(dp6860
g6846
I10
sg6851
L1L
sg6852
S'yes'
p6861
ssS'cacheexp'
p6862
(dp6863
g6846
I10
sg6851
L1L
sg6852
g6861
ssS'gzip'
p6864
(dp6865
g6846
I10
sg6851
L1L
sg6852
g6861
ssS'prefetch'
p6866
(dp6867
g6846
I10
sg6851
L1L
sg6852
g6861
ssS'cacheredir'
p6868
(dp6869
g6846
I10
sg6851
L1L
sg6852
g6861
ssS'parsheet'
p6870
(dp6871
g6846
I1
sg6851
L0L
sg6852
g6856
ssS'du'
p6872
(dp6873
g6846
I10
sg6851
L1L
sg6852
g6861
ssS'hostconn'
p6874
(dp6875
g6846
I5
sg6851
L2L
sg6852
g34
sssg6852
S'7/11'
p6876
ssS'Opera 9.27'
p6877
(dp6878
S'total_runs'
p6879
L43L
sS'score'
p6880
I4
sS'results'
p6881
(dp6882
S'maxconn'
p6883
(dp6884
g6880
I5
sS'median'
p6885
L20L
sS'display'
p6886
S'20'
p6887
ssS'parscript'
p6888
(dp6889
g6880
I1
sg6885
L0L
sg6886
S'no'
p6890
ssS'parcssjs'
p6891
(dp6892
g6880
I1
sg6885
L0L
sg6886
g6890
ssS'cacheresredir'
p6893
(dp6894
g6880
I1
sg6885
L0L
sg6886
g6890
ssS'cacheexp'
p6895
(dp6896
g6880
I10
sg6885
L1L
sg6886
S'yes'
p6897
ssS'gzip'
p6898
(dp6899
g6880
I10
sg6885
L1L
sg6886
g6897
ssS'prefetch'
p6900
(dp6901
g6880
I1
sg6885
L0L
sg6886
g6890
ssS'cacheredir'
p6902
(dp6903
g6880
I1
sg6885
L0L
sg6886
g6890
ssS'parsheet'
p6904
(dp6905
g6880
I10
sg6885
L1L
sg6886
g6897
ssS'du'
p6906
(dp6907
g6880
I10
sg6885
L1L
sg6886
g6897
ssS'hostconn'
p6908
(dp6909
g6880
I10
sg6885
L4L
sg6886
g11
sssg6886
S'5/11'
p6910
ssS'Maxthon 3.0'
p6911
(dp6912
S'total_runs'
p6913
L9L
sS'score'
p6914
I8
sS'results'
p6915
(dp6916
S'maxconn'
p6917
(dp6918
g6914
I10
sS'median'
p6919
L60L
sS'display'
p6920
S'60'
p6921
ssS'parscript'
p6922
(dp6923
g6914
I10
sg6919
L1L
sg6920
S'yes'
p6924
ssS'parcssjs'
p6925
(dp6926
g6914
I1
sg6919
L0L
sg6920
S'no'
p6927
ssS'cacheresredir'
p6928
(dp6929
g6914
I10
sg6919
L1L
sg6920
g6924
ssS'cacheexp'
p6930
(dp6931
g6914
I10
sg6919
L1L
sg6920
g6924
ssS'gzip'
p6932
(dp6933
g6914
I10
sg6919
L1L
sg6920
g6924
ssS'prefetch'
p6934
(dp6935
g6914
I1
sg6919
L0L
sg6920
g6927
ssS'cacheredir'
p6936
(dp6937
g6914
I10
sg6919
L1L
sg6920
g6924
ssS'parsheet'
p6938
(dp6939
g6914
I10
sg6919
L1L
sg6920
g6924
ssS'du'
p6940
(dp6941
g6914
I10
sg6919
L1L
sg6920
g6924
ssS'hostconn'
p6942
(dp6943
g6914
I10
sg6919
L6L
sg6920
g272
sssg6920
S'9/11'
p6944
ssS'Chrome 2.0'
p6945
(dp6946
S'total_runs'
p6947
L474L
sS'score'
p6948
I8
sS'results'
p6949
(dp6950
S'maxconn'
p6951
(dp6952
g6948
I10
sS'median'
p6953
L60L
sS'display'
p6954
S'60'
p6955
ssS'parscript'
p6956
(dp6957
g6948
I10
sg6953
L1L
sg6954
S'yes'
p6958
ssS'parcssjs'
p6959
(dp6960
g6948
I1
sg6953
L0L
sg6954
S'no'
p6961
ssS'cacheresredir'
p6962
(dp6963
g6948
I10
sg6953
L1L
sg6954
g6958
ssS'cacheexp'
p6964
(dp6965
g6948
I10
sg6953
L1L
sg6954
g6958
ssS'gzip'
p6966
(dp6967
g6948
I10
sg6953
L1L
sg6954
g6958
ssS'prefetch'
p6968
(dp6969
g6948
I1
sg6953
L0L
sg6954
g6961
ssS'cacheredir'
p6970
(dp6971
g6948
I10
sg6953
L1L
sg6954
g6958
ssS'parsheet'
p6972
(dp6973
g6948
I10
sg6953
L1L
sg6954
g6958
ssS'du'
p6974
(dp6975
g6948
I10
sg6953
L1L
sg6954
g6958
ssS'hostconn'
p6976
(dp6977
g6948
I10
sg6953
L6L
sg6954
g272
sssg6954
S'9/11'
p6978
ssS'Blackberry 8320'
p6979
(dp6980
S'total_runs'
p6981
L2L
sS'score'
p6982
I5
sS'results'
p6983
(dp6984
S'maxconn'
p6985
(dp6986
g6982
I0
sS'median'
p6987
L8L
sS'display'
p6988
g147
ssS'parscript'
p6989
(dp6990
g6982
I10
sg6987
L1L
sg6988
S'yes'
p6991
ssS'parcssjs'
p6992
(dp6993
g6982
I1
sg6987
L0L
sg6988
S'no'
p6994
ssS'cacheresredir'
p6995
(dp6996
g6982
I10
sg6987
L1L
sg6988
g6991
ssS'cacheexp'
p6997
(dp6998
g6982
I10
sg6987
L1L
sg6988
g6991
ssS'gzip'
p6999
(dp7000
g6982
I1
sg6987
L0L
sg6988
g6994
ssS'prefetch'
p7001
(dp7002
g6982
I10
sg6987
L1L
sg6988
g6991
ssS'cacheredir'
p7003
(dp7004
g6982
I1
sg6987
L0L
sg6988
g6994
ssS'parsheet'
p7005
(dp7006
g6982
I10
sg6987
L1L
sg6988
g6991
ssS'du'
p7007
(dp7008
g6982
I1
sg6987
L0L
sg6988
g6994
ssS'hostconn'
p7009
(dp7010
g6982
I10
sg6987
L8L
sg6988
g147
sssg6988
S'6/11'
p7011
ssS'Nokia 5800'
p7012
(dp7013
S'total_runs'
p7014
L2L
sS'score'
p7015
I8
sS'results'
p7016
(dp7017
S'maxconn'
p7018
(dp7019
g7015
I5
sS'median'
p7020
L16L
sS'display'
p7021
S'16'
p7022
ssS'parscript'
p7023
(dp7024
g7015
I10
sg7020
L1L
sg7021
S'yes'
p7025
ssS'parcssjs'
p7026
(dp7027
g7015
I1
sg7020
L0L
sg7021
S'no'
p7028
ssS'cacheresredir'
p7029
(dp7030
g7015
I10
sg7020
L1L
sg7021
g7025
ssS'cacheexp'
p7031
(dp7032
g7015
I10
sg7020
L1L
sg7021
g7025
ssS'gzip'
p7033
(dp7034
g7015
I10
sg7020
L1L
sg7021
g7025
ssS'prefetch'
p7035
(dp7036
g7015
I10
sg7020
L1L
sg7021
g7025
ssS'cacheredir'
p7037
(dp7038
g7015
I10
sg7020
L1L
sg7021
g7025
ssS'parsheet'
p7039
(dp7040
g7015
I10
sg7020
L1L
sg7021
g7025
ssS'du'
p7041
(dp7042
g7015
I10
sg7020
L1L
sg7021
g7025
ssS'hostconn'
p7043
(dp7044
g7015
I10
sg7020
L16L
sg7021
S'16'
p7045
sssg7021
S'9/11'
p7046
ssS'PlayStation 3'
p7047
(dp7048
S'total_runs'
p7049
L5L
sS'score'
p7050
I3
sS'results'
p7051
(dp7052
S'maxconn'
p7053
(dp7054
g7050
I0
sS'median'
p7055
L4L
sS'display'
p7056
g11
ssS'parscript'
p7057
(dp7058
g7050
I1
sg7055
L0L
sg7056
S'no'
p7059
ssS'parcssjs'
p7060
(dp7061
g7050
I1
sg7055
L0L
sg7056
g7059
ssS'cacheresredir'
p7062
(dp7063
g7050
I1
sg7055
L0L
sg7056
g7059
ssS'cacheexp'
p7064
(dp7065
g7050
I10
sg7055
L1L
sg7056
S'yes'
p7066
ssS'gzip'
p7067
(dp7068
g7050
I1
sg7055
L0L
sg7056
g7059
ssS'prefetch'
p7069
(dp7070
g7050
I1
sg7055
L0L
sg7056
g7059
ssS'cacheredir'
p7071
(dp7072
g7050
I10
sg7055
L1L
sg7056
g7066
ssS'parsheet'
p7073
(dp7074
g7050
I1
sg7055
L0L
sg7056
g7059
ssS'du'
p7075
(dp7076
g7050
I10
sg7055
L1L
sg7056
g7066
ssS'hostconn'
p7077
(dp7078
g7050
I10
sg7055
L4L
sg7056
g11
sssg7056
S'4/11'
p7079
ssS'Blackberry 8120'
p7080
(dp7081
S'total_runs'
p7082
L1L
sS'score'
p7083
I5
sS'results'
p7084
(dp7085
S'maxconn'
p7086
(dp7087
g7083
I0
sS'median'
p7088
L0L
sS'display'
p7089
g46
ssS'parscript'
p7090
(dp7091
g7083
I1
sg7088
L0L
sg7089
S'no'
p7092
ssS'parcssjs'
p7093
(dp7094
g7083
I10
sg7088
L1L
sg7089
S'yes'
p7095
ssS'cacheresredir'
p7096
(dp7097
g7083
I10
sg7088
L1L
sg7089
g7095
ssS'cacheexp'
p7098
(dp7099
g7083
I10
sg7088
L1L
sg7089
g7095
ssS'gzip'
p7100
(dp7101
g7083
I10
sg7088
L1L
sg7089
g7095
ssS'prefetch'
p7102
(dp7103
g7083
I10
sg7088
L1L
sg7089
g7095
ssS'cacheredir'
p7104
(dp7105
g7083
I1
sg7088
L0L
sg7089
g7092
ssS'parsheet'
p7106
(dp7107
g7083
I10
sg7088
L1L
sg7089
g7095
ssS'du'
p7108
(dp7109
g7083
I1
sg7088
L0L
sg7089
g7092
ssS'hostconn'
p7110
(dp7111
g7083
I0
sg7088
L0L
sg7089
g46
sssg7089
S'6/11'
p7112
ssS'QtWeb 2.0'
p7113
(dp7114
S'total_runs'
p7115
L1L
sS'score'
p7116
I7
sS'results'
p7117
(dp7118
S'maxconn'
p7119
(dp7120
g7116
I10
sS'median'
p7121
L60L
sS'display'
p7122
S'60'
p7123
ssS'parscript'
p7124
(dp7125
g7116
I10
sg7121
L1L
sg7122
S'yes'
p7126
ssS'parcssjs'
p7127
(dp7128
g7116
I1
sg7121
L0L
sg7122
S'no'
p7129
ssS'cacheresredir'
p7130
(dp7131
g7116
I10
sg7121
L1L
sg7122
g7126
ssS'cacheexp'
p7132
(dp7133
g7116
I10
sg7121
L1L
sg7122
g7126
ssS'gzip'
p7134
(dp7135
g7116
I10
sg7121
L1L
sg7122
g7126
ssS'prefetch'
p7136
(dp7137
g7116
I1
sg7121
L0L
sg7122
g7129
ssS'cacheredir'
p7138
(dp7139
g7116
I10
sg7121
L1L
sg7122
g7126
ssS'parsheet'
p7140
(dp7141
g7116
I10
sg7121
L1L
sg7122
g7126
ssS'du'
p7142
(dp7143
g7116
I10
sg7121
L1L
sg7122
g7126
ssS'hostconn'
p7144
(dp7145
g7116
I5
sg7121
L2L
sg7122
g34
sssg7122
S'8/11'
p7146
ssS'Blackberry 8800'
p7147
(dp7148
S'total_runs'
p7149
L1L
sS'score'
p7150
I5
sS'results'
p7151
(dp7152
S'maxconn'
p7153
(dp7154
g7150
I0
sS'median'
p7155
L4L
sS'display'
p7156
g11
ssS'parscript'
p7157
(dp7158
g7150
I10
sg7155
L1L
sg7156
S'yes'
p7159
ssS'parcssjs'
p7160
(dp7161
g7150
I1
sg7155
L0L
sg7156
S'no'
p7162
ssS'cacheresredir'
p7163
(dp7164
g7150
I10
sg7155
L1L
sg7156
g7159
ssS'cacheexp'
p7165
(dp7166
g7150
I10
sg7155
L1L
sg7156
g7159
ssS'gzip'
p7167
(dp7168
g7150
I1
sg7155
L0L
sg7156
g7162
ssS'prefetch'
p7169
(dp7170
g7150
I10
sg7155
L1L
sg7156
g7159
ssS'cacheredir'
p7171
(dp7172
g7150
I1
sg7155
L0L
sg7156
g7162
ssS'parsheet'
p7173
(dp7174
g7150
I10
sg7155
L1L
sg7156
g7159
ssS'du'
p7175
(dp7176
g7150
I1
sg7155
L0L
sg7156
g7162
ssS'hostconn'
p7177
(dp7178
g7150
I10
sg7155
L4L
sg7156
g11
sssg7156
S'6/11'
p7179
ssS'Chrome 0.5'
p7180
(dp7181
S'total_runs'
p7182
L18L
sS'score'
p7183
I8
sS'results'
p7184
(dp7185
S'maxconn'
p7186
(dp7187
g7183
I10
sS'median'
p7188
L60L
sS'display'
p7189
S'60'
p7190
ssS'parscript'
p7191
(dp7192
g7183
I10
sg7188
L1L
sg7189
S'yes'
p7193
ssS'parcssjs'
p7194
(dp7195
g7183
I1
sg7188
L0L
sg7189
S'no'
p7196
ssS'cacheresredir'
p7197
(dp7198
g7183
I10
sg7188
L1L
sg7189
g7193
ssS'cacheexp'
p7199
(dp7200
g7183
I10
sg7188
L1L
sg7189
g7193
ssS'gzip'
p7201
(dp7202
g7183
I10
sg7188
L1L
sg7189
g7193
ssS'prefetch'
p7203
(dp7204
g7183
I1
sg7188
L0L
sg7189
g7196
ssS'cacheredir'
p7205
(dp7206
g7183
I10
sg7188
L1L
sg7189
g7193
ssS'parsheet'
p7207
(dp7208
g7183
I10
sg7188
L1L
sg7189
g7193
ssS'du'
p7209
(dp7210
g7183
I10
sg7188
L1L
sg7189
g7193
ssS'hostconn'
p7211
(dp7212
g7183
I10
sg7188
L6L
sg7189
g272
sssg7189
S'9/11'
p7213
ssS'Chrome 0.2'
p7214
(dp7215
S'total_runs'
p7216
L97L
sS'score'
p7217
I6
sS'results'
p7218
(dp7219
S'maxconn'
p7220
(dp7221
g7217
I0
sS'median'
p7222
L0L
sS'display'
p7223
g46
ssS'parscript'
p7224
(dp7225
g7217
I1
sg7222
L0L
sg7223
S'no'
p7226
ssS'parcssjs'
p7227
(dp7228
g7217
I1
sg7222
L0L
sg7223
g7226
ssS'cacheresredir'
p7229
(dp7230
g7217
I10
sg7222
L1L
sg7223
S'yes'
p7231
ssS'cacheexp'
p7232
(dp7233
g7217
I10
sg7222
L1L
sg7223
g7231
ssS'gzip'
p7234
(dp7235
g7217
I10
sg7222
L1L
sg7223
g7231
ssS'prefetch'
p7236
(dp7237
g7217
I1
sg7222
L0L
sg7223
g7226
ssS'cacheredir'
p7238
(dp7239
g7217
I10
sg7222
L1L
sg7223
g7231
ssS'parsheet'
p7240
(dp7241
g7217
I10
sg7222
L1L
sg7223
g7231
ssS'du'
p7242
(dp7243
g7217
I10
sg7222
L1L
sg7223
g7231
ssS'hostconn'
p7244
(dp7245
g7217
I10
sg7222
L6L
sg7223
g272
sssg7223
S'7/11'
p7246
ssS'Android 0.6'
p7247
(dp7248
S'total_runs'
p7249
L2L
sS'score'
p7250
I4
sS'results'
p7251
(dp7252
S'maxconn'
p7253
(dp7254
g7250
I0
sS'median'
p7255
L2L
sS'display'
p7256
g34
ssS'parscript'
p7257
(dp7258
g7250
I1
sg7255
L0L
sg7256
S'no'
p7259
ssS'parcssjs'
p7260
(dp7261
g7250
I1
sg7255
L0L
sg7256
g7259
ssS'cacheresredir'
p7262
(dp7263
g7250
I1
sg7255
L0L
sg7256
g7259
ssS'cacheexp'
p7264
(dp7265
g7250
I10
sg7255
L1L
sg7256
S'yes'
p7266
ssS'gzip'
p7267
(dp7268
g7250
I10
sg7255
L1L
sg7256
g7266
ssS'prefetch'
p7269
(dp7270
g7250
I1
sg7255
L0L
sg7256
g7259
ssS'cacheredir'
p7271
(dp7272
g7250
I10
sg7255
L1L
sg7256
g7266
ssS'parsheet'
p7273
(dp7274
g7250
I10
sg7255
L1L
sg7256
g7266
ssS'du'
p7275
(dp7276
g7250
I10
sg7255
L1L
sg7256
g7266
ssS'hostconn'
p7277
(dp7278
g7250
I5
sg7255
L2L
sg7256
g34
sssg7256
S'5/11'
p7279
ssS'Obigo 05'
p7280
(dp7281
S'total_runs'
p7282
L1L
sS'score'
p7283
I3
sS'results'
p7284
(dp7285
S'maxconn'
p7286
(dp7287
g7283
I5
sS'median'
p7288
L10L
sS'display'
p7289
S'10'
p7290
ssS'parscript'
p7291
(dp7292
g7283
I1
sg7288
L0L
sg7289
S'no'
p7293
ssS'parcssjs'
p7294
(dp7295
g7283
I1
sg7288
L0L
sg7289
g7293
ssS'cacheresredir'
p7296
(dp7297
g7283
I1
sg7288
L0L
sg7289
g7293
ssS'cacheexp'
p7298
(dp7299
g7283
I10
sg7288
L1L
sg7289
S'yes'
p7300
ssS'gzip'
p7301
(dp7302
g7283
I10
sg7288
L1L
sg7289
g7300
ssS'prefetch'
p7303
(dp7304
g7283
I1
sg7288
L0L
sg7289
g7293
ssS'cacheredir'
p7305
(dp7306
g7283
I1
sg7288
L0L
sg7289
g7293
ssS'parsheet'
p7307
(dp7308
g7283
I1
sg7288
L0L
sg7289
g7293
ssS'du'
p7309
(dp7310
g7283
I10
sg7288
L1L
sg7289
g7300
ssS'hostconn'
p7311
(dp7312
g7283
I10
sg7288
L9L
sg7289
g215
sssg7289
S'4/11'
p7313
ssS'Netscape 9.0'
p7314
(dp7315
S'total_runs'
p7316
L9L
sS'score'
p7317
I5
sS'results'
p7318
(dp7319
S'maxconn'
p7320
(dp7321
g7317
I10
sS'median'
p7322
L24L
sS'display'
p7323
S'24'
p7324
ssS'parscript'
p7325
(dp7326
g7317
I1
sg7322
L0L
sg7323
S'no'
p7327
ssS'parcssjs'
p7328
(dp7329
g7317
I1
sg7322
L0L
sg7323
g7327
ssS'cacheresredir'
p7330
(dp7331
g7317
I10
sg7322
L1L
sg7323
S'yes'
p7332
ssS'cacheexp'
p7333
(dp7334
g7317
I10
sg7322
L1L
sg7323
g7332
ssS'gzip'
p7335
(dp7336
g7317
I10
sg7322
L1L
sg7323
g7332
ssS'prefetch'
p7337
(dp7338
g7317
I1
sg7322
L0L
sg7323
g7327
ssS'cacheredir'
p7339
(dp7340
g7317
I10
sg7322
L1L
sg7323
g7332
ssS'parsheet'
p7341
(dp7342
g7317
I1
sg7322
L0L
sg7323
g7327
ssS'du'
p7343
(dp7344
g7317
I10
sg7322
L1L
sg7323
g7332
ssS'hostconn'
p7345
(dp7346
g7317
I5
sg7322
L2L
sg7323
g34
sssg7323
S'6/11'
p7347
ssS'Epiphany 2.22'
p7348
(dp7349
S'total_runs'
p7350
L42L
sS'score'
p7351
I6
sS'results'
p7352
(dp7353
S'maxconn'
p7354
(dp7355
g7351
I10
sS'median'
p7356
L30L
sS'display'
p7357
S'30'
p7358
ssS'parscript'
p7359
(dp7360
g7351
I1
sg7356
L0L
sg7357
S'no'
p7361
ssS'parcssjs'
p7362
(dp7363
g7351
I1
sg7356
L0L
sg7357
g7361
ssS'cacheresredir'
p7364
(dp7365
g7351
I1
sg7356
L0L
sg7357
g7361
ssS'cacheexp'
p7366
(dp7367
g7351
I10
sg7356
L1L
sg7357
S'yes'
p7368
ssS'gzip'
p7369
(dp7370
g7351
I10
sg7356
L1L
sg7357
g7368
ssS'prefetch'
p7371
(dp7372
g7351
I10
sg7356
L1L
sg7357
g7368
ssS'cacheredir'
p7373
(dp7374
g7351
I1
sg7356
L0L
sg7357
g7361
ssS'parsheet'
p7375
(dp7376
g7351
I10
sg7356
L1L
sg7357
g7368
ssS'du'
p7377
(dp7378
g7351
I10
sg7356
L1L
sg7357
g7368
ssS'hostconn'
p7379
(dp7380
g7351
I10
sg7356
L6L
sg7357
g272
sssg7357
S'7/11'
p7381
ssS'NetFront 3.5'
p7382
(dp7383
S'total_runs'
p7384
L2L
sS'score'
p7385
I4
sS'results'
p7386
(dp7387
S'maxconn'
p7388
(dp7389
g7385
I0
sS'median'
p7390
L0L
sS'display'
p7391
g46
ssS'parscript'
p7392
(dp7393
g7385
I1
sg7390
L0L
sg7391
S'no'
p7394
ssS'parcssjs'
p7395
(dp7396
g7385
I1
sg7390
L0L
sg7391
g7394
ssS'cacheresredir'
p7397
(dp7398
g7385
I10
sg7390
L1L
sg7391
S'yes'
p7399
ssS'cacheexp'
p7400
(dp7401
g7385
I10
sg7390
L1L
sg7391
g7399
ssS'gzip'
p7402
(dp7403
g7385
I10
sg7390
L1L
sg7391
g7399
ssS'prefetch'
p7404
(dp7405
g7385
I10
sg7390
L1L
sg7391
g7399
ssS'cacheredir'
p7406
(dp7407
g7385
I1
sg7390
L0L
sg7391
g7394
ssS'parsheet'
p7408
(dp7409
g7385
I1
sg7390
L0L
sg7391
g7394
ssS'du'
p7410
(dp7411
g7385
I10
sg7390
L1L
sg7391
g7399
ssS'hostconn'
p7412
(dp7413
g7385
I0
sg7390
L0L
sg7391
g46
sssg7391
S'5/11'
p7414
ssS'NetFront 3.4'
p7415
(dp7416
S'total_runs'
p7417
L6L
sS'score'
p7418
I3
sS'results'
p7419
(dp7420
S'maxconn'
p7421
(dp7422
g7418
I0
sS'median'
p7423
L0L
sS'display'
p7424
g46
ssS'parscript'
p7425
(dp7426
g7418
I1
sg7423
L0L
sg7424
S'no'
p7427
ssS'parcssjs'
p7428
(dp7429
g7418
I1
sg7423
L0L
sg7424
g7427
ssS'cacheresredir'
p7430
(dp7431
g7418
I1
sg7423
L0L
sg7424
g7427
ssS'cacheexp'
p7432
(dp7433
g7418
I10
sg7423
L1L
sg7424
S'yes'
p7434
ssS'gzip'
p7435
(dp7436
g7418
I10
sg7423
L1L
sg7424
g7434
ssS'prefetch'
p7437
(dp7438
g7418
I1
sg7423
L0L
sg7424
g7427
ssS'cacheredir'
p7439
(dp7440
g7418
I1
sg7423
L0L
sg7424
g7427
ssS'parsheet'
p7441
(dp7442
g7418
I10
sg7423
L1L
sg7424
g7434
ssS'du'
p7443
(dp7444
g7418
I10
sg7423
L1L
sg7424
g7434
ssS'hostconn'
p7445
(dp7446
g7418
I0
sg7423
L0L
sg7424
g46
sssg7424
S'4/11'
p7447
ssS'NetFront 3.3'
p7448
(dp7449
S'total_runs'
p7450
L27L
sS'score'
p7451
I5
sS'results'
p7452
(dp7453
S'maxconn'
p7454
(dp7455
g7451
I0
sS'median'
p7456
L0L
sS'display'
p7457
g46
ssS'parscript'
p7458
(dp7459
g7451
I1
sg7456
L0L
sg7457
S'no'
p7460
ssS'parcssjs'
p7461
(dp7462
g7451
I1
sg7456
L0L
sg7457
g7460
ssS'cacheresredir'
p7463
(dp7464
g7451
I10
sg7456
L1L
sg7457
S'yes'
p7465
ssS'cacheexp'
p7466
(dp7467
g7451
I10
sg7456
L1L
sg7457
g7465
ssS'gzip'
p7468
(dp7469
g7451
I10
sg7456
L1L
sg7457
g7465
ssS'prefetch'
p7470
(dp7471
g7451
I10
sg7456
L1L
sg7457
g7465
ssS'cacheredir'
p7472
(dp7473
g7451
I1
sg7456
L0L
sg7457
g7460
ssS'parsheet'
p7474
(dp7475
g7451
I10
sg7456
L1L
sg7457
g7465
ssS'du'
p7476
(dp7477
g7451
I10
sg7456
L1L
sg7457
g7465
ssS'hostconn'
p7478
(dp7479
g7451
I0
sg7456
L0L
sg7457
g46
sssg7457
S'6/11'
p7480
ssS'OmniWeb 607.17'
p7481
(dp7482
S'total_runs'
p7483
L1L
sS'score'
p7484
I6
sS'results'
p7485
(dp7486
S'maxconn'
p7487
(dp7488
g7484
I10
sS'median'
p7489
L60L
sS'display'
p7490
S'60'
p7491
ssS'parscript'
p7492
(dp7493
g7484
I1
sg7489
L0L
sg7490
S'no'
p7494
ssS'parcssjs'
p7495
(dp7496
g7484
I1
sg7489
L0L
sg7490
g7494
ssS'cacheresredir'
p7497
(dp7498
g7484
I10
sg7489
L1L
sg7490
S'yes'
p7499
ssS'cacheexp'
p7500
(dp7501
g7484
I10
sg7489
L1L
sg7490
g7499
ssS'gzip'
p7502
(dp7503
g7484
I10
sg7489
L1L
sg7490
g7499
ssS'prefetch'
p7504
(dp7505
g7484
I1
sg7489
L0L
sg7490
g7494
ssS'cacheredir'
p7506
(dp7507
g7484
I1
sg7489
L0L
sg7490
g7494
ssS'parsheet'
p7508
(dp7509
g7484
I10
sg7489
L1L
sg7490
g7499
ssS'du'
p7510
(dp7511
g7484
I10
sg7489
L1L
sg7490
g7499
ssS'hostconn'
p7512
(dp7513
g7484
I10
sg7489
L4L
sg7490
g11
sssg7490
S'7/11'
p7514
ssS'Midori 0.1'
p7515
(dp7516
S'total_runs'
p7517
L5L
sS'score'
p7518
I4
sS'results'
p7519
(dp7520
S'maxconn'
p7521
(dp7522
g7518
I5
sS'median'
p7523
L10L
sS'display'
p7524
S'10'
p7525
ssS'parscript'
p7526
(dp7527
g7518
I10
sg7523
L1L
sg7524
S'yes'
p7528
ssS'parcssjs'
p7529
(dp7530
g7518
I1
sg7523
L0L
sg7524
S'no'
p7531
ssS'cacheresredir'
p7532
(dp7533
g7518
I10
sg7523
L1L
sg7524
g7528
ssS'cacheexp'
p7534
(dp7535
g7518
I10
sg7523
L1L
sg7524
g7528
ssS'gzip'
p7536
(dp7537
g7518
I1
sg7523
L0L
sg7524
g7531
ssS'prefetch'
p7538
(dp7539
g7518
I1
sg7523
L0L
sg7524
g7531
ssS'cacheredir'
p7540
(dp7541
g7518
I1
sg7523
L0L
sg7524
g7531
ssS'parsheet'
p7542
(dp7543
g7518
I10
sg7523
L1L
sg7524
g7528
ssS'du'
p7544
(dp7545
g7518
I10
sg7523
L1L
sg7524
g7528
ssS'hostconn'
p7546
(dp7547
g7518
I5
sg7523
L2L
sg7524
g34
sssg7524
S'5/11'
p7548
ssS'Nokia 82'
p7549
(dp7550
S'total_runs'
p7551
L3L
sS'score'
p7552
I5
sS'results'
p7553
(dp7554
S'maxconn'
p7555
(dp7556
g7552
I0
sS'median'
p7557
L7L
sS'display'
p7558
g113
ssS'parscript'
p7559
(dp7560
g7552
I10
sg7557
L1L
sg7558
S'yes'
p7561
ssS'parcssjs'
p7562
(dp7563
g7552
I1
sg7557
L0L
sg7558
S'no'
p7564
ssS'cacheresredir'
p7565
(dp7566
g7552
I1
sg7557
L0L
sg7558
g7564
ssS'cacheexp'
p7567
(dp7568
g7552
I10
sg7557
L1L
sg7558
g7561
ssS'gzip'
p7569
(dp7570
g7552
I10
sg7557
L1L
sg7558
g7561
ssS'prefetch'
p7571
(dp7572
g7552
I10
sg7557
L1L
sg7558
g7561
ssS'cacheredir'
p7573
(dp7574
g7552
I1
sg7557
L0L
sg7558
g7564
ssS'parsheet'
p7575
(dp7576
g7552
I10
sg7557
L1L
sg7558
g7561
ssS'du'
p7577
(dp7578
g7552
I1
sg7557
L0L
sg7558
g7564
ssS'hostconn'
p7579
(dp7580
g7552
I10
sg7557
L7L
sg7558
g113
sssg7558
S'6/11'
p7581
ssS'Opera 10.50'
p7582
(dp7583
S'total_runs'
p7584
L1L
sS'score'
p7585
I4
sS'results'
p7586
(dp7587
S'maxconn'
p7588
(dp7589
g7585
I5
sS'median'
p7590
L20L
sS'display'
p7591
S'20'
p7592
ssS'parscript'
p7593
(dp7594
g7585
I1
sg7590
L0L
sg7591
S'no'
p7595
ssS'parcssjs'
p7596
(dp7597
g7585
I1
sg7590
L0L
sg7591
g7595
ssS'cacheresredir'
p7598
(dp7599
g7585
I1
sg7590
L0L
sg7591
g7595
ssS'cacheexp'
p7600
(dp7601
g7585
I10
sg7590
L1L
sg7591
S'yes'
p7602
ssS'gzip'
p7603
(dp7604
g7585
I10
sg7590
L1L
sg7591
g7602
ssS'prefetch'
p7605
(dp7606
g7585
I1
sg7590
L0L
sg7591
g7595
ssS'cacheredir'
p7607
(dp7608
g7585
I1
sg7590
L0L
sg7591
g7595
ssS'parsheet'
p7609
(dp7610
g7585
I10
sg7590
L1L
sg7591
g7602
ssS'du'
p7611
(dp7612
g7585
I10
sg7590
L1L
sg7591
g7602
ssS'hostconn'
p7613
(dp7614
g7585
I10
sg7590
L4L
sg7591
g11
sssg7591
S'5/11'
p7615
ssS'Wii'
p7616
(dp7617
S'total_runs'
p7618
L6L
sS'score'
p7619
I4
sS'results'
p7620
(dp7621
S'maxconn'
p7622
(dp7623
g7619
I0
sS'median'
p7624
L3L
sS'display'
p7625
g5390
ssS'parscript'
p7626
(dp7627
g7619
I10
sg7624
L1L
sg7625
S'yes'
p7628
ssS'parcssjs'
p7629
(dp7630
g7619
I1
sg7624
L0L
sg7625
S'no'
p7631
ssS'cacheresredir'
p7632
(dp7633
g7619
I1
sg7624
L0L
sg7625
g7631
ssS'cacheexp'
p7634
(dp7635
g7619
I10
sg7624
L1L
sg7625
g7628
ssS'gzip'
p7636
(dp7637
g7619
I10
sg7624
L1L
sg7625
g7628
ssS'prefetch'
p7638
(dp7639
g7619
I1
sg7624
L0L
sg7625
g7631
ssS'cacheredir'
p7640
(dp7641
g7619
I1
sg7624
L0L
sg7625
g7631
ssS'parsheet'
p7642
(dp7643
g7619
I10
sg7624
L1L
sg7625
g7628
ssS'du'
p7644
(dp7645
g7619
I10
sg7624
L1L
sg7625
g7628
ssS'hostconn'
p7646
(dp7647
g7619
I5
sg7624
L2L
sg7625
g34
sssg7625
S'5/11'
p7648
ssS'Nokia 85'
p7649
(dp7650
S'total_runs'
p7651
L1L
sS'score'
p7652
I4
sS'results'
p7653
(dp7654
S'maxconn'
p7655
(dp7656
g7652
I0
sS'median'
p7657
L0L
sS'display'
p7658
g46
ssS'parscript'
p7659
(dp7660
g7652
I10
sg7657
L1L
sg7658
S'yes'
p7661
ssS'parcssjs'
p7662
(dp7663
g7652
I1
sg7657
L0L
sg7658
S'no'
p7664
ssS'cacheresredir'
p7665
(dp7666
g7652
I1
sg7657
L0L
sg7658
g7664
ssS'cacheexp'
p7667
(dp7668
g7652
I10
sg7657
L1L
sg7658
g7661
ssS'gzip'
p7669
(dp7670
g7652
I10
sg7657
L1L
sg7658
g7661
ssS'prefetch'
p7671
(dp7672
g7652
I1
sg7657
L0L
sg7658
g7664
ssS'cacheredir'
p7673
(dp7674
g7652
I1
sg7657
L0L
sg7658
g7664
ssS'parsheet'
p7675
(dp7676
g7652
I10
sg7657
L1L
sg7658
g7661
ssS'du'
p7677
(dp7678
g7652
I10
sg7657
L1L
sg7658
g7661
ssS'hostconn'
p7679
(dp7680
g7652
I0
sg7657
L0L
sg7658
g46
sssg7658
S'5/11'
p7681
ssS'QtWeb 1.2'
p7682
(dp7683
S'total_runs'
p7684
L1L
sS'score'
p7685
I6
sS'results'
p7686
(dp7687
S'maxconn'
p7688
(dp7689
g7685
I10
sS'median'
p7690
L60L
sS'display'
p7691
S'60'
p7692
ssS'parscript'
p7693
(dp7694
g7685
I10
sg7690
L1L
sg7691
S'yes'
p7695
ssS'parcssjs'
p7696
(dp7697
g7685
I1
sg7690
L0L
sg7691
S'no'
p7698
ssS'cacheresredir'
p7699
(dp7700
g7685
I10
sg7690
L1L
sg7691
g7695
ssS'cacheexp'
p7701
(dp7702
g7685
I10
sg7690
L1L
sg7691
g7695
ssS'gzip'
p7703
(dp7704
g7685
I10
sg7690
L1L
sg7691
g7695
ssS'prefetch'
p7705
(dp7706
g7685
I1
sg7690
L0L
sg7691
g7698
ssS'cacheredir'
p7707
(dp7708
g7685
I1
sg7690
L0L
sg7691
g7698
ssS'parsheet'
p7709
(dp7710
g7685
I10
sg7690
L1L
sg7691
g7695
ssS'du'
p7711
(dp7712
g7685
I10
sg7690
L1L
sg7691
g7695
ssS'hostconn'
p7713
(dp7714
g7685
I5
sg7690
L2L
sg7691
g34
sssg7691
S'7/11'
p7715
ssS'Opera 9.70'
p7716
(dp7717
S'total_runs'
p7718
L2L
sS'score'
p7719
I4
sS'results'
p7720
(dp7721
S'maxconn'
p7722
(dp7723
g7719
I5
sS'median'
p7724
L20L
sS'display'
p7725
S'20'
p7726
ssS'parscript'
p7727
(dp7728
g7719
I1
sg7724
L0L
sg7725
S'no'
p7729
ssS'parcssjs'
p7730
(dp7731
g7719
I1
sg7724
L0L
sg7725
g7729
ssS'cacheresredir'
p7732
(dp7733
g7719
I1
sg7724
L0L
sg7725
g7729
ssS'cacheexp'
p7734
(dp7735
g7719
I10
sg7724
L1L
sg7725
S'yes'
p7736
ssS'gzip'
p7737
(dp7738
g7719
I10
sg7724
L1L
sg7725
g7736
ssS'prefetch'
p7739
(dp7740
g7719
I1
sg7724
L0L
sg7725
g7729
ssS'cacheredir'
p7741
(dp7742
g7719
I1
sg7724
L0L
sg7725
g7729
ssS'parsheet'
p7743
(dp7744
g7719
I10
sg7724
L1L
sg7725
g7736
ssS'du'
p7745
(dp7746
g7719
I10
sg7724
L1L
sg7725
g7736
ssS'hostconn'
p7747
(dp7748
g7719
I10
sg7724
L4L
sg7725
g11
sssg7725
S'5/11'
p7749
ssS'Blackberry 9500'
p7750
(dp7751
S'total_runs'
p7752
L3L
sS'score'
p7753
I4
sS'results'
p7754
(dp7755
S'maxconn'
p7756
(dp7757
g7753
I0
sS'median'
p7758
L5L
sS'display'
p7759
g1054
ssS'parscript'
p7760
(dp7761
g7753
I1
sg7758
L0L
sg7759
S'no'
p7762
ssS'parcssjs'
p7763
(dp7764
g7753
I1
sg7758
L0L
sg7759
g7762
ssS'cacheresredir'
p7765
(dp7766
g7753
I10
sg7758
L1L
sg7759
S'yes'
p7767
ssS'cacheexp'
p7768
(dp7769
g7753
I10
sg7758
L1L
sg7759
g7767
ssS'gzip'
p7770
(dp7771
g7753
I10
sg7758
L1L
sg7759
g7767
ssS'prefetch'
p7772
(dp7773
g7753
I1
sg7758
L0L
sg7759
g7762
ssS'cacheredir'
p7774
(dp7775
g7753
I10
sg7758
L1L
sg7759
g7767
ssS'parsheet'
p7776
(dp7777
g7753
I1
sg7758
L0L
sg7759
g7762
ssS'du'
p7778
(dp7779
g7753
I1
sg7758
L0L
sg7759
g7762
ssS'hostconn'
p7780
(dp7781
g7753
I10
sg7758
L5L
sg7759
g1054
sssg7759
S'5/11'
p7782
ssS'Nokia 79'
p7783
(dp7784
S'total_runs'
p7785
L1L
sS'score'
p7786
I5
sS'results'
p7787
(dp7788
S'maxconn'
p7789
(dp7790
g7786
I0
sS'median'
p7791
L7L
sS'display'
p7792
g113
ssS'parscript'
p7793
(dp7794
g7786
I10
sg7791
L1L
sg7792
S'yes'
p7795
ssS'parcssjs'
p7796
(dp7797
g7786
I1
sg7791
L0L
sg7792
S'no'
p7798
ssS'cacheresredir'
p7799
(dp7800
g7786
I1
sg7791
L0L
sg7792
g7798
ssS'cacheexp'
p7801
(dp7802
g7786
I10
sg7791
L1L
sg7792
g7795
ssS'gzip'
p7803
(dp7804
g7786
I10
sg7791
L1L
sg7792
g7795
ssS'prefetch'
p7805
(dp7806
g7786
I1
sg7791
L0L
sg7792
g7798
ssS'cacheredir'
p7807
(dp7808
g7786
I1
sg7791
L0L
sg7792
g7798
ssS'parsheet'
p7809
(dp7810
g7786
I10
sg7791
L1L
sg7792
g7795
ssS'du'
p7811
(dp7812
g7786
I10
sg7791
L1L
sg7792
g7795
ssS'hostconn'
p7813
(dp7814
g7786
I10
sg7791
L7L
sg7792
g113
sssg7792
S'6/11'
p7815
ssS'iRider 2.52'
p7816
(dp7817
S'total_runs'
p7818
L1L
sS'score'
p7819
I5
sS'results'
p7820
(dp7821
S'maxconn'
p7822
(dp7823
g7819
I10
sS'median'
p7824
L28L
sS'display'
p7825
S'28'
p7826
ssS'parscript'
p7827
(dp7828
g7819
I10
sg7824
L1L
sg7825
S'yes'
p7829
ssS'parcssjs'
p7830
(dp7831
g7819
I1
sg7824
L0L
sg7825
S'no'
p7832
ssS'cacheresredir'
p7833
(dp7834
g7819
I1
sg7824
L0L
sg7825
g7832
ssS'cacheexp'
p7835
(dp7836
g7819
I10
sg7824
L1L
sg7825
g7829
ssS'gzip'
p7837
(dp7838
g7819
I10
sg7824
L1L
sg7825
g7829
ssS'prefetch'
p7839
(dp7840
g7819
I1
sg7824
L0L
sg7825
g7832
ssS'cacheredir'
p7841
(dp7842
g7819
I1
sg7824
L0L
sg7825
g7832
ssS'parsheet'
p7843
(dp7844
g7819
I10
sg7824
L1L
sg7825
g7829
ssS'du'
p7845
(dp7846
g7819
I10
sg7824
L1L
sg7825
g7829
ssS'hostconn'
p7847
(dp7848
g7819
I5
sg7824
L2L
sg7825
g34
sssg7825
S'6/11'
p7849
ss.