(dp0
VPlayStation
p1
(dp2
S'total_runs'
p3
L5L
sS'score'
p4
I3
sS'results'
p5
(dp6
S'maxconn'
p7
(dp8
g4
I0
sS'median'
p9
L4L
sS'display'
p10
S'4'
p11
ssS'parscript'
p12
(dp13
g4
I1
sg9
L0L
sg10
S'no'
p14
ssS'parcssjs'
p15
(dp16
g4
I1
sg9
L0L
sg10
g14
ssS'cacheresredir'
p17
(dp18
g4
I1
sg9
L0L
sg10
g14
ssS'cacheexp'
p19
(dp20
g4
I10
sg9
L1L
sg10
S'yes'
p21
ssS'gzip'
p22
(dp23
g4
I1
sg9
L0L
sg10
g14
ssS'prefetch'
p24
(dp25
g4
I1
sg9
L0L
sg10
g14
ssS'cacheredir'
p26
(dp27
g4
I10
sg9
L1L
sg10
g21
ssS'parsheet'
p28
(dp29
g4
I1
sg9
L0L
sg10
g14
ssS'du'
p30
(dp31
g4
I10
sg9
L1L
sg10
g21
ssS'hostconn'
p32
(dp33
g4
I10
sg9
L4L
sg10
g11
sssg10
S'4/11'
p34
ssVObigo
p35
(dp36
S'total_runs'
p37
L5L
sS'score'
p38
I1
sS'results'
p39
(dp40
S'maxconn'
p41
(dp42
g38
I0
sS'median'
p43
L0L
sS'display'
p44
S'0'
p45
ssS'parscript'
p46
(dp47
g38
I1
sg43
L0L
sg44
S'no'
p48
ssS'parcssjs'
p49
(dp50
g38
I1
sg43
L0L
sg44
g48
ssS'cacheresredir'
p51
(dp52
g38
I1
sg43
L0L
sg44
g48
ssS'cacheexp'
p53
(dp54
g38
I10
sg43
L1L
sg44
S'yes'
p55
ssS'gzip'
p56
(dp57
g38
I1
sg43
L0L
sg44
g48
ssS'prefetch'
p58
(dp59
g38
I1
sg43
L0L
sg44
g48
ssS'cacheredir'
p60
(dp61
g38
I1
sg43
L0L
sg44
g48
ssS'parsheet'
p62
(dp63
g38
I1
sg43
L0L
sg44
g48
ssS'du'
p64
(dp65
g38
I1
sg43
L0L
sg44
g48
ssS'hostconn'
p66
(dp67
g38
I0
sg43
L1L
sg44
S'1'
p68
sssg44
S'1/11'
p69
ssVDemeter
p70
(dp71
S'total_runs'
p72
L1L
sS'score'
p73
I6
sS'results'
p74
(dp75
S'maxconn'
p76
(dp77
g73
I10
sS'median'
p78
L60L
sS'display'
p79
S'60'
p80
ssS'parscript'
p81
(dp82
g73
I1
sg78
L0L
sg79
S'no'
p83
ssS'parcssjs'
p84
(dp85
g73
I1
sg78
L0L
sg79
g83
ssS'cacheresredir'
p86
(dp87
g73
I10
sg78
L1L
sg79
S'yes'
p88
ssS'cacheexp'
p89
(dp90
g73
I10
sg78
L1L
sg79
g88
ssS'gzip'
p91
(dp92
g73
I10
sg78
L1L
sg79
g88
ssS'prefetch'
p93
(dp94
g73
I1
sg78
L0L
sg79
g83
ssS'cacheredir'
p95
(dp96
g73
I1
sg78
L0L
sg79
g83
ssS'parsheet'
p97
(dp98
g73
I10
sg78
L1L
sg79
g88
ssS'du'
p99
(dp100
g73
I10
sg78
L1L
sg79
g88
ssS'hostconn'
p101
(dp102
g73
I10
sg78
L4L
sg79
g11
sssg79
S'7/11'
p103
ssVChrome
p104
(dp105
S'total_runs'
p106
L1958L
sS'score'
p107
I7
sS'results'
p108
(dp109
S'maxconn'
p110
(dp111
g107
I10
sS'median'
p112
L60L
sS'display'
p113
S'60'
p114
ssS'parscript'
p115
(dp116
g107
I1
sg112
L0L
sg113
S'no'
p117
ssS'parcssjs'
p118
(dp119
g107
I1
sg112
L0L
sg113
g117
ssS'cacheresredir'
p120
(dp121
g107
I10
sg112
L1L
sg113
S'yes'
p122
ssS'cacheexp'
p123
(dp124
g107
I10
sg112
L1L
sg113
g122
ssS'gzip'
p125
(dp126
g107
I10
sg112
L1L
sg113
g122
ssS'prefetch'
p127
(dp128
g107
I1
sg112
L0L
sg113
g117
ssS'cacheredir'
p129
(dp130
g107
I10
sg112
L1L
sg113
g122
ssS'parsheet'
p131
(dp132
g107
I10
sg112
L1L
sg113
g122
ssS'du'
p133
(dp134
g107
I10
sg112
L1L
sg113
g122
ssS'hostconn'
p135
(dp136
g107
I10
sg112
L6L
sg113
S'6'
p137
sssg113
S'8/11'
p138
ssVJasmine
p139
(dp140
S'total_runs'
p141
L4L
sS'score'
p142
I4
sS'results'
p143
(dp144
S'maxconn'
p145
(dp146
g142
I0
sS'median'
p147
L5L
sS'display'
p148
S'5'
p149
ssS'parscript'
p150
(dp151
g142
I1
sg147
L0L
sg148
S'no'
p152
ssS'parcssjs'
p153
(dp154
g142
I1
sg147
L0L
sg148
g152
ssS'cacheresredir'
p155
(dp156
g142
I1
sg147
L0L
sg148
g152
ssS'cacheexp'
p157
(dp158
g142
I10
sg147
L1L
sg148
S'yes'
p159
ssS'gzip'
p160
(dp161
g142
I10
sg147
L1L
sg148
g159
ssS'prefetch'
p162
(dp163
g142
I1
sg147
L0L
sg148
g152
ssS'cacheredir'
p164
(dp165
g142
I1
sg147
L0L
sg148
g152
ssS'parsheet'
p166
(dp167
g142
I10
sg147
L1L
sg148
g159
ssS'du'
p168
(dp169
g142
I10
sg147
L1L
sg148
g159
ssS'hostconn'
p170
(dp171
g142
I10
sg147
L5L
sg148
g149
sssg148
S'5/11'
p172
ssVSeaMonkey
p173
(dp174
S'total_runs'
p175
L82L
sS'score'
p176
I6
sS'results'
p177
(dp178
S'maxconn'
p179
(dp180
g176
I10
sS'median'
p181
L24L
sS'display'
p182
S'24'
p183
ssS'parscript'
p184
(dp185
g176
I1
sg181
L0L
sg182
S'no'
p186
ssS'parcssjs'
p187
(dp188
g176
I1
sg181
L0L
sg182
g186
ssS'cacheresredir'
p189
(dp190
g176
I10
sg181
L1L
sg182
S'yes'
p191
ssS'cacheexp'
p192
(dp193
g176
I10
sg181
L1L
sg182
g191
ssS'gzip'
p194
(dp195
g176
I10
sg181
L1L
sg182
g191
ssS'prefetch'
p196
(dp197
g176
I10
sg181
L1L
sg182
g191
ssS'cacheredir'
p198
(dp199
g176
I10
sg181
L1L
sg182
g191
ssS'parsheet'
p200
(dp201
g176
I1
sg181
L0L
sg182
g186
ssS'du'
p202
(dp203
g176
I10
sg181
L1L
sg182
g191
ssS'hostconn'
p204
(dp205
g176
I5
sg181
L2L
sg182
S'2'
p206
sssg182
S'7/11'
p207
ssVMaxthon
p208
(dp209
S'total_runs'
p210
L57L
sS'score'
p211
I3
sS'results'
p212
(dp213
S'maxconn'
p214
(dp215
g211
I10
sS'median'
p216
L60L
sS'display'
p217
S'60'
p218
ssS'parscript'
p219
(dp220
g211
I1
sg216
L0L
sg217
S'no'
p221
ssS'parcssjs'
p222
(dp223
g211
I1
sg216
L0L
sg217
g221
ssS'cacheresredir'
p224
(dp225
g211
I1
sg216
L0L
sg217
g221
ssS'cacheexp'
p226
(dp227
g211
I10
sg216
L1L
sg217
S'yes'
p228
ssS'gzip'
p229
(dp230
g211
I10
sg216
L1L
sg217
g228
ssS'prefetch'
p231
(dp232
g211
I1
sg216
L0L
sg217
g221
ssS'cacheredir'
p233
(dp234
g211
I1
sg216
L0L
sg217
g221
ssS'parsheet'
p235
(dp236
g211
I1
sg216
L0L
sg217
g221
ssS'du'
p237
(dp238
g211
I1
sg216
L0L
sg217
g221
ssS'hostconn'
p239
(dp240
g211
I10
sg216
L6L
sg217
g137
sssg217
S'4/11'
p241
ssVCamino
p242
(dp243
S'total_runs'
p244
L50L
sS'score'
p245
I6
sS'results'
p246
(dp247
S'maxconn'
p248
(dp249
g245
I10
sS'median'
p250
L24L
sS'display'
p251
S'24'
p252
ssS'parscript'
p253
(dp254
g245
I1
sg250
L0L
sg251
S'no'
p255
ssS'parcssjs'
p256
(dp257
g245
I1
sg250
L0L
sg251
g255
ssS'cacheresredir'
p258
(dp259
g245
I10
sg250
L1L
sg251
S'yes'
p260
ssS'cacheexp'
p261
(dp262
g245
I10
sg250
L1L
sg251
g260
ssS'gzip'
p263
(dp264
g245
I10
sg250
L1L
sg251
g260
ssS'prefetch'
p265
(dp266
g245
I10
sg250
L1L
sg251
g260
ssS'cacheredir'
p267
(dp268
g245
I10
sg250
L1L
sg251
g260
ssS'parsheet'
p269
(dp270
g245
I1
sg250
L0L
sg251
g255
ssS'du'
p271
(dp272
g245
I10
sg250
L1L
sg251
g260
ssS'hostconn'
p273
(dp274
g245
I5
sg250
L2L
sg251
g206
sssg251
S'7/11'
p275
ssVOther
p276
(dp277
S'total_runs'
p278
L72L
sS'score'
p279
I6
sS'results'
p280
(dp281
S'maxconn'
p282
(dp283
g279
I10
sS'median'
p284
L29L
sS'display'
p285
S'29'
p286
ssS'parscript'
p287
(dp288
g279
I10
sg284
L1L
sg285
S'yes'
p289
ssS'parcssjs'
p290
(dp291
g279
I1
sg284
L0L
sg285
S'no'
p292
ssS'cacheresredir'
p293
(dp294
g279
I10
sg284
L1L
sg285
g289
ssS'cacheexp'
p295
(dp296
g279
I10
sg284
L1L
sg285
g289
ssS'gzip'
p297
(dp298
g279
I10
sg284
L1L
sg285
g289
ssS'prefetch'
p299
(dp300
g279
I1
sg284
L0L
sg285
g292
ssS'cacheredir'
p301
(dp302
g279
I1
sg284
L0L
sg285
g292
ssS'parsheet'
p303
(dp304
g279
I10
sg284
L1L
sg285
g289
ssS'du'
p305
(dp306
g279
I10
sg284
L1L
sg285
g289
ssS'hostconn'
p307
(dp308
g279
I5
sg284
L2L
sg285
g206
sssg285
S'7/11'
p309
ssVGranParadiso
p310
(dp311
S'total_runs'
p312
L44L
sS'score'
p313
I6
sS'results'
p314
(dp315
S'maxconn'
p316
(dp317
g313
I10
sS'median'
p318
L30L
sS'display'
p319
S'30'
p320
ssS'parscript'
p321
(dp322
g313
I1
sg318
L0L
sg319
S'no'
p323
ssS'parcssjs'
p324
(dp325
g313
I1
sg318
L0L
sg319
g323
ssS'cacheresredir'
p326
(dp327
g313
I1
sg318
L0L
sg319
g323
ssS'cacheexp'
p328
(dp329
g313
I10
sg318
L1L
sg319
S'yes'
p330
ssS'gzip'
p331
(dp332
g313
I10
sg318
L1L
sg319
g330
ssS'prefetch'
p333
(dp334
g313
I10
sg318
L1L
sg319
g330
ssS'cacheredir'
p335
(dp336
g313
I1
sg318
L0L
sg319
g323
ssS'parsheet'
p337
(dp338
g313
I10
sg318
L1L
sg319
g330
ssS'du'
p339
(dp340
g313
I10
sg318
L1L
sg319
g330
ssS'hostconn'
p341
(dp342
g313
I10
sg318
L6L
sg319
g137
sssg319
S'7/11'
p343
ssVWebPilot
p344
(dp345
S'total_runs'
p346
L1L
sS'score'
p347
I4
sS'results'
p348
(dp349
S'maxconn'
p350
(dp351
g347
I10
sS'median'
p352
L48L
sS'display'
p353
S'48'
p354
ssS'parscript'
p355
(dp356
g347
I1
sg352
L0L
sg353
S'no'
p357
ssS'parcssjs'
p358
(dp359
g347
I1
sg352
L0L
sg353
g357
ssS'cacheresredir'
p360
(dp361
g347
I1
sg352
L0L
sg353
g357
ssS'cacheexp'
p362
(dp363
g347
I10
sg352
L1L
sg353
S'yes'
p364
ssS'gzip'
p365
(dp366
g347
I10
sg352
L1L
sg353
g364
ssS'prefetch'
p367
(dp368
g347
I1
sg352
L0L
sg353
g357
ssS'cacheredir'
p369
(dp370
g347
I1
sg352
L0L
sg353
g357
ssS'parsheet'
p371
(dp372
g347
I10
sg352
L1L
sg353
g364
ssS'du'
p373
(dp374
g347
I1
sg352
L0L
sg353
g357
ssS'hostconn'
p375
(dp376
g347
I10
sg352
L16L
sg353
S'16'
p377
sssg353
S'5/11'
p378
ssVAndroid
p379
(dp380
S'total_runs'
p381
L46L
sS'score'
p382
I7
sS'results'
p383
(dp384
S'maxconn'
p385
(dp386
g382
I0
sS'median'
p387
L4L
sS'display'
p388
g11
ssS'parscript'
p389
(dp390
g382
I10
sg387
L1L
sg388
S'yes'
p391
ssS'parcssjs'
p392
(dp393
g382
I1
sg387
L0L
sg388
S'no'
p394
ssS'cacheresredir'
p395
(dp396
g382
I10
sg387
L1L
sg388
g391
ssS'cacheexp'
p397
(dp398
g382
I10
sg387
L1L
sg388
g391
ssS'gzip'
p399
(dp400
g382
I10
sg387
L1L
sg388
g391
ssS'prefetch'
p401
(dp402
g382
I1
sg387
L0L
sg388
g394
ssS'cacheredir'
p403
(dp404
g382
I10
sg387
L1L
sg388
g391
ssS'parsheet'
p405
(dp406
g382
I10
sg387
L1L
sg388
g391
ssS'du'
p407
(dp408
g382
I10
sg387
L1L
sg388
g391
ssS'hostconn'
p409
(dp410
g382
I10
sg387
L4L
sg388
g11
sssg388
S'8/11'
p411
ssVOLPC
p412
(dp413
S'total_runs'
p414
L1L
sS'score'
p415
I6
sS'results'
p416
(dp417
S'maxconn'
p418
(dp419
g415
I10
sS'median'
p420
L24L
sS'display'
p421
S'24'
p422
ssS'parscript'
p423
(dp424
g415
I1
sg420
L0L
sg421
S'no'
p425
ssS'parcssjs'
p426
(dp427
g415
I1
sg420
L0L
sg421
g425
ssS'cacheresredir'
p428
(dp429
g415
I10
sg420
L1L
sg421
S'yes'
p430
ssS'cacheexp'
p431
(dp432
g415
I10
sg420
L1L
sg421
g430
ssS'gzip'
p433
(dp434
g415
I10
sg420
L1L
sg421
g430
ssS'prefetch'
p435
(dp436
g415
I10
sg420
L1L
sg421
g430
ssS'cacheredir'
p437
(dp438
g415
I1
sg420
L0L
sg421
g425
ssS'parsheet'
p439
(dp440
g415
I10
sg420
L1L
sg421
g430
ssS'du'
p441
(dp442
g415
I10
sg420
L1L
sg421
g430
ssS'hostconn'
p443
(dp444
g415
I5
sg420
L2L
sg421
g206
sssg421
S'7/11'
p445
ssVVienna
p446
(dp447
S'total_runs'
p448
L5L
sS'score'
p449
I6
sS'results'
p450
(dp451
S'maxconn'
p452
(dp453
g449
I10
sS'median'
p454
L60L
sS'display'
p455
S'60'
p456
ssS'parscript'
p457
(dp458
g449
I1
sg454
L0L
sg455
S'no'
p459
ssS'parcssjs'
p460
(dp461
g449
I1
sg454
L0L
sg455
g459
ssS'cacheresredir'
p462
(dp463
g449
I10
sg454
L1L
sg455
S'yes'
p464
ssS'cacheexp'
p465
(dp466
g449
I10
sg454
L1L
sg455
g464
ssS'gzip'
p467
(dp468
g449
I10
sg454
L1L
sg455
g464
ssS'prefetch'
p469
(dp470
g449
I1
sg454
L0L
sg455
g459
ssS'cacheredir'
p471
(dp472
g449
I1
sg454
L0L
sg455
g459
ssS'parsheet'
p473
(dp474
g449
I10
sg454
L1L
sg455
g464
ssS'du'
p475
(dp476
g449
I10
sg454
L1L
sg455
g464
ssS'hostconn'
p477
(dp478
g449
I10
sg454
L4L
sg455
g11
sssg455
S'7/11'
p479
ssVSleipnir
p480
(dp481
S'total_runs'
p482
L12L
sS'score'
p483
I4
sS'results'
p484
(dp485
S'maxconn'
p486
(dp487
g483
I10
sS'median'
p488
L60L
sS'display'
p489
S'60'
p490
ssS'parscript'
p491
(dp492
g483
I1
sg488
L0L
sg489
S'no'
p493
ssS'parcssjs'
p494
(dp495
g483
I1
sg488
L0L
sg489
g493
ssS'cacheresredir'
p496
(dp497
g483
I1
sg488
L0L
sg489
g493
ssS'cacheexp'
p498
(dp499
g483
I10
sg488
L1L
sg489
S'yes'
p500
ssS'gzip'
p501
(dp502
g483
I10
sg488
L1L
sg489
g500
ssS'prefetch'
p503
(dp504
g483
I1
sg488
L0L
sg489
g493
ssS'cacheredir'
p505
(dp506
g483
I1
sg488
L0L
sg489
g493
ssS'parsheet'
p507
(dp508
g483
I10
sg488
L1L
sg489
g500
ssS'du'
p509
(dp510
g483
I1
sg488
L0L
sg489
g493
ssS'hostconn'
p511
(dp512
g483
I10
sg488
L6L
sg489
g137
sssg489
S'5/11'
p513
ssVNetFront
p514
(dp515
S'total_runs'
p516
L8L
sS'score'
p517
I3
sS'results'
p518
(dp519
S'maxconn'
p520
(dp521
g517
I0
sS'median'
p522
L0L
sS'display'
p523
g45
ssS'parscript'
p524
(dp525
g517
I1
sg522
L0L
sg523
S'no'
p526
ssS'parcssjs'
p527
(dp528
g517
I1
sg522
L0L
sg523
g526
ssS'cacheresredir'
p529
(dp530
g517
I1
sg522
L0L
sg523
g526
ssS'cacheexp'
p531
(dp532
g517
I10
sg522
L1L
sg523
S'yes'
p533
ssS'gzip'
p534
(dp535
g517
I10
sg522
L1L
sg523
g533
ssS'prefetch'
p536
(dp537
g517
I1
sg522
L0L
sg523
g526
ssS'cacheredir'
p538
(dp539
g517
I1
sg522
L0L
sg523
g526
ssS'parsheet'
p540
(dp541
g517
I1
sg522
L0L
sg523
g526
ssS'du'
p542
(dp543
g517
I10
sg522
L1L
sg523
g533
ssS'hostconn'
p544
(dp545
g517
I0
sg522
L0L
sg523
g45
sssg523
S'3/11'
p546
ssVNokia
p547
(dp548
S'total_runs'
p549
L35L
sS'score'
p550
I3
sS'results'
p551
(dp552
S'maxconn'
p553
(dp554
g550
I0
sS'median'
p555
L7L
sS'display'
p556
S'7'
p557
ssS'parscript'
p558
(dp559
g550
I10
sg555
L1L
sg556
S'yes'
p560
ssS'parcssjs'
p561
(dp562
g550
I1
sg555
L0L
sg556
S'no'
p563
ssS'cacheresredir'
p564
(dp565
g550
I1
sg555
L0L
sg556
g563
ssS'cacheexp'
p566
(dp567
g550
I10
sg555
L1L
sg556
g560
ssS'gzip'
p568
(dp569
g550
I10
sg555
L1L
sg556
g560
ssS'prefetch'
p570
(dp571
g550
I1
sg555
L0L
sg556
g563
ssS'cacheredir'
p572
(dp573
g550
I1
sg555
L0L
sg556
g563
ssS'parsheet'
p574
(dp575
g550
I10
sg555
L1L
sg556
g560
ssS'du'
p576
(dp577
g550
I1
sg555
L0L
sg556
g563
ssS'hostconn'
p578
(dp579
g550
I0
sg555
L0L
sg556
g45
sssg556
S'4/11'
p580
ssVFresco
p581
(dp582
S'total_runs'
p583
L1L
sS'score'
p584
I6
sS'results'
p585
(dp586
S'maxconn'
p587
(dp588
g584
I10
sS'median'
p589
L30L
sS'display'
p590
S'30'
p591
ssS'parscript'
p592
(dp593
g584
I1
sg589
L0L
sg590
S'no'
p594
ssS'parcssjs'
p595
(dp596
g584
I1
sg589
L0L
sg590
g594
ssS'cacheresredir'
p597
(dp598
g584
I1
sg589
L0L
sg590
g594
ssS'cacheexp'
p599
(dp600
g584
I10
sg589
L1L
sg590
S'yes'
p601
ssS'gzip'
p602
(dp603
g584
I10
sg589
L1L
sg590
g601
ssS'prefetch'
p604
(dp605
g584
I10
sg589
L1L
sg590
g601
ssS'cacheredir'
p606
(dp607
g584
I1
sg589
L0L
sg590
g594
ssS'parsheet'
p608
(dp609
g584
I10
sg589
L1L
sg590
g601
ssS'du'
p610
(dp611
g584
I10
sg589
L1L
sg590
g601
ssS'hostconn'
p612
(dp613
g584
I10
sg589
L6L
sg590
g137
sssg590
S'7/11'
p614
ssVFluid
p615
(dp616
S'total_runs'
p617
L2L
sS'score'
p618
I6
sS'results'
p619
(dp620
S'maxconn'
p621
(dp622
g618
I10
sS'median'
p623
L60L
sS'display'
p624
S'60'
p625
ssS'parscript'
p626
(dp627
g618
I1
sg623
L0L
sg624
S'no'
p628
ssS'parcssjs'
p629
(dp630
g618
I1
sg623
L0L
sg624
g628
ssS'cacheresredir'
p631
(dp632
g618
I10
sg623
L1L
sg624
S'yes'
p633
ssS'cacheexp'
p634
(dp635
g618
I10
sg623
L1L
sg624
g633
ssS'gzip'
p636
(dp637
g618
I10
sg623
L1L
sg624
g633
ssS'prefetch'
p638
(dp639
g618
I1
sg623
L0L
sg624
g628
ssS'cacheredir'
p640
(dp641
g618
I1
sg623
L0L
sg624
g628
ssS'parsheet'
p642
(dp643
g618
I10
sg623
L1L
sg624
g633
ssS'du'
p644
(dp645
g618
I10
sg623
L1L
sg624
g633
ssS'hostconn'
p646
(dp647
g618
I10
sg623
L4L
sg624
g11
sssg624
S'7/11'
p648
ssVK-Meleon
p649
(dp650
S'total_runs'
p651
L18L
sS'score'
p652
I6
sS'results'
p653
(dp654
S'maxconn'
p655
(dp656
g652
I10
sS'median'
p657
L24L
sS'display'
p658
S'24'
p659
ssS'parscript'
p660
(dp661
g652
I1
sg657
L0L
sg658
S'no'
p662
ssS'parcssjs'
p663
(dp664
g652
I1
sg657
L0L
sg658
g662
ssS'cacheresredir'
p665
(dp666
g652
I10
sg657
L1L
sg658
S'yes'
p667
ssS'cacheexp'
p668
(dp669
g652
I10
sg657
L1L
sg658
g667
ssS'gzip'
p670
(dp671
g652
I10
sg657
L1L
sg658
g667
ssS'prefetch'
p672
(dp673
g652
I10
sg657
L1L
sg658
g667
ssS'cacheredir'
p674
(dp675
g652
I10
sg657
L1L
sg658
g667
ssS'parsheet'
p676
(dp677
g652
I1
sg657
L0L
sg658
g662
ssS'du'
p678
(dp679
g652
I10
sg657
L1L
sg658
g667
ssS'hostconn'
p680
(dp681
g652
I5
sg657
L2L
sg658
g206
sssg658
S'7/11'
p682
ssVShiira
p683
(dp684
S'total_runs'
p685
L14L
sS'score'
p686
I6
sS'results'
p687
(dp688
S'maxconn'
p689
(dp690
g686
I10
sS'median'
p691
L60L
sS'display'
p692
S'60'
p693
ssS'parscript'
p694
(dp695
g686
I1
sg691
L0L
sg692
S'no'
p696
ssS'parcssjs'
p697
(dp698
g686
I1
sg691
L0L
sg692
g696
ssS'cacheresredir'
p699
(dp700
g686
I10
sg691
L1L
sg692
S'yes'
p701
ssS'cacheexp'
p702
(dp703
g686
I10
sg691
L1L
sg692
g701
ssS'gzip'
p704
(dp705
g686
I10
sg691
L1L
sg692
g701
ssS'prefetch'
p706
(dp707
g686
I1
sg691
L0L
sg692
g696
ssS'cacheredir'
p708
(dp709
g686
I1
sg691
L0L
sg692
g696
ssS'parsheet'
p710
(dp711
g686
I10
sg691
L1L
sg692
g701
ssS'du'
p712
(dp713
g686
I10
sg691
L1L
sg692
g701
ssS'hostconn'
p714
(dp715
g686
I10
sg691
L4L
sg692
g11
sssg692
S'7/11'
p716
ssVBolt
p717
(dp718
S'total_runs'
p719
L2L
sS'score'
p720
I4
sS'results'
p721
(dp722
S'maxconn'
p723
(dp724
g720
I0
sS'median'
p725
L5L
sS'display'
p726
g149
ssS'parscript'
p727
(dp728
g720
I1
sg725
L0L
sg726
S'no'
p729
ssS'parcssjs'
p730
(dp731
g720
I1
sg725
L0L
sg726
g729
ssS'cacheresredir'
p732
(dp733
g720
I1
sg725
L0L
sg726
g729
ssS'cacheexp'
p734
(dp735
g720
I1
sg725
L0L
sg726
g729
ssS'gzip'
p736
(dp737
g720
I10
sg725
L1L
sg726
S'yes'
p738
ssS'prefetch'
p739
(dp740
g720
I1
sg725
L0L
sg726
g729
ssS'cacheredir'
p741
(dp742
g720
I10
sg725
L1L
sg726
g738
ssS'parsheet'
p743
(dp744
g720
I10
sg725
L1L
sg726
g738
ssS'du'
p745
(dp746
g720
I10
sg725
L1L
sg726
g738
ssS'hostconn'
p747
(dp748
g720
I10
sg725
L5L
sg726
g149
sssg726
S'5/11'
p749
ssVSafari
p750
(dp751
S'total_runs'
p752
L1223L
sS'score'
p753
I6
sS'results'
p754
(dp755
S'maxconn'
p756
(dp757
g753
I10
sS'median'
p758
L60L
sS'display'
p759
S'60'
p760
ssS'parscript'
p761
(dp762
g753
I1
sg758
L0L
sg759
S'no'
p763
ssS'parcssjs'
p764
(dp765
g753
I1
sg758
L0L
sg759
g763
ssS'cacheresredir'
p766
(dp767
g753
I10
sg758
L1L
sg759
S'yes'
p768
ssS'cacheexp'
p769
(dp770
g753
I10
sg758
L1L
sg759
g768
ssS'gzip'
p771
(dp772
g753
I10
sg758
L1L
sg759
g768
ssS'prefetch'
p773
(dp774
g753
I1
sg758
L0L
sg759
g763
ssS'cacheredir'
p775
(dp776
g753
I1
sg758
L0L
sg759
g763
ssS'parsheet'
p777
(dp778
g753
I10
sg758
L1L
sg759
g768
ssS'du'
p779
(dp780
g753
I10
sg758
L1L
sg759
g768
ssS'hostconn'
p781
(dp782
g753
I10
sg758
L4L
sg759
g11
sssg759
S'7/11'
p783
ssViCab
p784
(dp785
S'total_runs'
p786
L7L
sS'score'
p787
I6
sS'results'
p788
(dp789
S'maxconn'
p790
(dp791
g787
I10
sS'median'
p792
L60L
sS'display'
p793
S'60'
p794
ssS'parscript'
p795
(dp796
g787
I1
sg792
L0L
sg793
S'no'
p797
ssS'parcssjs'
p798
(dp799
g787
I1
sg792
L0L
sg793
g797
ssS'cacheresredir'
p800
(dp801
g787
I10
sg792
L1L
sg793
S'yes'
p802
ssS'cacheexp'
p803
(dp804
g787
I10
sg792
L1L
sg793
g802
ssS'gzip'
p805
(dp806
g787
I10
sg792
L1L
sg793
g802
ssS'prefetch'
p807
(dp808
g787
I1
sg792
L0L
sg793
g797
ssS'cacheredir'
p809
(dp810
g787
I1
sg792
L0L
sg793
g797
ssS'parsheet'
p811
(dp812
g787
I10
sg792
L1L
sg793
g802
ssS'du'
p813
(dp814
g787
I10
sg792
L1L
sg793
g802
ssS'hostconn'
p815
(dp816
g787
I10
sg792
L4L
sg793
g11
sssg793
S'7/11'
p817
ssVGaleon
p818
(dp819
S'total_runs'
p820
L8L
sS'score'
p821
I6
sS'results'
p822
(dp823
S'maxconn'
p824
(dp825
g821
I10
sS'median'
p826
L30L
sS'display'
p827
S'30'
p828
ssS'parscript'
p829
(dp830
g821
I1
sg826
L0L
sg827
S'no'
p831
ssS'parcssjs'
p832
(dp833
g821
I1
sg826
L0L
sg827
g831
ssS'cacheresredir'
p834
(dp835
g821
I1
sg826
L0L
sg827
g831
ssS'cacheexp'
p836
(dp837
g821
I10
sg826
L1L
sg827
S'yes'
p838
ssS'gzip'
p839
(dp840
g821
I10
sg826
L1L
sg827
g838
ssS'prefetch'
p841
(dp842
g821
I10
sg826
L1L
sg827
g838
ssS'cacheredir'
p843
(dp844
g821
I1
sg826
L0L
sg827
g831
ssS'parsheet'
p845
(dp846
g821
I10
sg826
L1L
sg827
g838
ssS'du'
p847
(dp848
g821
I10
sg826
L1L
sg827
g838
ssS'hostconn'
p849
(dp850
g821
I10
sg826
L6L
sg827
g137
sssg827
S'7/11'
p851
ssVVodafone
p852
(dp853
S'total_runs'
p854
L2L
sS'score'
p855
I3
sS'results'
p856
(dp857
S'maxconn'
p858
(dp859
g855
I0
sS'median'
p860
L0L
sS'display'
p861
g45
ssS'parscript'
p862
(dp863
g855
I1
sg860
L0L
sg861
S'no'
p864
ssS'parcssjs'
p865
(dp866
g855
I1
sg860
L0L
sg861
g864
ssS'cacheresredir'
p867
(dp868
g855
I10
sg860
L1L
sg861
S'yes'
p869
ssS'cacheexp'
p870
(dp871
g855
I10
sg860
L1L
sg861
g869
ssS'gzip'
p872
(dp873
g855
I1
sg860
L0L
sg861
g864
ssS'prefetch'
p874
(dp875
g855
I1
sg860
L0L
sg861
g864
ssS'cacheredir'
p876
(dp877
g855
I1
sg860
L0L
sg861
g864
ssS'parsheet'
p878
(dp879
g855
I10
sg860
L1L
sg861
g869
ssS'du'
p880
(dp881
g855
I10
sg860
L1L
sg861
g869
ssS'hostconn'
p882
(dp883
g855
I0
sg860
L0L
sg861
g45
sssg861
S'4/11'
p884
ssVPolaris
p885
(dp886
S'total_runs'
p887
L1L
sS'score'
p888
I8
sS'results'
p889
(dp890
S'maxconn'
p891
(dp892
g888
I10
sS'median'
p893
L50L
sS'display'
p894
S'50'
p895
ssS'parscript'
p896
(dp897
g888
I10
sg893
L1L
sg894
S'yes'
p898
ssS'parcssjs'
p899
(dp900
g888
I1
sg893
L0L
sg894
S'no'
p901
ssS'cacheresredir'
p902
(dp903
g888
I10
sg893
L1L
sg894
g898
ssS'cacheexp'
p904
(dp905
g888
I10
sg893
L1L
sg894
g898
ssS'gzip'
p906
(dp907
g888
I10
sg893
L1L
sg894
g898
ssS'prefetch'
p908
(dp909
g888
I1
sg893
L0L
sg894
g901
ssS'cacheredir'
p910
(dp911
g888
I10
sg893
L1L
sg894
g898
ssS'parsheet'
p912
(dp913
g888
I10
sg893
L1L
sg894
g898
ssS'du'
p914
(dp915
g888
I10
sg893
L1L
sg894
g898
ssS'hostconn'
p916
(dp917
g888
I10
sg893
L10L
sg894
S'10'
p918
sssg894
S'9/11'
p919
ssVNetscape
p920
(dp921
S'total_runs'
p922
L16L
sS'score'
p923
I4
sS'results'
p924
(dp925
S'maxconn'
p926
(dp927
g923
I10
sS'median'
p928
L24L
sS'display'
p929
S'24'
p930
ssS'parscript'
p931
(dp932
g923
I1
sg928
L0L
sg929
S'no'
p933
ssS'parcssjs'
p934
(dp935
g923
I1
sg928
L0L
sg929
g933
ssS'cacheresredir'
p936
(dp937
g923
I10
sg928
L1L
sg929
S'yes'
p938
ssS'cacheexp'
p939
(dp940
g923
I10
sg928
L1L
sg929
g938
ssS'gzip'
p941
(dp942
g923
I10
sg928
L1L
sg929
g938
ssS'prefetch'
p943
(dp944
g923
I1
sg928
L0L
sg929
g933
ssS'cacheredir'
p945
(dp946
g923
I1
sg928
L0L
sg929
g933
ssS'parsheet'
p947
(dp948
g923
I1
sg928
L0L
sg929
g933
ssS'du'
p949
(dp950
g923
I10
sg928
L1L
sg929
g938
ssS'hostconn'
p951
(dp952
g923
I5
sg928
L2L
sg929
g206
sssg929
S'5/11'
p953
ssVIceweasel
p954
(dp955
S'total_runs'
p956
L107L
sS'score'
p957
I6
sS'results'
p958
(dp959
S'maxconn'
p960
(dp961
g957
I10
sS'median'
p962
L30L
sS'display'
p963
S'30'
p964
ssS'parscript'
p965
(dp966
g957
I1
sg962
L0L
sg963
S'no'
p967
ssS'parcssjs'
p968
(dp969
g957
I1
sg962
L0L
sg963
g967
ssS'cacheresredir'
p970
(dp971
g957
I1
sg962
L0L
sg963
g967
ssS'cacheexp'
p972
(dp973
g957
I10
sg962
L1L
sg963
S'yes'
p974
ssS'gzip'
p975
(dp976
g957
I10
sg962
L1L
sg963
g974
ssS'prefetch'
p977
(dp978
g957
I10
sg962
L1L
sg963
g974
ssS'cacheredir'
p979
(dp980
g957
I1
sg962
L0L
sg963
g967
ssS'parsheet'
p981
(dp982
g957
I10
sg962
L1L
sg963
g974
ssS'du'
p983
(dp984
g957
I10
sg962
L1L
sg963
g974
ssS'hostconn'
p985
(dp986
g957
I10
sg962
L6L
sg963
g137
sssg963
S'7/11'
p987
ssVKonqueror
p988
(dp989
S'total_runs'
p990
L115L
sS'score'
p991
I5
sS'results'
p992
(dp993
S'maxconn'
p994
(dp995
g991
I0
sS'median'
p996
L5L
sS'display'
p997
g149
ssS'parscript'
p998
(dp999
g991
I1
sg996
L0L
sg997
S'no'
p1000
ssS'parcssjs'
p1001
(dp1002
g991
I1
sg996
L0L
sg997
g1000
ssS'cacheresredir'
p1003
(dp1004
g991
I10
sg996
L1L
sg997
S'yes'
p1005
ssS'cacheexp'
p1006
(dp1007
g991
I10
sg996
L1L
sg997
g1005
ssS'gzip'
p1008
(dp1009
g991
I10
sg996
L1L
sg997
g1005
ssS'prefetch'
p1010
(dp1011
g991
I1
sg996
L0L
sg997
g1000
ssS'cacheredir'
p1012
(dp1013
g991
I1
sg996
L0L
sg997
g1000
ssS'parsheet'
p1014
(dp1015
g991
I10
sg996
L1L
sg997
g1005
ssS'du'
p1016
(dp1017
g991
I10
sg996
L1L
sg997
g1005
ssS'hostconn'
p1018
(dp1019
g991
I10
sg996
L5L
sg997
g149
sssg997
S'6/11'
p1020
ssVMyIE2
p1021
(dp1022
S'total_runs'
p1023
L7L
sS'score'
p1024
I6
sS'results'
p1025
(dp1026
S'maxconn'
p1027
(dp1028
g1024
I10
sS'median'
p1029
L60L
sS'display'
p1030
S'60'
p1031
ssS'parscript'
p1032
(dp1033
g1024
I10
sg1029
L1L
sg1030
S'yes'
p1034
ssS'parcssjs'
p1035
(dp1036
g1024
I1
sg1029
L0L
sg1030
S'no'
p1037
ssS'cacheresredir'
p1038
(dp1039
g1024
I1
sg1029
L0L
sg1030
g1037
ssS'cacheexp'
p1040
(dp1041
g1024
I10
sg1029
L1L
sg1030
g1034
ssS'gzip'
p1042
(dp1043
g1024
I10
sg1029
L1L
sg1030
g1034
ssS'prefetch'
p1044
(dp1045
g1024
I1
sg1029
L0L
sg1030
g1037
ssS'cacheredir'
p1046
(dp1047
g1024
I1
sg1029
L0L
sg1030
g1037
ssS'parsheet'
p1048
(dp1049
g1024
I10
sg1029
L1L
sg1030
g1034
ssS'du'
p1050
(dp1051
g1024
I10
sg1029
L1L
sg1030
g1034
ssS'hostconn'
p1052
(dp1053
g1024
I10
sg1029
L10L
sg1030
S'10'
p1054
sssg1030
S'7/11'
p1055
ssVKazehakase
p1056
(dp1057
S'total_runs'
p1058
L6L
sS'score'
p1059
I6
sS'results'
p1060
(dp1061
S'maxconn'
p1062
(dp1063
g1059
I10
sS'median'
p1064
L29L
sS'display'
p1065
S'29'
p1066
ssS'parscript'
p1067
(dp1068
g1059
I1
sg1064
L0L
sg1065
S'no'
p1069
ssS'parcssjs'
p1070
(dp1071
g1059
I1
sg1064
L0L
sg1065
g1069
ssS'cacheresredir'
p1072
(dp1073
g1059
I1
sg1064
L0L
sg1065
g1069
ssS'cacheexp'
p1074
(dp1075
g1059
I10
sg1064
L1L
sg1065
S'yes'
p1076
ssS'gzip'
p1077
(dp1078
g1059
I10
sg1064
L1L
sg1065
g1076
ssS'prefetch'
p1079
(dp1080
g1059
I10
sg1064
L1L
sg1065
g1076
ssS'cacheredir'
p1081
(dp1082
g1059
I1
sg1064
L0L
sg1065
g1069
ssS'parsheet'
p1083
(dp1084
g1059
I10
sg1064
L1L
sg1065
g1076
ssS'du'
p1085
(dp1086
g1059
I10
sg1064
L1L
sg1065
g1076
ssS'hostconn'
p1087
(dp1088
g1059
I10
sg1064
L6L
sg1065
g137
sssg1065
S'7/11'
p1089
ssVIceape
p1090
(dp1091
S'total_runs'
p1092
L6L
sS'score'
p1093
I6
sS'results'
p1094
(dp1095
S'maxconn'
p1096
(dp1097
g1093
I10
sS'median'
p1098
L24L
sS'display'
p1099
S'24'
p1100
ssS'parscript'
p1101
(dp1102
g1093
I1
sg1098
L0L
sg1099
S'no'
p1103
ssS'parcssjs'
p1104
(dp1105
g1093
I1
sg1098
L0L
sg1099
g1103
ssS'cacheresredir'
p1106
(dp1107
g1093
I10
sg1098
L1L
sg1099
S'yes'
p1108
ssS'cacheexp'
p1109
(dp1110
g1093
I10
sg1098
L1L
sg1099
g1108
ssS'gzip'
p1111
(dp1112
g1093
I10
sg1098
L1L
sg1099
g1108
ssS'prefetch'
p1113
(dp1114
g1093
I10
sg1098
L1L
sg1099
g1108
ssS'cacheredir'
p1115
(dp1116
g1093
I10
sg1098
L1L
sg1099
g1108
ssS'parsheet'
p1117
(dp1118
g1093
I1
sg1098
L0L
sg1099
g1103
ssS'du'
p1119
(dp1120
g1093
I10
sg1098
L1L
sg1099
g1108
ssS'hostconn'
p1121
(dp1122
g1093
I5
sg1098
L2L
sg1099
g206
sssg1099
S'7/11'
p1123
ssVOpera
p1124
(dp1125
S'total_runs'
p1126
L4940L
sS'score'
p1127
I5
sS'results'
p1128
(dp1129
S'maxconn'
p1130
(dp1131
g1127
I10
sS'median'
p1132
L25L
sS'display'
p1133
S'25'
p1134
ssS'parscript'
p1135
(dp1136
g1127
I1
sg1132
L0L
sg1133
S'no'
p1137
ssS'parcssjs'
p1138
(dp1139
g1127
I1
sg1132
L0L
sg1133
g1137
ssS'cacheresredir'
p1140
(dp1141
g1127
I1
sg1132
L0L
sg1133
g1137
ssS'cacheexp'
p1142
(dp1143
g1127
I10
sg1132
L1L
sg1133
S'yes'
p1144
ssS'gzip'
p1145
(dp1146
g1127
I10
sg1132
L1L
sg1133
g1144
ssS'prefetch'
p1147
(dp1148
g1127
I1
sg1132
L0L
sg1133
g1137
ssS'cacheredir'
p1149
(dp1150
g1127
I1
sg1132
L0L
sg1133
g1137
ssS'parsheet'
p1151
(dp1152
g1127
I10
sg1132
L1L
sg1133
g1144
ssS'du'
p1153
(dp1154
g1127
I10
sg1132
L1L
sg1133
g1144
ssS'hostconn'
p1155
(dp1156
g1127
I10
sg1132
L4L
sg1133
g11
sssg1133
S'6/11'
p1157
ssVAvant
p1158
(dp1159
S'total_runs'
p1160
L32L
sS'score'
p1161
I3
sS'results'
p1162
(dp1163
S'maxconn'
p1164
(dp1165
g1161
I10
sS'median'
p1166
L60L
sS'display'
p1167
S'60'
p1168
ssS'parscript'
p1169
(dp1170
g1161
I1
sg1166
L0L
sg1167
S'no'
p1171
ssS'parcssjs'
p1172
(dp1173
g1161
I1
sg1166
L0L
sg1167
g1171
ssS'cacheresredir'
p1174
(dp1175
g1161
I1
sg1166
L0L
sg1167
g1171
ssS'cacheexp'
p1176
(dp1177
g1161
I10
sg1166
L1L
sg1167
S'yes'
p1178
ssS'gzip'
p1179
(dp1180
g1161
I10
sg1166
L1L
sg1167
g1178
ssS'prefetch'
p1181
(dp1182
g1161
I1
sg1166
L0L
sg1167
g1171
ssS'cacheredir'
p1183
(dp1184
g1161
I1
sg1166
L0L
sg1167
g1171
ssS'parsheet'
p1185
(dp1186
g1161
I10
sg1166
L1L
sg1167
g1178
ssS'du'
p1187
(dp1188
g1161
I1
sg1166
L0L
sg1167
g1171
ssS'hostconn'
p1189
(dp1190
g1161
I5
sg1166
L2L
sg1167
g206
sssg1167
S'4/11'
p1191
ssVQtWeb
p1192
(dp1193
S'total_runs'
p1194
L4L
sS'score'
p1195
I6
sS'results'
p1196
(dp1197
S'maxconn'
p1198
(dp1199
g1195
I10
sS'median'
p1200
L60L
sS'display'
p1201
S'60'
p1202
ssS'parscript'
p1203
(dp1204
g1195
I10
sg1200
L1L
sg1201
S'yes'
p1205
ssS'parcssjs'
p1206
(dp1207
g1195
I1
sg1200
L0L
sg1201
S'no'
p1208
ssS'cacheresredir'
p1209
(dp1210
g1195
I10
sg1200
L1L
sg1201
g1205
ssS'cacheexp'
p1211
(dp1212
g1195
I10
sg1200
L1L
sg1201
g1205
ssS'gzip'
p1213
(dp1214
g1195
I10
sg1200
L1L
sg1201
g1205
ssS'prefetch'
p1215
(dp1216
g1195
I1
sg1200
L0L
sg1201
g1208
ssS'cacheredir'
p1217
(dp1218
g1195
I1
sg1200
L0L
sg1201
g1208
ssS'parsheet'
p1219
(dp1220
g1195
I10
sg1200
L1L
sg1201
g1205
ssS'du'
p1221
(dp1222
g1195
I10
sg1200
L1L
sg1201
g1205
ssS'hostconn'
p1223
(dp1224
g1195
I5
sg1200
L2L
sg1201
g206
sssg1201
S'7/11'
p1225
ssViRider
p1226
(dp1227
S'total_runs'
p1228
L1L
sS'score'
p1229
I5
sS'results'
p1230
(dp1231
S'maxconn'
p1232
(dp1233
g1229
I10
sS'median'
p1234
L28L
sS'display'
p1235
S'28'
p1236
ssS'parscript'
p1237
(dp1238
g1229
I10
sg1234
L1L
sg1235
S'yes'
p1239
ssS'parcssjs'
p1240
(dp1241
g1229
I1
sg1234
L0L
sg1235
S'no'
p1242
ssS'cacheresredir'
p1243
(dp1244
g1229
I1
sg1234
L0L
sg1235
g1242
ssS'cacheexp'
p1245
(dp1246
g1229
I10
sg1234
L1L
sg1235
g1239
ssS'gzip'
p1247
(dp1248
g1229
I10
sg1234
L1L
sg1235
g1239
ssS'prefetch'
p1249
(dp1250
g1229
I1
sg1234
L0L
sg1235
g1242
ssS'cacheredir'
p1251
(dp1252
g1229
I1
sg1234
L0L
sg1235
g1242
ssS'parsheet'
p1253
(dp1254
g1229
I10
sg1234
L1L
sg1235
g1239
ssS'du'
p1255
(dp1256
g1229
I10
sg1234
L1L
sg1235
g1239
ssS'hostconn'
p1257
(dp1258
g1229
I5
sg1234
L2L
sg1235
g206
sssg1235
S'6/11'
p1259
ssVMicroB
p1260
(dp1261
S'total_runs'
p1262
L6L
sS'score'
p1263
I7
sS'results'
p1264
(dp1265
S'maxconn'
p1266
(dp1267
g1263
I10
sS'median'
p1268
L24L
sS'display'
p1269
S'24'
p1270
ssS'parscript'
p1271
(dp1272
g1263
I1
sg1268
L0L
sg1269
S'no'
p1273
ssS'parcssjs'
p1274
(dp1275
g1263
I1
sg1268
L0L
sg1269
g1273
ssS'cacheresredir'
p1276
(dp1277
g1263
I10
sg1268
L1L
sg1269
S'yes'
p1278
ssS'cacheexp'
p1279
(dp1280
g1263
I10
sg1268
L1L
sg1269
g1278
ssS'gzip'
p1281
(dp1282
g1263
I10
sg1268
L1L
sg1269
g1278
ssS'prefetch'
p1283
(dp1284
g1263
I10
sg1268
L1L
sg1269
g1278
ssS'cacheredir'
p1285
(dp1286
g1263
I1
sg1268
L0L
sg1269
g1273
ssS'parsheet'
p1287
(dp1288
g1263
I10
sg1268
L1L
sg1269
g1278
ssS'du'
p1289
(dp1290
g1263
I10
sg1268
L1L
sg1269
g1278
ssS'hostconn'
p1291
(dp1292
g1263
I10
sg1268
L4L
sg1269
g11
sssg1269
S'8/11'
p1293
ssVEpiphany
p1294
(dp1295
S'total_runs'
p1296
L44L
sS'score'
p1297
I7
sS'results'
p1298
(dp1299
S'maxconn'
p1300
(dp1301
g1297
I10
sS'median'
p1302
L30L
sS'display'
p1303
S'30'
p1304
ssS'parscript'
p1305
(dp1306
g1297
I1
sg1302
L0L
sg1303
S'no'
p1307
ssS'parcssjs'
p1308
(dp1309
g1297
I1
sg1302
L0L
sg1303
g1307
ssS'cacheresredir'
p1310
(dp1311
g1297
I10
sg1302
L1L
sg1303
S'yes'
p1312
ssS'cacheexp'
p1313
(dp1314
g1297
I10
sg1302
L1L
sg1303
g1312
ssS'gzip'
p1315
(dp1316
g1297
I10
sg1302
L1L
sg1303
g1312
ssS'prefetch'
p1317
(dp1318
g1297
I10
sg1302
L1L
sg1303
g1312
ssS'cacheredir'
p1319
(dp1320
g1297
I1
sg1302
L0L
sg1303
g1307
ssS'parsheet'
p1321
(dp1322
g1297
I10
sg1302
L1L
sg1303
g1312
ssS'du'
p1323
(dp1324
g1297
I10
sg1302
L1L
sg1303
g1312
ssS'hostconn'
p1325
(dp1326
g1297
I10
sg1302
L6L
sg1303
g137
sssg1303
S'8/11'
p1327
ssVPhoenix
p1328
(dp1329
S'total_runs'
p1330
L2L
sS'score'
p1331
I4
sS'results'
p1332
(dp1333
S'maxconn'
p1334
(dp1335
g1331
I10
sS'median'
p1336
L24L
sS'display'
p1337
S'24'
p1338
ssS'parscript'
p1339
(dp1340
g1331
I1
sg1336
L0L
sg1337
S'no'
p1341
ssS'parcssjs'
p1342
(dp1343
g1331
I1
sg1336
L0L
sg1337
g1341
ssS'cacheresredir'
p1344
(dp1345
g1331
I10
sg1336
L1L
sg1337
S'yes'
p1346
ssS'cacheexp'
p1347
(dp1348
g1331
I10
sg1336
L1L
sg1337
g1346
ssS'gzip'
p1349
(dp1350
g1331
I10
sg1336
L1L
sg1337
g1346
ssS'prefetch'
p1351
(dp1352
g1331
I1
sg1336
L0L
sg1337
g1341
ssS'cacheredir'
p1353
(dp1354
g1331
I1
sg1336
L0L
sg1337
g1341
ssS'parsheet'
p1355
(dp1356
g1331
I1
sg1336
L0L
sg1337
g1341
ssS'du'
p1357
(dp1358
g1331
I10
sg1336
L1L
sg1337
g1346
ssS'hostconn'
p1359
(dp1360
g1331
I5
sg1336
L2L
sg1337
g206
sssg1337
S'5/11'
p1361
ssVBlackberry
p1362
(dp1363
S'total_runs'
p1364
L14L
sS'score'
p1365
I5
sS'results'
p1366
(dp1367
S'maxconn'
p1368
(dp1369
g1365
I0
sS'median'
p1370
L4L
sS'display'
p1371
g11
ssS'parscript'
p1372
(dp1373
g1365
I10
sg1370
L1L
sg1371
S'yes'
p1374
ssS'parcssjs'
p1375
(dp1376
g1365
I1
sg1370
L0L
sg1371
S'no'
p1377
ssS'cacheresredir'
p1378
(dp1379
g1365
I10
sg1370
L1L
sg1371
g1374
ssS'cacheexp'
p1380
(dp1381
g1365
I10
sg1370
L1L
sg1371
g1374
ssS'gzip'
p1382
(dp1383
g1365
I1
sg1370
L0L
sg1371
g1377
ssS'prefetch'
p1384
(dp1385
g1365
I10
sg1370
L1L
sg1371
g1374
ssS'cacheredir'
p1386
(dp1387
g1365
I1
sg1370
L0L
sg1371
g1377
ssS'parsheet'
p1388
(dp1389
g1365
I10
sg1370
L1L
sg1371
g1374
ssS'du'
p1390
(dp1391
g1365
I1
sg1370
L0L
sg1371
g1377
ssS'hostconn'
p1392
(dp1393
g1365
I10
sg1370
L4L
sg1371
g11
sssg1371
S'6/11'
p1394
ssVIron
p1395
(dp1396
S'total_runs'
p1397
L69L
sS'score'
p1398
I8
sS'results'
p1399
(dp1400
S'maxconn'
p1401
(dp1402
g1398
I10
sS'median'
p1403
L60L
sS'display'
p1404
S'60'
p1405
ssS'parscript'
p1406
(dp1407
g1398
I10
sg1403
L1L
sg1404
S'yes'
p1408
ssS'parcssjs'
p1409
(dp1410
g1398
I1
sg1403
L0L
sg1404
S'no'
p1411
ssS'cacheresredir'
p1412
(dp1413
g1398
I10
sg1403
L1L
sg1404
g1408
ssS'cacheexp'
p1414
(dp1415
g1398
I10
sg1403
L1L
sg1404
g1408
ssS'gzip'
p1416
(dp1417
g1398
I10
sg1403
L1L
sg1404
g1408
ssS'prefetch'
p1418
(dp1419
g1398
I1
sg1403
L0L
sg1404
g1411
ssS'cacheredir'
p1420
(dp1421
g1398
I10
sg1403
L1L
sg1404
g1408
ssS'parsheet'
p1422
(dp1423
g1398
I10
sg1403
L1L
sg1404
g1408
ssS'du'
p1424
(dp1425
g1398
I10
sg1403
L1L
sg1404
g1408
ssS'hostconn'
p1426
(dp1427
g1398
I10
sg1403
L6L
sg1404
g137
sssg1404
S'9/11'
p1428
ssVMidori
p1429
(dp1430
S'total_runs'
p1431
L5L
sS'score'
p1432
I4
sS'results'
p1433
(dp1434
S'maxconn'
p1435
(dp1436
g1432
I5
sS'median'
p1437
L10L
sS'display'
p1438
S'10'
p1439
ssS'parscript'
p1440
(dp1441
g1432
I10
sg1437
L1L
sg1438
S'yes'
p1442
ssS'parcssjs'
p1443
(dp1444
g1432
I1
sg1437
L0L
sg1438
S'no'
p1445
ssS'cacheresredir'
p1446
(dp1447
g1432
I10
sg1437
L1L
sg1438
g1442
ssS'cacheexp'
p1448
(dp1449
g1432
I10
sg1437
L1L
sg1438
g1442
ssS'gzip'
p1450
(dp1451
g1432
I1
sg1437
L0L
sg1438
g1445
ssS'prefetch'
p1452
(dp1453
g1432
I1
sg1437
L0L
sg1438
g1445
ssS'cacheredir'
p1454
(dp1455
g1432
I1
sg1437
L0L
sg1438
g1445
ssS'parsheet'
p1456
(dp1457
g1432
I10
sg1437
L1L
sg1438
g1442
ssS'du'
p1458
(dp1459
g1432
I10
sg1437
L1L
sg1438
g1442
ssS'hostconn'
p1460
(dp1461
g1432
I5
sg1437
L2L
sg1438
g206
sssg1438
S'5/11'
p1462
ssVOmniWeb
p1463
(dp1464
S'total_runs'
p1465
L14L
sS'score'
p1466
I6
sS'results'
p1467
(dp1468
S'maxconn'
p1469
(dp1470
g1466
I10
sS'median'
p1471
L60L
sS'display'
p1472
S'60'
p1473
ssS'parscript'
p1474
(dp1475
g1466
I1
sg1471
L0L
sg1472
S'no'
p1476
ssS'parcssjs'
p1477
(dp1478
g1466
I1
sg1471
L0L
sg1472
g1476
ssS'cacheresredir'
p1479
(dp1480
g1466
I10
sg1471
L1L
sg1472
S'yes'
p1481
ssS'cacheexp'
p1482
(dp1483
g1466
I10
sg1471
L1L
sg1472
g1481
ssS'gzip'
p1484
(dp1485
g1466
I10
sg1471
L1L
sg1472
g1481
ssS'prefetch'
p1486
(dp1487
g1466
I1
sg1471
L0L
sg1472
g1476
ssS'cacheredir'
p1488
(dp1489
g1466
I1
sg1471
L0L
sg1472
g1476
ssS'parsheet'
p1490
(dp1491
g1466
I10
sg1471
L1L
sg1472
g1481
ssS'du'
p1492
(dp1493
g1466
I10
sg1471
L1L
sg1472
g1481
ssS'hostconn'
p1494
(dp1495
g1466
I10
sg1471
L4L
sg1472
g11
sssg1472
S'7/11'
p1496
ssVIE
p1497
(dp1498
S'total_runs'
p1499
L1348L
sS'score'
p1500
I3
sS'results'
p1501
(dp1502
S'maxconn'
p1503
(dp1504
g1500
I10
sS'median'
p1505
L60L
sS'display'
p1506
S'60'
p1507
ssS'parscript'
p1508
(dp1509
g1500
I1
sg1505
L0L
sg1506
S'no'
p1510
ssS'parcssjs'
p1511
(dp1512
g1500
I1
sg1505
L0L
sg1506
g1510
ssS'cacheresredir'
p1513
(dp1514
g1500
I1
sg1505
L0L
sg1506
g1510
ssS'cacheexp'
p1515
(dp1516
g1500
I10
sg1505
L1L
sg1506
S'yes'
p1517
ssS'gzip'
p1518
(dp1519
g1500
I10
sg1505
L1L
sg1506
g1517
ssS'prefetch'
p1520
(dp1521
g1500
I1
sg1505
L0L
sg1506
g1510
ssS'cacheredir'
p1522
(dp1523
g1500
I1
sg1505
L0L
sg1506
g1510
ssS'parsheet'
p1524
(dp1525
g1500
I10
sg1505
L1L
sg1506
g1517
ssS'du'
p1526
(dp1527
g1500
I1
sg1505
L0L
sg1506
g1510
ssS'hostconn'
p1528
(dp1529
g1500
I5
sg1505
L2L
sg1506
g206
sssg1506
S'4/11'
p1530
ssVANTGalio
p1531
(dp1532
S'total_runs'
p1533
L2L
sS'score'
p1534
I3
sS'results'
p1535
(dp1536
S'maxconn'
p1537
(dp1538
g1534
I10
sS'median'
p1539
L53L
sS'display'
p1540
S'53'
p1541
ssS'parscript'
p1542
(dp1543
g1534
I1
sg1539
L0L
sg1540
S'no'
p1544
ssS'parcssjs'
p1545
(dp1546
g1534
I1
sg1539
L0L
sg1540
g1544
ssS'cacheresredir'
p1547
(dp1548
g1534
I1
sg1539
L0L
sg1540
g1544
ssS'cacheexp'
p1549
(dp1550
g1534
I1
sg1539
L0L
sg1540
g1544
ssS'gzip'
p1551
(dp1552
g1534
I1
sg1539
L0L
sg1540
g1544
ssS'prefetch'
p1553
(dp1554
g1534
I1
sg1539
L0L
sg1540
g1544
ssS'cacheredir'
p1555
(dp1556
g1534
I1
sg1539
L0L
sg1540
g1544
ssS'parsheet'
p1557
(dp1558
g1534
I1
sg1539
L0L
sg1540
g1544
ssS'du'
p1559
(dp1560
g1534
I10
sg1539
L1L
sg1540
S'yes'
p1561
ssS'hostconn'
p1562
(dp1563
g1534
I10
sg1539
L7L
sg1540
g557
sssg1540
S'3/11'
p1564
ssVIceWeasel
p1565
(dp1566
S'total_runs'
p1567
L1L
sS'score'
p1568
I8
sS'results'
p1569
(dp1570
S'maxconn'
p1571
(dp1572
g1568
I10
sS'median'
p1573
L30L
sS'display'
p1574
S'30'
p1575
ssS'parscript'
p1576
(dp1577
g1568
I10
sg1573
L1L
sg1574
S'yes'
p1578
ssS'parcssjs'
p1579
(dp1580
g1568
I1
sg1573
L0L
sg1574
S'no'
p1581
ssS'cacheresredir'
p1582
(dp1583
g1568
I10
sg1573
L1L
sg1574
g1578
ssS'cacheexp'
p1584
(dp1585
g1568
I10
sg1573
L1L
sg1574
g1578
ssS'gzip'
p1586
(dp1587
g1568
I10
sg1573
L1L
sg1574
g1578
ssS'prefetch'
p1588
(dp1589
g1568
I10
sg1573
L1L
sg1574
g1578
ssS'cacheredir'
p1590
(dp1591
g1568
I10
sg1573
L1L
sg1574
g1578
ssS'parsheet'
p1592
(dp1593
g1568
I10
sg1573
L1L
sg1574
g1578
ssS'du'
p1594
(dp1595
g1568
I10
sg1573
L1L
sg1574
g1578
ssS'hostconn'
p1596
(dp1597
g1568
I10
sg1573
L6L
sg1574
g137
sssg1574
S'10/11'
p1598
ssVFirefox
p1599
(dp1600
S'total_runs'
p1601
L8381L
sS'score'
p1602
I7
sS'results'
p1603
(dp1604
S'maxconn'
p1605
(dp1606
g1602
I10
sS'median'
p1607
L30L
sS'display'
p1608
S'30'
p1609
ssS'parscript'
p1610
(dp1611
g1602
I1
sg1607
L0L
sg1608
S'no'
p1612
ssS'parcssjs'
p1613
(dp1614
g1602
I1
sg1607
L0L
sg1608
g1612
ssS'cacheresredir'
p1615
(dp1616
g1602
I10
sg1607
L1L
sg1608
S'yes'
p1617
ssS'cacheexp'
p1618
(dp1619
g1602
I10
sg1607
L1L
sg1608
g1617
ssS'gzip'
p1620
(dp1621
g1602
I10
sg1607
L1L
sg1608
g1617
ssS'prefetch'
p1622
(dp1623
g1602
I10
sg1607
L1L
sg1608
g1617
ssS'cacheredir'
p1624
(dp1625
g1602
I1
sg1607
L0L
sg1608
g1612
ssS'parsheet'
p1626
(dp1627
g1602
I10
sg1607
L1L
sg1608
g1617
ssS'du'
p1628
(dp1629
g1602
I10
sg1607
L1L
sg1608
g1617
ssS'hostconn'
p1630
(dp1631
g1602
I10
sg1607
L6L
sg1608
g137
sssg1608
S'8/11'
p1632
ssVLunascape
p1633
(dp1634
S'total_runs'
p1635
L122L
sS'score'
p1636
I8
sS'results'
p1637
(dp1638
S'maxconn'
p1639
(dp1640
g1636
I10
sS'median'
p1641
L30L
sS'display'
p1642
S'30'
p1643
ssS'parscript'
p1644
(dp1645
g1636
I10
sg1641
L1L
sg1642
S'yes'
p1646
ssS'parcssjs'
p1647
(dp1648
g1636
I1
sg1641
L0L
sg1642
S'no'
p1649
ssS'cacheresredir'
p1650
(dp1651
g1636
I10
sg1641
L1L
sg1642
g1646
ssS'cacheexp'
p1652
(dp1653
g1636
I10
sg1641
L1L
sg1642
g1646
ssS'gzip'
p1654
(dp1655
g1636
I10
sg1641
L1L
sg1642
g1646
ssS'prefetch'
p1656
(dp1657
g1636
I10
sg1641
L1L
sg1642
g1646
ssS'cacheredir'
p1658
(dp1659
g1636
I10
sg1641
L1L
sg1642
g1646
ssS'parsheet'
p1660
(dp1661
g1636
I10
sg1641
L1L
sg1642
g1646
ssS'du'
p1662
(dp1663
g1636
I10
sg1641
L1L
sg1642
g1646
ssS'hostconn'
p1664
(dp1665
g1636
I10
sg1641
L6L
sg1642
g137
sssg1642
S'10/11'
p1666
ssVLinks
p1667
(dp1668
S'total_runs'
p1669
L1L
sS'score'
p1670
I7
sS'results'
p1671
(dp1672
S'maxconn'
p1673
(dp1674
g1670
I10
sS'median'
p1675
L30L
sS'display'
p1676
S'30'
p1677
ssS'parscript'
p1678
(dp1679
g1670
I0
sg1675
Nsg1676
S''
p1680
ssS'parcssjs'
p1681
(dp1682
g1670
I1
sg1675
L0L
sg1676
S'no'
p1683
ssS'cacheresredir'
p1684
(dp1685
g1670
I10
sg1675
L1L
sg1676
S'yes'
p1686
ssS'cacheexp'
p1687
(dp1688
g1670
I10
sg1675
L1L
sg1676
g1686
ssS'gzip'
p1689
(dp1690
g1670
I1
sg1675
L0L
sg1676
g1683
ssS'prefetch'
p1691
(dp1692
g1670
I10
sg1675
L1L
sg1676
g1686
ssS'cacheredir'
p1693
(dp1694
g1670
I10
sg1675
L1L
sg1676
g1686
ssS'parsheet'
p1695
(dp1696
g1670
I10
sg1675
L1L
sg1676
g1686
ssS'du'
p1697
(dp1698
g1670
I10
sg1675
L1L
sg1676
g1686
ssS'hostconn'
p1699
(dp1700
g1670
I10
sg1675
L15L
sg1676
S'15'
p1701
sssg1676
S'8/11'
p1702
ssVSwiftfox
p1703
(dp1704
S'total_runs'
p1705
L7L
sS'score'
p1706
I7
sS'results'
p1707
(dp1708
S'maxconn'
p1709
(dp1710
g1706
I10
sS'median'
p1711
L32L
sS'display'
p1712
S'32'
p1713
ssS'parscript'
p1714
(dp1715
g1706
I1
sg1711
L0L
sg1712
S'no'
p1716
ssS'parcssjs'
p1717
(dp1718
g1706
I1
sg1711
L0L
sg1712
g1716
ssS'cacheresredir'
p1719
(dp1720
g1706
I10
sg1711
L1L
sg1712
S'yes'
p1721
ssS'cacheexp'
p1722
(dp1723
g1706
I10
sg1711
L1L
sg1712
g1721
ssS'gzip'
p1724
(dp1725
g1706
I10
sg1711
L1L
sg1712
g1721
ssS'prefetch'
p1726
(dp1727
g1706
I10
sg1711
L1L
sg1712
g1721
ssS'cacheredir'
p1728
(dp1729
g1706
I1
sg1711
L0L
sg1712
g1716
ssS'parsheet'
p1730
(dp1731
g1706
I10
sg1711
L1L
sg1712
g1721
ssS'du'
p1732
(dp1733
g1706
I10
sg1711
L1L
sg1712
g1721
ssS'hostconn'
p1734
(dp1735
g1706
I10
sg1711
L6L
sg1712
g137
sssg1712
S'8/11'
p1736
ssVWii
p1737
(dp1738
S'total_runs'
p1739
L6L
sS'score'
p1740
I4
sS'results'
p1741
(dp1742
S'maxconn'
p1743
(dp1744
g1740
I0
sS'median'
p1745
L3L
sS'display'
p1746
S'3'
p1747
ssS'parscript'
p1748
(dp1749
g1740
I10
sg1745
L1L
sg1746
S'yes'
p1750
ssS'parcssjs'
p1751
(dp1752
g1740
I1
sg1745
L0L
sg1746
S'no'
p1753
ssS'cacheresredir'
p1754
(dp1755
g1740
I1
sg1745
L0L
sg1746
g1753
ssS'cacheexp'
p1756
(dp1757
g1740
I10
sg1745
L1L
sg1746
g1750
ssS'gzip'
p1758
(dp1759
g1740
I10
sg1745
L1L
sg1746
g1750
ssS'prefetch'
p1760
(dp1761
g1740
I1
sg1745
L0L
sg1746
g1753
ssS'cacheredir'
p1762
(dp1763
g1740
I1
sg1745
L0L
sg1746
g1753
ssS'parsheet'
p1764
(dp1765
g1740
I10
sg1745
L1L
sg1746
g1750
ssS'du'
p1766
(dp1767
g1740
I10
sg1745
L1L
sg1746
g1750
ssS'hostconn'
p1768
(dp1769
g1740
I5
sg1745
L2L
sg1746
g206
sssg1746
S'5/11'
p1770
ssVUzbl
p1771
(dp1772
S'total_runs'
p1773
L6L
sS'score'
p1774
I4
sS'results'
p1775
(dp1776
S'maxconn'
p1777
(dp1778
g1774
I5
sS'median'
p1779
L10L
sS'display'
p1780
S'10'
p1781
ssS'parscript'
p1782
(dp1783
g1774
I10
sg1779
L1L
sg1780
S'yes'
p1784
ssS'parcssjs'
p1785
(dp1786
g1774
I1
sg1779
L0L
sg1780
S'no'
p1787
ssS'cacheresredir'
p1788
(dp1789
g1774
I10
sg1779
L1L
sg1780
g1784
ssS'cacheexp'
p1790
(dp1791
g1774
I10
sg1779
L1L
sg1780
g1784
ssS'gzip'
p1792
(dp1793
g1774
I1
sg1779
L0L
sg1780
g1787
ssS'prefetch'
p1794
(dp1795
g1774
I1
sg1779
L0L
sg1780
g1787
ssS'cacheredir'
p1796
(dp1797
g1774
I1
sg1779
L0L
sg1780
g1787
ssS'parsheet'
p1798
(dp1799
g1774
I10
sg1779
L1L
sg1780
g1784
ssS'du'
p1800
(dp1801
g1774
I10
sg1779
L1L
sg1780
g1784
ssS'hostconn'
p1802
(dp1803
g1774
I5
sg1779
L2L
sg1780
g206
sssg1780
S'5/11'
p1804
ssVNetNewsWire
p1805
(dp1806
S'total_runs'
p1807
L19L
sS'score'
p1808
I6
sS'results'
p1809
(dp1810
S'maxconn'
p1811
(dp1812
g1808
I10
sS'median'
p1813
L60L
sS'display'
p1814
S'60'
p1815
ssS'parscript'
p1816
(dp1817
g1808
I1
sg1813
L0L
sg1814
S'no'
p1818
ssS'parcssjs'
p1819
(dp1820
g1808
I1
sg1813
L0L
sg1814
g1818
ssS'cacheresredir'
p1821
(dp1822
g1808
I10
sg1813
L1L
sg1814
S'yes'
p1823
ssS'cacheexp'
p1824
(dp1825
g1808
I10
sg1813
L1L
sg1814
g1823
ssS'gzip'
p1826
(dp1827
g1808
I10
sg1813
L1L
sg1814
g1823
ssS'prefetch'
p1828
(dp1829
g1808
I1
sg1813
L0L
sg1814
g1818
ssS'cacheredir'
p1830
(dp1831
g1808
I1
sg1813
L0L
sg1814
g1818
ssS'parsheet'
p1832
(dp1833
g1808
I10
sg1813
L1L
sg1814
g1823
ssS'du'
p1834
(dp1835
g1808
I10
sg1813
L1L
sg1814
g1823
ssS'hostconn'
p1836
(dp1837
g1808
I10
sg1813
L4L
sg1814
g11
sssg1814
S'7/11'
p1838
ssVArora
p1839
(dp1840
S'total_runs'
p1841
L4L
sS'score'
p1842
I6
sS'results'
p1843
(dp1844
S'maxconn'
p1845
(dp1846
g1842
I10
sS'median'
p1847
L60L
sS'display'
p1848
S'60'
p1849
ssS'parscript'
p1850
(dp1851
g1842
I10
sg1847
L1L
sg1848
S'yes'
p1852
ssS'parcssjs'
p1853
(dp1854
g1842
I1
sg1847
L0L
sg1848
S'no'
p1855
ssS'cacheresredir'
p1856
(dp1857
g1842
I10
sg1847
L1L
sg1848
g1852
ssS'cacheexp'
p1858
(dp1859
g1842
I10
sg1847
L1L
sg1848
g1852
ssS'gzip'
p1860
(dp1861
g1842
I10
sg1847
L1L
sg1848
g1852
ssS'prefetch'
p1862
(dp1863
g1842
I1
sg1847
L0L
sg1848
g1855
ssS'cacheredir'
p1864
(dp1865
g1842
I1
sg1847
L0L
sg1848
g1855
ssS'parsheet'
p1866
(dp1867
g1842
I10
sg1847
L1L
sg1848
g1852
ssS'du'
p1868
(dp1869
g1842
I10
sg1847
L1L
sg1848
g1852
ssS'hostconn'
p1870
(dp1871
g1842
I5
sg1847
L2L
sg1848
g206
sssg1848
S'7/11'
p1872
ssVFlock
p1873
(dp1874
S'total_runs'
p1875
L28L
sS'score'
p1876
I7
sS'results'
p1877
(dp1878
S'maxconn'
p1879
(dp1880
g1876
I10
sS'median'
p1881
L31L
sS'display'
p1882
S'31'
p1883
ssS'parscript'
p1884
(dp1885
g1876
I1
sg1881
L0L
sg1882
S'no'
p1886
ssS'parcssjs'
p1887
(dp1888
g1876
I1
sg1881
L0L
sg1882
g1886
ssS'cacheresredir'
p1889
(dp1890
g1876
I10
sg1881
L1L
sg1882
S'yes'
p1891
ssS'cacheexp'
p1892
(dp1893
g1876
I10
sg1881
L1L
sg1882
g1891
ssS'gzip'
p1894
(dp1895
g1876
I10
sg1881
L1L
sg1882
g1891
ssS'prefetch'
p1896
(dp1897
g1876
I10
sg1881
L1L
sg1882
g1891
ssS'cacheredir'
p1898
(dp1899
g1876
I1
sg1881
L0L
sg1882
g1886
ssS'parsheet'
p1900
(dp1901
g1876
I10
sg1881
L1L
sg1882
g1891
ssS'du'
p1902
(dp1903
g1876
I10
sg1881
L1L
sg1882
g1891
ssS'hostconn'
p1904
(dp1905
g1876
I10
sg1881
L6L
sg1882
g137
sssg1882
S'8/11'
p1906
ssVFennec
p1907
(dp1908
S'total_runs'
p1909
L8L
sS'score'
p1910
I7
sS'results'
p1911
(dp1912
S'maxconn'
p1913
(dp1914
g1910
I0
sS'median'
p1915
L6L
sS'display'
p1916
g137
ssS'parscript'
p1917
(dp1918
g1910
I1
sg1915
L0L
sg1916
S'no'
p1919
ssS'parcssjs'
p1920
(dp1921
g1910
I1
sg1915
L0L
sg1916
g1919
ssS'cacheresredir'
p1922
(dp1923
g1910
I10
sg1915
L1L
sg1916
S'yes'
p1924
ssS'cacheexp'
p1925
(dp1926
g1910
I10
sg1915
L1L
sg1916
g1924
ssS'gzip'
p1927
(dp1928
g1910
I10
sg1915
L1L
sg1916
g1924
ssS'prefetch'
p1929
(dp1930
g1910
I10
sg1915
L1L
sg1916
g1924
ssS'cacheredir'
p1931
(dp1932
g1910
I10
sg1915
L1L
sg1916
g1924
ssS'parsheet'
p1933
(dp1934
g1910
I10
sg1915
L1L
sg1916
g1924
ssS'du'
p1935
(dp1936
g1910
I10
sg1915
L1L
sg1916
g1924
ssS'hostconn'
p1937
(dp1938
g1910
I10
sg1915
L4L
sg1916
g11
sssg1916
S'8/11'
p1939
ssVSunrise
p1940
(dp1941
S'total_runs'
p1942
L3L
sS'score'
p1943
I6
sS'results'
p1944
(dp1945
S'maxconn'
p1946
(dp1947
g1943
I10
sS'median'
p1948
L60L
sS'display'
p1949
S'60'
p1950
ssS'parscript'
p1951
(dp1952
g1943
I1
sg1948
L0L
sg1949
S'no'
p1953
ssS'parcssjs'
p1954
(dp1955
g1943
I1
sg1948
L0L
sg1949
g1953
ssS'cacheresredir'
p1956
(dp1957
g1943
I10
sg1948
L1L
sg1949
S'yes'
p1958
ssS'cacheexp'
p1959
(dp1960
g1943
I10
sg1948
L1L
sg1949
g1958
ssS'gzip'
p1961
(dp1962
g1943
I10
sg1948
L1L
sg1949
g1958
ssS'prefetch'
p1963
(dp1964
g1943
I1
sg1948
L0L
sg1949
g1953
ssS'cacheredir'
p1965
(dp1966
g1943
I1
sg1948
L0L
sg1949
g1953
ssS'parsheet'
p1967
(dp1968
g1943
I10
sg1948
L1L
sg1949
g1958
ssS'du'
p1969
(dp1970
g1943
I10
sg1948
L1L
sg1949
g1958
ssS'hostconn'
p1971
(dp1972
g1943
I10
sg1948
L4L
sg1949
g11
sssg1949
S'7/11'
p1973
ssViPhone
p1974
(dp1975
S'total_runs'
p1976
L177L
sS'score'
p1977
I7
sS'results'
p1978
(dp1979
S'maxconn'
p1980
(dp1981
g1977
I10
sS'median'
p1982
L60L
sS'display'
p1983
S'60'
p1984
ssS'parscript'
p1985
(dp1986
g1977
I10
sg1982
L1L
sg1983
S'yes'
p1987
ssS'parcssjs'
p1988
(dp1989
g1977
I1
sg1982
L0L
sg1983
S'no'
p1990
ssS'cacheresredir'
p1991
(dp1992
g1977
I10
sg1982
L1L
sg1983
g1987
ssS'cacheexp'
p1993
(dp1994
g1977
I10
sg1982
L1L
sg1983
g1987
ssS'gzip'
p1995
(dp1996
g1977
I10
sg1982
L1L
sg1983
g1987
ssS'prefetch'
p1997
(dp1998
g1977
I1
sg1982
L0L
sg1983
g1990
ssS'cacheredir'
p1999
(dp2000
g1977
I1
sg1982
L0L
sg1983
g1990
ssS'parsheet'
p2001
(dp2002
g1977
I10
sg1982
L1L
sg1983
g1987
ssS'du'
p2003
(dp2004
g1977
I10
sg1982
L1L
sg1983
g1987
ssS'hostconn'
p2005
(dp2006
g1977
I10
sg1982
L4L
sg1983
g11
sssg1983
S'8/11'
p2007
ss.