(dp0
VPlayStation
p1
(dp2
S'summary_display'
p3
S'0/149'
p4
sS'total_runs'
p5
L3L
sS'summary_score'
p6
I0
sS'results'
p7
(dp8
S'unapply'
p9
(dp10
S'score'
p11
I0
sS'raw_score'
p12
I0
sS'display'
p13
S'0/26'
p14
ssS'apply'
p15
(dp16
g11
I0
sg12
I0
sg13
S'0/41'
p17
ssS'change'
p18
(dp19
g11
I0
sg12
I0
sg13
S'0/17'
p20
ssS'query'
p21
(dp22
g11
I0
sg12
I0
sg13
S'0/65'
p23
ssssS'total_runs'
p24
L10760L
sVChrome
p25
(dp26
S'summary_display'
p27
S'129/149'
p28
sS'total_runs'
p29
L1831L
sS'summary_score'
p30
I87
sS'results'
p31
(dp32
S'unapply'
p33
(dp34
S'score'
p35
I88
sS'raw_score'
p36
I0
sS'display'
p37
S'23/26'
p38
ssS'apply'
p39
(dp40
g35
I95
sg36
I0
sg37
S'39/41'
p41
ssS'change'
p42
(dp43
g35
I100
sg36
I0
sg37
S'17/17'
p44
ssS'query'
p45
(dp46
g35
I77
sg36
I0
sg37
S'50/65'
p47
ssssVStainless
p48
(dp49
S'summary_display'
p50
S'125/149'
p51
sS'total_runs'
p52
L5L
sS'summary_score'
p53
I84
sS'results'
p54
(dp55
S'unapply'
p56
(dp57
S'score'
p58
I73
sS'raw_score'
p59
I0
sS'display'
p60
S'19/26'
p61
ssS'apply'
p62
(dp63
g58
I95
sg59
I0
sg60
S'39/41'
p64
ssS'change'
p65
(dp66
g58
I100
sg59
I0
sg60
S'17/17'
p67
ssS'query'
p68
(dp69
g58
I77
sg59
I0
sg60
S'50/65'
p70
ssssVSeaMonkey
p71
(dp72
S'summary_display'
p73
S'117/149'
p74
sS'total_runs'
p75
L36L
sS'summary_score'
p76
I79
sS'results'
p77
(dp78
S'unapply'
p79
(dp80
S'score'
p81
I65
sS'raw_score'
p82
I0
sS'display'
p83
S'17/26'
p84
ssS'apply'
p85
(dp86
g81
I83
sg82
I0
sg83
S'34/41'
p87
ssS'change'
p88
(dp89
g81
I41
sg82
I0
sg83
S'7/17'
p90
ssS'query'
p91
(dp92
g81
I91
sg82
I0
sg83
S'59/65'
p93
ssssVFirefox (Minefield)
p94
(dp95
S'summary_display'
p96
S'117/149'
p97
sS'total_runs'
p98
L182L
sS'summary_score'
p99
I79
sS'results'
p100
(dp101
S'unapply'
p102
(dp103
S'score'
p104
I65
sS'raw_score'
p105
I0
sS'display'
p106
S'17/26'
p107
ssS'apply'
p108
(dp109
g104
I83
sg105
I0
sg106
S'34/41'
p110
ssS'change'
p111
(dp112
g104
I41
sg105
I0
sg106
S'7/17'
p113
ssS'query'
p114
(dp115
g104
I91
sg105
I0
sg106
S'59/65'
p116
ssssVFirefox (Shiretoko)
p117
(dp118
S'summary_display'
p119
S'117/149'
p120
sS'total_runs'
p121
L176L
sS'summary_score'
p122
I79
sS'results'
p123
(dp124
S'unapply'
p125
(dp126
S'score'
p127
I65
sS'raw_score'
p128
I0
sS'display'
p129
S'17/26'
p130
ssS'apply'
p131
(dp132
g127
I83
sg128
I0
sg129
S'34/41'
p133
ssS'change'
p134
(dp135
g127
I41
sg128
I0
sg129
S'7/17'
p136
ssS'query'
p137
(dp138
g127
I91
sg128
I0
sg129
S'59/65'
p139
ssssVMaxthon
p140
(dp141
S'summary_display'
p142
S'99/149'
p143
sS'total_runs'
p144
L19L
sS'summary_score'
p145
I66
sS'results'
p146
(dp147
S'unapply'
p148
(dp149
S'score'
p150
I54
sS'raw_score'
p151
I0
sS'display'
p152
S'14/26'
p153
ssS'apply'
p154
(dp155
g150
I59
sg151
I0
sg152
S'24/41'
p156
ssS'change'
p157
(dp158
g150
I29
sg151
I0
sg152
S'5/17'
p159
ssS'query'
p160
(dp161
g150
I86
sg151
I0
sg152
S'56/65'
p162
ssssVCamino
p163
(dp164
S'summary_display'
p165
S'117/149'
p166
sS'total_runs'
p167
L21L
sS'summary_score'
p168
I79
sS'results'
p169
(dp170
S'unapply'
p171
(dp172
S'score'
p173
I65
sS'raw_score'
p174
I0
sS'display'
p175
S'17/26'
p176
ssS'apply'
p177
(dp178
g173
I83
sg174
I0
sg175
S'34/41'
p179
ssS'change'
p180
(dp181
g173
I41
sg174
I0
sg175
S'7/17'
p182
ssS'query'
p183
(dp184
g173
I91
sg174
I0
sg175
S'59/65'
p185
ssssVOther
p186
(dp187
S'summary_display'
p188
S'123/149'
p189
sS'total_runs'
p190
L65L
sS'summary_score'
p191
I83
sS'results'
p192
(dp193
S'unapply'
p194
(dp195
S'score'
p196
I69
sS'raw_score'
p197
I0
sS'display'
p198
S'18/26'
p199
ssS'apply'
p200
(dp201
g196
I95
sg197
I0
sg198
S'39/41'
p202
ssS'change'
p203
(dp204
g196
I100
sg197
I0
sg198
S'17/17'
p205
ssS'query'
p206
(dp207
g196
I75
sg197
I0
sg198
S'49/65'
p208
ssssVGranParadiso
p209
(dp210
S'summary_display'
p211
S'117/149'
p212
sS'total_runs'
p213
L1L
sS'summary_score'
p214
I79
sS'results'
p215
(dp216
S'unapply'
p217
(dp218
S'score'
p219
I65
sS'raw_score'
p220
I0
sS'display'
p221
S'17/26'
p222
ssS'apply'
p223
(dp224
g219
I83
sg220
I0
sg221
S'34/41'
p225
ssS'change'
p226
(dp227
g219
I41
sg220
I0
sg221
S'7/17'
p228
ssS'query'
p229
(dp230
g219
I91
sg220
I0
sg221
S'59/65'
p231
ssssVOpera Mini
p232
(dp233
S'summary_display'
p234
S'26/149'
p235
sS'total_runs'
p236
L25L
sS'summary_score'
p237
I17
sS'results'
p238
(dp239
S'unapply'
p240
(dp241
S'score'
p242
I100
sS'raw_score'
p243
I0
sS'display'
p244
S'26/26'
p245
ssS'apply'
p246
(dp247
g242
I0
sg243
I0
sg244
S'0/41'
p248
ssS'change'
p249
(dp250
g242
I0
sg243
I0
sg244
S'0/17'
p251
ssS'query'
p252
(dp253
g242
I0
sg243
I0
sg244
S'0/65'
p254
ssssVAndroid
p255
(dp256
S'summary_display'
p257
S'118/149'
p258
sS'total_runs'
p259
L51L
sS'summary_score'
p260
I79
sS'results'
p261
(dp262
S'unapply'
p263
(dp264
S'score'
p265
I65
sS'raw_score'
p266
I0
sS'display'
p267
S'17/26'
p268
ssS'apply'
p269
(dp270
g265
I83
sg266
I0
sg267
S'34/41'
p271
ssS'change'
p272
(dp273
g265
I100
sg266
I0
sg267
S'17/17'
p274
ssS'query'
p275
(dp276
g265
I77
sg266
I0
sg267
S'50/65'
p277
ssssVUzbl
p278
(dp279
S'summary_display'
p280
S'129/149'
p281
sS'total_runs'
p282
L24L
sS'summary_score'
p283
I87
sS'results'
p284
(dp285
S'unapply'
p286
(dp287
S'score'
p288
I88
sS'raw_score'
p289
I0
sS'display'
p290
S'23/26'
p291
ssS'apply'
p292
(dp293
g288
I95
sg289
I0
sg290
S'39/41'
p294
ssS'change'
p295
(dp296
g288
I100
sg289
I0
sg290
S'17/17'
p297
ssS'query'
p298
(dp299
g288
I77
sg289
I0
sg290
S'50/65'
p300
ssssVVodafone
p301
(dp302
S'summary_display'
p303
S'117/149'
p304
sS'total_runs'
p305
L1L
sS'summary_score'
p306
I79
sS'results'
p307
(dp308
S'unapply'
p309
(dp310
S'score'
p311
I65
sS'raw_score'
p312
I0
sS'display'
p313
S'17/26'
p314
ssS'apply'
p315
(dp316
g311
I83
sg312
I0
sg313
S'34/41'
p317
ssS'change'
p318
(dp319
g311
I41
sg312
I0
sg313
S'7/17'
p320
ssS'query'
p321
(dp322
g311
I91
sg312
I0
sg313
S'59/65'
p323
ssssVVienna
p324
(dp325
S'summary_display'
p326
S'123/149'
p327
sS'total_runs'
p328
L3L
sS'summary_score'
p329
I83
sS'results'
p330
(dp331
S'unapply'
p332
(dp333
S'score'
p334
I73
sS'raw_score'
p335
I0
sS'display'
p336
S'19/26'
p337
ssS'apply'
p338
(dp339
g334
I90
sg335
I0
sg336
S'37/41'
p340
ssS'change'
p341
(dp342
g334
I100
sg335
I0
sg336
S'17/17'
p343
ssS'query'
p344
(dp345
g334
I77
sg335
I0
sg336
S'50/65'
p346
ssssVSleipnir
p347
(dp348
S'summary_display'
p349
S'99/149'
p350
sS'total_runs'
p351
L15L
sS'summary_score'
p352
I66
sS'results'
p353
(dp354
S'unapply'
p355
(dp356
S'score'
p357
I54
sS'raw_score'
p358
I0
sS'display'
p359
S'14/26'
p360
ssS'apply'
p361
(dp362
g357
I59
sg358
I0
sg359
S'24/41'
p363
ssS'change'
p364
(dp365
g357
I29
sg358
I0
sg359
S'5/17'
p366
ssS'query'
p367
(dp368
g357
I86
sg358
I0
sg359
S'56/65'
p369
ssssVNetFront
p370
(dp371
S'summary_display'
p372
S'117/149'
p373
sS'total_runs'
p374
L2L
sS'summary_score'
p375
I79
sS'results'
p376
(dp377
S'unapply'
p378
(dp379
S'score'
p380
I65
sS'raw_score'
p381
I0
sS'display'
p382
S'17/26'
p383
ssS'apply'
p384
(dp385
g380
I83
sg381
I0
sg382
S'34/41'
p386
ssS'change'
p387
(dp388
g380
I41
sg381
I0
sg382
S'7/17'
p389
ssS'query'
p390
(dp391
g380
I91
sg381
I0
sg382
S'59/65'
p392
ssssVNokia
p393
(dp394
S'summary_display'
p395
S'100/149'
p396
sS'total_runs'
p397
L5L
sS'summary_score'
p398
I67
sS'results'
p399
(dp400
S'unapply'
p401
(dp402
S'score'
p403
I31
sS'raw_score'
p404
I0
sS'display'
p405
S'8/26'
p406
ssS'apply'
p407
(dp408
g403
I68
sg404
I0
sg405
S'28/41'
p409
ssS'change'
p410
(dp411
g403
I100
sg404
I0
sg405
S'17/17'
p412
ssS'query'
p413
(dp414
g403
I72
sg404
I0
sg405
S'47/65'
p415
ssssVJasmine
p416
(dp417
S'summary_display'
p418
S'145/149'
p419
sS'total_runs'
p420
L2L
sS'summary_score'
p421
I97
sS'results'
p422
(dp423
S'unapply'
p424
(dp425
S'score'
p426
I88
sS'raw_score'
p427
I0
sS'display'
p428
S'23/26'
p429
ssS'apply'
p430
(dp431
g426
I98
sg427
I0
sg428
S'40/41'
p432
ssS'change'
p433
(dp434
g426
I100
sg427
I0
sg428
S'17/17'
p435
ssS'query'
p436
(dp437
g426
I100
sg427
I0
sg428
S'65/65'
p438
ssssVFluid
p439
(dp440
S'summary_display'
p441
S'125/149'
p442
sS'total_runs'
p443
L1L
sS'summary_score'
p444
I84
sS'results'
p445
(dp446
S'unapply'
p447
(dp448
S'score'
p449
I73
sS'raw_score'
p450
I0
sS'display'
p451
S'19/26'
p452
ssS'apply'
p453
(dp454
g449
I95
sg450
I0
sg451
S'39/41'
p455
ssS'change'
p456
(dp457
g449
I100
sg450
I0
sg451
S'17/17'
p458
ssS'query'
p459
(dp460
g449
I77
sg450
I0
sg451
S'50/65'
p461
ssssVK-Meleon
p462
(dp463
S'summary_display'
p464
S'117/149'
p465
sS'total_runs'
p466
L9L
sS'summary_score'
p467
I79
sS'results'
p468
(dp469
S'unapply'
p470
(dp471
S'score'
p472
I65
sS'raw_score'
p473
I0
sS'display'
p474
S'17/26'
p475
ssS'apply'
p476
(dp477
g472
I83
sg473
I0
sg474
S'34/41'
p478
ssS'change'
p479
(dp480
g472
I41
sg473
I0
sg474
S'7/17'
p481
ssS'query'
p482
(dp483
g472
I91
sg473
I0
sg474
S'59/65'
p484
ssssVChrome Frame (IE 7)
p485
(dp486
S'summary_display'
p487
S'129/149'
p488
sS'total_runs'
p489
L4L
sS'summary_score'
p490
I87
sS'results'
p491
(dp492
S'unapply'
p493
(dp494
S'score'
p495
I88
sS'raw_score'
p496
I0
sS'display'
p497
S'23/26'
p498
ssS'apply'
p499
(dp500
g495
I95
sg496
I0
sg497
S'39/41'
p501
ssS'change'
p502
(dp503
g495
I100
sg496
I0
sg497
S'17/17'
p504
ssS'query'
p505
(dp506
g495
I77
sg496
I0
sg497
S'50/65'
p507
ssssVSafari
p508
(dp509
S'summary_display'
p510
S'125/149'
p511
sS'total_runs'
p512
L1024L
sS'summary_score'
p513
I84
sS'results'
p514
(dp515
S'unapply'
p516
(dp517
S'score'
p518
I73
sS'raw_score'
p519
I0
sS'display'
p520
S'19/26'
p521
ssS'apply'
p522
(dp523
g518
I95
sg519
I0
sg520
S'39/41'
p524
ssS'change'
p525
(dp526
g518
I100
sg519
I0
sg520
S'17/17'
p527
ssS'query'
p528
(dp529
g518
I77
sg519
I0
sg520
S'50/65'
p530
ssssVGaleon
p531
(dp532
S'summary_display'
p533
S'117/149'
p534
sS'total_runs'
p535
L2L
sS'summary_score'
p536
I79
sS'results'
p537
(dp538
S'unapply'
p539
(dp540
S'score'
p541
I65
sS'raw_score'
p542
I0
sS'display'
p543
S'17/26'
p544
ssS'apply'
p545
(dp546
g541
I83
sg542
I0
sg543
S'34/41'
p547
ssS'change'
p548
(dp549
g541
I41
sg542
I0
sg543
S'7/17'
p550
ssS'query'
p551
(dp552
g541
I91
sg542
I0
sg543
S'59/65'
p553
ssssVNetNewsWire
p554
(dp555
S'summary_display'
p556
S'125/149'
p557
sS'total_runs'
p558
L10L
sS'summary_score'
p559
I84
sS'results'
p560
(dp561
S'unapply'
p562
(dp563
S'score'
p564
I73
sS'raw_score'
p565
I0
sS'display'
p566
S'19/26'
p567
ssS'apply'
p568
(dp569
g564
I95
sg565
I0
sg566
S'39/41'
p570
ssS'change'
p571
(dp572
g564
I100
sg565
I0
sg566
S'17/17'
p573
ssS'query'
p574
(dp575
g564
I77
sg565
I0
sg566
S'50/65'
p576
ssssVMaemo Browser
p577
(dp578
S'summary_display'
p579
S'118/149'
p580
sS'total_runs'
p581
L1L
sS'summary_score'
p582
I79
sS'results'
p583
(dp584
S'unapply'
p585
(dp586
S'score'
p587
I65
sS'raw_score'
p588
I0
sS'display'
p589
S'17/26'
p590
ssS'apply'
p591
(dp592
g587
I83
sg588
I0
sg589
S'34/41'
p593
ssS'change'
p594
(dp595
g587
I41
sg588
I0
sg589
S'7/17'
p596
ssS'query'
p597
(dp598
g587
I92
sg588
I0
sg589
S'60/65'
p599
ssssVPalm Pre
p600
(dp601
S'summary_display'
p602
S'129/149'
p603
sS'total_runs'
p604
L7L
sS'summary_score'
p605
I87
sS'results'
p606
(dp607
S'unapply'
p608
(dp609
S'score'
p610
I88
sS'raw_score'
p611
I0
sS'display'
p612
S'23/26'
p613
ssS'apply'
p614
(dp615
g610
I95
sg611
I0
sg612
S'39/41'
p616
ssS'change'
p617
(dp618
g610
I100
sg611
I0
sg612
S'17/17'
p619
ssS'query'
p620
(dp621
g610
I77
sg611
I0
sg612
S'50/65'
p622
ssssVNetscape
p623
(dp624
S'summary_display'
p625
S'118/149'
p626
sS'total_runs'
p627
L3L
sS'summary_score'
p628
I79
sS'results'
p629
(dp630
S'unapply'
p631
(dp632
S'score'
p633
I65
sS'raw_score'
p634
I0
sS'display'
p635
S'17/26'
p636
ssS'apply'
p637
(dp638
g633
I85
sg634
I0
sg635
S'35/41'
p639
ssS'change'
p640
(dp641
g633
I41
sg634
I0
sg635
S'7/17'
p642
ssS'query'
p643
(dp644
g633
I91
sg634
I0
sg635
S'59/65'
p645
ssssVIceweasel
p646
(dp647
S'summary_display'
p648
S'117/149'
p649
sS'total_runs'
p650
L55L
sS'summary_score'
p651
I79
sS'results'
p652
(dp653
S'unapply'
p654
(dp655
S'score'
p656
I65
sS'raw_score'
p657
I0
sS'display'
p658
S'17/26'
p659
ssS'apply'
p660
(dp661
g656
I83
sg657
I0
sg658
S'34/41'
p662
ssS'change'
p663
(dp664
g656
I41
sg657
I0
sg658
S'7/17'
p665
ssS'query'
p666
(dp667
g656
I91
sg657
I0
sg658
S'59/65'
p668
ssssVKonqueror
p669
(dp670
S'summary_display'
p671
S'0/149'
p672
sS'total_runs'
p673
L37L
sS'summary_score'
p674
I0
sS'results'
p675
(dp676
S'unapply'
p677
(dp678
S'score'
p679
I0
sS'raw_score'
p680
I0
sS'display'
p681
S'0/26'
p682
ssS'apply'
p683
(dp684
g679
I0
sg680
I0
sg681
S'0/41'
p685
ssS'change'
p686
(dp687
g679
I0
sg680
I0
sg681
S'0/17'
p688
ssS'query'
p689
(dp690
g679
I0
sg680
I0
sg681
S'0/65'
p691
ssssVKazehakase
p692
(dp693
S'summary_display'
p694
S'117/149'
p695
sS'total_runs'
p696
L1L
sS'summary_score'
p697
I79
sS'results'
p698
(dp699
S'unapply'
p700
(dp701
S'score'
p702
I65
sS'raw_score'
p703
I0
sS'display'
p704
S'17/26'
p705
ssS'apply'
p706
(dp707
g702
I83
sg703
I0
sg704
S'34/41'
p708
ssS'change'
p709
(dp710
g702
I41
sg703
I0
sg704
S'7/17'
p711
ssS'query'
p712
(dp713
g702
I91
sg703
I0
sg704
S'59/65'
p714
ssssVOpera
p715
(dp716
S'summary_display'
p717
S'89/149'
p718
sS'total_runs'
p719
L1319L
sS'summary_score'
p720
I60
sS'results'
p721
(dp722
S'unapply'
p723
(dp724
S'score'
p725
I50
sS'raw_score'
p726
I0
sS'display'
p727
S'13/26'
p728
ssS'apply'
p729
(dp730
g725
I63
sg726
I0
sg727
S'26/41'
p731
ssS'change'
p732
(dp733
g725
I41
sg726
I0
sg727
S'7/17'
p734
ssS'query'
p735
(dp736
g725
I66
sg726
I0
sg727
S'43/65'
p737
ssssVAvant
p738
(dp739
S'summary_display'
p740
S'96/149'
p741
sS'total_runs'
p742
L13L
sS'summary_score'
p743
I64
sS'results'
p744
(dp745
S'unapply'
p746
(dp747
S'score'
p748
I42
sS'raw_score'
p749
I0
sS'display'
p750
S'11/26'
p751
ssS'apply'
p752
(dp753
g748
I59
sg749
I0
sg750
S'24/41'
p754
ssS'change'
p755
(dp756
g748
I29
sg749
I0
sg750
S'5/17'
p757
ssS'query'
p758
(dp759
g748
I86
sg749
I0
sg750
S'56/65'
p760
ssssVQtWeb
p761
(dp762
S'summary_display'
p763
S'111/149'
p764
sS'total_runs'
p765
L1L
sS'summary_score'
p766
I74
sS'results'
p767
(dp768
S'unapply'
p769
(dp770
S'score'
p771
I35
sS'raw_score'
p772
I0
sS'display'
p773
S'9/26'
p774
ssS'apply'
p775
(dp776
g771
I85
sg772
I0
sg773
S'35/41'
p777
ssS'change'
p778
(dp779
g771
I100
sg772
I0
sg773
S'17/17'
p780
ssS'query'
p781
(dp782
g771
I77
sg772
I0
sg773
S'50/65'
p783
ssssVMicroB
p784
(dp785
S'summary_display'
p786
S'118/149'
p787
sS'total_runs'
p788
L1L
sS'summary_score'
p789
I79
sS'results'
p790
(dp791
S'unapply'
p792
(dp793
S'score'
p794
I65
sS'raw_score'
p795
I0
sS'display'
p796
S'17/26'
p797
ssS'apply'
p798
(dp799
g794
I83
sg795
I0
sg796
S'34/41'
p800
ssS'change'
p801
(dp802
g794
I41
sg795
I0
sg796
S'7/17'
p803
ssS'query'
p804
(dp805
g794
I92
sg795
I0
sg796
S'60/65'
p806
ssssVEpiphany
p807
(dp808
S'summary_display'
p809
S'117/149'
p810
sS'total_runs'
p811
L7L
sS'summary_score'
p812
I79
sS'results'
p813
(dp814
S'unapply'
p815
(dp816
S'score'
p817
I65
sS'raw_score'
p818
I0
sS'display'
p819
S'17/26'
p820
ssS'apply'
p821
(dp822
g817
I83
sg818
I0
sg819
S'34/41'
p823
ssS'change'
p824
(dp825
g817
I41
sg818
I0
sg819
S'7/17'
p826
ssS'query'
p827
(dp828
g817
I91
sg818
I0
sg819
S'59/65'
p829
ssssViPhone
p830
(dp831
S'summary_display'
p832
S'118/149'
p833
sS'total_runs'
p834
L116L
sS'summary_score'
p835
I79
sS'results'
p836
(dp837
S'unapply'
p838
(dp839
S'score'
p840
I65
sS'raw_score'
p841
I0
sS'display'
p842
S'17/26'
p843
ssS'apply'
p844
(dp845
g840
I83
sg841
I0
sg842
S'34/41'
p846
ssS'change'
p847
(dp848
g840
I100
sg841
I0
sg842
S'17/17'
p849
ssS'query'
p850
(dp851
g840
I77
sg841
I0
sg842
S'50/65'
p852
ssssVIron
p853
(dp854
S'summary_display'
p855
S'129/149'
p856
sS'total_runs'
p857
L74L
sS'summary_score'
p858
I87
sS'results'
p859
(dp860
S'unapply'
p861
(dp862
S'score'
p863
I88
sS'raw_score'
p864
I0
sS'display'
p865
S'23/26'
p866
ssS'apply'
p867
(dp868
g863
I95
sg864
I0
sg865
S'39/41'
p869
ssS'change'
p870
(dp871
g863
I100
sg864
I0
sg865
S'17/17'
p872
ssS'query'
p873
(dp874
g863
I77
sg864
I0
sg865
S'50/65'
p875
ssssVShiira
p876
(dp877
S'summary_display'
p878
S'125/149'
p879
sS'total_runs'
p880
L1L
sS'summary_score'
p881
I84
sS'results'
p882
(dp883
S'unapply'
p884
(dp885
S'score'
p886
I73
sS'raw_score'
p887
I0
sS'display'
p888
S'19/26'
p889
ssS'apply'
p890
(dp891
g886
I95
sg887
I0
sg888
S'39/41'
p892
ssS'change'
p893
(dp894
g886
I100
sg887
I0
sg888
S'17/17'
p895
ssS'query'
p896
(dp897
g886
I77
sg887
I0
sg888
S'50/65'
p898
ssssVMidori
p899
(dp900
S'summary_display'
p901
S'125/149'
p902
sS'total_runs'
p903
L19L
sS'summary_score'
p904
I84
sS'results'
p905
(dp906
S'unapply'
p907
(dp908
S'score'
p909
I73
sS'raw_score'
p910
I0
sS'display'
p911
S'19/26'
p912
ssS'apply'
p913
(dp914
g909
I95
sg910
I0
sg911
S'39/41'
p915
ssS'change'
p916
(dp917
g909
I100
sg910
I0
sg911
S'17/17'
p918
ssS'query'
p919
(dp920
g909
I77
sg910
I0
sg911
S'50/65'
p921
ssssVIE
p922
(dp923
S'summary_display'
p924
S'99/149'
p925
sS'total_runs'
p926
L787L
sS'summary_score'
p927
I66
sS'results'
p928
(dp929
S'unapply'
p930
(dp931
S'score'
p932
I54
sS'raw_score'
p933
I0
sS'display'
p934
S'14/26'
p935
ssS'apply'
p936
(dp937
g932
I59
sg933
I0
sg934
S'24/41'
p938
ssS'change'
p939
(dp940
g932
I29
sg933
I0
sg934
S'5/17'
p941
ssS'query'
p942
(dp943
g932
I86
sg933
I0
sg934
S'56/65'
p944
ssssVFirefox
p945
(dp946
S'summary_display'
p947
S'117/149'
p948
sS'total_runs'
p949
L4665L
sS'summary_score'
p950
I79
sS'results'
p951
(dp952
S'unapply'
p953
(dp954
S'score'
p955
I65
sS'raw_score'
p956
I0
sS'display'
p957
S'17/26'
p958
ssS'apply'
p959
(dp960
g955
I83
sg956
I0
sg957
S'34/41'
p961
ssS'change'
p962
(dp963
g955
I41
sg956
I0
sg957
S'7/17'
p964
ssS'query'
p965
(dp966
g955
I91
sg956
I0
sg957
S'59/65'
p967
ssssVLunascape
p968
(dp969
S'summary_display'
p970
S'117/149'
p971
sS'total_runs'
p972
L22L
sS'summary_score'
p973
I79
sS'results'
p974
(dp975
S'unapply'
p976
(dp977
S'score'
p978
I65
sS'raw_score'
p979
I0
sS'display'
p980
S'17/26'
p981
ssS'apply'
p982
(dp983
g978
I83
sg979
I0
sg980
S'34/41'
p984
ssS'change'
p985
(dp986
g978
I41
sg979
I0
sg980
S'7/17'
p987
ssS'query'
p988
(dp989
g978
I91
sg979
I0
sg980
S'59/65'
p990
ssssVSwiftfox
p991
(dp992
S'summary_display'
p993
S'117/149'
p994
sS'total_runs'
p995
L9L
sS'summary_score'
p996
I79
sS'results'
p997
(dp998
S'unapply'
p999
(dp1000
S'score'
p1001
I65
sS'raw_score'
p1002
I0
sS'display'
p1003
S'17/26'
p1004
ssS'apply'
p1005
(dp1006
g1001
I83
sg1002
I0
sg1003
S'34/41'
p1007
ssS'change'
p1008
(dp1009
g1001
I41
sg1002
I0
sg1003
S'7/17'
p1010
ssS'query'
p1011
(dp1012
g1001
I91
sg1002
I0
sg1003
S'59/65'
p1013
ssssVWii
p1014
(dp1015
S'summary_display'
p1016
S'0/149'
p1017
sS'total_runs'
p1018
L2L
sS'summary_score'
p1019
I0
sS'results'
p1020
(dp1021
S'unapply'
p1022
(dp1023
S'score'
p1024
I0
sS'raw_score'
p1025
I0
sS'display'
p1026
S'0/26'
p1027
ssS'apply'
p1028
(dp1029
g1024
I0
sg1025
I0
sg1026
S'0/41'
p1030
ssS'change'
p1031
(dp1032
g1024
I0
sg1025
I0
sg1026
S'0/17'
p1033
ssS'query'
p1034
(dp1035
g1024
I0
sg1025
I0
sg1026
S'0/65'
p1036
ssssVFennec
p1037
(dp1038
S'summary_display'
p1039
S'117/149'
p1040
sS'total_runs'
p1041
L6L
sS'summary_score'
p1042
I79
sS'results'
p1043
(dp1044
S'unapply'
p1045
(dp1046
S'score'
p1047
I65
sS'raw_score'
p1048
I0
sS'display'
p1049
S'17/26'
p1050
ssS'apply'
p1051
(dp1052
g1047
I83
sg1048
I0
sg1049
S'34/41'
p1053
ssS'change'
p1054
(dp1055
g1047
I41
sg1048
I0
sg1049
S'7/17'
p1056
ssS'query'
p1057
(dp1058
g1047
I91
sg1048
I0
sg1049
S'59/65'
p1059
ssssVChrome Frame (IE 6)
p1060
(dp1061
S'summary_display'
p1062
S'129/149'
p1063
sS'total_runs'
p1064
L2L
sS'summary_score'
p1065
I87
sS'results'
p1066
(dp1067
S'unapply'
p1068
(dp1069
S'score'
p1070
I88
sS'raw_score'
p1071
I0
sS'display'
p1072
S'23/26'
p1073
ssS'apply'
p1074
(dp1075
g1070
I95
sg1071
I0
sg1072
S'39/41'
p1076
ssS'change'
p1077
(dp1078
g1070
I100
sg1071
I0
sg1072
S'17/17'
p1079
ssS'query'
p1080
(dp1081
g1070
I77
sg1071
I0
sg1072
S'50/65'
p1082
ssssVFirefox (Namoroka)
p1083
(dp1084
S'summary_display'
p1085
S'117/149'
p1086
sS'total_runs'
p1087
L48L
sS'summary_score'
p1088
I79
sS'results'
p1089
(dp1090
S'unapply'
p1091
(dp1092
S'score'
p1093
I65
sS'raw_score'
p1094
I0
sS'display'
p1095
S'17/26'
p1096
ssS'apply'
p1097
(dp1098
g1093
I83
sg1094
I0
sg1095
S'34/41'
p1099
ssS'change'
p1100
(dp1101
g1093
I41
sg1094
I0
sg1095
S'7/17'
p1102
ssS'query'
p1103
(dp1104
g1093
I91
sg1094
I0
sg1095
S'59/65'
p1105
ssssVArora
p1106
(dp1107
S'summary_display'
p1108
S'111/149'
p1109
sS'total_runs'
p1110
L26L
sS'summary_score'
p1111
I74
sS'results'
p1112
(dp1113
S'unapply'
p1114
(dp1115
S'score'
p1116
I35
sS'raw_score'
p1117
I0
sS'display'
p1118
S'9/26'
p1119
ssS'apply'
p1120
(dp1121
g1116
I85
sg1117
I0
sg1118
S'35/41'
p1122
ssS'change'
p1123
(dp1124
g1116
I100
sg1117
I0
sg1118
S'17/17'
p1125
ssS'query'
p1126
(dp1127
g1116
I77
sg1117
I0
sg1118
S'50/65'
p1128
ssssVFlock
p1129
(dp1130
S'summary_display'
p1131
S'117/149'
p1132
sS'total_runs'
p1133
L8L
sS'summary_score'
p1134
I79
sS'results'
p1135
(dp1136
S'unapply'
p1137
(dp1138
S'score'
p1139
I65
sS'raw_score'
p1140
I0
sS'display'
p1141
S'17/26'
p1142
ssS'apply'
p1143
(dp1144
g1139
I83
sg1140
I0
sg1141
S'34/41'
p1145
ssS'change'
p1146
(dp1147
g1139
I41
sg1140
I0
sg1141
S'7/17'
p1148
ssS'query'
p1149
(dp1150
g1139
I91
sg1140
I0
sg1141
S'59/65'
p1151
ssssViCab
p1152
(dp1153
S'summary_display'
p1154
S'125/149'
p1155
sS'total_runs'
p1156
L1L
sS'summary_score'
p1157
I84
sS'results'
p1158
(dp1159
S'unapply'
p1160
(dp1161
S'score'
p1162
I73
sS'raw_score'
p1163
I0
sS'display'
p1164
S'19/26'
p1165
ssS'apply'
p1166
(dp1167
g1162
I95
sg1163
I0
sg1164
S'39/41'
p1168
ssS'change'
p1169
(dp1170
g1162
I100
sg1163
I0
sg1164
S'17/17'
p1171
ssS'query'
p1172
(dp1173
g1162
I77
sg1163
I0
sg1164
S'50/65'
p1174
ssssVChrome Frame (IE 8)
p1175
(dp1176
S'summary_display'
p1177
S'129/149'
p1178
sS'total_runs'
p1179
L12L
sS'summary_score'
p1180
I87
sS'results'
p1181
(dp1182
S'unapply'
p1183
(dp1184
S'score'
p1185
I88
sS'raw_score'
p1186
I0
sS'display'
p1187
S'23/26'
p1188
ssS'apply'
p1189
(dp1190
g1185
I95
sg1186
I0
sg1187
S'39/41'
p1191
ssS'change'
p1192
(dp1193
g1185
I100
sg1186
I0
sg1187
S'17/17'
p1194
ssS'query'
p1195
(dp1196
g1185
I77
sg1186
I0
sg1187
S'50/65'
p1197
ssss.