(dp0
VNetscape 7
p1
(dp2
S'total_runs'
p3
L1L
sS'score'
p4
I8
sS'results'
p5
(dp6
S'unapply'
p7
(dp8
g4
I7
sS'median'
p9
L0L
sS'display'
p10
S'17/26'
p11
ssS'apply'
p12
(dp13
g4
I8
sg9
L0L
sg10
S'34/41'
p14
ssS'change'
p15
(dp16
g4
I4
sg9
L0L
sg10
S'7/17'
p17
ssS'query'
p18
(dp19
g4
I9
sg9
L0L
sg10
S'59/65'
p20
sssg10
S'117/149'
p21
ssVChrome Frame (IE 8) 8
p22
(dp23
S'total_runs'
p24
L8L
sS'score'
p25
I7
sS'results'
p26
(dp27
S'unapply'
p28
(dp29
g25
I5
sS'median'
p30
L0L
sS'display'
p31
S'14/26'
p32
ssS'apply'
p33
(dp34
g25
I6
sg30
L0L
sg31
S'24/41'
p35
ssS'change'
p36
(dp37
g25
I3
sg30
L0L
sg31
S'5/17'
p38
ssS'query'
p39
(dp40
g25
I9
sg30
L0L
sg31
S'56/65'
p41
sssg31
S'99/149'
p42
ssVOpera 9
p43
(dp44
S'total_runs'
p45
L36L
sS'score'
p46
I6
sS'results'
p47
(dp48
S'unapply'
p49
(dp50
g46
I5
sS'median'
p51
L0L
sS'display'
p52
S'13/26'
p53
ssS'apply'
p54
(dp55
g46
I6
sg51
L0L
sg52
S'26/41'
p56
ssS'change'
p57
(dp58
g46
I4
sg51
L0L
sg52
S'7/17'
p59
ssS'query'
p60
(dp61
g46
I6
sg51
L0L
sg52
S'42/65'
p62
sssg52
S'88/149'
p63
ssVPlayStation 3
p64
(dp65
S'total_runs'
p66
L3L
sS'score'
p67
I0
sS'results'
p68
(dp69
S'unapply'
p70
(dp71
g67
I0
sS'median'
p72
L0L
sS'display'
p73
S'0/26'
p74
ssS'apply'
p75
(dp76
g67
I0
sg72
L0L
sg73
S'0/41'
p77
ssS'change'
p78
(dp79
g67
I0
sg72
L0L
sg73
S'0/17'
p80
ssS'query'
p81
(dp82
g67
I0
sg72
L0L
sg73
S'0/65'
p83
sssg73
S'0/149'
p84
ssVK-Meleon 1
p85
(dp86
S'total_runs'
p87
L6L
sS'score'
p88
I8
sS'results'
p89
(dp90
S'unapply'
p91
(dp92
g88
I7
sS'median'
p93
L0L
sS'display'
p94
S'17/26'
p95
ssS'apply'
p96
(dp97
g88
I8
sg93
L0L
sg94
S'34/41'
p98
ssS'change'
p99
(dp100
g88
I4
sg93
L0L
sg94
S'7/17'
p101
ssS'query'
p102
(dp103
g88
I9
sg93
L0L
sg94
S'59/65'
p104
sssg94
S'117/149'
p105
ssVMaxthon 0
p106
(dp107
S'total_runs'
p108
L1L
sS'score'
p109
I7
sS'results'
p110
(dp111
S'unapply'
p112
(dp113
g109
I5
sS'median'
p114
L0L
sS'display'
p115
S'14/26'
p116
ssS'apply'
p117
(dp118
g109
I6
sg114
L0L
sg115
S'24/41'
p119
ssS'change'
p120
(dp121
g109
I3
sg114
L0L
sg115
S'5/17'
p122
ssS'query'
p123
(dp124
g109
I9
sg114
L0L
sg115
S'56/65'
p125
sssg115
S'99/149'
p126
ssVWii 9
p127
(dp128
S'total_runs'
p129
L1L
sS'score'
p130
I0
sS'results'
p131
(dp132
S'unapply'
p133
(dp134
g130
I0
sS'median'
p135
L0L
sS'display'
p136
S'0/26'
p137
ssS'apply'
p138
(dp139
g130
I0
sg135
L0L
sg136
S'0/41'
p140
ssS'change'
p141
(dp142
g130
I0
sg135
L0L
sg136
S'0/17'
p143
ssS'query'
p144
(dp145
g130
I0
sg135
L0L
sg136
S'0/65'
p146
sssg136
S'0/149'
p147
ssVMaxthon 2
p148
(dp149
S'total_runs'
p150
L5L
sS'score'
p151
I7
sS'results'
p152
(dp153
S'unapply'
p154
(dp155
g151
I5
sS'median'
p156
L0L
sS'display'
p157
S'14/26'
p158
ssS'apply'
p159
(dp160
g151
I6
sg156
L0L
sg157
S'24/41'
p161
ssS'change'
p162
(dp163
g151
I3
sg156
L0L
sg157
S'5/17'
p164
ssS'query'
p165
(dp166
g151
I9
sg156
L0L
sg157
S'56/65'
p167
sssg157
S'99/149'
p168
ssVMaxthon 3
p169
(dp170
S'total_runs'
p171
L2L
sS'score'
p172
I8
sS'results'
p173
(dp174
S'unapply'
p175
(dp176
g172
I7
sS'median'
p177
L0L
sS'display'
p178
S'19/26'
p179
ssS'apply'
p180
(dp181
g172
I10
sg177
L0L
sg178
S'39/41'
p182
ssS'change'
p183
(dp184
g172
I10
sg177
L0L
sg178
S'17/17'
p185
ssS'query'
p186
(dp187
g172
I8
sg177
L0L
sg178
S'50/65'
p188
sssg178
S'125/149'
p189
ssVChrome Frame (IE 8) 4
p190
(dp191
S'total_runs'
p192
L12L
sS'score'
p193
I9
sS'results'
p194
(dp195
S'unapply'
p196
(dp197
g193
I9
sS'median'
p198
L0L
sS'display'
p199
S'23/26'
p200
ssS'apply'
p201
(dp202
g193
I10
sg198
L0L
sg199
S'39/41'
p203
ssS'change'
p204
(dp205
g193
I10
sg198
L0L
sg199
S'17/17'
p206
ssS'query'
p207
(dp208
g193
I8
sg198
L0L
sg199
S'50/65'
p209
sssg199
S'129/149'
p210
ssVNetscape 9
p211
(dp212
S'total_runs'
p213
L1L
sS'score'
p214
I8
sS'results'
p215
(dp216
S'unapply'
p217
(dp218
g214
I7
sS'median'
p219
L0L
sS'display'
p220
S'17/26'
p221
ssS'apply'
p222
(dp223
g214
I8
sg219
L0L
sg220
S'34/41'
p224
ssS'change'
p225
(dp226
g214
I4
sg219
L0L
sg220
S'7/17'
p227
ssS'query'
p228
(dp229
g214
I9
sg219
L0L
sg220
S'59/65'
p230
sssg220
S'117/149'
p231
ssVOpera Mini 5
p232
(dp233
S'total_runs'
p234
L3L
sS'score'
p235
I2
sS'results'
p236
(dp237
S'unapply'
p238
(dp239
g235
I10
sS'median'
p240
L0L
sS'display'
p241
S'26/26'
p242
ssS'apply'
p243
(dp244
g235
I0
sg240
L0L
sg241
S'0/41'
p245
ssS'change'
p246
(dp247
g235
I0
sg240
L0L
sg241
S'0/17'
p248
ssS'query'
p249
(dp250
g235
I0
sg240
L0L
sg241
S'0/65'
p251
sssg241
S'26/149'
p252
ssVFirefox (Namoroka) 3
p253
(dp254
S'total_runs'
p255
L31L
sS'score'
p256
I8
sS'results'
p257
(dp258
S'unapply'
p259
(dp260
g256
I7
sS'median'
p261
L0L
sS'display'
p262
S'17/26'
p263
ssS'apply'
p264
(dp265
g256
I8
sg261
L0L
sg262
S'34/41'
p266
ssS'change'
p267
(dp268
g256
I4
sg261
L0L
sg262
S'7/17'
p269
ssS'query'
p270
(dp271
g256
I9
sg261
L0L
sg262
S'59/65'
p272
sssg262
S'117/149'
p273
ssVIE 8
p274
(dp275
S'total_runs'
p276
L318L
sS'score'
p277
I7
sS'results'
p278
(dp279
S'unapply'
p280
(dp281
g277
I5
sS'median'
p282
L0L
sS'display'
p283
S'14/26'
p284
ssS'apply'
p285
(dp286
g277
I6
sg282
L0L
sg283
S'24/41'
p287
ssS'change'
p288
(dp289
g277
I3
sg282
L0L
sg283
S'5/17'
p290
ssS'query'
p291
(dp292
g277
I9
sg282
L0L
sg283
S'56/65'
p293
sssg283
S'99/149'
p294
ssVLunascape 4
p295
(dp296
S'total_runs'
p297
L1L
sS'score'
p298
I7
sS'results'
p299
(dp300
S'unapply'
p301
(dp302
g298
I3
sS'median'
p303
L0L
sS'display'
p304
S'9/26'
p305
ssS'apply'
p306
(dp307
g298
I9
sg303
L0L
sg304
S'35/41'
p308
ssS'change'
p309
(dp310
g298
I10
sg303
L0L
sg304
S'17/17'
p311
ssS'query'
p312
(dp313
g298
I8
sg303
L0L
sg304
S'50/65'
p314
sssg304
S'111/149'
p315
ssVOpera 10
p316
(dp317
S'total_runs'
p318
L706L
sS'score'
p319
I6
sS'results'
p320
(dp321
S'unapply'
p322
(dp323
g319
I5
sS'median'
p324
L0L
sS'display'
p325
S'13/26'
p326
ssS'apply'
p327
(dp328
g319
I6
sg324
L0L
sg325
S'26/41'
p329
ssS'change'
p330
(dp331
g319
I4
sg324
L0L
sg325
S'7/17'
p332
ssS'query'
p333
(dp334
g319
I7
sg324
L0L
sg325
S'43/65'
p335
sssg325
S'89/149'
p336
ssVMaemo Browser 1
p337
(dp338
S'total_runs'
p339
L1L
sS'score'
p340
I8
sS'results'
p341
(dp342
S'unapply'
p343
(dp344
g340
I7
sS'median'
p345
I0
sS'display'
p346
S'17/26'
p347
ssS'apply'
p348
(dp349
g340
I8
sg345
I0
sg346
S'34/41'
p350
ssS'change'
p351
(dp352
g340
I4
sg345
I0
sg346
S'7/17'
p353
ssS'query'
p354
(dp355
g340
I9
sg345
I0
sg346
S'60/65'
p356
sssg346
S'118/149'
p357
ssVMidori 0
p358
(dp359
S'total_runs'
p360
L12L
sS'score'
p361
I9
sS'results'
p362
(dp363
S'unapply'
p364
(dp365
g361
I9
sS'median'
p366
L0L
sS'display'
p367
S'23/26'
p368
ssS'apply'
p369
(dp370
g361
I10
sg366
L0L
sg367
S'39/41'
p371
ssS'change'
p372
(dp373
g361
I10
sg366
L0L
sg367
S'17/17'
p374
ssS'query'
p375
(dp376
g361
I8
sg366
L0L
sg367
S'50/65'
p377
sssg367
S'129/149'
p378
ssVIE 6
p379
(dp380
S'total_runs'
p381
L65L
sS'score'
p382
I7
sS'results'
p383
(dp384
S'unapply'
p385
(dp386
g382
I5
sS'median'
p387
L0L
sS'display'
p388
S'14/26'
p389
ssS'apply'
p390
(dp391
g382
I6
sg387
L0L
sg388
S'24/41'
p392
ssS'change'
p393
(dp394
g382
I3
sg387
L0L
sg388
S'5/17'
p395
ssS'query'
p396
(dp397
g382
I9
sg387
L0L
sg388
S'56/65'
p398
sssg388
S'99/149'
p399
ssVIE 7
p400
(dp401
S'total_runs'
p402
L150L
sS'score'
p403
I7
sS'results'
p404
(dp405
S'unapply'
p406
(dp407
g403
I5
sS'median'
p408
L0L
sS'display'
p409
S'14/26'
p410
ssS'apply'
p411
(dp412
g403
I6
sg408
L0L
sg409
S'24/41'
p413
ssS'change'
p414
(dp415
g403
I3
sg408
L0L
sg409
S'5/17'
p416
ssS'query'
p417
(dp418
g403
I9
sg408
L0L
sg409
S'56/65'
p419
sssg409
S'99/149'
p420
ssVWii
p421
(dp422
S'total_runs'
p423
L1L
sS'score'
p424
I0
sS'results'
p425
(dp426
S'unapply'
p427
(dp428
g424
I0
sS'median'
p429
L0L
sS'display'
p430
S'0/26'
p431
ssS'apply'
p432
(dp433
g424
I0
sg429
L0L
sg430
S'0/41'
p434
ssS'change'
p435
(dp436
g424
I0
sg429
L0L
sg430
S'0/17'
p437
ssS'query'
p438
(dp439
g424
I0
sg429
L0L
sg430
S'0/65'
p440
sssg430
S'0/149'
p441
ssVFirefox 2
p442
(dp443
S'total_runs'
p444
L38L
sS'score'
p445
I8
sS'results'
p446
(dp447
S'unapply'
p448
(dp449
g445
I7
sS'median'
p450
L0L
sS'display'
p451
S'17/26'
p452
ssS'apply'
p453
(dp454
g445
I8
sg450
L0L
sg451
S'34/41'
p455
ssS'change'
p456
(dp457
g445
I4
sg450
L0L
sg451
S'7/17'
p458
ssS'query'
p459
(dp460
g445
I9
sg450
L0L
sg451
S'59/65'
p461
sssg451
S'117/149'
p462
ssVFirefox 3
p463
(dp464
S'total_runs'
p465
L3181L
sS'score'
p466
I8
sS'results'
p467
(dp468
S'unapply'
p469
(dp470
g466
I7
sS'median'
p471
L0L
sS'display'
p472
S'17/26'
p473
ssS'apply'
p474
(dp475
g466
I8
sg471
L0L
sg472
S'34/41'
p476
ssS'change'
p477
(dp478
g466
I4
sg471
L0L
sg472
S'7/17'
p479
ssS'query'
p480
(dp481
g466
I9
sg471
L0L
sg472
S'59/65'
p482
sssg472
S'117/149'
p483
ssVChrome 4
p484
(dp485
S'total_runs'
p486
L658L
sS'score'
p487
I9
sS'results'
p488
(dp489
S'unapply'
p490
(dp491
g487
I9
sS'median'
p492
L0L
sS'display'
p493
S'23/26'
p494
ssS'apply'
p495
(dp496
g487
I10
sg492
L0L
sg493
S'39/41'
p497
ssS'change'
p498
(dp499
g487
I10
sg492
L0L
sg493
S'17/17'
p500
ssS'query'
p501
(dp502
g487
I8
sg492
L0L
sg493
S'50/65'
p503
sssg493
S'129/149'
p504
ssVFirefox 1
p505
(dp506
S'total_runs'
p507
L3L
sS'score'
p508
I8
sS'results'
p509
(dp510
S'unapply'
p511
(dp512
g508
I7
sS'median'
p513
L0L
sS'display'
p514
S'17/26'
p515
ssS'apply'
p516
(dp517
g508
I8
sg513
L0L
sg514
S'34/41'
p518
ssS'change'
p519
(dp520
g508
I4
sg513
L0L
sg514
S'7/17'
p521
ssS'query'
p522
(dp523
g508
I9
sg513
L0L
sg514
S'59/65'
p524
sssg514
S'117/149'
p525
ssVChrome 2
p526
(dp527
S'total_runs'
p528
L131L
sS'score'
p529
I8
sS'results'
p530
(dp531
S'unapply'
p532
(dp533
g529
I7
sS'median'
p534
L0L
sS'display'
p535
S'19/26'
p536
ssS'apply'
p537
(dp538
g529
I10
sg534
L0L
sg535
S'39/41'
p539
ssS'change'
p540
(dp541
g529
I10
sg534
L0L
sg535
S'17/17'
p542
ssS'query'
p543
(dp544
g529
I8
sg534
L0L
sg535
S'50/65'
p545
sssg535
S'125/149'
p546
ssVChrome 3
p547
(dp548
S'total_runs'
p549
L411L
sS'score'
p550
I8
sS'results'
p551
(dp552
S'unapply'
p553
(dp554
g550
I8
sS'median'
p555
L0L
sS'display'
p556
S'20/26'
p557
ssS'apply'
p558
(dp559
g550
I10
sg555
L0L
sg556
S'39/41'
p560
ssS'change'
p561
(dp562
g550
I10
sg555
L0L
sg556
S'17/17'
p563
ssS'query'
p564
(dp565
g550
I8
sg555
L0L
sg556
S'50/65'
p566
sssg556
S'126/149'
p567
ssVChrome 0
p568
(dp569
S'total_runs'
p570
L2L
sS'score'
p571
I7
sS'results'
p572
(dp573
S'unapply'
p574
(dp575
g571
I3
sS'median'
p576
L0L
sS'display'
p577
S'9/26'
p578
ssS'apply'
p579
(dp580
g571
I7
sg576
L0L
sg577
S'28/41'
p581
ssS'change'
p582
(dp583
g571
I10
sg576
L0L
sg577
S'17/17'
p584
ssS'query'
p585
(dp586
g571
I8
sg576
L0L
sg577
S'50/65'
p587
sssg577
S'104/149'
p588
ssVChrome 1
p589
(dp590
S'total_runs'
p591
L4L
sS'score'
p592
I7
sS'results'
p593
(dp594
S'unapply'
p595
(dp596
g592
I3
sS'median'
p597
L0L
sS'display'
p598
S'9/26'
p599
ssS'apply'
p600
(dp601
g592
I7
sg597
L0L
sg598
S'28/41'
p602
ssS'change'
p603
(dp604
g592
I10
sg597
L0L
sg598
S'17/17'
p605
ssS'query'
p606
(dp607
g592
I8
sg597
L0L
sg598
S'50/65'
p608
sssg598
S'104/149'
p609
ssVNetNewsWire 3
p610
(dp611
S'total_runs'
p612
L8L
sS'score'
p613
I8
sS'results'
p614
(dp615
S'unapply'
p616
(dp617
g613
I7
sS'median'
p618
L0L
sS'display'
p619
S'19/26'
p620
ssS'apply'
p621
(dp622
g613
I10
sg618
L0L
sg619
S'39/41'
p623
ssS'change'
p624
(dp625
g613
I10
sg618
L0L
sg619
S'17/17'
p626
ssS'query'
p627
(dp628
g613
I8
sg618
L0L
sg619
S'50/65'
p629
sssg619
S'125/149'
p630
ssVNokia 97
p631
(dp632
S'total_runs'
p633
L1L
sS'score'
p634
I7
sS'results'
p635
(dp636
S'unapply'
p637
(dp638
g634
I3
sS'median'
p639
L0L
sS'display'
p640
S'8/26'
p641
ssS'apply'
p642
(dp643
g634
I7
sg639
L0L
sg640
S'28/41'
p644
ssS'change'
p645
(dp646
g634
I10
sg639
L0L
sg640
S'17/17'
p647
ssS'query'
p648
(dp649
g634
I7
sg639
L0L
sg640
S'47/65'
p650
sssg640
S'100/149'
p651
ssVNetFront 3
p652
(dp653
S'total_runs'
p654
L1L
sS'score'
p655
I0
sS'results'
p656
(dp657
S'unapply'
p658
(dp659
g655
I0
sS'median'
p660
L0L
sS'display'
p661
S'0/26'
p662
ssS'apply'
p663
(dp664
g655
I0
sg660
L0L
sg661
S'0/41'
p665
ssS'change'
p666
(dp667
g655
I0
sg660
L0L
sg661
S'0/17'
p668
ssS'query'
p669
(dp670
g655
I0
sg660
L0L
sg661
S'0/65'
p671
sssg661
S'0/149'
p672
ssVSafari 4
p673
(dp674
S'total_runs'
p675
L688L
sS'score'
p676
I8
sS'results'
p677
(dp678
S'unapply'
p679
(dp680
g676
I7
sS'median'
p681
L0L
sS'display'
p682
S'19/26'
p683
ssS'apply'
p684
(dp685
g676
I10
sg681
L0L
sg682
S'39/41'
p686
ssS'change'
p687
(dp688
g676
I10
sg681
L0L
sg682
S'17/17'
p689
ssS'query'
p690
(dp691
g676
I8
sg681
L0L
sg682
S'50/65'
p692
sssg682
S'125/149'
p693
ssVVodafone 1
p694
(dp695
S'total_runs'
p696
L1L
sS'score'
p697
I8
sS'results'
p698
(dp699
S'unapply'
p700
(dp701
g697
I7
sS'median'
p702
L0L
sS'display'
p703
S'17/26'
p704
ssS'apply'
p705
(dp706
g697
I8
sg702
L0L
sg703
S'34/41'
p707
ssS'change'
p708
(dp709
g697
I4
sg702
L0L
sg703
S'7/17'
p710
ssS'query'
p711
(dp712
g697
I9
sg702
L0L
sg703
S'59/65'
p713
sssg703
S'117/149'
p714
ssViPhone 3
p715
(dp716
S'total_runs'
p717
L83L
sS'score'
p718
I8
sS'results'
p719
(dp720
S'unapply'
p721
(dp722
g718
I7
sS'median'
p723
L0L
sS'display'
p724
S'17/26'
p725
ssS'apply'
p726
(dp727
g718
I8
sg723
L0L
sg724
S'34/41'
p728
ssS'change'
p729
(dp730
g718
I10
sg723
L0L
sg724
S'17/17'
p731
ssS'query'
p732
(dp733
g718
I8
sg723
L0L
sg724
S'50/65'
p734
sssg724
S'118/149'
p735
ssViPhone 2
p736
(dp737
S'total_runs'
p738
L5L
sS'score'
p739
I7
sS'results'
p740
(dp741
S'unapply'
p742
(dp743
g739
I3
sS'median'
p744
L0L
sS'display'
p745
S'9/26'
p746
ssS'apply'
p747
(dp748
g739
I7
sg744
L0L
sg745
S'28/41'
p749
ssS'change'
p750
(dp751
g739
I10
sg744
L0L
sg745
S'17/17'
p752
ssS'query'
p753
(dp754
g739
I8
sg744
L0L
sg745
S'50/65'
p755
sssg745
S'104/149'
p756
ssVEpiphany 2
p757
(dp758
S'total_runs'
p759
L4L
sS'score'
p760
I8
sS'results'
p761
(dp762
S'unapply'
p763
(dp764
g760
I7
sS'median'
p765
L0L
sS'display'
p766
S'17/26'
p767
ssS'apply'
p768
(dp769
g760
I8
sg765
L0L
sg766
S'34/41'
p770
ssS'change'
p771
(dp772
g760
I4
sg765
L0L
sg766
S'7/17'
p773
ssS'query'
p774
(dp775
g760
I9
sg765
L0L
sg766
S'59/65'
p776
sssg766
S'117/149'
p777
ssVChrome Frame (IE 6) 4
p778
(dp779
S'total_runs'
p780
L2L
sS'score'
p781
I9
sS'results'
p782
(dp783
S'unapply'
p784
(dp785
g781
I9
sS'median'
p786
L0L
sS'display'
p787
S'23/26'
p788
ssS'apply'
p789
(dp790
g781
I10
sg786
L0L
sg787
S'39/41'
p791
ssS'change'
p792
(dp793
g781
I10
sg786
L0L
sg787
S'17/17'
p794
ssS'query'
p795
(dp796
g781
I8
sg786
L0L
sg787
S'50/65'
p797
sssg787
S'129/149'
p798
ssVAvant 1
p799
(dp800
S'total_runs'
p801
L8L
sS'score'
p802
I6
sS'results'
p803
(dp804
S'unapply'
p805
(dp806
g802
I4
sS'median'
p807
L0L
sS'display'
p808
S'11/26'
p809
ssS'apply'
p810
(dp811
g802
I6
sg807
L0L
sg808
S'24/41'
p812
ssS'change'
p813
(dp814
g802
I3
sg807
L0L
sg808
S'5/17'
p815
ssS'query'
p816
(dp817
g802
I9
sg807
L0L
sg808
S'56/65'
p818
sssg808
S'96/149'
p819
ssVIron 2
p820
(dp821
S'total_runs'
p822
L6L
sS'score'
p823
I8
sS'results'
p824
(dp825
S'unapply'
p826
(dp827
g823
I7
sS'median'
p828
L0L
sS'display'
p829
S'19/26'
p830
ssS'apply'
p831
(dp832
g823
I10
sg828
L0L
sg829
S'39/41'
p833
ssS'change'
p834
(dp835
g823
I10
sg828
L0L
sg829
S'17/17'
p836
ssS'query'
p837
(dp838
g823
I8
sg828
L0L
sg829
S'50/65'
p839
sssg829
S'125/149'
p840
ssVIron 3
p841
(dp842
S'total_runs'
p843
L38L
sS'score'
p844
I9
sS'results'
p845
(dp846
S'unapply'
p847
(dp848
g844
I9
sS'median'
p849
L0L
sS'display'
p850
S'23/26'
p851
ssS'apply'
p852
(dp853
g844
I10
sg849
L0L
sg850
S'39/41'
p854
ssS'change'
p855
(dp856
g844
I10
sg849
L0L
sg850
S'17/17'
p857
ssS'query'
p858
(dp859
g844
I8
sg849
L0L
sg850
S'50/65'
p860
sssg850
S'129/149'
p861
ssVSwiftfox 3
p862
(dp863
S'total_runs'
p864
L6L
sS'score'
p865
I8
sS'results'
p866
(dp867
S'unapply'
p868
(dp869
g865
I7
sS'median'
p870
L0L
sS'display'
p871
S'17/26'
p872
ssS'apply'
p873
(dp874
g865
I8
sg870
L0L
sg871
S'34/41'
p875
ssS'change'
p876
(dp877
g865
I4
sg870
L0L
sg871
S'7/17'
p878
ssS'query'
p879
(dp880
g865
I9
sg870
L0L
sg871
S'59/65'
p881
sssg871
S'117/149'
p882
ssVIceweasel 3
p883
(dp884
S'total_runs'
p885
L35L
sS'score'
p886
I8
sS'results'
p887
(dp888
S'unapply'
p889
(dp890
g886
I7
sS'median'
p891
L0L
sS'display'
p892
S'17/26'
p893
ssS'apply'
p894
(dp895
g886
I8
sg891
L0L
sg892
S'34/41'
p896
ssS'change'
p897
(dp898
g886
I4
sg891
L0L
sg892
S'7/17'
p899
ssS'query'
p900
(dp901
g886
I9
sg891
L0L
sg892
S'59/65'
p902
sssg892
S'117/149'
p903
ssVFluid 0
p904
(dp905
S'total_runs'
p906
L1L
sS'score'
p907
I8
sS'results'
p908
(dp909
S'unapply'
p910
(dp911
g907
I7
sS'median'
p912
L0L
sS'display'
p913
S'19/26'
p914
ssS'apply'
p915
(dp916
g907
I10
sg912
L0L
sg913
S'39/41'
p917
ssS'change'
p918
(dp919
g907
I10
sg912
L0L
sg913
S'17/17'
p920
ssS'query'
p921
(dp922
g907
I8
sg912
L0L
sg913
S'50/65'
p923
sssg913
S'125/149'
p924
ssg675
L7166L
sVSeaMonkey 2
p925
(dp926
S'total_runs'
p927
L17L
sS'score'
p928
I8
sS'results'
p929
(dp930
S'unapply'
p931
(dp932
g928
I7
sS'median'
p933
L0L
sS'display'
p934
S'17/26'
p935
ssS'apply'
p936
(dp937
g928
I8
sg933
L0L
sg934
S'34/41'
p938
ssS'change'
p939
(dp940
g928
I4
sg933
L0L
sg934
S'7/17'
p941
ssS'query'
p942
(dp943
g928
I9
sg933
L0L
sg934
S'59/65'
p944
sssg934
S'117/149'
p945
ssVSafari 3
p946
(dp947
S'total_runs'
p948
L26L
sS'score'
p949
I7
sS'results'
p950
(dp951
S'unapply'
p952
(dp953
g949
I3
sS'median'
p954
L0L
sS'display'
p955
S'9/26'
p956
ssS'apply'
p957
(dp958
g949
I7
sg954
L0L
sg955
S'28/41'
p959
ssS'change'
p960
(dp961
g949
I10
sg954
L0L
sg955
S'17/17'
p962
ssS'query'
p963
(dp964
g949
I8
sg954
L0L
sg955
S'50/65'
p965
sssg955
S'104/149'
p966
ssVFlock 1
p967
(dp968
S'total_runs'
p969
L1L
sS'score'
p970
I8
sS'results'
p971
(dp972
S'unapply'
p973
(dp974
g970
I7
sS'median'
p975
L0L
sS'display'
p976
S'17/26'
p977
ssS'apply'
p978
(dp979
g970
I8
sg975
L0L
sg976
S'34/41'
p980
ssS'change'
p981
(dp982
g970
I4
sg975
L0L
sg976
S'7/17'
p983
ssS'query'
p984
(dp985
g970
I9
sg975
L0L
sg976
S'59/65'
p986
sssg976
S'117/149'
p987
ssVFirefox (Shiretoko) 3
p988
(dp989
S'total_runs'
p990
L129L
sS'score'
p991
I8
sS'results'
p992
(dp993
S'unapply'
p994
(dp995
g991
I7
sS'median'
p996
L0L
sS'display'
p997
S'17/26'
p998
ssS'apply'
p999
(dp1000
g991
I8
sg996
L0L
sg997
S'34/41'
p1001
ssS'change'
p1002
(dp1003
g991
I4
sg996
L0L
sg997
S'7/17'
p1004
ssS'query'
p1005
(dp1006
g991
I9
sg996
L0L
sg997
S'59/65'
p1007
sssg997
S'117/149'
p1008
ssVFennec 1
p1009
(dp1010
S'total_runs'
p1011
L5L
sS'score'
p1012
I8
sS'results'
p1013
(dp1014
S'unapply'
p1015
(dp1016
g1012
I7
sS'median'
p1017
L0L
sS'display'
p1018
S'17/26'
p1019
ssS'apply'
p1020
(dp1021
g1012
I8
sg1017
L0L
sg1018
S'34/41'
p1022
ssS'change'
p1023
(dp1024
g1012
I4
sg1017
L0L
sg1018
S'7/17'
p1025
ssS'query'
p1026
(dp1027
g1012
I9
sg1017
L0L
sg1018
S'59/65'
p1028
sssg1018
S'117/149'
p1029
ssVNokia 5800
p1030
(dp1031
S'total_runs'
p1032
L2L
sS'score'
p1033
I7
sS'results'
p1034
(dp1035
S'unapply'
p1036
(dp1037
g1033
I3
sS'median'
p1038
L0L
sS'display'
p1039
S'8/26'
p1040
ssS'apply'
p1041
(dp1042
g1033
I7
sg1038
L0L
sg1039
S'28/41'
p1043
ssS'change'
p1044
(dp1045
g1033
I10
sg1038
L0L
sg1039
S'17/17'
p1046
ssS'query'
p1047
(dp1048
g1033
I7
sg1038
L0L
sg1039
S'47/65'
p1049
sssg1039
S'100/149'
p1050
ssVFlock 2
p1051
(dp1052
S'total_runs'
p1053
L3L
sS'score'
p1054
I8
sS'results'
p1055
(dp1056
S'unapply'
p1057
(dp1058
g1054
I7
sS'median'
p1059
L0L
sS'display'
p1060
S'17/26'
p1061
ssS'apply'
p1062
(dp1063
g1054
I8
sg1059
L0L
sg1060
S'34/41'
p1064
ssS'change'
p1065
(dp1066
g1054
I4
sg1059
L0L
sg1060
S'7/17'
p1067
ssS'query'
p1068
(dp1069
g1054
I9
sg1059
L0L
sg1060
S'59/65'
p1070
sssg1060
S'117/149'
p1071
ssVKonqueror 3
p1072
(dp1073
S'total_runs'
p1074
L8L
sS'score'
p1075
I0
sS'results'
p1076
(dp1077
S'unapply'
p1078
(dp1079
g1075
I0
sS'median'
p1080
L0L
sS'display'
p1081
S'0/26'
p1082
ssS'apply'
p1083
(dp1084
g1075
I0
sg1080
L0L
sg1081
S'0/41'
p1085
ssS'change'
p1086
(dp1087
g1075
I0
sg1080
L0L
sg1081
S'0/17'
p1088
ssS'query'
p1089
(dp1090
g1075
I0
sg1080
L0L
sg1081
S'0/65'
p1091
sssg1081
S'0/149'
p1092
ssVFirefox (Minefield) 3
p1093
(dp1094
S'total_runs'
p1095
L96L
sS'score'
p1096
I8
sS'results'
p1097
(dp1098
S'unapply'
p1099
(dp1100
g1096
I7
sS'median'
p1101
L0L
sS'display'
p1102
S'17/26'
p1103
ssS'apply'
p1104
(dp1105
g1096
I8
sg1101
L0L
sg1102
S'34/41'
p1106
ssS'change'
p1107
(dp1108
g1096
I4
sg1101
L0L
sg1102
S'7/17'
p1109
ssS'query'
p1110
(dp1111
g1096
I9
sg1101
L0L
sg1102
S'59/65'
p1112
sssg1102
S'117/149'
p1113
ssViCab 4
p1114
(dp1115
S'total_runs'
p1116
L1L
sS'score'
p1117
I8
sS'results'
p1118
(dp1119
S'unapply'
p1120
(dp1121
g1117
I7
sS'median'
p1122
L0L
sS'display'
p1123
S'19/26'
p1124
ssS'apply'
p1125
(dp1126
g1117
I10
sg1122
L0L
sg1123
S'39/41'
p1127
ssS'change'
p1128
(dp1129
g1117
I10
sg1122
L0L
sg1123
S'17/17'
p1130
ssS'query'
p1131
(dp1132
g1117
I8
sg1122
L0L
sg1123
S'50/65'
p1133
sssg1123
S'125/149'
p1134
ssVSleipnir 2
p1135
(dp1136
S'total_runs'
p1137
L11L
sS'score'
p1138
I7
sS'results'
p1139
(dp1140
S'unapply'
p1141
(dp1142
g1138
I5
sS'median'
p1143
L0L
sS'display'
p1144
S'14/26'
p1145
ssS'apply'
p1146
(dp1147
g1138
I6
sg1143
L0L
sg1144
S'24/41'
p1148
ssS'change'
p1149
(dp1150
g1138
I3
sg1143
L0L
sg1144
S'5/17'
p1151
ssS'query'
p1152
(dp1153
g1138
I9
sg1143
L0L
sg1144
S'56/65'
p1154
sssg1144
S'99/149'
p1155
ssVKonqueror 4
p1156
(dp1157
S'total_runs'
p1158
L16L
sS'score'
p1159
I0
sS'results'
p1160
(dp1161
S'unapply'
p1162
(dp1163
g1159
I0
sS'median'
p1164
L0L
sS'display'
p1165
S'0/26'
p1166
ssS'apply'
p1167
(dp1168
g1159
I0
sg1164
L0L
sg1165
S'0/41'
p1169
ssS'change'
p1170
(dp1171
g1159
I0
sg1164
L0L
sg1165
S'0/17'
p1172
ssS'query'
p1173
(dp1174
g1159
I0
sg1164
L0L
sg1165
S'0/65'
p1175
sssg1165
S'0/149'
p1176
ssVCamino 2
p1177
(dp1178
S'total_runs'
p1179
L5L
sS'score'
p1180
I8
sS'results'
p1181
(dp1182
S'unapply'
p1183
(dp1184
g1180
I7
sS'median'
p1185
L0L
sS'display'
p1186
S'17/26'
p1187
ssS'apply'
p1188
(dp1189
g1180
I8
sg1185
L0L
sg1186
S'34/41'
p1190
ssS'change'
p1191
(dp1192
g1180
I4
sg1185
L0L
sg1186
S'7/17'
p1193
ssS'query'
p1194
(dp1195
g1180
I9
sg1185
L0L
sg1186
S'59/65'
p1196
sssg1186
S'117/149'
p1197
ssVCamino 1
p1198
(dp1199
S'total_runs'
p1200
L11L
sS'score'
p1201
I8
sS'results'
p1202
(dp1203
S'unapply'
p1204
(dp1205
g1201
I7
sS'median'
p1206
L0L
sS'display'
p1207
S'17/26'
p1208
ssS'apply'
p1209
(dp1210
g1201
I8
sg1206
L0L
sg1207
S'34/41'
p1211
ssS'change'
p1212
(dp1213
g1201
I4
sg1206
L0L
sg1207
S'7/17'
p1214
ssS'query'
p1215
(dp1216
g1201
I9
sg1206
L0L
sg1207
S'59/65'
p1217
sssg1207
S'117/149'
p1218
ssVJasmine 1
p1219
(dp1220
S'total_runs'
p1221
L2L
sS'score'
p1222
I10
sS'results'
p1223
(dp1224
S'unapply'
p1225
(dp1226
g1222
I9
sS'median'
p1227
L0L
sS'display'
p1228
S'23/26'
p1229
ssS'apply'
p1230
(dp1231
g1222
I10
sg1227
L0L
sg1228
S'40/41'
p1232
ssS'change'
p1233
(dp1234
g1222
I10
sg1227
L0L
sg1228
S'17/17'
p1235
ssS'query'
p1236
(dp1237
g1222
I10
sg1227
L0L
sg1228
S'65/65'
p1238
sssg1228
S'145/149'
p1239
ssVArora 0
p1240
(dp1241
S'total_runs'
p1242
L17L
sS'score'
p1243
I7
sS'results'
p1244
(dp1245
S'unapply'
p1246
(dp1247
g1243
I3
sS'median'
p1248
L0L
sS'display'
p1249
S'9/26'
p1250
ssS'apply'
p1251
(dp1252
g1243
I9
sg1248
L0L
sg1249
S'35/41'
p1253
ssS'change'
p1254
(dp1255
g1243
I10
sg1248
L0L
sg1249
S'17/17'
p1256
ssS'query'
p1257
(dp1258
g1243
I8
sg1248
L0L
sg1249
S'50/65'
p1259
sssg1249
S'111/149'
p1260
ssVAndroid 1
p1261
(dp1262
S'total_runs'
p1263
L28L
sS'score'
p1264
I8
sS'results'
p1265
(dp1266
S'unapply'
p1267
(dp1268
g1264
I7
sS'median'
p1269
L0L
sS'display'
p1270
S'17/26'
p1271
ssS'apply'
p1272
(dp1273
g1264
I8
sg1269
L0L
sg1270
S'34/41'
p1274
ssS'change'
p1275
(dp1276
g1264
I10
sg1269
L0L
sg1270
S'17/17'
p1277
ssS'query'
p1278
(dp1279
g1264
I8
sg1269
L0L
sg1270
S'50/65'
p1280
sssg1270
S'118/149'
p1281
ssVAndroid 2
p1282
(dp1283
S'total_runs'
p1284
L6L
sS'score'
p1285
I9
sS'results'
p1286
(dp1287
S'unapply'
p1288
(dp1289
g1285
I9
sS'median'
p1290
L0L
sS'display'
p1291
S'23/26'
p1292
ssS'apply'
p1293
(dp1294
g1285
I10
sg1290
L0L
sg1291
S'39/41'
p1295
ssS'change'
p1296
(dp1297
g1285
I10
sg1290
L0L
sg1291
S'17/17'
p1298
ssS'query'
p1299
(dp1300
g1285
I8
sg1290
L0L
sg1291
S'50/65'
p1301
sssg1291
S'129/149'
p1302
ssVIron 4
p1303
(dp1304
S'total_runs'
p1305
L4L
sS'score'
p1306
I9
sS'results'
p1307
(dp1308
S'unapply'
p1309
(dp1310
g1306
I9
sS'median'
p1311
L0L
sS'display'
p1312
S'23/26'
p1313
ssS'apply'
p1314
(dp1315
g1306
I10
sg1311
L0L
sg1312
S'39/41'
p1316
ssS'change'
p1317
(dp1318
g1306
I10
sg1311
L0L
sg1312
S'17/17'
p1319
ssS'query'
p1320
(dp1321
g1306
I8
sg1311
L0L
sg1312
S'50/65'
p1322
sssg1312
S'129/149'
p1323
ssVPalm Pre 1
p1324
(dp1325
S'total_runs'
p1326
L1L
sS'score'
p1327
I7
sS'results'
p1328
(dp1329
S'unapply'
p1330
(dp1331
g1327
I3
sS'median'
p1332
L0L
sS'display'
p1333
S'9/26'
p1334
ssS'apply'
p1335
(dp1336
g1327
I7
sg1332
L0L
sg1333
S'28/41'
p1337
ssS'change'
p1338
(dp1339
g1327
I10
sg1332
L0L
sg1333
S'17/17'
p1340
ssS'query'
p1341
(dp1342
g1327
I8
sg1332
L0L
sg1333
S'49/65'
p1343
sssg1333
S'103/149'
p1344
ssVKazehakase 0
p1345
(dp1346
S'total_runs'
p1347
L1L
sS'score'
p1348
I8
sS'results'
p1349
(dp1350
S'unapply'
p1351
(dp1352
g1348
I7
sS'median'
p1353
L0L
sS'display'
p1354
S'17/26'
p1355
ssS'apply'
p1356
(dp1357
g1348
I8
sg1353
L0L
sg1354
S'34/41'
p1358
ssS'change'
p1359
(dp1360
g1348
I4
sg1353
L0L
sg1354
S'7/17'
p1361
ssS'query'
p1362
(dp1363
g1348
I9
sg1353
L0L
sg1354
S'59/65'
p1364
sssg1354
S'117/149'
p1365
ssVVienna 2
p1366
(dp1367
S'total_runs'
p1368
L2L
sS'score'
p1369
I8
sS'results'
p1370
(dp1371
S'unapply'
p1372
(dp1373
g1369
I7
sS'median'
p1374
L0L
sS'display'
p1375
S'19/26'
p1376
ssS'apply'
p1377
(dp1378
g1369
I9
sg1374
L0L
sg1375
S'37/41'
p1379
ssS'change'
p1380
(dp1381
g1369
I10
sg1374
L0L
sg1375
S'17/17'
p1382
ssS'query'
p1383
(dp1384
g1369
I8
sg1374
L0L
sg1375
S'50/65'
p1385
sssg1375
S'123/149'
p1386
ssVStainless 0
p1387
(dp1388
S'total_runs'
p1389
L3L
sS'score'
p1390
I8
sS'results'
p1391
(dp1392
S'unapply'
p1393
(dp1394
g1390
I7
sS'median'
p1395
L0L
sS'display'
p1396
S'19/26'
p1397
ssS'apply'
p1398
(dp1399
g1390
I10
sg1395
L0L
sg1396
S'39/41'
p1400
ssS'change'
p1401
(dp1402
g1390
I10
sg1395
L0L
sg1396
S'17/17'
p1403
ssS'query'
p1404
(dp1405
g1390
I8
sg1395
L0L
sg1396
S'50/65'
p1406
sssg1396
S'125/149'
p1407
ssVOpera Mini 4
p1408
(dp1409
S'total_runs'
p1410
L9L
sS'score'
p1411
I2
sS'results'
p1412
(dp1413
S'unapply'
p1414
(dp1415
g1411
I10
sS'median'
p1416
L0L
sS'display'
p1417
S'26/26'
p1418
ssS'apply'
p1419
(dp1420
g1411
I0
sg1416
L0L
sg1417
S'0/41'
p1421
ssS'change'
p1422
(dp1423
g1411
I0
sg1416
L0L
sg1417
S'0/17'
p1424
ssS'query'
p1425
(dp1426
g1411
I0
sg1416
L0L
sg1417
S'0/65'
p1427
sssg1417
S'26/149'
p1428
ssVLunascape 6
p1429
(dp1430
S'total_runs'
p1431
L2L
sS'score'
p1432
I8
sS'results'
p1433
(dp1434
S'unapply'
p1435
(dp1436
g1432
I7
sS'median'
p1437
L0L
sS'display'
p1438
S'17/26'
p1439
ssS'apply'
p1440
(dp1441
g1432
I8
sg1437
L0L
sg1438
S'34/41'
p1442
ssS'change'
p1443
(dp1444
g1432
I4
sg1437
L0L
sg1438
S'7/17'
p1445
ssS'query'
p1446
(dp1447
g1432
I9
sg1437
L0L
sg1438
S'59/65'
p1448
sssg1438
S'117/149'
p1449
ssVChrome Frame (IE 7) 4
p1450
(dp1451
S'total_runs'
p1452
L3L
sS'score'
p1453
I9
sS'results'
p1454
(dp1455
S'unapply'
p1456
(dp1457
g1453
I9
sS'median'
p1458
L0L
sS'display'
p1459
S'23/26'
p1460
ssS'apply'
p1461
(dp1462
g1453
I10
sg1458
L0L
sg1459
S'39/41'
p1463
ssS'change'
p1464
(dp1465
g1453
I10
sg1458
L0L
sg1459
S'17/17'
p1466
ssS'query'
p1467
(dp1468
g1453
I8
sg1458
L0L
sg1459
S'50/65'
p1469
sssg1459
S'129/149'
p1470
ssVOpera 8
p1471
(dp1472
S'total_runs'
p1473
L1L
sS'score'
p1474
I0
sS'results'
p1475
(dp1476
S'unapply'
p1477
(dp1478
g1474
I0
sS'median'
p1479
L0L
sS'display'
p1480
S'0/26'
p1481
ssS'apply'
p1482
(dp1483
g1474
I0
sg1479
L0L
sg1480
S'0/41'
p1484
ssS'change'
p1485
(dp1486
g1474
I0
sg1479
L0L
sg1480
S'0/17'
p1487
ssS'query'
p1488
(dp1489
g1474
I0
sg1479
L0L
sg1480
S'0/65'
p1490
sssg1480
S'0/149'
p1491
ssVChrome Frame (IE 7) 7
p1492
(dp1493
S'total_runs'
p1494
L2L
sS'score'
p1495
I7
sS'results'
p1496
(dp1497
S'unapply'
p1498
(dp1499
g1495
I5
sS'median'
p1500
L0L
sS'display'
p1501
S'14/26'
p1502
ssS'apply'
p1503
(dp1504
g1495
I6
sg1500
L0L
sg1501
S'24/41'
p1505
ssS'change'
p1506
(dp1507
g1495
I3
sg1500
L0L
sg1501
S'5/17'
p1508
ssS'query'
p1509
(dp1510
g1495
I9
sg1500
L0L
sg1501
S'56/65'
p1511
sssg1501
S'99/149'
p1512
ssVLunascape 5
p1513
(dp1514
S'total_runs'
p1515
L10L
sS'score'
p1516
I8
sS'results'
p1517
(dp1518
S'unapply'
p1519
(dp1520
g1516
I7
sS'median'
p1521
L0L
sS'display'
p1522
S'17/26'
p1523
ssS'apply'
p1524
(dp1525
g1516
I8
sg1521
L0L
sg1522
S'34/41'
p1526
ssS'change'
p1527
(dp1528
g1516
I4
sg1521
L0L
sg1522
S'7/17'
p1529
ssS'query'
p1530
(dp1531
g1516
I9
sg1521
L0L
sg1522
S'59/65'
p1532
sssg1522
S'117/149'
p1533
ssVGranParadiso 3
p1534
(dp1535
S'total_runs'
p1536
L1L
sS'score'
p1537
I8
sS'results'
p1538
(dp1539
S'unapply'
p1540
(dp1541
g1537
I7
sS'median'
p1542
L0L
sS'display'
p1543
S'17/26'
p1544
ssS'apply'
p1545
(dp1546
g1537
I8
sg1542
L0L
sg1543
S'34/41'
p1547
ssS'change'
p1548
(dp1549
g1537
I4
sg1542
L0L
sg1543
S'7/17'
p1550
ssS'query'
p1551
(dp1552
g1537
I9
sg1542
L0L
sg1543
S'59/65'
p1553
sssg1543
S'117/149'
p1554
ssVOther
p1555
(dp1556
S'total_runs'
p1557
L33L
sS'score'
p1558
I8
sS'results'
p1559
(dp1560
S'unapply'
p1561
(dp1562
g1558
I7
sS'median'
p1563
L0L
sS'display'
p1564
S'18/26'
p1565
ssS'apply'
p1566
(dp1567
g1558
I10
sg1563
L0L
sg1564
S'39/41'
p1568
ssS'change'
p1569
(dp1570
g1558
I10
sg1563
L0L
sg1564
S'17/17'
p1571
ssS'query'
p1572
(dp1573
g1558
I8
sg1563
L0L
sg1564
S'49/65'
p1574
sssg1564
S'123/149'
p1575
ssVGaleon 2
p1576
(dp1577
S'total_runs'
p1578
L2L
sS'score'
p1579
I8
sS'results'
p1580
(dp1581
S'unapply'
p1582
(dp1583
g1579
I7
sS'median'
p1584
L0L
sS'display'
p1585
S'17/26'
p1586
ssS'apply'
p1587
(dp1588
g1579
I8
sg1584
L0L
sg1585
S'34/41'
p1589
ssS'change'
p1590
(dp1591
g1579
I4
sg1584
L0L
sg1585
S'7/17'
p1592
ssS'query'
p1593
(dp1594
g1579
I9
sg1584
L0L
sg1585
S'59/65'
p1595
sssg1585
S'117/149'
p1596
ssVMicroB 0
p1597
(dp1598
S'total_runs'
p1599
L1L
sS'score'
p1600
I8
sS'results'
p1601
(dp1602
S'unapply'
p1603
(dp1604
g1600
I7
sS'median'
p1605
L0L
sS'display'
p1606
S'17/26'
p1607
ssS'apply'
p1608
(dp1609
g1600
I8
sg1605
L0L
sg1606
S'34/41'
p1610
ssS'change'
p1611
(dp1612
g1600
I4
sg1605
L0L
sg1606
S'7/17'
p1613
ssS'query'
p1614
(dp1615
g1600
I9
sg1605
L0L
sg1606
S'60/65'
p1616
sssg1606
S'118/149'
p1617
ssVQtWeb 3
p1618
(dp1619
S'total_runs'
p1620
L1L
sS'score'
p1621
I7
sS'results'
p1622
(dp1623
S'unapply'
p1624
(dp1625
g1621
I3
sS'median'
p1626
L0L
sS'display'
p1627
S'9/26'
p1628
ssS'apply'
p1629
(dp1630
g1621
I9
sg1626
L0L
sg1627
S'35/41'
p1631
ssS'change'
p1632
(dp1633
g1621
I10
sg1626
L0L
sg1627
S'17/17'
p1634
ssS'query'
p1635
(dp1636
g1621
I8
sg1626
L0L
sg1627
S'50/65'
p1637
sssg1627
S'111/149'
p1638
ssVSeaMonkey 1
p1639
(dp1640
S'total_runs'
p1641
L6L
sS'score'
p1642
I8
sS'results'
p1643
(dp1644
S'unapply'
p1645
(dp1646
g1642
I7
sS'median'
p1647
L0L
sS'display'
p1648
S'17/26'
p1649
ssS'apply'
p1650
(dp1651
g1642
I8
sg1647
L0L
sg1648
S'34/41'
p1652
ssS'change'
p1653
(dp1654
g1642
I4
sg1647
L0L
sg1648
S'7/17'
p1655
ssS'query'
p1656
(dp1657
g1642
I9
sg1647
L0L
sg1648
S'59/65'
p1658
sssg1648
S'117/149'
p1659
ssVIceweasel 2
p1660
(dp1661
S'total_runs'
p1662
L1L
sS'score'
p1663
I8
sS'results'
p1664
(dp1665
S'unapply'
p1666
(dp1667
g1663
I7
sS'median'
p1668
L0L
sS'display'
p1669
S'17/26'
p1670
ssS'apply'
p1671
(dp1672
g1663
I8
sg1668
L0L
sg1669
S'34/41'
p1673
ssS'change'
p1674
(dp1675
g1663
I4
sg1668
L0L
sg1669
S'7/17'
p1676
ssS'query'
p1677
(dp1678
g1663
I9
sg1668
L0L
sg1669
S'59/65'
p1679
sssg1669
S'117/149'
p1680
ssVUzbl 0
p1681
(dp1682
g675
L20L
sg676
I9
sg677
(dp1683
g679
(dp1684
g676
I9
sg681
L0L
sg682
S'23/26'
p1685
ssg684
(dp1686
g676
I10
sg681
L0L
sg682
S'39/41'
p1687
ssg687
(dp1688
g676
I10
sg681
L0L
sg682
S'17/17'
p1689
ssg690
(dp1690
g676
I8
sg681
L0L
sg682
S'50/65'
p1691
sssg682
S'129/149'
p1692
ss.