(dp0
VOpera 9.7
p1
(dp2
S'summary_display'
p3
S'0/149'
p4
sS'total_runs'
p5
L2L
sS'summary_score'
p6
I0
sS'results'
p7
(dp8
S'unapply'
p9
(dp10
S'score'
p11
I0
sS'raw_score'
p12
I0
sS'display'
p13
S'0/26'
p14
ssS'apply'
p15
(dp16
g11
I0
sg12
I0
sg13
S'0/41'
p17
ssS'change'
p18
(dp19
g11
I0
sg12
I0
sg13
S'0/17'
p20
ssS'query'
p21
(dp22
g11
I0
sg12
I0
sg13
S'0/65'
p23
ssssVOpera 9.6
p24
(dp25
S'summary_display'
p26
S'0/149'
p27
sS'total_runs'
p28
L1L
sS'summary_score'
p29
I0
sS'results'
p30
(dp31
S'unapply'
p32
(dp33
S'score'
p34
I0
sS'raw_score'
p35
I0
sS'display'
p36
S'0/26'
p37
ssS'apply'
p38
(dp39
g34
I0
sg35
I0
sg36
S'0/41'
p40
ssS'change'
p41
(dp42
g34
I0
sg35
I0
sg36
S'0/17'
p43
ssS'query'
p44
(dp45
g34
I0
sg35
I0
sg36
S'0/65'
p46
ssssVFennec 1.0
p47
(dp48
S'summary_display'
p49
S'117/149'
p50
sS'total_runs'
p51
L6L
sS'summary_score'
p52
I79
sS'results'
p53
(dp54
S'unapply'
p55
(dp56
S'score'
p57
I65
sS'raw_score'
p58
I0
sS'display'
p59
S'17/26'
p60
ssS'apply'
p61
(dp62
g57
I83
sg58
I0
sg59
S'34/41'
p63
ssS'change'
p64
(dp65
g57
I41
sg58
I0
sg59
S'7/17'
p66
ssS'query'
p67
(dp68
g57
I91
sg58
I0
sg59
S'59/65'
p69
ssssVPlayStation 3
p70
(dp71
S'summary_display'
p72
S'0/149'
p73
sS'total_runs'
p74
L3L
sS'summary_score'
p75
I0
sS'results'
p76
(dp77
S'unapply'
p78
(dp79
S'score'
p80
I0
sS'raw_score'
p81
I0
sS'display'
p82
S'0/26'
p83
ssS'apply'
p84
(dp85
g80
I0
sg81
I0
sg82
S'0/41'
p86
ssS'change'
p87
(dp88
g80
I0
sg81
I0
sg82
S'0/17'
p89
ssS'query'
p90
(dp91
g80
I0
sg81
I0
sg82
S'0/65'
p92
ssssVMaxthon 0
p93
(dp94
S'summary_display'
p95
S'99/149'
p96
sS'total_runs'
p97
L1L
sS'summary_score'
p98
I66
sS'results'
p99
(dp100
S'unapply'
p101
(dp102
S'score'
p103
I54
sS'raw_score'
p104
I0
sS'display'
p105
S'14/26'
p106
ssS'apply'
p107
(dp108
g103
I59
sg104
I0
sg105
S'24/41'
p109
ssS'change'
p110
(dp111
g103
I29
sg104
I0
sg105
S'5/17'
p112
ssS'query'
p113
(dp114
g103
I86
sg104
I0
sg105
S'56/65'
p115
ssssVFirefox (Shiretoko) 3.5
p116
(dp117
S'summary_display'
p118
S'117/149'
p119
sS'total_runs'
p120
L176L
sS'summary_score'
p121
I79
sS'results'
p122
(dp123
S'unapply'
p124
(dp125
S'score'
p126
I65
sS'raw_score'
p127
I0
sS'display'
p128
S'17/26'
p129
ssS'apply'
p130
(dp131
g126
I83
sg127
I0
sg128
S'34/41'
p132
ssS'change'
p133
(dp134
g126
I41
sg127
I0
sg128
S'7/17'
p135
ssS'query'
p136
(dp137
g126
I91
sg127
I0
sg128
S'59/65'
p138
ssssVOpera 9.5
p139
(dp140
S'summary_display'
p141
S'0/149'
p142
sS'total_runs'
p143
L1L
sS'summary_score'
p144
I0
sS'results'
p145
(dp146
S'unapply'
p147
(dp148
S'score'
p149
I0
sS'raw_score'
p150
I0
sS'display'
p151
S'0/26'
p152
ssS'apply'
p153
(dp154
g149
I0
sg150
I0
sg151
S'0/41'
p155
ssS'change'
p156
(dp157
g149
I0
sg150
I0
sg151
S'0/17'
p158
ssS'query'
p159
(dp160
g149
I0
sg150
I0
sg151
S'0/65'
p161
ssssVIron 4.0
p162
(dp163
S'summary_display'
p164
S'129/149'
p165
sS'total_runs'
p166
L11L
sS'summary_score'
p167
I87
sS'results'
p168
(dp169
S'unapply'
p170
(dp171
S'score'
p172
I88
sS'raw_score'
p173
I0
sS'display'
p174
S'23/26'
p175
ssS'apply'
p176
(dp177
g172
I95
sg173
I0
sg174
S'39/41'
p178
ssS'change'
p179
(dp180
g172
I100
sg173
I0
sg174
S'17/17'
p181
ssS'query'
p182
(dp183
g172
I77
sg173
I0
sg174
S'50/65'
p184
ssssVOpera 9.62
p185
(dp186
S'summary_display'
p187
S'88/149'
p188
sS'total_runs'
p189
L1L
sS'summary_score'
p190
I59
sS'results'
p191
(dp192
S'unapply'
p193
(dp194
S'score'
p195
I50
sS'raw_score'
p196
I0
sS'display'
p197
S'13/26'
p198
ssS'apply'
p199
(dp200
g195
I63
sg196
I0
sg197
S'26/41'
p201
ssS'change'
p202
(dp203
g195
I41
sg196
I0
sg197
S'7/17'
p204
ssS'query'
p205
(dp206
g195
I65
sg196
I0
sg197
S'42/65'
p207
ssssVOpera 9.63
p208
(dp209
S'summary_display'
p210
S'88/149'
p211
sS'total_runs'
p212
L8L
sS'summary_score'
p213
I59
sS'results'
p214
(dp215
S'unapply'
p216
(dp217
S'score'
p218
I50
sS'raw_score'
p219
I0
sS'display'
p220
S'13/26'
p221
ssS'apply'
p222
(dp223
g218
I63
sg219
I0
sg220
S'26/41'
p224
ssS'change'
p225
(dp226
g218
I41
sg219
I0
sg220
S'7/17'
p227
ssS'query'
p228
(dp229
g218
I65
sg219
I0
sg220
S'42/65'
p230
ssssVFluid 0.9
p231
(dp232
S'summary_display'
p233
S'125/149'
p234
sS'total_runs'
p235
L1L
sS'summary_score'
p236
I84
sS'results'
p237
(dp238
S'unapply'
p239
(dp240
S'score'
p241
I73
sS'raw_score'
p242
I0
sS'display'
p243
S'19/26'
p244
ssS'apply'
p245
(dp246
g241
I95
sg242
I0
sg243
S'39/41'
p247
ssS'change'
p248
(dp249
g241
I100
sg242
I0
sg243
S'17/17'
p250
ssS'query'
p251
(dp252
g241
I77
sg242
I0
sg243
S'50/65'
p253
ssssVOpera 9.61
p254
(dp255
S'summary_display'
p256
S'128/149'
p257
sS'total_runs'
p258
L2L
sS'summary_score'
p259
I86
sS'results'
p260
(dp261
S'unapply'
p262
(dp263
S'score'
p264
I77
sS'raw_score'
p265
I0
sS'display'
p266
S'20/26'
p267
ssS'apply'
p268
(dp269
g264
I85
sg265
I0
sg266
S'35/41'
p270
ssS'change'
p271
(dp272
g264
I76
sg265
I0
sg266
S'13/17'
p273
ssS'query'
p274
(dp275
g264
I92
sg265
I0
sg266
S'60/65'
p276
ssssVOpera 9.64
p277
(dp278
S'summary_display'
p279
S'88/149'
p280
sS'total_runs'
p281
L30L
sS'summary_score'
p282
I59
sS'results'
p283
(dp284
S'unapply'
p285
(dp286
S'score'
p287
I50
sS'raw_score'
p288
I0
sS'display'
p289
S'13/26'
p290
ssS'apply'
p291
(dp292
g287
I63
sg288
I0
sg289
S'26/41'
p293
ssS'change'
p294
(dp295
g287
I41
sg288
I0
sg289
S'7/17'
p296
ssS'query'
p297
(dp298
g287
I65
sg288
I0
sg289
S'42/65'
p299
ssssViPhone 3.0
p300
(dp301
S'summary_display'
p302
S'118/149'
p303
sS'total_runs'
p304
L28L
sS'summary_score'
p305
I79
sS'results'
p306
(dp307
S'unapply'
p308
(dp309
S'score'
p310
I65
sS'raw_score'
p311
I0
sS'display'
p312
S'17/26'
p313
ssS'apply'
p314
(dp315
g310
I83
sg311
I0
sg312
S'34/41'
p316
ssS'change'
p317
(dp318
g310
I100
sg311
I0
sg312
S'17/17'
p319
ssS'query'
p320
(dp321
g310
I77
sg311
I0
sg312
S'50/65'
p322
ssssViPhone 3.1
p323
(dp324
S'summary_display'
p325
S'118/149'
p326
sS'total_runs'
p327
L80L
sS'summary_score'
p328
I79
sS'results'
p329
(dp330
S'unapply'
p331
(dp332
S'score'
p333
I65
sS'raw_score'
p334
I0
sS'display'
p335
S'17/26'
p336
ssS'apply'
p337
(dp338
g333
I83
sg334
I0
sg335
S'34/41'
p339
ssS'change'
p340
(dp341
g333
I100
sg334
I0
sg335
S'17/17'
p342
ssS'query'
p343
(dp344
g333
I77
sg334
I0
sg335
S'50/65'
p345
ssssVNokia 97
p346
(dp347
S'summary_display'
p348
S'100/149'
p349
sS'total_runs'
p350
L2L
sS'summary_score'
p351
I67
sS'results'
p352
(dp353
S'unapply'
p354
(dp355
S'score'
p356
I31
sS'raw_score'
p357
I0
sS'display'
p358
S'8/26'
p359
ssS'apply'
p360
(dp361
g356
I68
sg357
I0
sg358
S'28/41'
p362
ssS'change'
p363
(dp364
g356
I100
sg357
I0
sg358
S'17/17'
p365
ssS'query'
p366
(dp367
g356
I72
sg357
I0
sg358
S'47/65'
p368
ssssVIceweasel 3.5
p369
(dp370
S'summary_display'
p371
S'117/149'
p372
sS'total_runs'
p373
L17L
sS'summary_score'
p374
I79
sS'results'
p375
(dp376
S'unapply'
p377
(dp378
S'score'
p379
I65
sS'raw_score'
p380
I0
sS'display'
p381
S'17/26'
p382
ssS'apply'
p383
(dp384
g379
I83
sg380
I0
sg381
S'34/41'
p385
ssS'change'
p386
(dp387
g379
I41
sg380
I0
sg381
S'7/17'
p388
ssS'query'
p389
(dp390
g379
I91
sg380
I0
sg381
S'59/65'
p391
ssssVCamino 2.1
p392
(dp393
S'summary_display'
p394
S'112/149'
p395
sS'total_runs'
p396
L1L
sS'summary_score'
p397
I75
sS'results'
p398
(dp399
S'unapply'
p400
(dp401
S'score'
p402
I65
sS'raw_score'
p403
I0
sS'display'
p404
S'17/26'
p405
ssS'apply'
p406
(dp407
g402
I83
sg403
I0
sg404
S'34/41'
p408
ssS'change'
p409
(dp410
g402
I41
sg403
I0
sg404
S'7/17'
p411
ssS'query'
p412
(dp413
g402
I83
sg403
I0
sg404
S'54/65'
p414
ssssVCamino 2.0
p415
(dp416
S'summary_display'
p417
S'117/149'
p418
sS'total_runs'
p419
L5L
sS'summary_score'
p420
I79
sS'results'
p421
(dp422
S'unapply'
p423
(dp424
S'score'
p425
I65
sS'raw_score'
p426
I0
sS'display'
p427
S'17/26'
p428
ssS'apply'
p429
(dp430
g425
I83
sg426
I0
sg427
S'34/41'
p431
ssS'change'
p432
(dp433
g425
I41
sg426
I0
sg427
S'7/17'
p434
ssS'query'
p435
(dp436
g425
I91
sg426
I0
sg427
S'59/65'
p437
ssssVIceweasel 3.0
p438
(dp439
S'summary_display'
p440
S'117/149'
p441
sS'total_runs'
p442
L37L
sS'summary_score'
p443
I79
sS'results'
p444
(dp445
S'unapply'
p446
(dp447
S'score'
p448
I65
sS'raw_score'
p449
I0
sS'display'
p450
S'17/26'
p451
ssS'apply'
p452
(dp453
g448
I83
sg449
I0
sg450
S'34/41'
p454
ssS'change'
p455
(dp456
g448
I41
sg449
I0
sg450
S'7/17'
p457
ssS'query'
p458
(dp459
g448
I91
sg449
I0
sg450
S'59/65'
p460
ssssVFlock 1.2
p461
(dp462
S'summary_display'
p463
S'117/149'
p464
sS'total_runs'
p465
L1L
sS'summary_score'
p466
I79
sS'results'
p467
(dp468
S'unapply'
p469
(dp470
S'score'
p471
I65
sS'raw_score'
p472
I0
sS'display'
p473
S'17/26'
p474
ssS'apply'
p475
(dp476
g471
I83
sg472
I0
sg473
S'34/41'
p477
ssS'change'
p478
(dp479
g471
I41
sg472
I0
sg473
S'7/17'
p480
ssS'query'
p481
(dp482
g471
I91
sg472
I0
sg473
S'59/65'
p483
ssssVJasmine 1.0
p484
(dp485
S'summary_display'
p486
S'145/149'
p487
sS'total_runs'
p488
L2L
sS'summary_score'
p489
I97
sS'results'
p490
(dp491
S'unapply'
p492
(dp493
S'score'
p494
I88
sS'raw_score'
p495
I0
sS'display'
p496
S'23/26'
p497
ssS'apply'
p498
(dp499
g494
I98
sg495
I0
sg496
S'40/41'
p500
ssS'change'
p501
(dp502
g494
I100
sg495
I0
sg496
S'17/17'
p503
ssS'query'
p504
(dp505
g494
I100
sg495
I0
sg496
S'65/65'
p506
ssssVAvant 1
p507
(dp508
S'summary_display'
p509
S'96/149'
p510
sS'total_runs'
p511
L13L
sS'summary_score'
p512
I64
sS'results'
p513
(dp514
S'unapply'
p515
(dp516
S'score'
p517
I42
sS'raw_score'
p518
I0
sS'display'
p519
S'11/26'
p520
ssS'apply'
p521
(dp522
g517
I59
sg518
I0
sg519
S'24/41'
p523
ssS'change'
p524
(dp525
g517
I29
sg518
I0
sg519
S'5/17'
p526
ssS'query'
p527
(dp528
g517
I86
sg518
I0
sg519
S'56/65'
p529
ssssVChrome 3.0
p530
(dp531
S'summary_display'
p532
S'126/149'
p533
sS'total_runs'
p534
L555L
sS'summary_score'
p535
I85
sS'results'
p536
(dp537
S'unapply'
p538
(dp539
S'score'
p540
I77
sS'raw_score'
p541
I0
sS'display'
p542
S'20/26'
p543
ssS'apply'
p544
(dp545
g540
I95
sg541
I0
sg542
S'39/41'
p546
ssS'change'
p547
(dp548
g540
I100
sg541
I0
sg542
S'17/17'
p549
ssS'query'
p550
(dp551
g540
I77
sg541
I0
sg542
S'50/65'
p552
ssssViPhone 2.2
p553
(dp554
S'summary_display'
p555
S'104/149'
p556
sS'total_runs'
p557
L8L
sS'summary_score'
p558
I70
sS'results'
p559
(dp560
S'unapply'
p561
(dp562
S'score'
p563
I35
sS'raw_score'
p564
I0
sS'display'
p565
S'9/26'
p566
ssS'apply'
p567
(dp568
g563
I68
sg564
I0
sg565
S'28/41'
p569
ssS'change'
p570
(dp571
g563
I100
sg564
I0
sg565
S'17/17'
p572
ssS'query'
p573
(dp574
g563
I77
sg564
I0
sg565
S'50/65'
p575
ssssVFirefox 1.5
p576
(dp577
S'summary_display'
p578
S'117/149'
p579
sS'total_runs'
p580
L5L
sS'summary_score'
p581
I79
sS'results'
p582
(dp583
S'unapply'
p584
(dp585
S'score'
p586
I65
sS'raw_score'
p587
I0
sS'display'
p588
S'17/26'
p589
ssS'apply'
p590
(dp591
g586
I83
sg587
I0
sg588
S'34/41'
p592
ssS'change'
p593
(dp594
g586
I41
sg587
I0
sg588
S'7/17'
p595
ssS'query'
p596
(dp597
g586
I91
sg587
I0
sg588
S'59/65'
p598
ssssVChrome 1.0
p599
(dp600
S'summary_display'
p601
S'104/149'
p602
sS'total_runs'
p603
L10L
sS'summary_score'
p604
I70
sS'results'
p605
(dp606
S'unapply'
p607
(dp608
S'score'
p609
I35
sS'raw_score'
p610
I0
sS'display'
p611
S'9/26'
p612
ssS'apply'
p613
(dp614
g609
I68
sg610
I0
sg611
S'28/41'
p615
ssS'change'
p616
(dp617
g609
I100
sg610
I0
sg611
S'17/17'
p618
ssS'query'
p619
(dp620
g609
I77
sg610
I0
sg611
S'50/65'
p621
ssssVNetscape 8.1
p622
(dp623
S'summary_display'
p624
S'118/149'
p625
sS'total_runs'
p626
L1L
sS'summary_score'
p627
I79
sS'results'
p628
(dp629
S'unapply'
p630
(dp631
S'score'
p632
I65
sS'raw_score'
p633
I0
sS'display'
p634
S'17/26'
p635
ssS'apply'
p636
(dp637
g632
I85
sg633
I0
sg634
S'35/41'
p638
ssS'change'
p639
(dp640
g632
I41
sg633
I0
sg634
S'7/17'
p641
ssS'query'
p642
(dp643
g632
I91
sg633
I0
sg634
S'59/65'
p644
ssssVOpera 9.70
p645
(dp646
S'summary_display'
p647
S'88/149'
p648
sS'total_runs'
p649
L1L
sS'summary_score'
p650
I59
sS'results'
p651
(dp652
S'unapply'
p653
(dp654
S'score'
p655
I50
sS'raw_score'
p656
I0
sS'display'
p657
S'13/26'
p658
ssS'apply'
p659
(dp660
g655
I63
sg656
I0
sg657
S'26/41'
p661
ssS'change'
p662
(dp663
g655
I41
sg656
I0
sg657
S'7/17'
p664
ssS'query'
p665
(dp666
g655
I65
sg656
I0
sg657
S'42/65'
p667
ssssVFirefox 3.2
p668
(dp669
S'summary_display'
p670
S'117/149'
p671
sS'total_runs'
p672
L1L
sS'summary_score'
p673
I79
sS'results'
p674
(dp675
S'unapply'
p676
(dp677
S'score'
p678
I65
sS'raw_score'
p679
I0
sS'display'
p680
S'17/26'
p681
ssS'apply'
p682
(dp683
g678
I83
sg679
I0
sg680
S'34/41'
p684
ssS'change'
p685
(dp686
g678
I41
sg679
I0
sg680
S'7/17'
p687
ssS'query'
p688
(dp689
g678
I91
sg679
I0
sg680
S'59/65'
p690
ssssVOpera Mini 5.0
p691
(dp692
S'summary_display'
p693
S'26/149'
p694
sS'total_runs'
p695
L4L
sS'summary_score'
p696
I17
sS'results'
p697
(dp698
S'unapply'
p699
(dp700
S'score'
p701
I100
sS'raw_score'
p702
I0
sS'display'
p703
S'26/26'
p704
ssS'apply'
p705
(dp706
g701
I0
sg702
I0
sg703
S'0/41'
p707
ssS'change'
p708
(dp709
g701
I0
sg702
I0
sg703
S'0/17'
p710
ssS'query'
p711
(dp712
g701
I0
sg702
I0
sg703
S'0/65'
p713
ssssVSeaMonkey 2.1
p714
(dp715
S'summary_display'
p716
S'117/149'
p717
sS'total_runs'
p718
L1L
sS'summary_score'
p719
I79
sS'results'
p720
(dp721
S'unapply'
p722
(dp723
S'score'
p724
I65
sS'raw_score'
p725
I0
sS'display'
p726
S'17/26'
p727
ssS'apply'
p728
(dp729
g724
I83
sg725
I0
sg726
S'34/41'
p730
ssS'change'
p731
(dp732
g724
I41
sg725
I0
sg726
S'7/17'
p733
ssS'query'
p734
(dp735
g724
I91
sg725
I0
sg726
S'59/65'
p736
ssssVSeaMonkey 2.0
p737
(dp738
S'summary_display'
p739
S'117/149'
p740
sS'total_runs'
p741
L26L
sS'summary_score'
p742
I79
sS'results'
p743
(dp744
S'unapply'
p745
(dp746
S'score'
p747
I65
sS'raw_score'
p748
I0
sS'display'
p749
S'17/26'
p750
ssS'apply'
p751
(dp752
g747
I83
sg748
I0
sg749
S'34/41'
p753
ssS'change'
p754
(dp755
g747
I41
sg748
I0
sg749
S'7/17'
p756
ssS'query'
p757
(dp758
g747
I91
sg748
I0
sg749
S'59/65'
p759
ssssVFlock 2.0
p760
(dp761
S'summary_display'
p762
S'117/149'
p763
sS'total_runs'
p764
L3L
sS'summary_score'
p765
I79
sS'results'
p766
(dp767
S'unapply'
p768
(dp769
S'score'
p770
I65
sS'raw_score'
p771
I0
sS'display'
p772
S'17/26'
p773
ssS'apply'
p774
(dp775
g770
I83
sg771
I0
sg772
S'34/41'
p776
ssS'change'
p777
(dp778
g770
I41
sg771
I0
sg772
S'7/17'
p779
ssS'query'
p780
(dp781
g770
I91
sg771
I0
sg772
S'59/65'
p782
ssssVFlock 2.5
p783
(dp784
S'summary_display'
p785
S'117/149'
p786
sS'total_runs'
p787
L3L
sS'summary_score'
p788
I79
sS'results'
p789
(dp790
S'unapply'
p791
(dp792
S'score'
p793
I65
sS'raw_score'
p794
I0
sS'display'
p795
S'17/26'
p796
ssS'apply'
p797
(dp798
g793
I83
sg794
I0
sg795
S'34/41'
p799
ssS'change'
p800
(dp801
g793
I41
sg794
I0
sg795
S'7/17'
p802
ssS'query'
p803
(dp804
g793
I91
sg794
I0
sg795
S'59/65'
p805
ssssVIron 2.0
p806
(dp807
S'summary_display'
p808
S'125/149'
p809
sS'total_runs'
p810
L8L
sS'summary_score'
p811
I84
sS'results'
p812
(dp813
S'unapply'
p814
(dp815
S'score'
p816
I73
sS'raw_score'
p817
I0
sS'display'
p818
S'19/26'
p819
ssS'apply'
p820
(dp821
g816
I95
sg817
I0
sg818
S'39/41'
p822
ssS'change'
p823
(dp824
g816
I100
sg817
I0
sg818
S'17/17'
p825
ssS'query'
p826
(dp827
g816
I77
sg817
I0
sg818
S'50/65'
p828
ssssVIE 6.0
p829
(dp830
S'summary_display'
p831
S'99/149'
p832
sS'total_runs'
p833
L104L
sS'summary_score'
p834
I66
sS'results'
p835
(dp836
S'unapply'
p837
(dp838
S'score'
p839
I54
sS'raw_score'
p840
I0
sS'display'
p841
S'14/26'
p842
ssS'apply'
p843
(dp844
g839
I59
sg840
I0
sg841
S'24/41'
p845
ssS'change'
p846
(dp847
g839
I29
sg840
I0
sg841
S'5/17'
p848
ssS'query'
p849
(dp850
g839
I86
sg840
I0
sg841
S'56/65'
p851
ssssVLunascape 4.9
p852
(dp853
S'summary_display'
p854
S'111/149'
p855
sS'total_runs'
p856
L1L
sS'summary_score'
p857
I74
sS'results'
p858
(dp859
S'unapply'
p860
(dp861
S'score'
p862
I35
sS'raw_score'
p863
I0
sS'display'
p864
S'9/26'
p865
ssS'apply'
p866
(dp867
g862
I85
sg863
I0
sg864
S'35/41'
p868
ssS'change'
p869
(dp870
g862
I100
sg863
I0
sg864
S'17/17'
p871
ssS'query'
p872
(dp873
g862
I77
sg863
I0
sg864
S'50/65'
p874
ssssVSeaMonkey 1.1
p875
(dp876
S'summary_display'
p877
S'117/149'
p878
sS'total_runs'
p879
L9L
sS'summary_score'
p880
I79
sS'results'
p881
(dp882
S'unapply'
p883
(dp884
S'score'
p885
I65
sS'raw_score'
p886
I0
sS'display'
p887
S'17/26'
p888
ssS'apply'
p889
(dp890
g885
I83
sg886
I0
sg887
S'34/41'
p891
ssS'change'
p892
(dp893
g885
I41
sg886
I0
sg887
S'7/17'
p894
ssS'query'
p895
(dp896
g885
I91
sg886
I0
sg887
S'59/65'
p897
ssssVOpera Mini 4.2
p898
(dp899
S'summary_display'
p900
S'26/149'
p901
sS'total_runs'
p902
L18L
sS'summary_score'
p903
I17
sS'results'
p904
(dp905
S'unapply'
p906
(dp907
S'score'
p908
I100
sS'raw_score'
p909
I0
sS'display'
p910
S'26/26'
p911
ssS'apply'
p912
(dp913
g908
I0
sg909
I0
sg910
S'0/41'
p914
ssS'change'
p915
(dp916
g908
I0
sg909
I0
sg910
S'0/17'
p917
ssS'query'
p918
(dp919
g908
I0
sg909
I0
sg910
S'0/65'
p920
ssssVOpera Mini 4.0
p921
(dp922
S'summary_display'
p923
S'0/149'
p924
sS'total_runs'
p925
L3L
sS'summary_score'
p926
I0
sS'results'
p927
(dp928
S'unapply'
p929
(dp930
S'score'
p931
I0
sS'raw_score'
p932
I0
sS'display'
p933
S'0/26'
p934
ssS'apply'
p935
(dp936
g931
I0
sg932
I0
sg933
S'0/41'
p937
ssS'change'
p938
(dp939
g931
I0
sg932
I0
sg933
S'0/17'
p940
ssS'query'
p941
(dp942
g931
I0
sg932
I0
sg933
S'0/65'
p943
ssssVKonqueror 4.3
p944
(dp945
S'summary_display'
p946
S'0/149'
p947
sS'total_runs'
p948
L25L
sS'summary_score'
p949
I0
sS'results'
p950
(dp951
S'unapply'
p952
(dp953
S'score'
p954
I0
sS'raw_score'
p955
I0
sS'display'
p956
S'0/26'
p957
ssS'apply'
p958
(dp959
g954
I0
sg955
I0
sg956
S'0/41'
p960
ssS'change'
p961
(dp962
g954
I0
sg955
I0
sg956
S'0/17'
p963
ssS'query'
p964
(dp965
g954
I0
sg955
I0
sg956
S'0/65'
p966
ssssVKonqueror 4.2
p967
(dp968
S'summary_display'
p969
S'0/149'
p970
sS'total_runs'
p971
L2L
sS'summary_score'
p972
I0
sS'results'
p973
(dp974
S'unapply'
p975
(dp976
S'score'
p977
I0
sS'raw_score'
p978
I0
sS'display'
p979
S'0/26'
p980
ssS'apply'
p981
(dp982
g977
I0
sg978
I0
sg979
S'0/41'
p983
ssS'change'
p984
(dp985
g977
I0
sg978
I0
sg979
S'0/17'
p986
ssS'query'
p987
(dp988
g977
I0
sg978
I0
sg979
S'0/65'
p989
ssssVFirefox (Namoroka) 3.6
p990
(dp991
S'summary_display'
p992
S'117/149'
p993
sS'total_runs'
p994
L47L
sS'summary_score'
p995
I79
sS'results'
p996
(dp997
S'unapply'
p998
(dp999
S'score'
p1000
I65
sS'raw_score'
p1001
I0
sS'display'
p1002
S'17/26'
p1003
ssS'apply'
p1004
(dp1005
g1000
I83
sg1001
I0
sg1002
S'34/41'
p1006
ssS'change'
p1007
(dp1008
g1000
I41
sg1001
I0
sg1002
S'7/17'
p1009
ssS'query'
p1010
(dp1011
g1000
I91
sg1001
I0
sg1002
S'59/65'
p1012
ssssVIE 4.0
p1013
(dp1014
S'summary_display'
p1015
S'64/149'
p1016
sS'total_runs'
p1017
L1L
sS'summary_score'
p1018
I43
sS'results'
p1019
(dp1020
S'unapply'
p1021
(dp1022
S'score'
p1023
I4
sS'raw_score'
p1024
I0
sS'display'
p1025
S'1/26'
p1026
ssS'apply'
p1027
(dp1028
g1023
I71
sg1024
I0
sg1025
S'29/41'
p1029
ssS'change'
p1030
(dp1031
g1023
I0
sg1024
I0
sg1025
S'0/17'
p1032
ssS'query'
p1033
(dp1034
g1023
I52
sg1024
I0
sg1025
S'34/65'
p1035
ssssVKazehakase 0.5
p1036
(dp1037
S'summary_display'
p1038
S'117/149'
p1039
sS'total_runs'
p1040
L1L
sS'summary_score'
p1041
I79
sS'results'
p1042
(dp1043
S'unapply'
p1044
(dp1045
S'score'
p1046
I65
sS'raw_score'
p1047
I0
sS'display'
p1048
S'17/26'
p1049
ssS'apply'
p1050
(dp1051
g1046
I83
sg1047
I0
sg1048
S'34/41'
p1052
ssS'change'
p1053
(dp1054
g1046
I41
sg1047
I0
sg1048
S'7/17'
p1055
ssS'query'
p1056
(dp1057
g1046
I91
sg1047
I0
sg1048
S'59/65'
p1058
ssssVLunascape 6.0
p1059
(dp1060
S'summary_display'
p1061
S'117/149'
p1062
sS'total_runs'
p1063
L11L
sS'summary_score'
p1064
I79
sS'results'
p1065
(dp1066
S'unapply'
p1067
(dp1068
S'score'
p1069
I65
sS'raw_score'
p1070
I0
sS'display'
p1071
S'17/26'
p1072
ssS'apply'
p1073
(dp1074
g1069
I83
sg1070
I0
sg1071
S'34/41'
p1075
ssS'change'
p1076
(dp1077
g1069
I41
sg1070
I0
sg1071
S'7/17'
p1078
ssS'query'
p1079
(dp1080
g1069
I91
sg1070
I0
sg1071
S'59/65'
p1081
ssssVOpera 10.01
p1082
(dp1083
S'summary_display'
p1084
S'89/149'
p1085
sS'total_runs'
p1086
L112L
sS'summary_score'
p1087
I60
sS'results'
p1088
(dp1089
S'unapply'
p1090
(dp1091
S'score'
p1092
I50
sS'raw_score'
p1093
I0
sS'display'
p1094
S'13/26'
p1095
ssS'apply'
p1096
(dp1097
g1092
I63
sg1093
I0
sg1094
S'26/41'
p1098
ssS'change'
p1099
(dp1100
g1092
I41
sg1093
I0
sg1094
S'7/17'
p1101
ssS'query'
p1102
(dp1103
g1092
I66
sg1093
I0
sg1094
S'43/65'
p1104
ssssVOpera 10.00
p1105
(dp1106
S'summary_display'
p1107
S'89/149'
p1108
sS'total_runs'
p1109
L565L
sS'summary_score'
p1110
I60
sS'results'
p1111
(dp1112
S'unapply'
p1113
(dp1114
S'score'
p1115
I50
sS'raw_score'
p1116
I0
sS'display'
p1117
S'13/26'
p1118
ssS'apply'
p1119
(dp1120
g1115
I63
sg1116
I0
sg1117
S'26/41'
p1121
ssS'change'
p1122
(dp1123
g1115
I41
sg1116
I0
sg1117
S'7/17'
p1124
ssS'query'
p1125
(dp1126
g1115
I66
sg1116
I0
sg1117
S'43/65'
p1127
ssssVSwiftfox 3.5
p1128
(dp1129
S'summary_display'
p1130
S'117/149'
p1131
sS'total_runs'
p1132
L9L
sS'summary_score'
p1133
I79
sS'results'
p1134
(dp1135
S'unapply'
p1136
(dp1137
S'score'
p1138
I65
sS'raw_score'
p1139
I0
sS'display'
p1140
S'17/26'
p1141
ssS'apply'
p1142
(dp1143
g1138
I83
sg1139
I0
sg1140
S'34/41'
p1144
ssS'change'
p1145
(dp1146
g1138
I41
sg1139
I0
sg1140
S'7/17'
p1147
ssS'query'
p1148
(dp1149
g1138
I91
sg1139
I0
sg1140
S'59/65'
p1150
ssssVChrome 5.0
p1151
(dp1152
S'summary_display'
p1153
S'129/149'
p1154
sS'total_runs'
p1155
L2L
sS'summary_score'
p1156
I87
sS'results'
p1157
(dp1158
S'unapply'
p1159
(dp1160
S'score'
p1161
I88
sS'raw_score'
p1162
I0
sS'display'
p1163
S'23/26'
p1164
ssS'apply'
p1165
(dp1166
g1161
I95
sg1162
I0
sg1163
S'39/41'
p1167
ssS'change'
p1168
(dp1169
g1161
I100
sg1162
I0
sg1163
S'17/17'
p1170
ssS'query'
p1171
(dp1172
g1161
I77
sg1162
I0
sg1163
S'50/65'
p1173
ssssVFirefox 3.1
p1174
(dp1175
S'summary_display'
p1176
S'117/149'
p1177
sS'total_runs'
p1178
L1L
sS'summary_score'
p1179
I79
sS'results'
p1180
(dp1181
S'unapply'
p1182
(dp1183
S'score'
p1184
I65
sS'raw_score'
p1185
I0
sS'display'
p1186
S'17/26'
p1187
ssS'apply'
p1188
(dp1189
g1184
I83
sg1185
I0
sg1186
S'34/41'
p1190
ssS'change'
p1191
(dp1192
g1184
I41
sg1185
I0
sg1186
S'7/17'
p1193
ssS'query'
p1194
(dp1195
g1184
I91
sg1185
I0
sg1186
S'59/65'
p1196
ssssVFirefox 3.0
p1197
(dp1198
S'summary_display'
p1199
S'117/149'
p1200
sS'total_runs'
p1201
L582L
sS'summary_score'
p1202
I79
sS'results'
p1203
(dp1204
S'unapply'
p1205
(dp1206
S'score'
p1207
I65
sS'raw_score'
p1208
I0
sS'display'
p1209
S'17/26'
p1210
ssS'apply'
p1211
(dp1212
g1207
I83
sg1208
I0
sg1209
S'34/41'
p1213
ssS'change'
p1214
(dp1215
g1207
I41
sg1208
I0
sg1209
S'7/17'
p1216
ssS'query'
p1217
(dp1218
g1207
I91
sg1208
I0
sg1209
S'59/65'
p1219
ssssVAndroid 2.0
p1220
(dp1221
S'summary_display'
p1222
S'129/149'
p1223
sS'total_runs'
p1224
L11L
sS'summary_score'
p1225
I87
sS'results'
p1226
(dp1227
S'unapply'
p1228
(dp1229
S'score'
p1230
I88
sS'raw_score'
p1231
I0
sS'display'
p1232
S'23/26'
p1233
ssS'apply'
p1234
(dp1235
g1230
I95
sg1231
I0
sg1232
S'39/41'
p1236
ssS'change'
p1237
(dp1238
g1230
I100
sg1231
I0
sg1232
S'17/17'
p1239
ssS'query'
p1240
(dp1241
g1230
I77
sg1231
I0
sg1232
S'50/65'
p1242
ssssVAndroid 2.1
p1243
(dp1244
S'summary_display'
p1245
S'126/146'
p1246
sS'total_runs'
p1247
L1L
sS'summary_score'
p1248
I86
sS'results'
p1249
(dp1250
S'unapply'
p1251
(dp1252
S'score'
p1253
I88
sS'raw_score'
p1254
I0
sS'display'
p1255
S'22/25'
p1256
ssS'apply'
p1257
(dp1258
g1253
I95
sg1254
I0
sg1255
S'37/39'
p1259
ssS'change'
p1260
(dp1261
g1253
I100
sg1254
I0
sg1255
S'17/17'
p1262
ssS'query'
p1263
(dp1264
g1253
I77
sg1254
I0
sg1255
S'50/65'
p1265
ssssVFirefox 3.5
p1266
(dp1267
S'summary_display'
p1268
S'117/149'
p1269
sS'total_runs'
p1270
L3799L
sS'summary_score'
p1271
I79
sS'results'
p1272
(dp1273
S'unapply'
p1274
(dp1275
S'score'
p1276
I65
sS'raw_score'
p1277
I0
sS'display'
p1278
S'17/26'
p1279
ssS'apply'
p1280
(dp1281
g1276
I83
sg1277
I0
sg1278
S'34/41'
p1282
ssS'change'
p1283
(dp1284
g1276
I41
sg1277
I0
sg1278
S'7/17'
p1285
ssS'query'
p1286
(dp1287
g1276
I91
sg1277
I0
sg1278
S'59/65'
p1288
ssssVFirefox 3.7
p1289
(dp1290
S'summary_display'
p1291
S'117/149'
p1292
sS'total_runs'
p1293
L3L
sS'summary_score'
p1294
I79
sS'results'
p1295
(dp1296
S'unapply'
p1297
(dp1298
S'score'
p1299
I65
sS'raw_score'
p1300
I0
sS'display'
p1301
S'17/26'
p1302
ssS'apply'
p1303
(dp1304
g1299
I83
sg1300
I0
sg1301
S'34/41'
p1305
ssS'change'
p1306
(dp1307
g1299
I41
sg1300
I0
sg1301
S'7/17'
p1308
ssS'query'
p1309
(dp1310
g1299
I91
sg1300
I0
sg1301
S'59/65'
p1311
ssssVFirefox 3.6
p1312
(dp1313
S'summary_display'
p1314
S'117/149'
p1315
sS'total_runs'
p1316
L225L
sS'summary_score'
p1317
I79
sS'results'
p1318
(dp1319
S'unapply'
p1320
(dp1321
S'score'
p1322
I65
sS'raw_score'
p1323
I0
sS'display'
p1324
S'17/26'
p1325
ssS'apply'
p1326
(dp1327
g1322
I83
sg1323
I0
sg1324
S'34/41'
p1328
ssS'change'
p1329
(dp1330
g1322
I41
sg1323
I0
sg1324
S'7/17'
p1331
ssS'query'
p1332
(dp1333
g1322
I91
sg1323
I0
sg1324
S'59/65'
p1334
ssssVFirefox 2.0
p1335
(dp1336
S'summary_display'
p1337
S'117/149'
p1338
sS'total_runs'
p1339
L50L
sS'summary_score'
p1340
I79
sS'results'
p1341
(dp1342
S'unapply'
p1343
(dp1344
S'score'
p1345
I65
sS'raw_score'
p1346
I0
sS'display'
p1347
S'17/26'
p1348
ssS'apply'
p1349
(dp1350
g1345
I83
sg1346
I0
sg1347
S'34/41'
p1351
ssS'change'
p1352
(dp1353
g1345
I41
sg1346
I0
sg1347
S'7/17'
p1354
ssS'query'
p1355
(dp1356
g1345
I91
sg1346
I0
sg1347
S'59/65'
p1357
ssssVAndroid 1.5
p1358
(dp1359
S'summary_display'
p1360
S'118/149'
p1361
sS'total_runs'
p1362
L25L
sS'summary_score'
p1363
I79
sS'results'
p1364
(dp1365
S'unapply'
p1366
(dp1367
S'score'
p1368
I65
sS'raw_score'
p1369
I0
sS'display'
p1370
S'17/26'
p1371
ssS'apply'
p1372
(dp1373
g1368
I83
sg1369
I0
sg1370
S'34/41'
p1374
ssS'change'
p1375
(dp1376
g1368
I100
sg1369
I0
sg1370
S'17/17'
p1377
ssS'query'
p1378
(dp1379
g1368
I77
sg1369
I0
sg1370
S'50/65'
p1380
ssssVChrome 4.0
p1381
(dp1382
S'summary_display'
p1383
S'129/149'
p1384
sS'total_runs'
p1385
L1045L
sS'summary_score'
p1386
I87
sS'results'
p1387
(dp1388
S'unapply'
p1389
(dp1390
S'score'
p1391
I88
sS'raw_score'
p1392
I0
sS'display'
p1393
S'23/26'
p1394
ssS'apply'
p1395
(dp1396
g1391
I95
sg1392
I0
sg1393
S'39/41'
p1397
ssS'change'
p1398
(dp1399
g1391
I100
sg1392
I0
sg1393
S'17/17'
p1400
ssS'query'
p1401
(dp1402
g1391
I77
sg1392
I0
sg1393
S'50/65'
p1403
ssssVAndroid 1.6
p1404
(dp1405
S'summary_display'
p1406
S'118/149'
p1407
sS'total_runs'
p1408
L12L
sS'summary_score'
p1409
I79
sS'results'
p1410
(dp1411
S'unapply'
p1412
(dp1413
S'score'
p1414
I65
sS'raw_score'
p1415
I0
sS'display'
p1416
S'17/26'
p1417
ssS'apply'
p1418
(dp1419
g1414
I83
sg1415
I0
sg1416
S'34/41'
p1420
ssS'change'
p1421
(dp1422
g1414
I100
sg1415
I0
sg1416
S'17/17'
p1423
ssS'query'
p1424
(dp1425
g1414
I77
sg1415
I0
sg1416
S'50/65'
p1426
ssssVAndroid 1.1
p1427
(dp1428
S'summary_display'
p1429
S'103/149'
p1430
sS'total_runs'
p1431
L2L
sS'summary_score'
p1432
I69
sS'results'
p1433
(dp1434
S'unapply'
p1435
(dp1436
S'score'
p1437
I35
sS'raw_score'
p1438
I0
sS'display'
p1439
S'9/26'
p1440
ssS'apply'
p1441
(dp1442
g1437
I68
sg1438
I0
sg1439
S'28/41'
p1443
ssS'change'
p1444
(dp1445
g1437
I94
sg1438
I0
sg1439
S'16/17'
p1446
ssS'query'
p1447
(dp1448
g1437
I77
sg1438
I0
sg1439
S'50/65'
p1449
ssssVOpera 9.60
p1450
(dp1451
S'summary_display'
p1452
S'88/149'
p1453
sS'total_runs'
p1454
L1L
sS'summary_score'
p1455
I59
sS'results'
p1456
(dp1457
S'unapply'
p1458
(dp1459
S'score'
p1460
I50
sS'raw_score'
p1461
I0
sS'display'
p1462
S'13/26'
p1463
ssS'apply'
p1464
(dp1465
g1460
I63
sg1461
I0
sg1462
S'26/41'
p1466
ssS'change'
p1467
(dp1468
g1460
I41
sg1461
I0
sg1462
S'7/17'
p1469
ssS'query'
p1470
(dp1471
g1460
I65
sg1461
I0
sg1462
S'42/65'
p1472
ssssVOpera 9.52
p1473
(dp1474
S'summary_display'
p1475
S'88/149'
p1476
sS'total_runs'
p1477
L1L
sS'summary_score'
p1478
I59
sS'results'
p1479
(dp1480
S'unapply'
p1481
(dp1482
S'score'
p1483
I50
sS'raw_score'
p1484
I0
sS'display'
p1485
S'13/26'
p1486
ssS'apply'
p1487
(dp1488
g1483
I63
sg1484
I0
sg1485
S'26/41'
p1489
ssS'change'
p1490
(dp1491
g1483
I41
sg1484
I0
sg1485
S'7/17'
p1492
ssS'query'
p1493
(dp1494
g1483
I65
sg1484
I0
sg1485
S'42/65'
p1495
ssssVOpera 9.51
p1496
(dp1497
S'summary_display'
p1498
S'88/149'
p1499
sS'total_runs'
p1500
L3L
sS'summary_score'
p1501
I59
sS'results'
p1502
(dp1503
S'unapply'
p1504
(dp1505
S'score'
p1506
I50
sS'raw_score'
p1507
I0
sS'display'
p1508
S'13/26'
p1509
ssS'apply'
p1510
(dp1511
g1506
I63
sg1507
I0
sg1508
S'26/41'
p1512
ssS'change'
p1513
(dp1514
g1506
I41
sg1507
I0
sg1508
S'7/17'
p1515
ssS'query'
p1516
(dp1517
g1506
I65
sg1507
I0
sg1508
S'42/65'
p1518
ssssVOpera 9.50
p1519
(dp1520
S'summary_display'
p1521
S'0/149'
p1522
sS'total_runs'
p1523
L1L
sS'summary_score'
p1524
I0
sS'results'
p1525
(dp1526
S'unapply'
p1527
(dp1528
S'score'
p1529
I0
sS'raw_score'
p1530
I0
sS'display'
p1531
S'0/26'
p1532
ssS'apply'
p1533
(dp1534
g1529
I0
sg1530
I0
sg1531
S'0/41'
p1535
ssS'change'
p1536
(dp1537
g1529
I0
sg1530
I0
sg1531
S'0/17'
p1538
ssS'query'
p1539
(dp1540
g1529
I0
sg1530
I0
sg1531
S'0/65'
p1541
ssssVOpera 10.10
p1542
(dp1543
S'summary_display'
p1544
S'89/149'
p1545
sS'total_runs'
p1546
L406L
sS'summary_score'
p1547
I60
sS'results'
p1548
(dp1549
S'unapply'
p1550
(dp1551
S'score'
p1552
I50
sS'raw_score'
p1553
I0
sS'display'
p1554
S'13/26'
p1555
ssS'apply'
p1556
(dp1557
g1552
I63
sg1553
I0
sg1554
S'26/41'
p1558
ssS'change'
p1559
(dp1560
g1552
I41
sg1553
I0
sg1554
S'7/17'
p1561
ssS'query'
p1562
(dp1563
g1552
I66
sg1553
I0
sg1554
S'43/65'
p1564
ssssVSleipnir 2.8
p1565
(dp1566
S'summary_display'
p1567
S'99/149'
p1568
sS'total_runs'
p1569
L10L
sS'summary_score'
p1570
I66
sS'results'
p1571
(dp1572
S'unapply'
p1573
(dp1574
S'score'
p1575
I54
sS'raw_score'
p1576
I0
sS'display'
p1577
S'14/26'
p1578
ssS'apply'
p1579
(dp1580
g1575
I59
sg1576
I0
sg1577
S'24/41'
p1581
ssS'change'
p1582
(dp1583
g1575
I29
sg1576
I0
sg1577
S'5/17'
p1584
ssS'query'
p1585
(dp1586
g1575
I86
sg1576
I0
sg1577
S'56/65'
p1587
ssssVIE 8.0
p1588
(dp1589
S'summary_display'
p1590
S'99/149'
p1591
sS'total_runs'
p1592
L474L
sS'summary_score'
p1593
I66
sS'results'
p1594
(dp1595
S'unapply'
p1596
(dp1597
S'score'
p1598
I54
sS'raw_score'
p1599
I0
sS'display'
p1600
S'14/26'
p1601
ssS'apply'
p1602
(dp1603
g1598
I59
sg1599
I0
sg1600
S'24/41'
p1604
ssS'change'
p1605
(dp1606
g1598
I29
sg1599
I0
sg1600
S'5/17'
p1607
ssS'query'
p1608
(dp1609
g1598
I86
sg1599
I0
sg1600
S'56/65'
p1610
ssssVSleipnir 2.9
p1611
(dp1612
S'summary_display'
p1613
S'99/149'
p1614
sS'total_runs'
p1615
L5L
sS'summary_score'
p1616
I66
sS'results'
p1617
(dp1618
S'unapply'
p1619
(dp1620
S'score'
p1621
I54
sS'raw_score'
p1622
I0
sS'display'
p1623
S'14/26'
p1624
ssS'apply'
p1625
(dp1626
g1621
I59
sg1622
I0
sg1623
S'24/41'
p1627
ssS'change'
p1628
(dp1629
g1621
I29
sg1622
I0
sg1623
S'5/17'
p1630
ssS'query'
p1631
(dp1632
g1621
I86
sg1622
I0
sg1623
S'56/65'
p1633
ssssVNetNewsWire 3.1
p1634
(dp1635
S'summary_display'
p1636
S'125/149'
p1637
sS'total_runs'
p1638
L1L
sS'summary_score'
p1639
I84
sS'results'
p1640
(dp1641
S'unapply'
p1642
(dp1643
S'score'
p1644
I73
sS'raw_score'
p1645
I0
sS'display'
p1646
S'19/26'
p1647
ssS'apply'
p1648
(dp1649
g1644
I95
sg1645
I0
sg1646
S'39/41'
p1650
ssS'change'
p1651
(dp1652
g1644
I100
sg1645
I0
sg1646
S'17/17'
p1653
ssS'query'
p1654
(dp1655
g1644
I77
sg1645
I0
sg1646
S'50/65'
p1656
ssssVNetscape 7.1
p1657
(dp1658
S'summary_display'
p1659
S'117/149'
p1660
sS'total_runs'
p1661
L1L
sS'summary_score'
p1662
I79
sS'results'
p1663
(dp1664
S'unapply'
p1665
(dp1666
S'score'
p1667
I65
sS'raw_score'
p1668
I0
sS'display'
p1669
S'17/26'
p1670
ssS'apply'
p1671
(dp1672
g1667
I83
sg1668
I0
sg1669
S'34/41'
p1673
ssS'change'
p1674
(dp1675
g1667
I41
sg1668
I0
sg1669
S'7/17'
p1676
ssS'query'
p1677
(dp1678
g1667
I91
sg1668
I0
sg1669
S'59/65'
p1679
ssssVNetNewsWire 3.2
p1680
(dp1681
S'summary_display'
p1682
S'125/149'
p1683
sS'total_runs'
p1684
L9L
sS'summary_score'
p1685
I84
sS'results'
p1686
(dp1687
S'unapply'
p1688
(dp1689
S'score'
p1690
I73
sS'raw_score'
p1691
I0
sS'display'
p1692
S'19/26'
p1693
ssS'apply'
p1694
(dp1695
g1690
I95
sg1691
I0
sg1692
S'39/41'
p1696
ssS'change'
p1697
(dp1698
g1690
I100
sg1691
I0
sg1692
S'17/17'
p1699
ssS'query'
p1700
(dp1701
g1690
I77
sg1691
I0
sg1692
S'50/65'
p1702
ssssVSafari 4.0
p1703
(dp1704
S'summary_display'
p1705
S'125/149'
p1706
sS'total_runs'
p1707
L984L
sS'summary_score'
p1708
I84
sS'results'
p1709
(dp1710
S'unapply'
p1711
(dp1712
S'score'
p1713
I73
sS'raw_score'
p1714
I0
sS'display'
p1715
S'19/26'
p1716
ssS'apply'
p1717
(dp1718
g1713
I95
sg1714
I0
sg1715
S'39/41'
p1719
ssS'change'
p1720
(dp1721
g1713
I100
sg1714
I0
sg1715
S'17/17'
p1722
ssS'query'
p1723
(dp1724
g1713
I77
sg1714
I0
sg1715
S'50/65'
p1725
ssssVKonqueror 3.5
p1726
(dp1727
S'summary_display'
p1728
S'0/149'
p1729
sS'total_runs'
p1730
L10L
sS'summary_score'
p1731
I0
sS'results'
p1732
(dp1733
S'unapply'
p1734
(dp1735
S'score'
p1736
I0
sS'raw_score'
p1737
I0
sS'display'
p1738
S'0/26'
p1739
ssS'apply'
p1740
(dp1741
g1736
I0
sg1737
I0
sg1738
S'0/41'
p1742
ssS'change'
p1743
(dp1744
g1736
I0
sg1737
I0
sg1738
S'0/17'
p1745
ssS'query'
p1746
(dp1747
g1736
I0
sg1737
I0
sg1738
S'0/65'
p1748
ssssVFirefox (Minefield) 3.7
p1749
(dp1750
S'summary_display'
p1751
S'117/149'
p1752
sS'total_runs'
p1753
L174L
sS'summary_score'
p1754
I79
sS'results'
p1755
(dp1756
S'unapply'
p1757
(dp1758
S'score'
p1759
I65
sS'raw_score'
p1760
I0
sS'display'
p1761
S'17/26'
p1762
ssS'apply'
p1763
(dp1764
g1759
I83
sg1760
I0
sg1761
S'34/41'
p1765
ssS'change'
p1766
(dp1767
g1759
I41
sg1760
I0
sg1761
S'7/17'
p1768
ssS'query'
p1769
(dp1770
g1759
I91
sg1760
I0
sg1761
S'59/65'
p1771
ssssVFirefox (Minefield) 3.6
p1772
(dp1773
S'summary_display'
p1774
S'117/149'
p1775
sS'total_runs'
p1776
L8L
sS'summary_score'
p1777
I79
sS'results'
p1778
(dp1779
S'unapply'
p1780
(dp1781
S'score'
p1782
I65
sS'raw_score'
p1783
I0
sS'display'
p1784
S'17/26'
p1785
ssS'apply'
p1786
(dp1787
g1782
I83
sg1783
I0
sg1784
S'34/41'
p1788
ssS'change'
p1789
(dp1790
g1782
I41
sg1783
I0
sg1784
S'7/17'
p1791
ssS'query'
p1792
(dp1793
g1782
I91
sg1783
I0
sg1784
S'59/65'
p1794
ssssVFlock 1.1
p1795
(dp1796
S'summary_display'
p1797
S'117/149'
p1798
sS'total_runs'
p1799
L1L
sS'summary_score'
p1800
I79
sS'results'
p1801
(dp1802
S'unapply'
p1803
(dp1804
S'score'
p1805
I65
sS'raw_score'
p1806
I0
sS'display'
p1807
S'17/26'
p1808
ssS'apply'
p1809
(dp1810
g1805
I83
sg1806
I0
sg1807
S'34/41'
p1811
ssS'change'
p1812
(dp1813
g1805
I41
sg1806
I0
sg1807
S'7/17'
p1814
ssS'query'
p1815
(dp1816
g1805
I91
sg1806
I0
sg1807
S'59/65'
p1817
ssssVGranParadiso 3.0
p1818
(dp1819
S'summary_display'
p1820
S'117/149'
p1821
sS'total_runs'
p1822
L1L
sS'summary_score'
p1823
I79
sS'results'
p1824
(dp1825
S'unapply'
p1826
(dp1827
S'score'
p1828
I65
sS'raw_score'
p1829
I0
sS'display'
p1830
S'17/26'
p1831
ssS'apply'
p1832
(dp1833
g1828
I83
sg1829
I0
sg1830
S'34/41'
p1834
ssS'change'
p1835
(dp1836
g1828
I41
sg1829
I0
sg1830
S'7/17'
p1837
ssS'query'
p1838
(dp1839
g1828
I91
sg1829
I0
sg1830
S'59/65'
p1840
ssssVIron 3.0
p1841
(dp1842
S'summary_display'
p1843
S'129/149'
p1844
sS'total_runs'
p1845
L55L
sS'summary_score'
p1846
I87
sS'results'
p1847
(dp1848
S'unapply'
p1849
(dp1850
S'score'
p1851
I88
sS'raw_score'
p1852
I0
sS'display'
p1853
S'23/26'
p1854
ssS'apply'
p1855
(dp1856
g1851
I95
sg1852
I0
sg1853
S'39/41'
p1857
ssS'change'
p1858
(dp1859
g1851
I100
sg1852
I0
sg1853
S'17/17'
p1860
ssS'query'
p1861
(dp1862
g1851
I77
sg1852
I0
sg1853
S'50/65'
p1863
ssssVLunascape 5.1
p1864
(dp1865
S'summary_display'
p1866
S'117/149'
p1867
sS'total_runs'
p1868
L10L
sS'summary_score'
p1869
I79
sS'results'
p1870
(dp1871
S'unapply'
p1872
(dp1873
S'score'
p1874
I65
sS'raw_score'
p1875
I0
sS'display'
p1876
S'17/26'
p1877
ssS'apply'
p1878
(dp1879
g1874
I83
sg1875
I0
sg1876
S'34/41'
p1880
ssS'change'
p1881
(dp1882
g1874
I41
sg1875
I0
sg1876
S'7/17'
p1883
ssS'query'
p1884
(dp1885
g1874
I91
sg1875
I0
sg1876
S'59/65'
p1886
ssssVOpera 8.54
p1887
(dp1888
S'summary_display'
p1889
S'0/149'
p1890
sS'total_runs'
p1891
L1L
sS'summary_score'
p1892
I0
sS'results'
p1893
(dp1894
S'unapply'
p1895
(dp1896
S'score'
p1897
I0
sS'raw_score'
p1898
I0
sS'display'
p1899
S'0/26'
p1900
ssS'apply'
p1901
(dp1902
g1897
I0
sg1898
I0
sg1899
S'0/41'
p1903
ssS'change'
p1904
(dp1905
g1897
I0
sg1898
I0
sg1899
S'0/17'
p1906
ssS'query'
p1907
(dp1908
g1897
I0
sg1898
I0
sg1899
S'0/65'
p1909
ssssVChrome Frame (IE 8) 4.0
p1910
(dp1911
S'summary_display'
p1912
S'129/149'
p1913
sS'total_runs'
p1914
L12L
sS'summary_score'
p1915
I87
sS'results'
p1916
(dp1917
S'unapply'
p1918
(dp1919
S'score'
p1920
I88
sS'raw_score'
p1921
I0
sS'display'
p1922
S'23/26'
p1923
ssS'apply'
p1924
(dp1925
g1920
I95
sg1921
I0
sg1922
S'39/41'
p1926
ssS'change'
p1927
(dp1928
g1920
I100
sg1921
I0
sg1922
S'17/17'
p1929
ssS'query'
p1930
(dp1931
g1920
I77
sg1921
I0
sg1922
S'50/65'
p1932
ssssVIE 7.0
p1933
(dp1934
S'summary_display'
p1935
S'99/149'
p1936
sS'total_runs'
p1937
L207L
sS'summary_score'
p1938
I66
sS'results'
p1939
(dp1940
S'unapply'
p1941
(dp1942
S'score'
p1943
I54
sS'raw_score'
p1944
I0
sS'display'
p1945
S'14/26'
p1946
ssS'apply'
p1947
(dp1948
g1943
I59
sg1944
I0
sg1945
S'24/41'
p1949
ssS'change'
p1950
(dp1951
g1943
I29
sg1944
I0
sg1945
S'5/17'
p1952
ssS'query'
p1953
(dp1954
g1943
I86
sg1944
I0
sg1945
S'56/65'
p1955
ssssVOpera 10.20
p1956
(dp1957
S'summary_display'
p1958
S'89/149'
p1959
sS'total_runs'
p1960
L37L
sS'summary_score'
p1961
I60
sS'results'
p1962
(dp1963
S'unapply'
p1964
(dp1965
S'score'
p1966
I50
sS'raw_score'
p1967
I0
sS'display'
p1968
S'13/26'
p1969
ssS'apply'
p1970
(dp1971
g1966
I63
sg1967
I0
sg1968
S'26/41'
p1972
ssS'change'
p1973
(dp1974
g1966
I41
sg1967
I0
sg1968
S'7/17'
p1975
ssS'query'
p1976
(dp1977
g1966
I66
sg1967
I0
sg1968
S'43/65'
p1978
ssssVPalm Pre 1.0
p1979
(dp1980
S'summary_display'
p1981
S'129/149'
p1982
sS'total_runs'
p1983
L7L
sS'summary_score'
p1984
I87
sS'results'
p1985
(dp1986
S'unapply'
p1987
(dp1988
S'score'
p1989
I88
sS'raw_score'
p1990
I0
sS'display'
p1991
S'23/26'
p1992
ssS'apply'
p1993
(dp1994
g1989
I95
sg1990
I0
sg1991
S'39/41'
p1995
ssS'change'
p1996
(dp1997
g1989
I100
sg1990
I0
sg1991
S'17/17'
p1998
ssS'query'
p1999
(dp2000
g1989
I77
sg1990
I0
sg1991
S'50/65'
p2001
ssssVStainless 0.7
p2002
(dp2003
S'summary_display'
p2004
S'125/149'
p2005
sS'total_runs'
p2006
L4L
sS'summary_score'
p2007
I84
sS'results'
p2008
(dp2009
S'unapply'
p2010
(dp2011
S'score'
p2012
I73
sS'raw_score'
p2013
I0
sS'display'
p2014
S'19/26'
p2015
ssS'apply'
p2016
(dp2017
g2012
I95
sg2013
I0
sg2014
S'39/41'
p2018
ssS'change'
p2019
(dp2020
g2012
I100
sg2013
I0
sg2014
S'17/17'
p2021
ssS'query'
p2022
(dp2023
g2012
I77
sg2013
I0
sg2014
S'50/65'
p2024
ssssVStainless 0.6
p2025
(dp2026
S'summary_display'
p2027
S'125/149'
p2028
sS'total_runs'
p2029
L1L
sS'summary_score'
p2030
I84
sS'results'
p2031
(dp2032
S'unapply'
p2033
(dp2034
S'score'
p2035
I73
sS'raw_score'
p2036
I0
sS'display'
p2037
S'19/26'
p2038
ssS'apply'
p2039
(dp2040
g2035
I95
sg2036
I0
sg2037
S'39/41'
p2041
ssS'change'
p2042
(dp2043
g2035
I100
sg2036
I0
sg2037
S'17/17'
p2044
ssS'query'
p2045
(dp2046
g2035
I77
sg2036
I0
sg2037
S'50/65'
p2047
ssssVChrome Frame (IE 7) 4.0
p2048
(dp2049
S'summary_display'
p2050
S'129/149'
p2051
sS'total_runs'
p2052
L4L
sS'summary_score'
p2053
I87
sS'results'
p2054
(dp2055
S'unapply'
p2056
(dp2057
S'score'
p2058
I88
sS'raw_score'
p2059
I0
sS'display'
p2060
S'23/26'
p2061
ssS'apply'
p2062
(dp2063
g2058
I95
sg2059
I0
sg2060
S'39/41'
p2064
ssS'change'
p2065
(dp2066
g2058
I100
sg2059
I0
sg2060
S'17/17'
p2067
ssS'query'
p2068
(dp2069
g2058
I77
sg2059
I0
sg2060
S'50/65'
p2070
ssssVK-Meleon 1.5
p2071
(dp2072
S'summary_display'
p2073
S'117/149'
p2074
sS'total_runs'
p2075
L9L
sS'summary_score'
p2076
I79
sS'results'
p2077
(dp2078
S'unapply'
p2079
(dp2080
S'score'
p2081
I65
sS'raw_score'
p2082
I0
sS'display'
p2083
S'17/26'
p2084
ssS'apply'
p2085
(dp2086
g2081
I83
sg2082
I0
sg2083
S'34/41'
p2087
ssS'change'
p2088
(dp2089
g2081
I41
sg2082
I0
sg2083
S'7/17'
p2090
ssS'query'
p2091
(dp2092
g2081
I91
sg2082
I0
sg2083
S'59/65'
p2093
ssssVShiira 0
p2094
(dp2095
S'summary_display'
p2096
S'125/149'
p2097
sS'total_runs'
p2098
L1L
sS'summary_score'
p2099
I84
sS'results'
p2100
(dp2101
S'unapply'
p2102
(dp2103
S'score'
p2104
I73
sS'raw_score'
p2105
I0
sS'display'
p2106
S'19/26'
p2107
ssS'apply'
p2108
(dp2109
g2104
I95
sg2105
I0
sg2106
S'39/41'
p2110
ssS'change'
p2111
(dp2112
g2104
I100
sg2105
I0
sg2106
S'17/17'
p2113
ssS'query'
p2114
(dp2115
g2104
I77
sg2105
I0
sg2106
S'50/65'
p2116
ssssVGaleon 2.0
p2117
(dp2118
S'summary_display'
p2119
S'117/149'
p2120
sS'total_runs'
p2121
L2L
sS'summary_score'
p2122
I79
sS'results'
p2123
(dp2124
S'unapply'
p2125
(dp2126
S'score'
p2127
I65
sS'raw_score'
p2128
I0
sS'display'
p2129
S'17/26'
p2130
ssS'apply'
p2131
(dp2132
g2127
I83
sg2128
I0
sg2129
S'34/41'
p2133
ssS'change'
p2134
(dp2135
g2127
I41
sg2128
I0
sg2129
S'7/17'
p2136
ssS'query'
p2137
(dp2138
g2127
I91
sg2128
I0
sg2129
S'59/65'
p2139
ssssVQtWeb 3.1
p2140
(dp2141
S'summary_display'
p2142
S'111/149'
p2143
sS'total_runs'
p2144
L1L
sS'summary_score'
p2145
I74
sS'results'
p2146
(dp2147
S'unapply'
p2148
(dp2149
S'score'
p2150
I35
sS'raw_score'
p2151
I0
sS'display'
p2152
S'9/26'
p2153
ssS'apply'
p2154
(dp2155
g2150
I85
sg2151
I0
sg2152
S'35/41'
p2156
ssS'change'
p2157
(dp2158
g2150
I100
sg2151
I0
sg2152
S'17/17'
p2159
ssS'query'
p2160
(dp2161
g2150
I77
sg2151
I0
sg2152
S'50/65'
p2162
ssssVMicroB 0.3
p2163
(dp2164
S'summary_display'
p2165
S'118/149'
p2166
sS'total_runs'
p2167
L1L
sS'summary_score'
p2168
I79
sS'results'
p2169
(dp2170
S'unapply'
p2171
(dp2172
S'score'
p2173
I65
sS'raw_score'
p2174
I0
sS'display'
p2175
S'17/26'
p2176
ssS'apply'
p2177
(dp2178
g2173
I83
sg2174
I0
sg2175
S'34/41'
p2179
ssS'change'
p2180
(dp2181
g2173
I41
sg2174
I0
sg2175
S'7/17'
p2182
ssS'query'
p2183
(dp2184
g2173
I92
sg2174
I0
sg2175
S'60/65'
p2185
ssssVIE 11.0
p2186
(dp2187
S'summary_display'
p2188
S'101/149'
p2189
sS'total_runs'
p2190
L1L
sS'summary_score'
p2191
I68
sS'results'
p2192
(dp2193
S'unapply'
p2194
(dp2195
S'score'
p2196
I54
sS'raw_score'
p2197
I0
sS'display'
p2198
S'14/26'
p2199
ssS'apply'
p2200
(dp2201
g2196
I59
sg2197
I0
sg2198
S'24/41'
p2202
ssS'change'
p2203
(dp2204
g2196
I29
sg2197
I0
sg2198
S'5/17'
p2205
ssS'query'
p2206
(dp2207
g2196
I89
sg2197
I0
sg2198
S'58/65'
p2208
ssssViCab 4.7
p2209
(dp2210
S'summary_display'
p2211
S'125/149'
p2212
sS'total_runs'
p2213
L1L
sS'summary_score'
p2214
I84
sS'results'
p2215
(dp2216
S'unapply'
p2217
(dp2218
S'score'
p2219
I73
sS'raw_score'
p2220
I0
sS'display'
p2221
S'19/26'
p2222
ssS'apply'
p2223
(dp2224
g2219
I95
sg2220
I0
sg2221
S'39/41'
p2225
ssS'change'
p2226
(dp2227
g2219
I100
sg2220
I0
sg2221
S'17/17'
p2228
ssS'query'
p2229
(dp2230
g2219
I77
sg2220
I0
sg2221
S'50/65'
p2231
ssssVVienna 2.3
p2232
(dp2233
S'summary_display'
p2234
S'123/149'
p2235
sS'total_runs'
p2236
L3L
sS'summary_score'
p2237
I83
sS'results'
p2238
(dp2239
S'unapply'
p2240
(dp2241
S'score'
p2242
I73
sS'raw_score'
p2243
I0
sS'display'
p2244
S'19/26'
p2245
ssS'apply'
p2246
(dp2247
g2242
I90
sg2243
I0
sg2244
S'37/41'
p2248
ssS'change'
p2249
(dp2250
g2242
I100
sg2243
I0
sg2244
S'17/17'
p2251
ssS'query'
p2252
(dp2253
g2242
I77
sg2243
I0
sg2244
S'50/65'
p2254
ssssVSafari 1.0
p2255
(dp2256
S'summary_display'
p2257
S'129/149'
p2258
sS'total_runs'
p2259
L2L
sS'summary_score'
p2260
I87
sS'results'
p2261
(dp2262
S'unapply'
p2263
(dp2264
S'score'
p2265
I88
sS'raw_score'
p2266
I0
sS'display'
p2267
S'23/26'
p2268
ssS'apply'
p2269
(dp2270
g2265
I95
sg2266
I0
sg2267
S'39/41'
p2271
ssS'change'
p2272
(dp2273
g2265
I100
sg2266
I0
sg2267
S'17/17'
p2274
ssS'query'
p2275
(dp2276
g2265
I77
sg2266
I0
sg2267
S'50/65'
p2277
ssssVSafari 3.2
p2278
(dp2279
S'summary_display'
p2280
S'104/149'
p2281
sS'total_runs'
p2282
L21L
sS'summary_score'
p2283
I70
sS'results'
p2284
(dp2285
S'unapply'
p2286
(dp2287
S'score'
p2288
I35
sS'raw_score'
p2289
I0
sS'display'
p2290
S'9/26'
p2291
ssS'apply'
p2292
(dp2293
g2288
I68
sg2289
I0
sg2290
S'28/41'
p2294
ssS'change'
p2295
(dp2296
g2288
I100
sg2289
I0
sg2290
S'17/17'
p2297
ssS'query'
p2298
(dp2299
g2288
I77
sg2289
I0
sg2290
S'50/65'
p2300
ssssVSafari 3.1
p2301
(dp2302
S'summary_display'
p2303
S'125/149'
p2304
sS'total_runs'
p2305
L13L
sS'summary_score'
p2306
I84
sS'results'
p2307
(dp2308
S'unapply'
p2309
(dp2310
S'score'
p2311
I73
sS'raw_score'
p2312
I0
sS'display'
p2313
S'19/26'
p2314
ssS'apply'
p2315
(dp2316
g2311
I95
sg2312
I0
sg2313
S'39/41'
p2317
ssS'change'
p2318
(dp2319
g2311
I100
sg2312
I0
sg2313
S'17/17'
p2320
ssS'query'
p2321
(dp2322
g2311
I77
sg2312
I0
sg2313
S'50/65'
p2323
ssssVSafari 3.0
p2324
(dp2325
S'summary_display'
p2326
S'103/149'
p2327
sS'total_runs'
p2328
L4L
sS'summary_score'
p2329
I69
sS'results'
p2330
(dp2331
S'unapply'
p2332
(dp2333
S'score'
p2334
I31
sS'raw_score'
p2335
I0
sS'display'
p2336
S'8/26'
p2337
ssS'apply'
p2338
(dp2339
g2334
I68
sg2335
I0
sg2336
S'28/41'
p2340
ssS'change'
p2341
(dp2342
g2334
I100
sg2335
I0
sg2336
S'17/17'
p2343
ssS'query'
p2344
(dp2345
g2334
I77
sg2335
I0
sg2336
S'50/65'
p2346
ssssVVodafone 1.0
p2347
(dp2348
S'summary_display'
p2349
S'117/149'
p2350
sS'total_runs'
p2351
L1L
sS'summary_score'
p2352
I79
sS'results'
p2353
(dp2354
S'unapply'
p2355
(dp2356
S'score'
p2357
I65
sS'raw_score'
p2358
I0
sS'display'
p2359
S'17/26'
p2360
ssS'apply'
p2361
(dp2362
g2357
I83
sg2358
I0
sg2359
S'34/41'
p2363
ssS'change'
p2364
(dp2365
g2357
I41
sg2358
I0
sg2359
S'7/17'
p2366
ssS'query'
p2367
(dp2368
g2357
I91
sg2358
I0
sg2359
S'59/65'
p2369
ssssVWii 9.30
p2370
(dp2371
S'summary_display'
p2372
S'0/149'
p2373
sS'total_runs'
p2374
L2L
sS'summary_score'
p2375
I0
sS'results'
p2376
(dp2377
S'unapply'
p2378
(dp2379
S'score'
p2380
I0
sS'raw_score'
p2381
I0
sS'display'
p2382
S'0/26'
p2383
ssS'apply'
p2384
(dp2385
g2380
I0
sg2381
I0
sg2382
S'0/41'
p2386
ssS'change'
p2387
(dp2388
g2380
I0
sg2381
I0
sg2382
S'0/17'
p2389
ssS'query'
p2390
(dp2391
g2380
I0
sg2381
I0
sg2382
S'0/65'
p2392
ssssVArora 0.5
p2393
(dp2394
S'summary_display'
p2395
S'111/149'
p2396
sS'total_runs'
p2397
L1L
sS'summary_score'
p2398
I74
sS'results'
p2399
(dp2400
S'unapply'
p2401
(dp2402
S'score'
p2403
I35
sS'raw_score'
p2404
I0
sS'display'
p2405
S'9/26'
p2406
ssS'apply'
p2407
(dp2408
g2403
I85
sg2404
I0
sg2405
S'35/41'
p2409
ssS'change'
p2410
(dp2411
g2403
I100
sg2404
I0
sg2405
S'17/17'
p2412
ssS'query'
p2413
(dp2414
g2403
I77
sg2404
I0
sg2405
S'50/65'
p2415
ssssVArora 0.6
p2416
(dp2417
S'summary_display'
p2418
S'102/149'
p2419
sS'total_runs'
p2420
L1L
sS'summary_score'
p2421
I68
sS'results'
p2422
(dp2423
S'unapply'
p2424
(dp2425
S'score'
p2426
I31
sS'raw_score'
p2427
I0
sS'display'
p2428
S'8/26'
p2429
ssS'apply'
p2430
(dp2431
g2426
I66
sg2427
I0
sg2428
S'27/41'
p2432
ssS'change'
p2433
(dp2434
g2426
I100
sg2427
I0
sg2428
S'17/17'
p2435
ssS'query'
p2436
(dp2437
g2426
I77
sg2427
I0
sg2428
S'50/65'
p2438
ssssVArora 0.7
p2439
(dp2440
S'summary_display'
p2441
S'111/149'
p2442
sS'total_runs'
p2443
L1L
sS'summary_score'
p2444
I74
sS'results'
p2445
(dp2446
S'unapply'
p2447
(dp2448
S'score'
p2449
I35
sS'raw_score'
p2450
I0
sS'display'
p2451
S'9/26'
p2452
ssS'apply'
p2453
(dp2454
g2449
I85
sg2450
I0
sg2451
S'35/41'
p2455
ssS'change'
p2456
(dp2457
g2449
I100
sg2450
I0
sg2451
S'17/17'
p2458
ssS'query'
p2459
(dp2460
g2449
I77
sg2450
I0
sg2451
S'50/65'
p2461
ssssVArora 0.8
p2462
(dp2463
S'summary_display'
p2464
S'111/149'
p2465
sS'total_runs'
p2466
L5L
sS'summary_score'
p2467
I74
sS'results'
p2468
(dp2469
S'unapply'
p2470
(dp2471
S'score'
p2472
I35
sS'raw_score'
p2473
I0
sS'display'
p2474
S'9/26'
p2475
ssS'apply'
p2476
(dp2477
g2472
I85
sg2473
I0
sg2474
S'35/41'
p2478
ssS'change'
p2479
(dp2480
g2472
I100
sg2473
I0
sg2474
S'17/17'
p2481
ssS'query'
p2482
(dp2483
g2472
I77
sg2473
I0
sg2474
S'50/65'
p2484
ssssVArora 0.9
p2485
(dp2486
S'summary_display'
p2487
S'111/149'
p2488
sS'total_runs'
p2489
L11L
sS'summary_score'
p2490
I74
sS'results'
p2491
(dp2492
S'unapply'
p2493
(dp2494
S'score'
p2495
I35
sS'raw_score'
p2496
I0
sS'display'
p2497
S'9/26'
p2498
ssS'apply'
p2499
(dp2500
g2495
I85
sg2496
I0
sg2497
S'35/41'
p2501
ssS'change'
p2502
(dp2503
g2495
I100
sg2496
I0
sg2497
S'17/17'
p2504
ssS'query'
p2505
(dp2506
g2495
I77
sg2496
I0
sg2497
S'50/65'
p2507
ssssVOpera 9.02
p2508
(dp2509
S'summary_display'
p2510
S'0/149'
p2511
sS'total_runs'
p2512
L1L
sS'summary_score'
p2513
I0
sS'results'
p2514
(dp2515
S'unapply'
p2516
(dp2517
S'score'
p2518
I0
sS'raw_score'
p2519
I0
sS'display'
p2520
S'0/26'
p2521
ssS'apply'
p2522
(dp2523
g2518
I0
sg2519
I0
sg2520
S'0/41'
p2524
ssS'change'
p2525
(dp2526
g2518
I0
sg2519
I0
sg2520
S'0/17'
p2527
ssS'query'
p2528
(dp2529
g2518
I0
sg2519
I0
sg2520
S'0/65'
p2530
ssssVOther
p2531
(dp2532
S'summary_display'
p2533
S'123/149'
p2534
sS'total_runs'
p2535
L65L
sS'summary_score'
p2536
I83
sS'results'
p2537
(dp2538
S'unapply'
p2539
(dp2540
S'score'
p2541
I69
sS'raw_score'
p2542
I0
sS'display'
p2543
S'18/26'
p2544
ssS'apply'
p2545
(dp2546
g2541
I95
sg2542
I0
sg2543
S'39/41'
p2547
ssS'change'
p2548
(dp2549
g2541
I100
sg2542
I0
sg2543
S'17/17'
p2550
ssS'query'
p2551
(dp2552
g2541
I75
sg2542
I0
sg2543
S'49/65'
p2553
ssssVUzbl 0
p2554
(dp2555
S'summary_display'
p2556
S'129/149'
p2557
sS'total_runs'
p2558
L24L
sS'summary_score'
p2559
I87
sS'results'
p2560
(dp2561
S'unapply'
p2562
(dp2563
S'score'
p2564
I88
sS'raw_score'
p2565
I0
sS'display'
p2566
S'23/26'
p2567
ssS'apply'
p2568
(dp2569
g2564
I95
sg2565
I0
sg2566
S'39/41'
p2570
ssS'change'
p2571
(dp2572
g2564
I100
sg2565
I0
sg2566
S'17/17'
p2573
ssS'query'
p2574
(dp2575
g2564
I77
sg2565
I0
sg2566
S'50/65'
p2576
ssssVArora 0.10
p2577
(dp2578
S'summary_display'
p2579
S'111/149'
p2580
sS'total_runs'
p2581
L7L
sS'summary_score'
p2582
I74
sS'results'
p2583
(dp2584
S'unapply'
p2585
(dp2586
S'score'
p2587
I35
sS'raw_score'
p2588
I0
sS'display'
p2589
S'9/26'
p2590
ssS'apply'
p2591
(dp2592
g2587
I85
sg2588
I0
sg2589
S'35/41'
p2593
ssS'change'
p2594
(dp2595
g2587
I100
sg2588
I0
sg2589
S'17/17'
p2596
ssS'query'
p2597
(dp2598
g2587
I77
sg2588
I0
sg2589
S'50/65'
p2599
ssssVOpera 9.80
p2600
(dp2601
S'summary_display'
p2602
S'89/149'
p2603
sS'total_runs'
p2604
L2L
sS'summary_score'
p2605
I60
sS'results'
p2606
(dp2607
S'unapply'
p2608
(dp2609
S'score'
p2610
I50
sS'raw_score'
p2611
I0
sS'display'
p2612
S'13/26'
p2613
ssS'apply'
p2614
(dp2615
g2610
I63
sg2611
I0
sg2612
S'26/41'
p2616
ssS'change'
p2617
(dp2618
g2610
I41
sg2611
I0
sg2612
S'7/17'
p2619
ssS'query'
p2620
(dp2621
g2610
I66
sg2611
I0
sg2612
S'43/65'
p2622
ssssVIceweasel 2.0
p2623
(dp2624
S'summary_display'
p2625
S'117/149'
p2626
sS'total_runs'
p2627
L1L
sS'summary_score'
p2628
I79
sS'results'
p2629
(dp2630
S'unapply'
p2631
(dp2632
S'score'
p2633
I65
sS'raw_score'
p2634
I0
sS'display'
p2635
S'17/26'
p2636
ssS'apply'
p2637
(dp2638
g2633
I83
sg2634
I0
sg2635
S'34/41'
p2639
ssS'change'
p2640
(dp2641
g2633
I41
sg2634
I0
sg2635
S'7/17'
p2642
ssS'query'
p2643
(dp2644
g2633
I91
sg2634
I0
sg2635
S'59/65'
p2645
ssssVChrome Frame (IE 6) 4.0
p2646
(dp2647
S'summary_display'
p2648
S'129/149'
p2649
sS'total_runs'
p2650
L2L
sS'summary_score'
p2651
I87
sS'results'
p2652
(dp2653
S'unapply'
p2654
(dp2655
S'score'
p2656
I88
sS'raw_score'
p2657
I0
sS'display'
p2658
S'23/26'
p2659
ssS'apply'
p2660
(dp2661
g2656
I95
sg2657
I0
sg2658
S'39/41'
p2662
ssS'change'
p2663
(dp2664
g2656
I100
sg2657
I0
sg2658
S'17/17'
p2665
ssS'query'
p2666
(dp2667
g2656
I77
sg2657
I0
sg2658
S'50/65'
p2668
ssssVCamino 1.6
p2669
(dp2670
S'summary_display'
p2671
S'117/149'
p2672
sS'total_runs'
p2673
L14L
sS'summary_score'
p2674
I79
sS'results'
p2675
(dp2676
S'unapply'
p2677
(dp2678
S'score'
p2679
I65
sS'raw_score'
p2680
I0
sS'display'
p2681
S'17/26'
p2682
ssS'apply'
p2683
(dp2684
g2679
I83
sg2680
I0
sg2681
S'34/41'
p2685
ssS'change'
p2686
(dp2687
g2679
I41
sg2680
I0
sg2681
S'7/17'
p2688
ssS'query'
p2689
(dp2690
g2679
I91
sg2680
I0
sg2681
S'59/65'
p2691
ssssVCamino 1.5
p2692
(dp2693
S'summary_display'
p2694
S'117/149'
p2695
sS'total_runs'
p2696
L1L
sS'summary_score'
p2697
I79
sS'results'
p2698
(dp2699
S'unapply'
p2700
(dp2701
S'score'
p2702
I65
sS'raw_score'
p2703
I0
sS'display'
p2704
S'17/26'
p2705
ssS'apply'
p2706
(dp2707
g2702
I83
sg2703
I0
sg2704
S'34/41'
p2708
ssS'change'
p2709
(dp2710
g2702
I41
sg2703
I0
sg2704
S'7/17'
p2711
ssS'query'
p2712
(dp2713
g2702
I91
sg2703
I0
sg2704
S'59/65'
p2714
ssssS'total_runs'
p2715
L10761L
sVFirefox (Namoroka) 3.7
p2716
(dp2717
S'summary_display'
p2718
S'117/149'
p2719
sS'total_runs'
p2720
L1L
sS'summary_score'
p2721
I79
sS'results'
p2722
(dp2723
S'unapply'
p2724
(dp2725
S'score'
p2726
I65
sS'raw_score'
p2727
I0
sS'display'
p2728
S'17/26'
p2729
ssS'apply'
p2730
(dp2731
g2726
I83
sg2727
I0
sg2728
S'34/41'
p2732
ssS'change'
p2733
(dp2734
g2726
I41
sg2727
I0
sg2728
S'7/17'
p2735
ssS'query'
p2736
(dp2737
g2726
I91
sg2727
I0
sg2728
S'59/65'
p2738
ssssVMaxthon 3.0
p2739
(dp2740
S'summary_display'
p2741
S'129/149'
p2742
sS'total_runs'
p2743
L6L
sS'summary_score'
p2744
I87
sS'results'
p2745
(dp2746
S'unapply'
p2747
(dp2748
S'score'
p2749
I88
sS'raw_score'
p2750
I0
sS'display'
p2751
S'23/26'
p2752
ssS'apply'
p2753
(dp2754
g2749
I95
sg2750
I0
sg2751
S'39/41'
p2755
ssS'change'
p2756
(dp2757
g2749
I100
sg2750
I0
sg2751
S'17/17'
p2758
ssS'query'
p2759
(dp2760
g2749
I77
sg2750
I0
sg2751
S'50/65'
p2761
ssssVChrome 2.0
p2762
(dp2763
S'summary_display'
p2764
S'125/149'
p2765
sS'total_runs'
p2766
L216L
sS'summary_score'
p2767
I84
sS'results'
p2768
(dp2769
S'unapply'
p2770
(dp2771
S'score'
p2772
I73
sS'raw_score'
p2773
I0
sS'display'
p2774
S'19/26'
p2775
ssS'apply'
p2776
(dp2777
g2772
I95
sg2773
I0
sg2774
S'39/41'
p2778
ssS'change'
p2779
(dp2780
g2772
I100
sg2773
I0
sg2774
S'17/17'
p2781
ssS'query'
p2782
(dp2783
g2772
I77
sg2773
I0
sg2774
S'50/65'
p2784
ssssVNokia 5800
p2785
(dp2786
S'summary_display'
p2787
S'100/149'
p2788
sS'total_runs'
p2789
L3L
sS'summary_score'
p2790
I67
sS'results'
p2791
(dp2792
S'unapply'
p2793
(dp2794
S'score'
p2795
I31
sS'raw_score'
p2796
I0
sS'display'
p2797
S'8/26'
p2798
ssS'apply'
p2799
(dp2800
g2795
I68
sg2796
I0
sg2797
S'28/41'
p2801
ssS'change'
p2802
(dp2803
g2795
I100
sg2796
I0
sg2797
S'17/17'
p2804
ssS'query'
p2805
(dp2806
g2795
I72
sg2796
I0
sg2797
S'47/65'
p2807
ssssVMaemo Browser 1.4
p2808
(dp2809
S'summary_display'
p2810
S'118/149'
p2811
sS'total_runs'
p2812
L1L
sS'summary_score'
p2813
I79
sS'results'
p2814
(dp2815
S'unapply'
p2816
(dp2817
S'score'
p2818
I65
sS'raw_score'
p2819
I0
sS'display'
p2820
S'17/26'
p2821
ssS'apply'
p2822
(dp2823
g2818
I83
sg2819
I0
sg2820
S'34/41'
p2824
ssS'change'
p2825
(dp2826
g2818
I41
sg2819
I0
sg2820
S'7/17'
p2827
ssS'query'
p2828
(dp2829
g2818
I92
sg2819
I0
sg2820
S'60/65'
p2830
ssssVChrome 0.2
p2831
(dp2832
S'summary_display'
p2833
S'104/149'
p2834
sS'total_runs'
p2835
L3L
sS'summary_score'
p2836
I70
sS'results'
p2837
(dp2838
S'unapply'
p2839
(dp2840
S'score'
p2841
I35
sS'raw_score'
p2842
I0
sS'display'
p2843
S'9/26'
p2844
ssS'apply'
p2845
(dp2846
g2841
I68
sg2842
I0
sg2843
S'28/41'
p2847
ssS'change'
p2848
(dp2849
g2841
I100
sg2842
I0
sg2843
S'17/17'
p2850
ssS'query'
p2851
(dp2852
g2841
I77
sg2842
I0
sg2843
S'50/65'
p2853
ssssVMaxthon 2.0
p2854
(dp2855
S'summary_display'
p2856
S'99/149'
p2857
sS'total_runs'
p2858
L12L
sS'summary_score'
p2859
I66
sS'results'
p2860
(dp2861
S'unapply'
p2862
(dp2863
S'score'
p2864
I54
sS'raw_score'
p2865
I0
sS'display'
p2866
S'14/26'
p2867
ssS'apply'
p2868
(dp2869
g2864
I59
sg2865
I0
sg2866
S'24/41'
p2870
ssS'change'
p2871
(dp2872
g2864
I29
sg2865
I0
sg2866
S'5/17'
p2873
ssS'query'
p2874
(dp2875
g2864
I86
sg2865
I0
sg2866
S'56/65'
p2876
ssssVNetscape 9.0
p2877
(dp2878
S'summary_display'
p2879
S'117/149'
p2880
sS'total_runs'
p2881
L1L
sS'summary_score'
p2882
I79
sS'results'
p2883
(dp2884
S'unapply'
p2885
(dp2886
S'score'
p2887
I65
sS'raw_score'
p2888
I0
sS'display'
p2889
S'17/26'
p2890
ssS'apply'
p2891
(dp2892
g2887
I83
sg2888
I0
sg2889
S'34/41'
p2893
ssS'change'
p2894
(dp2895
g2887
I41
sg2888
I0
sg2889
S'7/17'
p2896
ssS'query'
p2897
(dp2898
g2887
I91
sg2888
I0
sg2889
S'59/65'
p2899
ssssVEpiphany 2.22
p2900
(dp2901
S'summary_display'
p2902
S'117/149'
p2903
sS'total_runs'
p2904
L7L
sS'summary_score'
p2905
I79
sS'results'
p2906
(dp2907
S'unapply'
p2908
(dp2909
S'score'
p2910
I65
sS'raw_score'
p2911
I0
sS'display'
p2912
S'17/26'
p2913
ssS'apply'
p2914
(dp2915
g2910
I83
sg2911
I0
sg2912
S'34/41'
p2916
ssS'change'
p2917
(dp2918
g2910
I41
sg2911
I0
sg2912
S'7/17'
p2919
ssS'query'
p2920
(dp2921
g2910
I91
sg2911
I0
sg2912
S'59/65'
p2922
ssssVNetFront 3.5
p2923
(dp2924
S'summary_display'
p2925
S'0/149'
p2926
sS'total_runs'
p2927
L1L
sS'summary_score'
p2928
I0
sS'results'
p2929
(dp2930
S'unapply'
p2931
(dp2932
S'score'
p2933
I0
sS'raw_score'
p2934
I0
sS'display'
p2935
S'0/26'
p2936
ssS'apply'
p2937
(dp2938
g2933
I0
sg2934
I0
sg2935
S'0/41'
p2939
ssS'change'
p2940
(dp2941
g2933
I0
sg2934
I0
sg2935
S'0/17'
p2942
ssS'query'
p2943
(dp2944
g2933
I0
sg2934
I0
sg2935
S'0/65'
p2945
ssssVNetFront 3.4
p2946
(dp2947
S'summary_display'
p2948
S'117/149'
p2949
sS'total_runs'
p2950
L1L
sS'summary_score'
p2951
I79
sS'results'
p2952
(dp2953
S'unapply'
p2954
(dp2955
S'score'
p2956
I65
sS'raw_score'
p2957
I0
sS'display'
p2958
S'17/26'
p2959
ssS'apply'
p2960
(dp2961
g2956
I83
sg2957
I0
sg2958
S'34/41'
p2962
ssS'change'
p2963
(dp2964
g2956
I41
sg2957
I0
sg2958
S'7/17'
p2965
ssS'query'
p2966
(dp2967
g2956
I91
sg2957
I0
sg2958
S'59/65'
p2968
ssssVMidori 0.2
p2969
(dp2970
S'summary_display'
p2971
S'129/149'
p2972
sS'total_runs'
p2973
L6L
sS'summary_score'
p2974
I87
sS'results'
p2975
(dp2976
S'unapply'
p2977
(dp2978
S'score'
p2979
I88
sS'raw_score'
p2980
I0
sS'display'
p2981
S'23/26'
p2982
ssS'apply'
p2983
(dp2984
g2979
I95
sg2980
I0
sg2981
S'39/41'
p2985
ssS'change'
p2986
(dp2987
g2979
I100
sg2980
I0
sg2981
S'17/17'
p2988
ssS'query'
p2989
(dp2990
g2979
I77
sg2980
I0
sg2981
S'50/65'
p2991
ssssVMidori 0.1
p2992
(dp2993
S'summary_display'
p2994
S'125/149'
p2995
sS'total_runs'
p2996
L13L
sS'summary_score'
p2997
I84
sS'results'
p2998
(dp2999
S'unapply'
p3000
(dp3001
S'score'
p3002
I73
sS'raw_score'
p3003
I0
sS'display'
p3004
S'19/26'
p3005
ssS'apply'
p3006
(dp3007
g3002
I95
sg3003
I0
sg3004
S'39/41'
p3008
ssS'change'
p3009
(dp3010
g3002
I100
sg3003
I0
sg3004
S'17/17'
p3011
ssS'query'
p3012
(dp3013
g3002
I77
sg3003
I0
sg3004
S'50/65'
p3014
ssssVOpera 10.50
p3015
(dp3016
S'summary_display'
p3017
S'88/149'
p3018
sS'total_runs'
p3019
L143L
sS'summary_score'
p3020
I59
sS'results'
p3021
(dp3022
S'unapply'
p3023
(dp3024
S'score'
p3025
I50
sS'raw_score'
p3026
I0
sS'display'
p3027
S'13/26'
p3028
ssS'apply'
p3029
(dp3030
g3025
I63
sg3026
I0
sg3027
S'26/41'
p3031
ssS'change'
p3032
(dp3033
g3025
I41
sg3026
I0
sg3027
S'7/17'
p3034
ssS'query'
p3035
(dp3036
g3025
I65
sg3026
I0
sg3027
S'42/65'
p3037
ssss.