(dp0
VFirefox 3
p1
(dp2
S'total_runs'
p3
L21L
sS'score'
p4
I8
sS'results'
p5
(dp6
S'unapply'
p7
(dp8
g4
I7
sS'median'
p9
L0L
sS'display'
p10
S'17/26'
p11
ssS'apply'
p12
(dp13
g4
I8
sg9
L0L
sg10
S'34/41'
p14
ssS'change'
p15
(dp16
g4
I4
sg9
L0L
sg10
S'7/17'
p17
ssS'query'
p18
(dp19
g4
I9
sg9
L0L
sg10
S'59/65'
p20
sssg10
S'117/149'
p21
ssVChrome 4
p22
(dp23
S'total_runs'
p24
L12L
sS'score'
p25
I9
sS'results'
p26
(dp27
S'unapply'
p28
(dp29
g25
I9
sS'median'
p30
L0L
sS'display'
p31
S'23/26'
p32
ssS'apply'
p33
(dp34
g25
I10
sg30
L0L
sg31
S'39/41'
p35
ssS'change'
p36
(dp37
g25
I10
sg30
L0L
sg31
S'17/17'
p38
ssS'query'
p39
(dp40
g25
I8
sg30
L0L
sg31
S'50/65'
p41
sssg31
S'129/149'
p42
ssVSafari 3
p43
(dp44
S'total_runs'
p45
L3L
sS'score'
p46
I7
sS'results'
p47
(dp48
S'unapply'
p49
(dp50
g46
I3
sS'median'
p51
L0L
sS'display'
p52
S'8/26'
p53
ssS'apply'
p54
(dp55
g46
I7
sg51
L0L
sg52
S'28/41'
p56
ssS'change'
p57
(dp58
g46
I10
sg51
L0L
sg52
S'17/17'
p59
ssS'query'
p60
(dp61
g46
I8
sg51
L0L
sg52
S'50/65'
p62
sssg52
S'103/149'
p63
ssVChrome 2
p64
(dp65
S'total_runs'
p66
L2L
sS'score'
p67
I8
sS'results'
p68
(dp69
S'unapply'
p70
(dp71
g67
I7
sS'median'
p72
L0L
sS'display'
p73
S'19/26'
p74
ssS'apply'
p75
(dp76
g67
I10
sg72
L0L
sg73
S'39/41'
p77
ssS'change'
p78
(dp79
g67
I10
sg72
L0L
sg73
S'17/17'
p80
ssS'query'
p81
(dp82
g67
I8
sg72
L0L
sg73
S'50/65'
p83
sssg73
S'125/149'
p84
ssVChrome 3
p85
(dp86
S'total_runs'
p87
L2L
sS'score'
p88
I8
sS'results'
p89
(dp90
S'unapply'
p91
(dp92
g88
I8
sS'median'
p93
L0L
sS'display'
p94
S'20/26'
p95
ssS'apply'
p96
(dp97
g88
I10
sg93
L0L
sg94
S'39/41'
p98
ssS'change'
p99
(dp100
g88
I10
sg93
L0L
sg94
S'17/17'
p101
ssS'query'
p102
(dp103
g88
I8
sg93
L0L
sg94
S'50/65'
p104
sssg94
S'126/149'
p105
ssVChrome 1
p106
(dp107
S'total_runs'
p108
L4L
sS'score'
p109
I7
sS'results'
p110
(dp111
S'unapply'
p112
(dp113
g109
I3
sS'median'
p114
L0L
sS'display'
p115
S'8/26'
p116
ssS'apply'
p117
(dp118
g109
I7
sg114
L0L
sg115
S'28/41'
p119
ssS'change'
p120
(dp121
g109
I10
sg114
L0L
sg115
S'17/17'
p122
ssS'query'
p123
(dp124
g109
I8
sg114
L0L
sg115
S'50/65'
p125
sssg115
S'103/149'
p126
ssViPhone 3
p127
(dp128
S'total_runs'
p129
L1L
sS'score'
p130
I8
sS'results'
p131
(dp132
S'unapply'
p133
(dp134
g130
I7
sS'median'
p135
I0
sS'display'
p136
S'17/26'
p137
ssS'apply'
p138
(dp139
g130
I8
sg135
I0
sg136
S'34/41'
p140
ssS'change'
p141
(dp142
g130
I10
sg135
I0
sg136
S'17/17'
p143
ssS'query'
p144
(dp145
g130
I8
sg135
I0
sg136
S'50/65'
p146
sssg136
S'118/149'
p147
ssVOpera 9
p148
(dp149
S'total_runs'
p150
L4L
sS'score'
p151
I6
sS'results'
p152
(dp153
S'unapply'
p154
(dp155
g151
I5
sS'median'
p156
L0L
sS'display'
p157
S'13/26'
p158
ssS'apply'
p159
(dp160
g151
I6
sg156
L0L
sg157
S'26/41'
p161
ssS'change'
p162
(dp163
g151
I4
sg156
L0L
sg157
S'7/17'
p164
ssS'query'
p165
(dp166
g151
I7
sg156
L0L
sg157
S'44/65'
p167
sssg157
S'90/149'
p168
ssVSafari 4
p169
(dp170
S'total_runs'
p171
L8L
sS'score'
p172
I8
sS'results'
p173
(dp174
S'unapply'
p175
(dp176
g172
I7
sS'median'
p177
L0L
sS'display'
p178
S'19/26'
p179
ssS'apply'
p180
(dp181
g172
I10
sg177
L0L
sg178
S'39/41'
p182
ssS'change'
p183
(dp184
g172
I10
sg177
L0L
sg178
S'17/17'
p185
ssS'query'
p186
(dp187
g172
I8
sg177
L0L
sg178
S'50/65'
p188
sssg178
S'125/149'
p189
ssViPhone 2
p190
(dp191
S'total_runs'
p192
L1L
sS'score'
p193
I7
sS'results'
p194
(dp195
S'unapply'
p196
(dp197
g193
I3
sS'median'
p198
I0
sS'display'
p199
S'9/26'
p200
ssS'apply'
p201
(dp202
g193
I7
sg198
I0
sg199
S'28/41'
p203
ssS'change'
p204
(dp205
g193
I10
sg198
I0
sg199
S'17/17'
p206
ssS'query'
p207
(dp208
g193
I8
sg198
I0
sg199
S'50/65'
p209
sssg199
S'104/149'
p210
ssVIE 7
p211
(dp212
S'total_runs'
p213
L3L
sS'score'
p214
I7
sS'results'
p215
(dp216
S'unapply'
p217
(dp218
g214
I5
sS'median'
p219
L0L
sS'display'
p220
S'14/26'
p221
ssS'apply'
p222
(dp223
g214
I6
sg219
L0L
sg220
S'24/41'
p224
ssS'change'
p225
(dp226
g214
I3
sg219
L0L
sg220
S'5/17'
p227
ssS'query'
p228
(dp229
g214
I9
sg219
L0L
sg220
S'56/65'
p230
sssg220
S'99/149'
p231
ssVKonqueror 3
p232
(dp233
S'total_runs'
p234
L1L
sS'score'
p235
I0
sS'results'
p236
(dp237
S'unapply'
p238
(dp239
g235
I0
sS'median'
p240
I0
sS'display'
p241
S'0/26'
p242
ssS'apply'
p243
(dp244
g235
I0
sg240
I0
sg241
S'0/41'
p245
ssS'change'
p246
(dp247
g235
I0
sg240
I0
sg241
S'0/17'
p248
ssS'query'
p249
(dp250
g235
I0
sg240
I0
sg241
S'0/65'
p251
sssg241
S'0/149'
p252
ssVFirefox (Minefield) 3
p253
(dp254
S'total_runs'
p255
L1L
sS'score'
p256
I8
sS'results'
p257
(dp258
S'unapply'
p259
(dp260
g256
I7
sS'median'
p261
I0
sS'display'
p262
S'17/26'
p263
ssS'apply'
p264
(dp265
g256
I8
sg261
I0
sg262
S'34/41'
p266
ssS'change'
p267
(dp268
g256
I4
sg261
I0
sg262
S'7/17'
p269
ssS'query'
p270
(dp271
g256
I9
sg261
I0
sg262
S'59/65'
p272
sssg262
S'117/149'
p273
ssVIE 8
p274
(dp275
g24
L6L
sg25
I7
sg26
(dp276
g28
(dp277
g25
I6
sg30
L0L
sg31
S'15/26'
p278
ssg33
(dp279
g25
I5
sg30
L0L
sg31
S'21/41'
p280
ssg36
(dp281
g25
I3
sg30
L0L
sg31
S'5/17'
p282
ssg39
(dp283
g25
I9
sg30
L0L
sg31
S'57/65'
p284
sssg31
S'98/149'
p285
ssVOpera 10
p286
(dp287
S'total_runs'
p288
L5L
sS'score'
p289
I6
sS'results'
p290
(dp291
S'unapply'
p292
(dp293
g289
I5
sS'median'
p294
L0L
sS'display'
p295
S'13/26'
p296
ssS'apply'
p297
(dp298
g289
I6
sg294
L0L
sg295
S'26/41'
p299
ssS'change'
p300
(dp301
g289
I4
sg294
L0L
sg295
S'7/17'
p302
ssS'query'
p303
(dp304
g289
I7
sg294
L0L
sg295
S'44/65'
p305
sssg295
S'90/149'
p306
ssVMidori 0
p307
(dp308
S'total_runs'
p309
L1L
sS'score'
p310
I8
sS'results'
p311
(dp312
S'unapply'
p313
(dp314
g310
I7
sS'median'
p315
I0
sS'display'
p316
S'19/26'
p317
ssS'apply'
p318
(dp319
g310
I10
sg315
I0
sg316
S'39/41'
p320
ssS'change'
p321
(dp322
g310
I10
sg315
I0
sg316
S'17/17'
p323
ssS'query'
p324
(dp325
g310
I8
sg315
I0
sg316
S'50/65'
p326
sssg316
S'125/149'
p327
ssVCamino 1
p328
(dp329
S'total_runs'
p330
L1L
sS'score'
p331
I8
sS'results'
p332
(dp333
S'unapply'
p334
(dp335
g331
I7
sS'median'
p336
I0
sS'display'
p337
S'17/26'
p338
ssS'apply'
p339
(dp340
g331
I8
sg336
I0
sg337
S'34/41'
p341
ssS'change'
p342
(dp343
g331
I4
sg336
I0
sg337
S'7/17'
p344
ssS'query'
p345
(dp346
g331
I9
sg336
I0
sg337
S'59/65'
p347
sssg337
S'117/149'
p348
ssVIE 6
p349
(dp350
S'total_runs'
p351
L2L
sS'score'
p352
I7
sS'results'
p353
(dp354
S'unapply'
p355
(dp356
g352
I5
sS'median'
p357
L0L
sS'display'
p358
S'14/26'
p359
ssS'apply'
p360
(dp361
g352
I6
sg357
L0L
sg358
S'24/41'
p362
ssS'change'
p363
(dp364
g352
I3
sg357
L0L
sg358
S'5/17'
p365
ssS'query'
p366
(dp367
g352
I9
sg357
L0L
sg358
S'56/65'
p368
sssg358
S'99/149'
p369
ssVAndroid 1
p370
(dp371
S'total_runs'
p372
L1L
sS'score'
p373
I8
sS'results'
p374
(dp375
S'unapply'
p376
(dp377
g373
I7
sS'median'
p378
L0L
sS'display'
p379
S'17/26'
p380
ssS'apply'
p381
(dp382
g373
I8
sg378
L0L
sg379
S'34/41'
p383
ssS'change'
p384
(dp385
g373
I10
sg378
L0L
sg379
S'17/17'
p386
ssS'query'
p387
(dp388
g373
I8
sg378
L0L
sg379
S'50/65'
p389
sssg379
S'118/149'
p390
ss.