(dp0
VNetscape 7
p1
(dp2
S'summary_display'
p3
S'117/149'
p4
sS'total_runs'
p5
L1L
sS'summary_score'
p6
I79
sS'results'
p7
(dp8
S'unapply'
p9
(dp10
S'score'
p11
I65
sS'raw_score'
p12
I0
sS'display'
p13
S'17/26'
p14
ssS'apply'
p15
(dp16
g11
I83
sg12
I0
sg13
S'34/41'
p17
ssS'change'
p18
(dp19
g11
I41
sg12
I0
sg13
S'7/17'
p20
ssS'query'
p21
(dp22
g11
I91
sg12
I0
sg13
S'59/65'
p23
ssssVSafari 3
p24
(dp25
S'summary_display'
p26
S'104/149'
p27
sS'total_runs'
p28
L38L
sS'summary_score'
p29
I70
sS'results'
p30
(dp31
S'unapply'
p32
(dp33
S'score'
p34
I35
sS'raw_score'
p35
I0
sS'display'
p36
S'9/26'
p37
ssS'apply'
p38
(dp39
g34
I68
sg35
I0
sg36
S'28/41'
p40
ssS'change'
p41
(dp42
g34
I100
sg35
I0
sg36
S'17/17'
p43
ssS'query'
p44
(dp45
g34
I77
sg35
I0
sg36
S'50/65'
p46
ssssVPlayStation 3
p47
(dp48
S'summary_display'
p49
S'0/149'
p50
sS'total_runs'
p51
L3L
sS'summary_score'
p52
I0
sS'results'
p53
(dp54
S'unapply'
p55
(dp56
S'score'
p57
I0
sS'raw_score'
p58
I0
sS'display'
p59
S'0/26'
p60
ssS'apply'
p61
(dp62
g57
I0
sg58
I0
sg59
S'0/41'
p63
ssS'change'
p64
(dp65
g57
I0
sg58
I0
sg59
S'0/17'
p66
ssS'query'
p67
(dp68
g57
I0
sg58
I0
sg59
S'0/65'
p69
ssssVK-Meleon 1
p70
(dp71
S'summary_display'
p72
S'117/149'
p73
sS'total_runs'
p74
L9L
sS'summary_score'
p75
I79
sS'results'
p76
(dp77
S'unapply'
p78
(dp79
S'score'
p80
I65
sS'raw_score'
p81
I0
sS'display'
p82
S'17/26'
p83
ssS'apply'
p84
(dp85
g80
I83
sg81
I0
sg82
S'34/41'
p86
ssS'change'
p87
(dp88
g80
I41
sg81
I0
sg82
S'7/17'
p89
ssS'query'
p90
(dp91
g80
I91
sg81
I0
sg82
S'59/65'
p92
ssssVMaxthon 0
p93
(dp94
S'summary_display'
p95
S'99/149'
p96
sS'total_runs'
p97
L1L
sS'summary_score'
p98
I66
sS'results'
p99
(dp100
S'unapply'
p101
(dp102
S'score'
p103
I54
sS'raw_score'
p104
I0
sS'display'
p105
S'14/26'
p106
ssS'apply'
p107
(dp108
g103
I59
sg104
I0
sg105
S'24/41'
p109
ssS'change'
p110
(dp111
g103
I29
sg104
I0
sg105
S'5/17'
p112
ssS'query'
p113
(dp114
g103
I86
sg104
I0
sg105
S'56/65'
p115
ssssVSafari 1
p116
(dp117
S'summary_display'
p118
S'129/149'
p119
sS'total_runs'
p120
L2L
sS'summary_score'
p121
I87
sS'results'
p122
(dp123
S'unapply'
p124
(dp125
S'score'
p126
I88
sS'raw_score'
p127
I0
sS'display'
p128
S'23/26'
p129
ssS'apply'
p130
(dp131
g126
I95
sg127
I0
sg128
S'39/41'
p132
ssS'change'
p133
(dp134
g126
I100
sg127
I0
sg128
S'17/17'
p135
ssS'query'
p136
(dp137
g126
I77
sg127
I0
sg128
S'50/65'
p138
ssssVMaxthon 2
p139
(dp140
S'summary_display'
p141
S'99/149'
p142
sS'total_runs'
p143
L12L
sS'summary_score'
p144
I66
sS'results'
p145
(dp146
S'unapply'
p147
(dp148
S'score'
p149
I54
sS'raw_score'
p150
I0
sS'display'
p151
S'14/26'
p152
ssS'apply'
p153
(dp154
g149
I59
sg150
I0
sg151
S'24/41'
p155
ssS'change'
p156
(dp157
g149
I29
sg150
I0
sg151
S'5/17'
p158
ssS'query'
p159
(dp160
g149
I86
sg150
I0
sg151
S'56/65'
p161
ssssVMaxthon 3
p162
(dp163
S'summary_display'
p164
S'129/149'
p165
sS'total_runs'
p166
L6L
sS'summary_score'
p167
I87
sS'results'
p168
(dp169
S'unapply'
p170
(dp171
S'score'
p172
I88
sS'raw_score'
p173
I0
sS'display'
p174
S'23/26'
p175
ssS'apply'
p176
(dp177
g172
I95
sg173
I0
sg174
S'39/41'
p178
ssS'change'
p179
(dp180
g172
I100
sg173
I0
sg174
S'17/17'
p181
ssS'query'
p182
(dp183
g172
I77
sg173
I0
sg174
S'50/65'
p184
ssssVShiira 0
p185
(dp186
S'summary_display'
p187
S'125/149'
p188
sS'total_runs'
p189
L1L
sS'summary_score'
p190
I84
sS'results'
p191
(dp192
S'unapply'
p193
(dp194
S'score'
p195
I73
sS'raw_score'
p196
I0
sS'display'
p197
S'19/26'
p198
ssS'apply'
p199
(dp200
g195
I95
sg196
I0
sg197
S'39/41'
p201
ssS'change'
p202
(dp203
g195
I100
sg196
I0
sg197
S'17/17'
p204
ssS'query'
p205
(dp206
g195
I77
sg196
I0
sg197
S'50/65'
p207
ssssVChrome Frame (IE 8) 4
p208
(dp209
S'summary_display'
p210
S'129/149'
p211
sS'total_runs'
p212
L12L
sS'summary_score'
p213
I87
sS'results'
p214
(dp215
S'unapply'
p216
(dp217
S'score'
p218
I88
sS'raw_score'
p219
I0
sS'display'
p220
S'23/26'
p221
ssS'apply'
p222
(dp223
g218
I95
sg219
I0
sg220
S'39/41'
p224
ssS'change'
p225
(dp226
g218
I100
sg219
I0
sg220
S'17/17'
p227
ssS'query'
p228
(dp229
g218
I77
sg219
I0
sg220
S'50/65'
p230
ssssVNetscape 9
p231
(dp232
S'summary_display'
p233
S'117/149'
p234
sS'total_runs'
p235
L1L
sS'summary_score'
p236
I79
sS'results'
p237
(dp238
S'unapply'
p239
(dp240
S'score'
p241
I65
sS'raw_score'
p242
I0
sS'display'
p243
S'17/26'
p244
ssS'apply'
p245
(dp246
g241
I83
sg242
I0
sg243
S'34/41'
p247
ssS'change'
p248
(dp249
g241
I41
sg242
I0
sg243
S'7/17'
p250
ssS'query'
p251
(dp252
g241
I91
sg242
I0
sg243
S'59/65'
p253
ssssVNetscape 8
p254
(dp255
S'summary_display'
p256
S'118/149'
p257
sS'total_runs'
p258
L1L
sS'summary_score'
p259
I79
sS'results'
p260
(dp261
S'unapply'
p262
(dp263
S'score'
p264
I65
sS'raw_score'
p265
I0
sS'display'
p266
S'17/26'
p267
ssS'apply'
p268
(dp269
g264
I85
sg265
I0
sg266
S'35/41'
p270
ssS'change'
p271
(dp272
g264
I41
sg265
I0
sg266
S'7/17'
p273
ssS'query'
p274
(dp275
g264
I91
sg265
I0
sg266
S'59/65'
p276
ssssVOpera Mini 5
p277
(dp278
S'summary_display'
p279
S'26/149'
p280
sS'total_runs'
p281
L4L
sS'summary_score'
p282
I17
sS'results'
p283
(dp284
S'unapply'
p285
(dp286
S'score'
p287
I100
sS'raw_score'
p288
I0
sS'display'
p289
S'26/26'
p290
ssS'apply'
p291
(dp292
g287
I0
sg288
I0
sg289
S'0/41'
p293
ssS'change'
p294
(dp295
g287
I0
sg288
I0
sg289
S'0/17'
p296
ssS'query'
p297
(dp298
g287
I0
sg288
I0
sg289
S'0/65'
p299
ssssVFirefox (Namoroka) 3
p300
(dp301
S'summary_display'
p302
S'117/149'
p303
sS'total_runs'
p304
L48L
sS'summary_score'
p305
I79
sS'results'
p306
(dp307
S'unapply'
p308
(dp309
S'score'
p310
I65
sS'raw_score'
p311
I0
sS'display'
p312
S'17/26'
p313
ssS'apply'
p314
(dp315
g310
I83
sg311
I0
sg312
S'34/41'
p316
ssS'change'
p317
(dp318
g310
I41
sg311
I0
sg312
S'7/17'
p319
ssS'query'
p320
(dp321
g310
I91
sg311
I0
sg312
S'59/65'
p322
ssssVIE 8
p323
(dp324
S'summary_display'
p325
S'99/149'
p326
sS'total_runs'
p327
L474L
sS'summary_score'
p328
I66
sS'results'
p329
(dp330
S'unapply'
p331
(dp332
S'score'
p333
I54
sS'raw_score'
p334
I0
sS'display'
p335
S'14/26'
p336
ssS'apply'
p337
(dp338
g333
I59
sg334
I0
sg335
S'24/41'
p339
ssS'change'
p340
(dp341
g333
I29
sg334
I0
sg335
S'5/17'
p342
ssS'query'
p343
(dp344
g333
I86
sg334
I0
sg335
S'56/65'
p345
ssssVLunascape 4
p346
(dp347
S'summary_display'
p348
S'111/149'
p349
sS'total_runs'
p350
L1L
sS'summary_score'
p351
I74
sS'results'
p352
(dp353
S'unapply'
p354
(dp355
S'score'
p356
I35
sS'raw_score'
p357
I0
sS'display'
p358
S'9/26'
p359
ssS'apply'
p360
(dp361
g356
I85
sg357
I0
sg358
S'35/41'
p362
ssS'change'
p363
(dp364
g356
I100
sg357
I0
sg358
S'17/17'
p365
ssS'query'
p366
(dp367
g356
I77
sg357
I0
sg358
S'50/65'
p368
ssssVOpera 10
p369
(dp370
S'summary_display'
p371
S'89/149'
p372
sS'total_runs'
p373
L1263L
sS'summary_score'
p374
I60
sS'results'
p375
(dp376
S'unapply'
p377
(dp378
S'score'
p379
I50
sS'raw_score'
p380
I0
sS'display'
p381
S'13/26'
p382
ssS'apply'
p383
(dp384
g379
I63
sg380
I0
sg381
S'26/41'
p385
ssS'change'
p386
(dp387
g379
I41
sg380
I0
sg381
S'7/17'
p388
ssS'query'
p389
(dp390
g379
I66
sg380
I0
sg381
S'43/65'
p391
ssssVMaemo Browser 1
p392
(dp393
S'summary_display'
p394
S'118/149'
p395
sS'total_runs'
p396
L1L
sS'summary_score'
p397
I79
sS'results'
p398
(dp399
S'unapply'
p400
(dp401
S'score'
p402
I65
sS'raw_score'
p403
I0
sS'display'
p404
S'17/26'
p405
ssS'apply'
p406
(dp407
g402
I83
sg403
I0
sg404
S'34/41'
p408
ssS'change'
p409
(dp410
g402
I41
sg403
I0
sg404
S'7/17'
p411
ssS'query'
p412
(dp413
g402
I92
sg403
I0
sg404
S'60/65'
p414
ssssVMidori 0
p415
(dp416
S'summary_display'
p417
S'125/149'
p418
sS'total_runs'
p419
L19L
sS'summary_score'
p420
I84
sS'results'
p421
(dp422
S'unapply'
p423
(dp424
S'score'
p425
I73
sS'raw_score'
p426
I0
sS'display'
p427
S'19/26'
p428
ssS'apply'
p429
(dp430
g425
I95
sg426
I0
sg427
S'39/41'
p431
ssS'change'
p432
(dp433
g425
I100
sg426
I0
sg427
S'17/17'
p434
ssS'query'
p435
(dp436
g425
I77
sg426
I0
sg427
S'50/65'
p437
ssssVOther
p438
(dp439
S'summary_display'
p440
S'123/149'
p441
sS'total_runs'
p442
L65L
sS'summary_score'
p443
I83
sS'results'
p444
(dp445
S'unapply'
p446
(dp447
S'score'
p448
I69
sS'raw_score'
p449
I0
sS'display'
p450
S'18/26'
p451
ssS'apply'
p452
(dp453
g448
I95
sg449
I0
sg450
S'39/41'
p454
ssS'change'
p455
(dp456
g448
I100
sg449
I0
sg450
S'17/17'
p457
ssS'query'
p458
(dp459
g448
I75
sg449
I0
sg450
S'49/65'
p460
ssssVIE 6
p461
(dp462
S'summary_display'
p463
S'99/149'
p464
sS'total_runs'
p465
L104L
sS'summary_score'
p466
I66
sS'results'
p467
(dp468
S'unapply'
p469
(dp470
S'score'
p471
I54
sS'raw_score'
p472
I0
sS'display'
p473
S'14/26'
p474
ssS'apply'
p475
(dp476
g471
I59
sg472
I0
sg473
S'24/41'
p477
ssS'change'
p478
(dp479
g471
I29
sg472
I0
sg473
S'5/17'
p480
ssS'query'
p481
(dp482
g471
I86
sg472
I0
sg473
S'56/65'
p483
ssssVIE 7
p484
(dp485
S'summary_display'
p486
S'99/149'
p487
sS'total_runs'
p488
L207L
sS'summary_score'
p489
I66
sS'results'
p490
(dp491
S'unapply'
p492
(dp493
S'score'
p494
I54
sS'raw_score'
p495
I0
sS'display'
p496
S'14/26'
p497
ssS'apply'
p498
(dp499
g494
I59
sg495
I0
sg496
S'24/41'
p500
ssS'change'
p501
(dp502
g494
I29
sg495
I0
sg496
S'5/17'
p503
ssS'query'
p504
(dp505
g494
I86
sg495
I0
sg496
S'56/65'
p506
ssssVIE 4
p507
(dp508
S'summary_display'
p509
S'64/149'
p510
sS'total_runs'
p511
L1L
sS'summary_score'
p512
I43
sS'results'
p513
(dp514
S'unapply'
p515
(dp516
S'score'
p517
I4
sS'raw_score'
p518
I0
sS'display'
p519
S'1/26'
p520
ssS'apply'
p521
(dp522
g517
I71
sg518
I0
sg519
S'29/41'
p523
ssS'change'
p524
(dp525
g517
I0
sg518
I0
sg519
S'0/17'
p526
ssS'query'
p527
(dp528
g517
I52
sg518
I0
sg519
S'34/65'
p529
ssssVFirefox 2
p530
(dp531
S'summary_display'
p532
S'117/149'
p533
sS'total_runs'
p534
L50L
sS'summary_score'
p535
I79
sS'results'
p536
(dp537
S'unapply'
p538
(dp539
S'score'
p540
I65
sS'raw_score'
p541
I0
sS'display'
p542
S'17/26'
p543
ssS'apply'
p544
(dp545
g540
I83
sg541
I0
sg542
S'34/41'
p546
ssS'change'
p547
(dp548
g540
I41
sg541
I0
sg542
S'7/17'
p549
ssS'query'
p550
(dp551
g540
I91
sg541
I0
sg542
S'59/65'
p552
ssssVFirefox 3
p553
(dp554
S'summary_display'
p555
S'117/149'
p556
sS'total_runs'
p557
L4610L
sS'summary_score'
p558
I79
sS'results'
p559
(dp560
S'unapply'
p561
(dp562
S'score'
p563
I65
sS'raw_score'
p564
I0
sS'display'
p565
S'17/26'
p566
ssS'apply'
p567
(dp568
g563
I83
sg564
I0
sg565
S'34/41'
p569
ssS'change'
p570
(dp571
g563
I41
sg564
I0
sg565
S'7/17'
p572
ssS'query'
p573
(dp574
g563
I91
sg564
I0
sg565
S'59/65'
p575
ssssVChrome 4
p576
(dp577
S'summary_display'
p578
S'129/149'
p579
sS'total_runs'
p580
L1045L
sS'summary_score'
p581
I87
sS'results'
p582
(dp583
S'unapply'
p584
(dp585
S'score'
p586
I88
sS'raw_score'
p587
I0
sS'display'
p588
S'23/26'
p589
ssS'apply'
p590
(dp591
g586
I95
sg587
I0
sg588
S'39/41'
p592
ssS'change'
p593
(dp594
g586
I100
sg587
I0
sg588
S'17/17'
p595
ssS'query'
p596
(dp597
g586
I77
sg587
I0
sg588
S'50/65'
p598
ssssVFirefox 1
p599
(dp600
S'summary_display'
p601
S'117/149'
p602
sS'total_runs'
p603
L5L
sS'summary_score'
p604
I79
sS'results'
p605
(dp606
S'unapply'
p607
(dp608
S'score'
p609
I65
sS'raw_score'
p610
I0
sS'display'
p611
S'17/26'
p612
ssS'apply'
p613
(dp614
g609
I83
sg610
I0
sg611
S'34/41'
p615
ssS'change'
p616
(dp617
g609
I41
sg610
I0
sg611
S'7/17'
p618
ssS'query'
p619
(dp620
g609
I91
sg610
I0
sg611
S'59/65'
p621
ssssVChrome 2
p622
(dp623
S'summary_display'
p624
S'125/149'
p625
sS'total_runs'
p626
L216L
sS'summary_score'
p627
I84
sS'results'
p628
(dp629
S'unapply'
p630
(dp631
S'score'
p632
I73
sS'raw_score'
p633
I0
sS'display'
p634
S'19/26'
p635
ssS'apply'
p636
(dp637
g632
I95
sg633
I0
sg634
S'39/41'
p638
ssS'change'
p639
(dp640
g632
I100
sg633
I0
sg634
S'17/17'
p641
ssS'query'
p642
(dp643
g632
I77
sg633
I0
sg634
S'50/65'
p644
ssssVChrome 3
p645
(dp646
S'summary_display'
p647
S'126/149'
p648
sS'total_runs'
p649
L555L
sS'summary_score'
p650
I85
sS'results'
p651
(dp652
S'unapply'
p653
(dp654
S'score'
p655
I77
sS'raw_score'
p656
I0
sS'display'
p657
S'20/26'
p658
ssS'apply'
p659
(dp660
g655
I95
sg656
I0
sg657
S'39/41'
p661
ssS'change'
p662
(dp663
g655
I100
sg656
I0
sg657
S'17/17'
p664
ssS'query'
p665
(dp666
g655
I77
sg656
I0
sg657
S'50/65'
p667
ssssVChrome 0
p668
(dp669
S'summary_display'
p670
S'104/149'
p671
sS'total_runs'
p672
L3L
sS'summary_score'
p673
I70
sS'results'
p674
(dp675
S'unapply'
p676
(dp677
S'score'
p678
I35
sS'raw_score'
p679
I0
sS'display'
p680
S'9/26'
p681
ssS'apply'
p682
(dp683
g678
I68
sg679
I0
sg680
S'28/41'
p684
ssS'change'
p685
(dp686
g678
I100
sg679
I0
sg680
S'17/17'
p687
ssS'query'
p688
(dp689
g678
I77
sg679
I0
sg680
S'50/65'
p690
ssssVChrome 1
p691
(dp692
S'summary_display'
p693
S'104/149'
p694
sS'total_runs'
p695
L10L
sS'summary_score'
p696
I70
sS'results'
p697
(dp698
S'unapply'
p699
(dp700
S'score'
p701
I35
sS'raw_score'
p702
I0
sS'display'
p703
S'9/26'
p704
ssS'apply'
p705
(dp706
g701
I68
sg702
I0
sg703
S'28/41'
p707
ssS'change'
p708
(dp709
g701
I100
sg702
I0
sg703
S'17/17'
p710
ssS'query'
p711
(dp712
g701
I77
sg702
I0
sg703
S'50/65'
p713
ssssVIE 11
p714
(dp715
S'summary_display'
p716
S'101/149'
p717
sS'total_runs'
p718
L1L
sS'summary_score'
p719
I68
sS'results'
p720
(dp721
S'unapply'
p722
(dp723
S'score'
p724
I54
sS'raw_score'
p725
I0
sS'display'
p726
S'14/26'
p727
ssS'apply'
p728
(dp729
g724
I59
sg725
I0
sg726
S'24/41'
p730
ssS'change'
p731
(dp732
g724
I29
sg725
I0
sg726
S'5/17'
p733
ssS'query'
p734
(dp735
g724
I89
sg725
I0
sg726
S'58/65'
p736
ssssVNokia 97
p737
(dp738
S'summary_display'
p739
S'100/149'
p740
sS'total_runs'
p741
L2L
sS'summary_score'
p742
I67
sS'results'
p743
(dp744
S'unapply'
p745
(dp746
S'score'
p747
I31
sS'raw_score'
p748
I0
sS'display'
p749
S'8/26'
p750
ssS'apply'
p751
(dp752
g747
I68
sg748
I0
sg749
S'28/41'
p753
ssS'change'
p754
(dp755
g747
I100
sg748
I0
sg749
S'17/17'
p756
ssS'query'
p757
(dp758
g747
I72
sg748
I0
sg749
S'47/65'
p759
ssssVNetFront 3
p760
(dp761
S'summary_display'
p762
S'117/149'
p763
sS'total_runs'
p764
L2L
sS'summary_score'
p765
I79
sS'results'
p766
(dp767
S'unapply'
p768
(dp769
S'score'
p770
I65
sS'raw_score'
p771
I0
sS'display'
p772
S'17/26'
p773
ssS'apply'
p774
(dp775
g770
I83
sg771
I0
sg772
S'34/41'
p776
ssS'change'
p777
(dp778
g770
I41
sg771
I0
sg772
S'7/17'
p779
ssS'query'
p780
(dp781
g770
I91
sg771
I0
sg772
S'59/65'
p782
ssssVSafari 4
p783
(dp784
S'summary_display'
p785
S'125/149'
p786
sS'total_runs'
p787
L984L
sS'summary_score'
p788
I84
sS'results'
p789
(dp790
S'unapply'
p791
(dp792
S'score'
p793
I73
sS'raw_score'
p794
I0
sS'display'
p795
S'19/26'
p796
ssS'apply'
p797
(dp798
g793
I95
sg794
I0
sg795
S'39/41'
p799
ssS'change'
p800
(dp801
g793
I100
sg794
I0
sg795
S'17/17'
p802
ssS'query'
p803
(dp804
g793
I77
sg794
I0
sg795
S'50/65'
p805
ssssVVodafone 1
p806
(dp807
S'summary_display'
p808
S'117/149'
p809
sS'total_runs'
p810
L1L
sS'summary_score'
p811
I79
sS'results'
p812
(dp813
S'unapply'
p814
(dp815
S'score'
p816
I65
sS'raw_score'
p817
I0
sS'display'
p818
S'17/26'
p819
ssS'apply'
p820
(dp821
g816
I83
sg817
I0
sg818
S'34/41'
p822
ssS'change'
p823
(dp824
g816
I41
sg817
I0
sg818
S'7/17'
p825
ssS'query'
p826
(dp827
g816
I91
sg817
I0
sg818
S'59/65'
p828
ssssViPhone 3
p829
(dp830
S'summary_display'
p831
S'118/149'
p832
sS'total_runs'
p833
L108L
sS'summary_score'
p834
I79
sS'results'
p835
(dp836
S'unapply'
p837
(dp838
S'score'
p839
I65
sS'raw_score'
p840
I0
sS'display'
p841
S'17/26'
p842
ssS'apply'
p843
(dp844
g839
I83
sg840
I0
sg841
S'34/41'
p845
ssS'change'
p846
(dp847
g839
I100
sg840
I0
sg841
S'17/17'
p848
ssS'query'
p849
(dp850
g839
I77
sg840
I0
sg841
S'50/65'
p851
ssssViPhone 2
p852
(dp853
S'summary_display'
p854
S'104/149'
p855
sS'total_runs'
p856
L8L
sS'summary_score'
p857
I70
sS'results'
p858
(dp859
S'unapply'
p860
(dp861
S'score'
p862
I35
sS'raw_score'
p863
I0
sS'display'
p864
S'9/26'
p865
ssS'apply'
p866
(dp867
g862
I68
sg863
I0
sg864
S'28/41'
p868
ssS'change'
p869
(dp870
g862
I100
sg863
I0
sg864
S'17/17'
p871
ssS'query'
p872
(dp873
g862
I77
sg863
I0
sg864
S'50/65'
p874
ssssVEpiphany 2
p875
(dp876
S'summary_display'
p877
S'117/149'
p878
sS'total_runs'
p879
L7L
sS'summary_score'
p880
I79
sS'results'
p881
(dp882
S'unapply'
p883
(dp884
S'score'
p885
I65
sS'raw_score'
p886
I0
sS'display'
p887
S'17/26'
p888
ssS'apply'
p889
(dp890
g885
I83
sg886
I0
sg887
S'34/41'
p891
ssS'change'
p892
(dp893
g885
I41
sg886
I0
sg887
S'7/17'
p894
ssS'query'
p895
(dp896
g885
I91
sg886
I0
sg887
S'59/65'
p897
ssssVChrome Frame (IE 6) 4
p898
(dp899
S'summary_display'
p900
S'129/149'
p901
sS'total_runs'
p902
L2L
sS'summary_score'
p903
I87
sS'results'
p904
(dp905
S'unapply'
p906
(dp907
S'score'
p908
I88
sS'raw_score'
p909
I0
sS'display'
p910
S'23/26'
p911
ssS'apply'
p912
(dp913
g908
I95
sg909
I0
sg910
S'39/41'
p914
ssS'change'
p915
(dp916
g908
I100
sg909
I0
sg910
S'17/17'
p917
ssS'query'
p918
(dp919
g908
I77
sg909
I0
sg910
S'50/65'
p920
ssssVAvant 1
p921
(dp922
S'summary_display'
p923
S'96/149'
p924
sS'total_runs'
p925
L13L
sS'summary_score'
p926
I64
sS'results'
p927
(dp928
S'unapply'
p929
(dp930
S'score'
p931
I42
sS'raw_score'
p932
I0
sS'display'
p933
S'11/26'
p934
ssS'apply'
p935
(dp936
g931
I59
sg932
I0
sg933
S'24/41'
p937
ssS'change'
p938
(dp939
g931
I29
sg932
I0
sg933
S'5/17'
p940
ssS'query'
p941
(dp942
g931
I86
sg932
I0
sg933
S'56/65'
p943
ssssVIron 2
p944
(dp945
S'summary_display'
p946
S'125/149'
p947
sS'total_runs'
p948
L8L
sS'summary_score'
p949
I84
sS'results'
p950
(dp951
S'unapply'
p952
(dp953
S'score'
p954
I73
sS'raw_score'
p955
I0
sS'display'
p956
S'19/26'
p957
ssS'apply'
p958
(dp959
g954
I95
sg955
I0
sg956
S'39/41'
p960
ssS'change'
p961
(dp962
g954
I100
sg955
I0
sg956
S'17/17'
p963
ssS'query'
p964
(dp965
g954
I77
sg955
I0
sg956
S'50/65'
p966
ssssVIron 3
p967
(dp968
S'summary_display'
p969
S'129/149'
p970
sS'total_runs'
p971
L55L
sS'summary_score'
p972
I87
sS'results'
p973
(dp974
S'unapply'
p975
(dp976
S'score'
p977
I88
sS'raw_score'
p978
I0
sS'display'
p979
S'23/26'
p980
ssS'apply'
p981
(dp982
g977
I95
sg978
I0
sg979
S'39/41'
p983
ssS'change'
p984
(dp985
g977
I100
sg978
I0
sg979
S'17/17'
p986
ssS'query'
p987
(dp988
g977
I77
sg978
I0
sg979
S'50/65'
p989
ssssVSwiftfox 3
p990
(dp991
S'summary_display'
p992
S'117/149'
p993
sS'total_runs'
p994
L9L
sS'summary_score'
p995
I79
sS'results'
p996
(dp997
S'unapply'
p998
(dp999
S'score'
p1000
I65
sS'raw_score'
p1001
I0
sS'display'
p1002
S'17/26'
p1003
ssS'apply'
p1004
(dp1005
g1000
I83
sg1001
I0
sg1002
S'34/41'
p1006
ssS'change'
p1007
(dp1008
g1000
I41
sg1001
I0
sg1002
S'7/17'
p1009
ssS'query'
p1010
(dp1011
g1000
I91
sg1001
I0
sg1002
S'59/65'
p1012
ssssVIceweasel 3
p1013
(dp1014
S'summary_display'
p1015
S'117/149'
p1016
sS'total_runs'
p1017
L54L
sS'summary_score'
p1018
I79
sS'results'
p1019
(dp1020
S'unapply'
p1021
(dp1022
S'score'
p1023
I65
sS'raw_score'
p1024
I0
sS'display'
p1025
S'17/26'
p1026
ssS'apply'
p1027
(dp1028
g1023
I83
sg1024
I0
sg1025
S'34/41'
p1029
ssS'change'
p1030
(dp1031
g1023
I41
sg1024
I0
sg1025
S'7/17'
p1032
ssS'query'
p1033
(dp1034
g1023
I91
sg1024
I0
sg1025
S'59/65'
p1035
ssssVFluid 0
p1036
(dp1037
S'summary_display'
p1038
S'125/149'
p1039
sS'total_runs'
p1040
L1L
sS'summary_score'
p1041
I84
sS'results'
p1042
(dp1043
S'unapply'
p1044
(dp1045
S'score'
p1046
I73
sS'raw_score'
p1047
I0
sS'display'
p1048
S'19/26'
p1049
ssS'apply'
p1050
(dp1051
g1046
I95
sg1047
I0
sg1048
S'39/41'
p1052
ssS'change'
p1053
(dp1054
g1046
I100
sg1047
I0
sg1048
S'17/17'
p1055
ssS'query'
p1056
(dp1057
g1046
I77
sg1047
I0
sg1048
S'50/65'
p1058
ssssS'total_runs'
p1059
L10760L
sVSeaMonkey 2
p1060
(dp1061
S'summary_display'
p1062
S'117/149'
p1063
sS'total_runs'
p1064
L27L
sS'summary_score'
p1065
I79
sS'results'
p1066
(dp1067
S'unapply'
p1068
(dp1069
S'score'
p1070
I65
sS'raw_score'
p1071
I0
sS'display'
p1072
S'17/26'
p1073
ssS'apply'
p1074
(dp1075
g1070
I83
sg1071
I0
sg1072
S'34/41'
p1076
ssS'change'
p1077
(dp1078
g1070
I41
sg1071
I0
sg1072
S'7/17'
p1079
ssS'query'
p1080
(dp1081
g1070
I91
sg1071
I0
sg1072
S'59/65'
p1082
ssssVWii 9
p1083
(dp1084
S'summary_display'
p1085
S'0/149'
p1086
sS'total_runs'
p1087
L2L
sS'summary_score'
p1088
I0
sS'results'
p1089
(dp1090
S'unapply'
p1091
(dp1092
S'score'
p1093
I0
sS'raw_score'
p1094
I0
sS'display'
p1095
S'0/26'
p1096
ssS'apply'
p1097
(dp1098
g1093
I0
sg1094
I0
sg1095
S'0/41'
p1099
ssS'change'
p1100
(dp1101
g1093
I0
sg1094
I0
sg1095
S'0/17'
p1102
ssS'query'
p1103
(dp1104
g1093
I0
sg1094
I0
sg1095
S'0/65'
p1105
ssssVStainless 0
p1106
(dp1107
S'summary_display'
p1108
S'125/149'
p1109
sS'total_runs'
p1110
L5L
sS'summary_score'
p1111
I84
sS'results'
p1112
(dp1113
S'unapply'
p1114
(dp1115
S'score'
p1116
I73
sS'raw_score'
p1117
I0
sS'display'
p1118
S'19/26'
p1119
ssS'apply'
p1120
(dp1121
g1116
I95
sg1117
I0
sg1118
S'39/41'
p1122
ssS'change'
p1123
(dp1124
g1116
I100
sg1117
I0
sg1118
S'17/17'
p1125
ssS'query'
p1126
(dp1127
g1116
I77
sg1117
I0
sg1118
S'50/65'
p1128
ssssVFlock 1
p1129
(dp1130
S'summary_display'
p1131
S'117/149'
p1132
sS'total_runs'
p1133
L2L
sS'summary_score'
p1134
I79
sS'results'
p1135
(dp1136
S'unapply'
p1137
(dp1138
S'score'
p1139
I65
sS'raw_score'
p1140
I0
sS'display'
p1141
S'17/26'
p1142
ssS'apply'
p1143
(dp1144
g1139
I83
sg1140
I0
sg1141
S'34/41'
p1145
ssS'change'
p1146
(dp1147
g1139
I41
sg1140
I0
sg1141
S'7/17'
p1148
ssS'query'
p1149
(dp1150
g1139
I91
sg1140
I0
sg1141
S'59/65'
p1151
ssssVFirefox (Shiretoko) 3
p1152
(dp1153
S'summary_display'
p1154
S'117/149'
p1155
sS'total_runs'
p1156
L176L
sS'summary_score'
p1157
I79
sS'results'
p1158
(dp1159
S'unapply'
p1160
(dp1161
S'score'
p1162
I65
sS'raw_score'
p1163
I0
sS'display'
p1164
S'17/26'
p1165
ssS'apply'
p1166
(dp1167
g1162
I83
sg1163
I0
sg1164
S'34/41'
p1168
ssS'change'
p1169
(dp1170
g1162
I41
sg1163
I0
sg1164
S'7/17'
p1171
ssS'query'
p1172
(dp1173
g1162
I91
sg1163
I0
sg1164
S'59/65'
p1174
ssssVFennec 1
p1175
(dp1176
S'summary_display'
p1177
S'117/149'
p1178
sS'total_runs'
p1179
L6L
sS'summary_score'
p1180
I79
sS'results'
p1181
(dp1182
S'unapply'
p1183
(dp1184
S'score'
p1185
I65
sS'raw_score'
p1186
I0
sS'display'
p1187
S'17/26'
p1188
ssS'apply'
p1189
(dp1190
g1185
I83
sg1186
I0
sg1187
S'34/41'
p1191
ssS'change'
p1192
(dp1193
g1185
I41
sg1186
I0
sg1187
S'7/17'
p1194
ssS'query'
p1195
(dp1196
g1185
I91
sg1186
I0
sg1187
S'59/65'
p1197
ssssVNokia 5800
p1198
(dp1199
S'summary_display'
p1200
S'100/149'
p1201
sS'total_runs'
p1202
L3L
sS'summary_score'
p1203
I67
sS'results'
p1204
(dp1205
S'unapply'
p1206
(dp1207
S'score'
p1208
I31
sS'raw_score'
p1209
I0
sS'display'
p1210
S'8/26'
p1211
ssS'apply'
p1212
(dp1213
g1208
I68
sg1209
I0
sg1210
S'28/41'
p1214
ssS'change'
p1215
(dp1216
g1208
I100
sg1209
I0
sg1210
S'17/17'
p1217
ssS'query'
p1218
(dp1219
g1208
I72
sg1209
I0
sg1210
S'47/65'
p1220
ssssVFlock 2
p1221
(dp1222
S'summary_display'
p1223
S'117/149'
p1224
sS'total_runs'
p1225
L6L
sS'summary_score'
p1226
I79
sS'results'
p1227
(dp1228
S'unapply'
p1229
(dp1230
S'score'
p1231
I65
sS'raw_score'
p1232
I0
sS'display'
p1233
S'17/26'
p1234
ssS'apply'
p1235
(dp1236
g1231
I83
sg1232
I0
sg1233
S'34/41'
p1237
ssS'change'
p1238
(dp1239
g1231
I41
sg1232
I0
sg1233
S'7/17'
p1240
ssS'query'
p1241
(dp1242
g1231
I91
sg1232
I0
sg1233
S'59/65'
p1243
ssssVKonqueror 3
p1244
(dp1245
S'summary_display'
p1246
S'0/149'
p1247
sS'total_runs'
p1248
L10L
sS'summary_score'
p1249
I0
sS'results'
p1250
(dp1251
S'unapply'
p1252
(dp1253
S'score'
p1254
I0
sS'raw_score'
p1255
I0
sS'display'
p1256
S'0/26'
p1257
ssS'apply'
p1258
(dp1259
g1254
I0
sg1255
I0
sg1256
S'0/41'
p1260
ssS'change'
p1261
(dp1262
g1254
I0
sg1255
I0
sg1256
S'0/17'
p1263
ssS'query'
p1264
(dp1265
g1254
I0
sg1255
I0
sg1256
S'0/65'
p1266
ssssVFirefox (Minefield) 3
p1267
(dp1268
S'summary_display'
p1269
S'117/149'
p1270
sS'total_runs'
p1271
L182L
sS'summary_score'
p1272
I79
sS'results'
p1273
(dp1274
S'unapply'
p1275
(dp1276
S'score'
p1277
I65
sS'raw_score'
p1278
I0
sS'display'
p1279
S'17/26'
p1280
ssS'apply'
p1281
(dp1282
g1277
I83
sg1278
I0
sg1279
S'34/41'
p1283
ssS'change'
p1284
(dp1285
g1277
I41
sg1278
I0
sg1279
S'7/17'
p1286
ssS'query'
p1287
(dp1288
g1277
I91
sg1278
I0
sg1279
S'59/65'
p1289
ssssVChrome 5
p1290
(dp1291
S'summary_display'
p1292
S'129/149'
p1293
sS'total_runs'
p1294
L2L
sS'summary_score'
p1295
I87
sS'results'
p1296
(dp1297
S'unapply'
p1298
(dp1299
S'score'
p1300
I88
sS'raw_score'
p1301
I0
sS'display'
p1302
S'23/26'
p1303
ssS'apply'
p1304
(dp1305
g1300
I95
sg1301
I0
sg1302
S'39/41'
p1306
ssS'change'
p1307
(dp1308
g1300
I100
sg1301
I0
sg1302
S'17/17'
p1309
ssS'query'
p1310
(dp1311
g1300
I77
sg1301
I0
sg1302
S'50/65'
p1312
ssssVSleipnir 2
p1313
(dp1314
S'summary_display'
p1315
S'99/149'
p1316
sS'total_runs'
p1317
L15L
sS'summary_score'
p1318
I66
sS'results'
p1319
(dp1320
S'unapply'
p1321
(dp1322
S'score'
p1323
I54
sS'raw_score'
p1324
I0
sS'display'
p1325
S'14/26'
p1326
ssS'apply'
p1327
(dp1328
g1323
I59
sg1324
I0
sg1325
S'24/41'
p1329
ssS'change'
p1330
(dp1331
g1323
I29
sg1324
I0
sg1325
S'5/17'
p1332
ssS'query'
p1333
(dp1334
g1323
I86
sg1324
I0
sg1325
S'56/65'
p1335
ssssVQtWeb 3
p1336
(dp1337
S'summary_display'
p1338
S'111/149'
p1339
sS'total_runs'
p1340
L1L
sS'summary_score'
p1341
I74
sS'results'
p1342
(dp1343
S'unapply'
p1344
(dp1345
S'score'
p1346
I35
sS'raw_score'
p1347
I0
sS'display'
p1348
S'9/26'
p1349
ssS'apply'
p1350
(dp1351
g1346
I85
sg1347
I0
sg1348
S'35/41'
p1352
ssS'change'
p1353
(dp1354
g1346
I100
sg1347
I0
sg1348
S'17/17'
p1355
ssS'query'
p1356
(dp1357
g1346
I77
sg1347
I0
sg1348
S'50/65'
p1358
ssssVKonqueror 4
p1359
(dp1360
S'summary_display'
p1361
S'0/149'
p1362
sS'total_runs'
p1363
L27L
sS'summary_score'
p1364
I0
sS'results'
p1365
(dp1366
S'unapply'
p1367
(dp1368
S'score'
p1369
I0
sS'raw_score'
p1370
I0
sS'display'
p1371
S'0/26'
p1372
ssS'apply'
p1373
(dp1374
g1369
I0
sg1370
I0
sg1371
S'0/41'
p1375
ssS'change'
p1376
(dp1377
g1369
I0
sg1370
I0
sg1371
S'0/17'
p1378
ssS'query'
p1379
(dp1380
g1369
I0
sg1370
I0
sg1371
S'0/65'
p1381
ssssVCamino 2
p1382
(dp1383
S'summary_display'
p1384
S'117/149'
p1385
sS'total_runs'
p1386
L6L
sS'summary_score'
p1387
I79
sS'results'
p1388
(dp1389
S'unapply'
p1390
(dp1391
S'score'
p1392
I65
sS'raw_score'
p1393
I0
sS'display'
p1394
S'17/26'
p1395
ssS'apply'
p1396
(dp1397
g1392
I83
sg1393
I0
sg1394
S'34/41'
p1398
ssS'change'
p1399
(dp1400
g1392
I41
sg1393
I0
sg1394
S'7/17'
p1401
ssS'query'
p1402
(dp1403
g1392
I91
sg1393
I0
sg1394
S'59/65'
p1404
ssssVCamino 1
p1405
(dp1406
S'summary_display'
p1407
S'117/149'
p1408
sS'total_runs'
p1409
L15L
sS'summary_score'
p1410
I79
sS'results'
p1411
(dp1412
S'unapply'
p1413
(dp1414
S'score'
p1415
I65
sS'raw_score'
p1416
I0
sS'display'
p1417
S'17/26'
p1418
ssS'apply'
p1419
(dp1420
g1415
I83
sg1416
I0
sg1417
S'34/41'
p1421
ssS'change'
p1422
(dp1423
g1415
I41
sg1416
I0
sg1417
S'7/17'
p1424
ssS'query'
p1425
(dp1426
g1415
I91
sg1416
I0
sg1417
S'59/65'
p1427
ssssVJasmine 1
p1428
(dp1429
S'summary_display'
p1430
S'145/149'
p1431
sS'total_runs'
p1432
L2L
sS'summary_score'
p1433
I97
sS'results'
p1434
(dp1435
S'unapply'
p1436
(dp1437
S'score'
p1438
I88
sS'raw_score'
p1439
I0
sS'display'
p1440
S'23/26'
p1441
ssS'apply'
p1442
(dp1443
g1438
I98
sg1439
I0
sg1440
S'40/41'
p1444
ssS'change'
p1445
(dp1446
g1438
I100
sg1439
I0
sg1440
S'17/17'
p1447
ssS'query'
p1448
(dp1449
g1438
I100
sg1439
I0
sg1440
S'65/65'
p1450
ssssVArora 0
p1451
(dp1452
S'summary_display'
p1453
S'111/149'
p1454
sS'total_runs'
p1455
L26L
sS'summary_score'
p1456
I74
sS'results'
p1457
(dp1458
S'unapply'
p1459
(dp1460
S'score'
p1461
I35
sS'raw_score'
p1462
I0
sS'display'
p1463
S'9/26'
p1464
ssS'apply'
p1465
(dp1466
g1461
I85
sg1462
I0
sg1463
S'35/41'
p1467
ssS'change'
p1468
(dp1469
g1461
I100
sg1462
I0
sg1463
S'17/17'
p1470
ssS'query'
p1471
(dp1472
g1461
I77
sg1462
I0
sg1463
S'50/65'
p1473
ssssVAndroid 1
p1474
(dp1475
S'summary_display'
p1476
S'118/149'
p1477
sS'total_runs'
p1478
L39L
sS'summary_score'
p1479
I79
sS'results'
p1480
(dp1481
S'unapply'
p1482
(dp1483
S'score'
p1484
I65
sS'raw_score'
p1485
I0
sS'display'
p1486
S'17/26'
p1487
ssS'apply'
p1488
(dp1489
g1484
I83
sg1485
I0
sg1486
S'34/41'
p1490
ssS'change'
p1491
(dp1492
g1484
I100
sg1485
I0
sg1486
S'17/17'
p1493
ssS'query'
p1494
(dp1495
g1484
I77
sg1485
I0
sg1486
S'50/65'
p1496
ssssVAndroid 2
p1497
(dp1498
S'summary_display'
p1499
S'129/149'
p1500
sS'total_runs'
p1501
L12L
sS'summary_score'
p1502
I87
sS'results'
p1503
(dp1504
S'unapply'
p1505
(dp1506
S'score'
p1507
I88
sS'raw_score'
p1508
I0
sS'display'
p1509
S'23/26'
p1510
ssS'apply'
p1511
(dp1512
g1507
I95
sg1508
I0
sg1509
S'39/41'
p1513
ssS'change'
p1514
(dp1515
g1507
I100
sg1508
I0
sg1509
S'17/17'
p1516
ssS'query'
p1517
(dp1518
g1507
I77
sg1508
I0
sg1509
S'50/65'
p1519
ssssVIron 4
p1520
(dp1521
S'summary_display'
p1522
S'129/149'
p1523
sS'total_runs'
p1524
L11L
sS'summary_score'
p1525
I87
sS'results'
p1526
(dp1527
S'unapply'
p1528
(dp1529
S'score'
p1530
I88
sS'raw_score'
p1531
I0
sS'display'
p1532
S'23/26'
p1533
ssS'apply'
p1534
(dp1535
g1530
I95
sg1531
I0
sg1532
S'39/41'
p1536
ssS'change'
p1537
(dp1538
g1530
I100
sg1531
I0
sg1532
S'17/17'
p1539
ssS'query'
p1540
(dp1541
g1530
I77
sg1531
I0
sg1532
S'50/65'
p1542
ssssVPalm Pre 1
p1543
(dp1544
S'summary_display'
p1545
S'129/149'
p1546
sS'total_runs'
p1547
L7L
sS'summary_score'
p1548
I87
sS'results'
p1549
(dp1550
S'unapply'
p1551
(dp1552
S'score'
p1553
I88
sS'raw_score'
p1554
I0
sS'display'
p1555
S'23/26'
p1556
ssS'apply'
p1557
(dp1558
g1553
I95
sg1554
I0
sg1555
S'39/41'
p1559
ssS'change'
p1560
(dp1561
g1553
I100
sg1554
I0
sg1555
S'17/17'
p1562
ssS'query'
p1563
(dp1564
g1553
I77
sg1554
I0
sg1555
S'50/65'
p1565
ssssVKazehakase 0
p1566
(dp1567
S'summary_display'
p1568
S'117/149'
p1569
sS'total_runs'
p1570
L1L
sS'summary_score'
p1571
I79
sS'results'
p1572
(dp1573
S'unapply'
p1574
(dp1575
S'score'
p1576
I65
sS'raw_score'
p1577
I0
sS'display'
p1578
S'17/26'
p1579
ssS'apply'
p1580
(dp1581
g1576
I83
sg1577
I0
sg1578
S'34/41'
p1582
ssS'change'
p1583
(dp1584
g1576
I41
sg1577
I0
sg1578
S'7/17'
p1585
ssS'query'
p1586
(dp1587
g1576
I91
sg1577
I0
sg1578
S'59/65'
p1588
ssssVVienna 2
p1589
(dp1590
S'summary_display'
p1591
S'123/149'
p1592
sS'total_runs'
p1593
L3L
sS'summary_score'
p1594
I83
sS'results'
p1595
(dp1596
S'unapply'
p1597
(dp1598
S'score'
p1599
I73
sS'raw_score'
p1600
I0
sS'display'
p1601
S'19/26'
p1602
ssS'apply'
p1603
(dp1604
g1599
I90
sg1600
I0
sg1601
S'37/41'
p1605
ssS'change'
p1606
(dp1607
g1599
I100
sg1600
I0
sg1601
S'17/17'
p1608
ssS'query'
p1609
(dp1610
g1599
I77
sg1600
I0
sg1601
S'50/65'
p1611
ssssVOpera Mini 4
p1612
(dp1613
S'summary_display'
p1614
S'26/149'
p1615
sS'total_runs'
p1616
L21L
sS'summary_score'
p1617
I17
sS'results'
p1618
(dp1619
S'unapply'
p1620
(dp1621
S'score'
p1622
I100
sS'raw_score'
p1623
I0
sS'display'
p1624
S'26/26'
p1625
ssS'apply'
p1626
(dp1627
g1622
I0
sg1623
I0
sg1624
S'0/41'
p1628
ssS'change'
p1629
(dp1630
g1622
I0
sg1623
I0
sg1624
S'0/17'
p1631
ssS'query'
p1632
(dp1633
g1622
I0
sg1623
I0
sg1624
S'0/65'
p1634
ssssVLunascape 6
p1635
(dp1636
S'summary_display'
p1637
S'117/149'
p1638
sS'total_runs'
p1639
L11L
sS'summary_score'
p1640
I79
sS'results'
p1641
(dp1642
S'unapply'
p1643
(dp1644
S'score'
p1645
I65
sS'raw_score'
p1646
I0
sS'display'
p1647
S'17/26'
p1648
ssS'apply'
p1649
(dp1650
g1645
I83
sg1646
I0
sg1647
S'34/41'
p1651
ssS'change'
p1652
(dp1653
g1645
I41
sg1646
I0
sg1647
S'7/17'
p1654
ssS'query'
p1655
(dp1656
g1645
I91
sg1646
I0
sg1647
S'59/65'
p1657
ssssVChrome Frame (IE 7) 4
p1658
(dp1659
S'summary_display'
p1660
S'129/149'
p1661
sS'total_runs'
p1662
L4L
sS'summary_score'
p1663
I87
sS'results'
p1664
(dp1665
S'unapply'
p1666
(dp1667
S'score'
p1668
I88
sS'raw_score'
p1669
I0
sS'display'
p1670
S'23/26'
p1671
ssS'apply'
p1672
(dp1673
g1668
I95
sg1669
I0
sg1670
S'39/41'
p1674
ssS'change'
p1675
(dp1676
g1668
I100
sg1669
I0
sg1670
S'17/17'
p1677
ssS'query'
p1678
(dp1679
g1668
I77
sg1669
I0
sg1670
S'50/65'
p1680
ssssVOpera 8
p1681
(dp1682
S'summary_display'
p1683
S'0/149'
p1684
sS'total_runs'
p1685
L1L
sS'summary_score'
p1686
I0
sS'results'
p1687
(dp1688
S'unapply'
p1689
(dp1690
S'score'
p1691
I0
sS'raw_score'
p1692
I0
sS'display'
p1693
S'0/26'
p1694
ssS'apply'
p1695
(dp1696
g1691
I0
sg1692
I0
sg1693
S'0/41'
p1697
ssS'change'
p1698
(dp1699
g1691
I0
sg1692
I0
sg1693
S'0/17'
p1700
ssS'query'
p1701
(dp1702
g1691
I0
sg1692
I0
sg1693
S'0/65'
p1703
ssssVOpera 9
p1704
(dp1705
S'summary_display'
p1706
S'88/149'
p1707
sS'total_runs'
p1708
L55L
sS'summary_score'
p1709
I59
sS'results'
p1710
(dp1711
S'unapply'
p1712
(dp1713
S'score'
p1714
I50
sS'raw_score'
p1715
I0
sS'display'
p1716
S'13/26'
p1717
ssS'apply'
p1718
(dp1719
g1714
I63
sg1715
I0
sg1716
S'26/41'
p1720
ssS'change'
p1721
(dp1722
g1714
I41
sg1715
I0
sg1716
S'7/17'
p1723
ssS'query'
p1724
(dp1725
g1714
I65
sg1715
I0
sg1716
S'42/65'
p1726
ssssVLunascape 5
p1727
(dp1728
S'summary_display'
p1729
S'117/149'
p1730
sS'total_runs'
p1731
L10L
sS'summary_score'
p1732
I79
sS'results'
p1733
(dp1734
S'unapply'
p1735
(dp1736
S'score'
p1737
I65
sS'raw_score'
p1738
I0
sS'display'
p1739
S'17/26'
p1740
ssS'apply'
p1741
(dp1742
g1737
I83
sg1738
I0
sg1739
S'34/41'
p1743
ssS'change'
p1744
(dp1745
g1737
I41
sg1738
I0
sg1739
S'7/17'
p1746
ssS'query'
p1747
(dp1748
g1737
I91
sg1738
I0
sg1739
S'59/65'
p1749
ssssVGranParadiso 3
p1750
(dp1751
S'summary_display'
p1752
S'117/149'
p1753
sS'total_runs'
p1754
L1L
sS'summary_score'
p1755
I79
sS'results'
p1756
(dp1757
S'unapply'
p1758
(dp1759
S'score'
p1760
I65
sS'raw_score'
p1761
I0
sS'display'
p1762
S'17/26'
p1763
ssS'apply'
p1764
(dp1765
g1760
I83
sg1761
I0
sg1762
S'34/41'
p1766
ssS'change'
p1767
(dp1768
g1760
I41
sg1761
I0
sg1762
S'7/17'
p1769
ssS'query'
p1770
(dp1771
g1760
I91
sg1761
I0
sg1762
S'59/65'
p1772
ssssViCab 4
p1773
(dp1774
S'summary_display'
p1775
S'125/149'
p1776
sS'total_runs'
p1777
L1L
sS'summary_score'
p1778
I84
sS'results'
p1779
(dp1780
S'unapply'
p1781
(dp1782
S'score'
p1783
I73
sS'raw_score'
p1784
I0
sS'display'
p1785
S'19/26'
p1786
ssS'apply'
p1787
(dp1788
g1783
I95
sg1784
I0
sg1785
S'39/41'
p1789
ssS'change'
p1790
(dp1791
g1783
I100
sg1784
I0
sg1785
S'17/17'
p1792
ssS'query'
p1793
(dp1794
g1783
I77
sg1784
I0
sg1785
S'50/65'
p1795
ssssVGaleon 2
p1796
(dp1797
S'summary_display'
p1798
S'117/149'
p1799
sS'total_runs'
p1800
L2L
sS'summary_score'
p1801
I79
sS'results'
p1802
(dp1803
S'unapply'
p1804
(dp1805
S'score'
p1806
I65
sS'raw_score'
p1807
I0
sS'display'
p1808
S'17/26'
p1809
ssS'apply'
p1810
(dp1811
g1806
I83
sg1807
I0
sg1808
S'34/41'
p1812
ssS'change'
p1813
(dp1814
g1806
I41
sg1807
I0
sg1808
S'7/17'
p1815
ssS'query'
p1816
(dp1817
g1806
I91
sg1807
I0
sg1808
S'59/65'
p1818
ssssVMicroB 0
p1819
(dp1820
S'summary_display'
p1821
S'118/149'
p1822
sS'total_runs'
p1823
L1L
sS'summary_score'
p1824
I79
sS'results'
p1825
(dp1826
S'unapply'
p1827
(dp1828
S'score'
p1829
I65
sS'raw_score'
p1830
I0
sS'display'
p1831
S'17/26'
p1832
ssS'apply'
p1833
(dp1834
g1829
I83
sg1830
I0
sg1831
S'34/41'
p1835
ssS'change'
p1836
(dp1837
g1829
I41
sg1830
I0
sg1831
S'7/17'
p1838
ssS'query'
p1839
(dp1840
g1829
I92
sg1830
I0
sg1831
S'60/65'
p1841
ssssVNetNewsWire 3
p1842
(dp1843
S'summary_display'
p1844
S'125/149'
p1845
sS'total_runs'
p1846
L10L
sS'summary_score'
p1847
I84
sS'results'
p1848
(dp1849
S'unapply'
p1850
(dp1851
S'score'
p1852
I73
sS'raw_score'
p1853
I0
sS'display'
p1854
S'19/26'
p1855
ssS'apply'
p1856
(dp1857
g1852
I95
sg1853
I0
sg1854
S'39/41'
p1858
ssS'change'
p1859
(dp1860
g1852
I100
sg1853
I0
sg1854
S'17/17'
p1861
ssS'query'
p1862
(dp1863
g1852
I77
sg1853
I0
sg1854
S'50/65'
p1864
ssssVSeaMonkey 1
p1865
(dp1866
S'summary_display'
p1867
S'117/149'
p1868
sS'total_runs'
p1869
L9L
sS'summary_score'
p1870
I79
sS'results'
p1871
(dp1872
S'unapply'
p1873
(dp1874
S'score'
p1875
I65
sS'raw_score'
p1876
I0
sS'display'
p1877
S'17/26'
p1878
ssS'apply'
p1879
(dp1880
g1875
I83
sg1876
I0
sg1877
S'34/41'
p1881
ssS'change'
p1882
(dp1883
g1875
I41
sg1876
I0
sg1877
S'7/17'
p1884
ssS'query'
p1885
(dp1886
g1875
I91
sg1876
I0
sg1877
S'59/65'
p1887
ssssVIceweasel 2
p1888
(dp1889
S'summary_display'
p1890
S'117/149'
p1891
sS'total_runs'
p1892
L1L
sS'summary_score'
p1893
I79
sS'results'
p1894
(dp1895
S'unapply'
p1896
(dp1897
S'score'
p1898
I65
sS'raw_score'
p1899
I0
sS'display'
p1900
S'17/26'
p1901
ssS'apply'
p1902
(dp1903
g1898
I83
sg1899
I0
sg1900
S'34/41'
p1904
ssS'change'
p1905
(dp1906
g1898
I41
sg1899
I0
sg1900
S'7/17'
p1907
ssS'query'
p1908
(dp1909
g1898
I91
sg1899
I0
sg1900
S'59/65'
p1910
ssssVUzbl 0
p1911
(dp1912
S'summary_display'
p1913
S'129/149'
p1914
sS'total_runs'
p1915
L24L
sS'summary_score'
p1916
I87
sS'results'
p1917
(dp1918
S'unapply'
p1919
(dp1920
S'score'
p1921
I88
sS'raw_score'
p1922
I0
sS'display'
p1923
S'23/26'
p1924
ssS'apply'
p1925
(dp1926
g1921
I95
sg1922
I0
sg1923
S'39/41'
p1927
ssS'change'
p1928
(dp1929
g1921
I100
sg1922
I0
sg1923
S'17/17'
p1930
ssS'query'
p1931
(dp1932
g1921
I77
sg1922
I0
sg1923
S'50/65'
p1933
ssss.