(dp0
S'total_runs'
p1
L658L
sVChrome 4.0
p2
(dp3
g1
L658L
sS'score'
p4
I9
sS'results'
p5
(dp6
S'unapply'
p7
(dp8
g4
I9
sS'median'
p9
L0L
sS'display'
p10
S'23/26'
p11
ssS'apply'
p12
(dp13
g4
I10
sg9
L0L
sg10
S'39/41'
p14
ssS'change'
p15
(dp16
g4
I10
sg9
L0L
sg10
S'17/17'
p17
ssS'query'
p18
(dp19
g4
I8
sg9
L0L
sg10
S'50/65'
p20
sssg10
S'129/149'
p21
ss.