(dp0
S'Safari'
p1
(dp2
S'total_runs'
p3
L93L
sS'score'
p4
I8
sS'results'
p5
(dp6
S'unapply'
p7
(dp8
g4
I7
sS'median'
p9
L0L
sS'display'
p10
S'19/26'
p11
ssS'apply'
p12
(dp13
g4
I10
sg9
L0L
sg10
S'39/41'
p14
ssS'change'
p15
(dp16
g4
I10
sg9
L0L
sg10
S'17/17'
p17
ssS'query'
p18
(dp19
g4
I8
sg9
L0L
sg10
S'50/65'
p20
sssg10
S'125/149'
p21
ssS'Konqueror'
p22
(dp23
S'total_runs'
p24
L5L
sS'score'
p25
I0
sS'results'
p26
(dp27
S'unapply'
p28
(dp29
g25
I0
sS'median'
p30
L0L
sS'display'
p31
S'0/26'
p32
ssS'apply'
p33
(dp34
g25
I0
sg30
L0L
sg31
S'0/41'
p35
ssS'change'
p36
(dp37
g25
I0
sg30
L0L
sg31
S'0/17'
p38
ssS'query'
p39
(dp40
g25
I0
sg30
L0L
sg31
S'0/65'
p41
sssg31
S'0/149'
p42
ssS'Firefox'
p43
(dp44
S'total_runs'
p45
L259L
sS'score'
p46
I8
sS'results'
p47
(dp48
S'unapply'
p49
(dp50
g46
I7
sS'median'
p51
L0L
sS'display'
p52
S'17/26'
p53
ssS'apply'
p54
(dp55
g46
I8
sg51
L0L
sg52
S'34/41'
p56
ssS'change'
p57
(dp58
g46
I4
sg51
L0L
sg52
S'7/17'
p59
ssS'query'
p60
(dp61
g46
I9
sg51
L0L
sg52
S'59/65'
p62
sssg52
S'117/149'
p63
ssS'Iron'
p64
(dp65
S'total_runs'
p66
L1L
sS'score'
p67
I8
sS'results'
p68
(dp69
S'unapply'
p70
(dp71
g67
I7
sS'median'
p72
L0L
sS'display'
p73
S'19/26'
p74
ssS'apply'
p75
(dp76
g67
I10
sg72
L0L
sg73
S'39/41'
p77
ssS'change'
p78
(dp79
g67
I10
sg72
L0L
sg73
S'17/17'
p80
ssS'query'
p81
(dp82
g67
I8
sg72
L0L
sg73
S'50/65'
p83
sssg73
S'125/149'
p84
ssS'Chrome'
p85
(dp86
g3
L99L
sg4
I9
sg5
(dp87
g7
(dp88
g4
I9
sg9
L0L
sg10
S'23/26'
p89
ssg12
(dp90
g4
I10
sg9
L0L
sg10
S'39/41'
p91
ssg15
(dp92
g4
I10
sg9
L0L
sg10
S'17/17'
p93
ssg18
(dp94
g4
I8
sg9
L0L
sg10
S'50/65'
p95
sssg10
S'129/149'
p96
ssS'SeaMonkey'
p97
(dp98
S'total_runs'
p99
L2L
sS'score'
p100
I8
sS'results'
p101
(dp102
S'unapply'
p103
(dp104
g100
I7
sS'median'
p105
I0
sS'display'
p106
S'18/26'
p107
ssS'apply'
p108
(dp109
g100
I8
sg105
I0
sg106
S'34/41'
p110
ssS'change'
p111
(dp112
g100
I4
sg105
I0
sg106
S'7/17'
p113
ssS'query'
p114
(dp115
g100
I9
sg105
I0
sg106
S'59/65'
p116
sssg106
S'118/149'
p117
ssS'Camino'
p118
(dp119
S'total_runs'
p120
L3L
sS'score'
p121
I8
sS'results'
p122
(dp123
S'unapply'
p124
(dp125
g121
I7
sS'median'
p126
L0L
sS'display'
p127
S'17/26'
p128
ssS'apply'
p129
(dp130
g121
I8
sg126
L0L
sg127
S'34/41'
p131
ssS'change'
p132
(dp133
g121
I4
sg126
L0L
sg127
S'7/17'
p134
ssS'query'
p135
(dp136
g121
I9
sg126
L0L
sg127
S'59/65'
p137
sssg127
S'117/149'
p138
ssS'Maxthon'
p139
(dp140
S'total_runs'
p141
L1L
sS'score'
p142
I8
sS'results'
p143
(dp144
S'unapply'
p145
(dp146
g142
I7
sS'median'
p147
L0L
sS'display'
p148
S'19/26'
p149
ssS'apply'
p150
(dp151
g142
I10
sg147
L0L
sg148
S'39/41'
p152
ssS'change'
p153
(dp154
g142
I10
sg147
L0L
sg148
S'17/17'
p155
ssS'query'
p156
(dp157
g142
I8
sg147
L0L
sg148
S'50/65'
p158
sssg148
S'125/149'
p159
ssS'Opera'
p160
(dp161
S'total_runs'
p162
L37L
sS'score'
p163
I6
sS'results'
p164
(dp165
S'unapply'
p166
(dp167
g163
I5
sS'median'
p168
L0L
sS'display'
p169
S'13/26'
p170
ssS'apply'
p171
(dp172
g163
I6
sg168
L0L
sg169
S'26/41'
p173
ssS'change'
p174
(dp175
g163
I4
sg168
L0L
sg169
S'7/17'
p176
ssS'query'
p177
(dp178
g163
I7
sg168
L0L
sg169
S'43/65'
p179
sssg169
S'89/149'
p180
ssS'NetNewsWire'
p181
(dp182
S'total_runs'
p183
L2L
sS'score'
p184
I8
sS'results'
p185
(dp186
S'unapply'
p187
(dp188
g184
I7
sS'median'
p189
L0L
sS'display'
p190
S'19/26'
p191
ssS'apply'
p192
(dp193
g184
I10
sg189
L0L
sg190
S'39/41'
p194
ssS'change'
p195
(dp196
g184
I10
sg189
L0L
sg190
S'17/17'
p197
ssS'query'
p198
(dp199
g184
I8
sg189
L0L
sg190
S'50/65'
p200
sssg190
S'125/149'
p201
ssS'iPhone'
p202
(dp203
S'total_runs'
p204
L18L
sS'score'
p205
I8
sS'results'
p206
(dp207
S'unapply'
p208
(dp209
g205
I7
sS'median'
p210
I0
sS'display'
p211
S'17/26'
p212
ssS'apply'
p213
(dp214
g205
I8
sg210
I0
sg211
S'34/41'
p215
ssS'change'
p216
(dp217
g205
I10
sg210
I0
sg211
S'17/17'
p218
ssS'query'
p219
(dp220
g205
I8
sg210
I0
sg211
S'50/65'
p221
sssg211
S'118/149'
p222
ssS'Arora'
p223
(dp224
S'total_runs'
p225
L4L
sS'score'
p226
I7
sS'results'
p227
(dp228
S'unapply'
p229
(dp230
g226
I3
sS'median'
p231
L0L
sS'display'
p232
S'9/26'
p233
ssS'apply'
p234
(dp235
g226
I9
sg231
L0L
sg232
S'35/41'
p236
ssS'change'
p237
(dp238
g226
I10
sg231
L0L
sg232
S'17/17'
p239
ssS'query'
p240
(dp241
g226
I8
sg231
L0L
sg232
S'50/65'
p242
sssg232
S'111/149'
p243
ssS'Midori'
p244
(dp245
S'total_runs'
p246
L1L
sS'score'
p247
I8
sS'results'
p248
(dp249
S'unapply'
p250
(dp251
g247
I7
sS'median'
p252
I0
sS'display'
p253
S'19/26'
p254
ssS'apply'
p255
(dp256
g247
I10
sg252
I0
sg253
S'39/41'
p257
ssS'change'
p258
(dp259
g247
I10
sg252
I0
sg253
S'17/17'
p260
ssS'query'
p261
(dp262
g247
I8
sg252
I0
sg253
S'50/65'
p263
sssg253
S'125/149'
p264
ssS'Android'
p265
(dp266
S'total_runs'
p267
L4L
sS'score'
p268
I8
sS'results'
p269
(dp270
S'unapply'
p271
(dp272
g268
I7
sS'median'
p273
L0L
sS'display'
p274
S'17/26'
p275
ssS'apply'
p276
(dp277
g268
I8
sg273
L0L
sg274
S'34/41'
p278
ssS'change'
p279
(dp280
g268
I10
sg273
L0L
sg274
S'17/17'
p281
ssS'query'
p282
(dp283
g268
I8
sg273
L0L
sg274
S'50/65'
p284
sssg274
S'118/149'
p285
ssS'IE'
p286
(dp287
S'total_runs'
p288
L39L
sS'score'
p289
I7
sS'results'
p290
(dp291
S'unapply'
p292
(dp293
g289
I5
sS'median'
p294
L0L
sS'display'
p295
S'14/26'
p296
ssS'apply'
p297
(dp298
g289
I6
sg294
L0L
sg295
S'24/41'
p299
ssS'change'
p300
(dp301
g289
I3
sg294
L0L
sg295
S'5/17'
p302
ssS'query'
p303
(dp304
g289
I9
sg294
L0L
sg295
S'56/65'
p305
sssg295
S'99/149'
p306
ssS'Fennec'
p307
(dp308
S'total_runs'
p309
L1L
sS'score'
p310
I8
sS'results'
p311
(dp312
S'unapply'
p313
(dp314
g310
I7
sS'median'
p315
I0
sS'display'
p316
S'17/26'
p317
ssS'apply'
p318
(dp319
g310
I8
sg315
I0
sg316
S'34/41'
p320
ssS'change'
p321
(dp322
g310
I4
sg315
I0
sg316
S'7/17'
p323
ssS'query'
p324
(dp325
g310
I9
sg315
I0
sg316
S'59/65'
p326
sssg316
S'117/149'
p327
ssS'Iceweasel'
p328
(dp329
S'total_runs'
p330
L2L
sS'score'
p331
I8
sS'results'
p332
(dp333
S'unapply'
p334
(dp335
g331
I7
sS'median'
p336
L0L
sS'display'
p337
S'17/26'
p338
ssS'apply'
p339
(dp340
g331
I8
sg336
L0L
sg337
S'34/41'
p341
ssS'change'
p342
(dp343
g331
I4
sg336
L0L
sg337
S'7/17'
p344
ssS'query'
p345
(dp346
g331
I9
sg336
L0L
sg337
S'59/65'
p347
sssg337
S'117/149'
p348
ss.