(dp0
VIE 6.0
p1
(dp2
S'total_runs'
p3
L2L
sS'score'
p4
I7
sS'results'
p5
(dp6
S'unapply'
p7
(dp8
g4
I5
sS'median'
p9
L0L
sS'display'
p10
S'14/26'
p11
ssS'apply'
p12
(dp13
g4
I6
sg9
L0L
sg10
S'24/41'
p14
ssS'change'
p15
(dp16
g4
I3
sg9
L0L
sg10
S'5/17'
p17
ssS'query'
p18
(dp19
g4
I9
sg9
L0L
sg10
S'56/65'
p20
sssg10
S'99/149'
p21
ssVKonqueror 3.5
p22
(dp23
S'total_runs'
p24
L1L
sS'score'
p25
I0
sS'results'
p26
(dp27
S'unapply'
p28
(dp29
g25
I0
sS'median'
p30
I0
sS'display'
p31
S'0/26'
p32
ssS'apply'
p33
(dp34
g25
I0
sg30
I0
sg31
S'0/41'
p35
ssS'change'
p36
(dp37
g25
I0
sg30
I0
sg31
S'0/17'
p38
ssS'query'
p39
(dp40
g25
I0
sg30
I0
sg31
S'0/65'
p41
sssg31
S'0/149'
p42
ssVIE 7.0
p43
(dp44
S'total_runs'
p45
L3L
sS'score'
p46
I7
sS'results'
p47
(dp48
S'unapply'
p49
(dp50
g46
I5
sS'median'
p51
L0L
sS'display'
p52
S'14/26'
p53
ssS'apply'
p54
(dp55
g46
I6
sg51
L0L
sg52
S'24/41'
p56
ssS'change'
p57
(dp58
g46
I3
sg51
L0L
sg52
S'5/17'
p59
ssS'query'
p60
(dp61
g46
I9
sg51
L0L
sg52
S'56/65'
p62
sssg52
S'99/149'
p63
ssVFirefox 3.0.9
p64
(dp65
S'total_runs'
p66
L1L
sS'score'
p67
I8
sS'results'
p68
(dp69
S'unapply'
p70
(dp71
g67
I7
sS'median'
p72
L0L
sS'display'
p73
S'17/26'
p74
ssS'apply'
p75
(dp76
g67
I8
sg72
L0L
sg73
S'33/41'
p77
ssS'change'
p78
(dp79
g67
I4
sg72
L0L
sg73
S'7/17'
p80
ssS'query'
p81
(dp82
g67
I9
sg72
L0L
sg73
S'61/65'
p83
sssg73
S'118/149'
p84
ssVFirefox 3.5.2
p85
(dp86
S'total_runs'
p87
L3L
sS'score'
p88
I8
sS'results'
p89
(dp90
S'unapply'
p91
(dp92
g88
I7
sS'median'
p93
L0L
sS'display'
p94
S'17/26'
p95
ssS'apply'
p96
(dp97
g88
I8
sg93
L0L
sg94
S'34/41'
p98
ssS'change'
p99
(dp100
g88
I4
sg93
L0L
sg94
S'7/17'
p101
ssS'query'
p102
(dp103
g88
I9
sg93
L0L
sg94
S'59/65'
p104
sssg94
S'117/149'
p105
ssVOpera 10.00
p106
(dp107
S'total_runs'
p108
L3L
sS'score'
p109
I6
sS'results'
p110
(dp111
S'unapply'
p112
(dp113
g109
I5
sS'median'
p114
L0L
sS'display'
p115
S'13/26'
p116
ssS'apply'
p117
(dp118
g109
I6
sg114
L0L
sg115
S'26/41'
p119
ssS'change'
p120
(dp121
g109
I4
sg114
L0L
sg115
S'7/17'
p122
ssS'query'
p123
(dp124
g109
I7
sg114
L0L
sg115
S'45/65'
p125
sssg115
S'91/149'
p126
ssVOpera 9.64
p127
(dp128
S'total_runs'
p129
L4L
sS'score'
p130
I6
sS'results'
p131
(dp132
S'unapply'
p133
(dp134
g130
I5
sS'median'
p135
L0L
sS'display'
p136
S'13/26'
p137
ssS'apply'
p138
(dp139
g130
I6
sg135
L0L
sg136
S'26/41'
p140
ssS'change'
p141
(dp142
g130
I4
sg135
L0L
sg136
S'7/17'
p143
ssS'query'
p144
(dp145
g130
I7
sg135
L0L
sg136
S'44/65'
p146
sssg136
S'90/149'
p147
ssVChrome 4.0.206
p148
(dp149
S'total_runs'
p150
L5L
sS'score'
p151
I9
sS'results'
p152
(dp153
S'unapply'
p154
(dp155
g151
I9
sS'median'
p156
L0L
sS'display'
p157
S'23/26'
p158
ssS'apply'
p159
(dp160
g151
I10
sg156
L0L
sg157
S'39/41'
p161
ssS'change'
p162
(dp163
g151
I10
sg156
L0L
sg157
S'17/17'
p164
ssS'query'
p165
(dp166
g151
I8
sg156
L0L
sg157
S'50/65'
p167
sssg157
S'129/149'
p168
ssVFirefox 3.0.14
p169
(dp170
S'total_runs'
p171
L1L
sS'score'
p172
I8
sS'results'
p173
(dp174
S'unapply'
p175
(dp176
g172
I7
sS'median'
p177
L0L
sS'display'
p178
S'17/26'
p179
ssS'apply'
p180
(dp181
g172
I8
sg177
L0L
sg178
S'34/41'
p182
ssS'change'
p183
(dp184
g172
I4
sg177
L0L
sg178
S'7/17'
p185
ssS'query'
p186
(dp187
g172
I9
sg177
L0L
sg178
S'59/65'
p188
sssg178
S'117/149'
p189
ssVChrome 4.0.203
p190
(dp191
S'total_runs'
p192
L2L
sS'score'
p193
I9
sS'results'
p194
(dp195
S'unapply'
p196
(dp197
g193
I9
sS'median'
p198
L0L
sS'display'
p199
S'24/26'
p200
ssS'apply'
p201
(dp202
g193
I9
sg198
L0L
sg199
S'23/25'
p203
ssS'change'
p204
(dp205
g193
I10
sg198
L0L
sg199
S'17/17'
p206
ssS'query'
p207
(dp208
g193
I8
sg198
L0L
sg199
S'51/65'
p209
sssg199
S'115/133'
p210
ssVFirefox 3.0.13
p211
(dp212
S'total_runs'
p213
L2L
sS'score'
p214
I6
sS'results'
p215
(dp216
S'unapply'
p217
(dp218
g214
I5
sS'median'
p219
L0L
sS'display'
p220
S'13/26'
p221
ssS'apply'
p222
(dp223
g214
I9
sg219
L0L
sg220
S'22/25'
p224
ssS'change'
p225
(dp226
g214
I2
sg219
L0L
sg220
S'4/17'
p227
ssS'query'
p228
(dp229
g214
I6
sg219
L0L
sg220
S'37/65'
p230
sssg220
S'76/133'
p231
ssViPhone 2.2
p232
(dp233
S'total_runs'
p234
L1L
sS'score'
p235
I7
sS'results'
p236
(dp237
S'unapply'
p238
(dp239
g235
I3
sS'median'
p240
I0
sS'display'
p241
S'9/26'
p242
ssS'apply'
p243
(dp244
g235
I7
sg240
I0
sg241
S'28/41'
p245
ssS'change'
p246
(dp247
g235
I10
sg240
I0
sg241
S'17/17'
p248
ssS'query'
p249
(dp250
g235
I8
sg240
I0
sg241
S'50/65'
p251
sssg241
S'104/149'
p252
ssVFirefox 3.0
p253
(dp254
S'total_runs'
p255
L6L
sS'score'
p256
I8
sS'results'
p257
(dp258
S'unapply'
p259
(dp260
g256
I7
sS'median'
p261
L0L
sS'display'
p262
S'17/26'
p263
ssS'apply'
p264
(dp265
g256
I8
sg261
L0L
sg262
S'34/41'
p266
ssS'change'
p267
(dp268
g256
I4
sg261
L0L
sg262
S'7/17'
p269
ssS'query'
p270
(dp271
g256
I9
sg261
L0L
sg262
S'61/65'
p272
sssg262
S'119/149'
p273
ssVChrome 2.0.172
p274
(dp275
S'total_runs'
p276
L1L
sS'score'
p277
I8
sS'results'
p278
(dp279
S'unapply'
p280
(dp281
g277
I7
sS'median'
p282
L0L
sS'display'
p283
S'19/26'
p284
ssS'apply'
p285
(dp286
g277
I10
sg282
L0L
sg283
S'39/41'
p287
ssS'change'
p288
(dp289
g277
I10
sg282
L0L
sg283
S'17/17'
p290
ssS'query'
p291
(dp292
g277
I8
sg282
L0L
sg283
S'50/65'
p293
sssg283
S'125/149'
p294
ssVFirefox 3.0.10
p295
(dp296
S'total_runs'
p297
L2L
sS'score'
p298
I8
sS'results'
p299
(dp300
S'unapply'
p301
(dp302
g298
I7
sS'median'
p303
L0L
sS'display'
p304
S'17/26'
p305
ssS'apply'
p306
(dp307
g298
I8
sg303
L0L
sg304
S'33/41'
p308
ssS'change'
p309
(dp310
g298
I4
sg303
L0L
sg304
S'7/17'
p311
ssS'query'
p312
(dp313
g298
I9
sg303
L0L
sg304
S'61/65'
p314
sssg304
S'118/149'
p315
ssVAndroid 1.5
p316
(dp317
S'total_runs'
p318
L1L
sS'score'
p319
I8
sS'results'
p320
(dp321
S'unapply'
p322
(dp323
g319
I7
sS'median'
p324
L0L
sS'display'
p325
S'17/26'
p326
ssS'apply'
p327
(dp328
g319
I8
sg324
L0L
sg325
S'34/41'
p329
ssS'change'
p330
(dp331
g319
I10
sg324
L0L
sg325
S'17/17'
p332
ssS'query'
p333
(dp334
g319
I8
sg324
L0L
sg325
S'50/65'
p335
sssg325
S'118/149'
p336
ssVChrome 3.0.195
p337
(dp338
S'total_runs'
p339
L2L
sS'score'
p340
I8
sS'results'
p341
(dp342
S'unapply'
p343
(dp344
g340
I8
sS'median'
p345
L0L
sS'display'
p346
S'20/26'
p347
ssS'apply'
p348
(dp349
g340
I10
sg345
L0L
sg346
S'39/41'
p350
ssS'change'
p351
(dp352
g340
I10
sg345
L0L
sg346
S'17/17'
p353
ssS'query'
p354
(dp355
g340
I8
sg345
L0L
sg346
S'50/65'
p356
sssg346
S'126/149'
p357
ssVSafari 4.0.2
p358
(dp359
S'total_runs'
p360
L1L
sS'score'
p361
I8
sS'results'
p362
(dp363
S'unapply'
p364
(dp365
g361
I7
sS'median'
p366
L0L
sS'display'
p367
S'19/26'
p368
ssS'apply'
p369
(dp370
g361
I10
sg366
L0L
sg367
S'39/41'
p371
ssS'change'
p372
(dp373
g361
I10
sg366
L0L
sg367
S'17/17'
p374
ssS'query'
p375
(dp376
g361
I8
sg366
L0L
sg367
S'50/65'
p377
sssg367
S'125/149'
p378
ssVFirefox 3.5
p379
(dp380
S'total_runs'
p381
L7L
sS'score'
p382
I8
sS'results'
p383
(dp384
S'unapply'
p385
(dp386
g382
I7
sS'median'
p387
L0L
sS'display'
p388
S'17/26'
p389
ssS'apply'
p390
(dp391
g382
I8
sg387
L0L
sg388
S'34/41'
p392
ssS'change'
p393
(dp394
g382
I4
sg387
L0L
sg388
S'7/17'
p395
ssS'query'
p396
(dp397
g382
I9
sg387
L0L
sg388
S'59/65'
p398
sssg388
S'117/149'
p399
ssVSafari 3.2
p400
(dp401
S'total_runs'
p402
L3L
sS'score'
p403
I7
sS'results'
p404
(dp405
S'unapply'
p406
(dp407
g403
I3
sS'median'
p408
L0L
sS'display'
p409
S'8/26'
p410
ssS'apply'
p411
(dp412
g403
I7
sg408
L0L
sg409
S'28/41'
p413
ssS'change'
p414
(dp415
g403
I10
sg408
L0L
sg409
S'17/17'
p416
ssS'query'
p417
(dp418
g403
I8
sg408
L0L
sg409
S'50/65'
p419
sssg409
S'103/149'
p420
ssVSafari 3.2.3
p421
(dp422
S'total_runs'
p423
L3L
sS'score'
p424
I7
sS'results'
p425
(dp426
S'unapply'
p427
(dp428
g424
I3
sS'median'
p429
L0L
sS'display'
p430
S'8/26'
p431
ssS'apply'
p432
(dp433
g424
I7
sg429
L0L
sg430
S'28/41'
p434
ssS'change'
p435
(dp436
g424
I10
sg429
L0L
sg430
S'17/17'
p437
ssS'query'
p438
(dp439
g424
I8
sg429
L0L
sg430
S'50/65'
p440
sssg430
S'103/149'
p441
ssVIE 8.0
p442
(dp443
S'total_runs'
p444
L4L
sS'score'
p445
I7
sS'results'
p446
(dp447
S'unapply'
p448
(dp449
g445
I5
sS'median'
p450
L0L
sS'display'
p451
S'14/26'
p452
ssS'apply'
p453
(dp454
g445
I5
sg450
L0L
sg451
S'21/41'
p455
ssS'change'
p456
(dp457
g445
I3
sg450
L0L
sg451
S'5/17'
p458
ssS'query'
p459
(dp460
g445
I9
sg450
L0L
sg451
S'57/65'
p461
sssg451
S'97/149'
p462
ssViPhone 2.2.1
p463
(dp464
S'total_runs'
p465
L1L
sS'score'
p466
I7
sS'results'
p467
(dp468
S'unapply'
p469
(dp470
g466
I3
sS'median'
p471
I0
sS'display'
p472
S'9/26'
p473
ssS'apply'
p474
(dp475
g466
I7
sg471
I0
sg472
S'28/41'
p476
ssS'change'
p477
(dp478
g466
I10
sg471
I0
sg472
S'17/17'
p479
ssS'query'
p480
(dp481
g466
I8
sg471
I0
sg472
S'50/65'
p482
sssg472
S'104/149'
p483
ssVChrome 1.0.154
p484
(dp485
S'total_runs'
p486
L4L
sS'score'
p487
I7
sS'results'
p488
(dp489
S'unapply'
p490
(dp491
g487
I3
sS'median'
p492
L0L
sS'display'
p493
S'8/26'
p494
ssS'apply'
p495
(dp496
g487
I7
sg492
L0L
sg493
S'28/41'
p497
ssS'change'
p498
(dp499
g487
I10
sg492
L0L
sg493
S'17/17'
p500
ssS'query'
p501
(dp502
g487
I8
sg492
L0L
sg493
S'50/65'
p503
sssg493
S'103/149'
p504
ssVSafari 4.0
p505
(dp506
S'total_runs'
p507
L3L
sS'score'
p508
I8
sS'results'
p509
(dp510
S'unapply'
p511
(dp512
g508
I7
sS'median'
p513
L0L
sS'display'
p514
S'17/26'
p515
ssS'apply'
p516
(dp517
g508
I8
sg513
L0L
sg514
S'34/41'
p518
ssS'change'
p519
(dp520
g508
I10
sg513
L0L
sg514
S'17/17'
p521
ssS'query'
p522
(dp523
g508
I8
sg513
L0L
sg514
S'50/65'
p524
sssg514
S'118/149'
p525
ss.