(dp0
S'IE 6.0'
p1
(dp2
S'total_runs'
p3
L4L
sS'score'
p4
I7
sS'results'
p5
(dp6
S'unapply'
p7
(dp8
g4
I5
sS'median'
p9
L0L
sS'display'
p10
S'14/26'
p11
ssS'apply'
p12
(dp13
g4
I6
sg9
L0L
sg10
S'24/41'
p14
ssS'change'
p15
(dp16
g4
I3
sg9
L0L
sg10
S'5/17'
p17
ssS'query'
p18
(dp19
g4
I9
sg9
L0L
sg10
S'56/65'
p20
sssg10
S'99/149'
p21
ssS'Konqueror 3.5'
p22
(dp23
S'total_runs'
p24
L2L
sS'score'
p25
I0
sS'results'
p26
(dp27
S'unapply'
p28
(dp29
g25
I0
sS'median'
p30
L0L
sS'display'
p31
S'0/26'
p32
ssS'apply'
p33
(dp34
g25
I0
sg30
L0L
sg31
S'0/41'
p35
ssS'change'
p36
(dp37
g25
I0
sg30
L0L
sg31
S'0/17'
p38
ssS'query'
p39
(dp40
g25
I0
sg30
L0L
sg31
S'0/65'
p41
sssg31
S'0/149'
p42
ssS'Firefox (Shiretoko) 3.5.4pre'
p43
(dp44
S'total_runs'
p45
L1L
sS'score'
p46
I8
sS'results'
p47
(dp48
S'unapply'
p49
(dp50
g46
I7
sS'median'
p51
I0
sS'display'
p52
S'17/26'
p53
ssS'apply'
p54
(dp55
g46
I8
sg51
I0
sg52
S'34/41'
p56
ssS'change'
p57
(dp58
g46
I4
sg51
I0
sg52
S'7/17'
p59
ssS'query'
p60
(dp61
g46
I9
sg51
I0
sg52
S'59/65'
p62
sssg52
S'117/149'
p63
ssS'Camino 1.6.8'
p64
(dp65
S'total_runs'
p66
L1L
sS'score'
p67
I8
sS'results'
p68
(dp69
S'unapply'
p70
(dp71
g67
I7
sS'median'
p72
I0
sS'display'
p73
S'17/26'
p74
ssS'apply'
p75
(dp76
g67
I8
sg72
I0
sg73
S'34/41'
p77
ssS'change'
p78
(dp79
g67
I4
sg72
I0
sg73
S'7/17'
p80
ssS'query'
p81
(dp82
g67
I9
sg72
I0
sg73
S'59/65'
p83
sssg73
S'117/149'
p84
ssS'Camino 1.6.9'
p85
(dp86
S'total_runs'
p87
L2L
sS'score'
p88
I8
sS'results'
p89
(dp90
S'unapply'
p91
(dp92
g88
I7
sS'median'
p93
L0L
sS'display'
p94
S'17/26'
p95
ssS'apply'
p96
(dp97
g88
I8
sg93
L0L
sg94
S'34/41'
p98
ssS'change'
p99
(dp100
g88
I4
sg93
L0L
sg94
S'7/17'
p101
ssS'query'
p102
(dp103
g88
I9
sg93
L0L
sg94
S'59/65'
p104
sssg94
S'117/149'
p105
ssS'Arora 0.8'
p106
(dp107
S'total_runs'
p108
L1L
sS'score'
p109
I7
sS'results'
p110
(dp111
S'unapply'
p112
(dp113
g109
I3
sS'median'
p114
L0L
sS'display'
p115
S'9/26'
p116
ssS'apply'
p117
(dp118
g109
I9
sg114
L0L
sg115
S'35/41'
p119
ssS'change'
p120
(dp121
g109
I10
sg114
L0L
sg115
S'17/17'
p122
ssS'query'
p123
(dp124
g109
I8
sg114
L0L
sg115
S'50/65'
p125
sssg115
S'111/149'
p126
ssS'Arora 0.9'
p127
(dp128
S'total_runs'
p129
L1L
sS'score'
p130
I7
sS'results'
p131
(dp132
S'unapply'
p133
(dp134
g130
I3
sS'median'
p135
I0
sS'display'
p136
S'9/26'
p137
ssS'apply'
p138
(dp139
g130
I9
sg135
I0
sg136
S'35/41'
p140
ssS'change'
p141
(dp142
g130
I10
sg135
I0
sg136
S'17/17'
p143
ssS'query'
p144
(dp145
g130
I8
sg135
I0
sg136
S'50/65'
p146
sssg136
S'111/149'
p147
ssS'Midori 0.1.9'
p148
(dp149
S'total_runs'
p150
L1L
sS'score'
p151
I8
sS'results'
p152
(dp153
S'unapply'
p154
(dp155
g151
I7
sS'median'
p156
I0
sS'display'
p157
S'19/26'
p158
ssS'apply'
p159
(dp160
g151
I10
sg156
I0
sg157
S'39/41'
p161
ssS'change'
p162
(dp163
g151
I10
sg156
I0
sg157
S'17/17'
p164
ssS'query'
p165
(dp166
g151
I8
sg156
I0
sg157
S'50/65'
p167
sssg157
S'125/149'
p168
ssS'Konqueror 4.3'
p169
(dp170
S'total_runs'
p171
L2L
sS'score'
p172
I7
sS'results'
p173
(dp174
S'unapply'
p175
(dp176
g172
I3
sS'median'
p177
I0
sS'display'
p178
S'9/26'
p179
ssS'apply'
p180
(dp181
g172
I9
sg177
I0
sg178
S'36/41'
p182
ssS'change'
p183
(dp184
g172
I10
sg177
I0
sg178
S'17/17'
p185
ssS'query'
p186
(dp187
g172
I7
sg177
I0
sg178
S'47/65'
p188
sssg178
S'109/149'
p189
ssS'NetNewsWire 3.1.3'
p190
(dp191
S'total_runs'
p192
L1L
sS'score'
p193
I8
sS'results'
p194
(dp195
S'unapply'
p196
(dp197
g193
I7
sS'median'
p198
I0
sS'display'
p199
S'19/26'
p200
ssS'apply'
p201
(dp202
g193
I10
sg198
I0
sg199
S'39/41'
p203
ssS'change'
p204
(dp205
g193
I10
sg198
I0
sg199
S'17/17'
p206
ssS'query'
p207
(dp208
g193
I8
sg198
I0
sg199
S'50/65'
p209
sssg199
S'125/149'
p210
ssS'Firefox 3.0.1'
p211
(dp212
S'total_runs'
p213
L1L
sS'score'
p214
I8
sS'results'
p215
(dp216
S'unapply'
p217
(dp218
g214
I7
sS'median'
p219
I0
sS'display'
p220
S'17/26'
p221
ssS'apply'
p222
(dp223
g214
I8
sg219
I0
sg220
S'34/41'
p224
ssS'change'
p225
(dp226
g214
I4
sg219
I0
sg220
S'7/17'
p227
ssS'query'
p228
(dp229
g214
I9
sg219
I0
sg220
S'59/65'
p230
sssg220
S'117/149'
p231
ssS'IE 7.0'
p232
(dp233
S'total_runs'
p234
L8L
sS'score'
p235
I7
sS'results'
p236
(dp237
S'unapply'
p238
(dp239
g235
I5
sS'median'
p240
L0L
sS'display'
p241
S'14/26'
p242
ssS'apply'
p243
(dp244
g235
I6
sg240
L0L
sg241
S'24/41'
p245
ssS'change'
p246
(dp247
g235
I3
sg240
L0L
sg241
S'5/17'
p248
ssS'query'
p249
(dp250
g235
I9
sg240
L0L
sg241
S'56/65'
p251
sssg241
S'99/149'
p252
ssS'Firefox 3.0.9'
p253
(dp254
S'total_runs'
p255
L2L
sS'score'
p256
I8
sS'results'
p257
(dp258
S'unapply'
p259
(dp260
g256
I7
sS'median'
p261
L0L
sS'display'
p262
S'17/26'
p263
ssS'apply'
p264
(dp265
g256
I8
sg261
L0L
sg262
S'34/41'
p266
ssS'change'
p267
(dp268
g256
I4
sg261
L0L
sg262
S'7/17'
p269
ssS'query'
p270
(dp271
g256
I9
sg261
L0L
sg262
S'61/65'
p272
sssg262
S'119/149'
p273
ssS'Firefox 3.5.1'
p274
(dp275
S'total_runs'
p276
L1L
sS'score'
p277
I8
sS'results'
p278
(dp279
S'unapply'
p280
(dp281
g277
I7
sS'median'
p282
I0
sS'display'
p283
S'17/26'
p284
ssS'apply'
p285
(dp286
g277
I8
sg282
I0
sg283
S'34/41'
p287
ssS'change'
p288
(dp289
g277
I4
sg282
I0
sg283
S'7/17'
p290
ssS'query'
p291
(dp292
g277
I9
sg282
I0
sg283
S'59/65'
p293
sssg283
S'117/149'
p294
ssS'Firefox 3.5.2'
p295
(dp296
S'total_runs'
p297
L14L
sS'score'
p298
I8
sS'results'
p299
(dp300
S'unapply'
p301
(dp302
g298
I7
sS'median'
p303
L0L
sS'display'
p304
S'17/26'
p305
ssS'apply'
p306
(dp307
g298
I8
sg303
L0L
sg304
S'34/41'
p308
ssS'change'
p309
(dp310
g298
I4
sg303
L0L
sg304
S'7/17'
p311
ssS'query'
p312
(dp313
g298
I9
sg303
L0L
sg304
S'59/65'
p314
sssg304
S'117/149'
p315
ssS'Firefox 3.5.3'
p316
(dp317
S'total_runs'
p318
L126L
sS'score'
p319
I8
sS'results'
p320
(dp321
S'unapply'
p322
(dp323
g319
I7
sS'median'
p324
I0
sS'display'
p325
S'17/26'
p326
ssS'apply'
p327
(dp328
g319
I8
sg324
I0
sg325
S'34/41'
p329
ssS'change'
p330
(dp331
g319
I4
sg324
I0
sg325
S'7/17'
p332
ssS'query'
p333
(dp334
g319
I9
sg324
I0
sg325
S'59/65'
p335
sssg325
S'117/149'
p336
ssS'Opera 10.00'
p337
(dp338
S'total_runs'
p339
L18L
sS'score'
p340
I6
sS'results'
p341
(dp342
S'unapply'
p343
(dp344
g340
I5
sS'median'
p345
L0L
sS'display'
p346
S'13/26'
p347
ssS'apply'
p348
(dp349
g340
I6
sg345
L0L
sg346
S'26/41'
p350
ssS'change'
p351
(dp352
g340
I4
sg345
L0L
sg346
S'7/17'
p353
ssS'query'
p354
(dp355
g340
I7
sg345
L0L
sg346
S'43/65'
p356
sssg346
S'89/149'
p357
ssS'Safari 4.0'
p358
(dp359
S'total_runs'
p360
L75L
sS'score'
p361
I8
sS'results'
p362
(dp363
S'unapply'
p364
(dp365
g361
I7
sS'median'
p366
L0L
sS'display'
p367
S'19/26'
p368
ssS'apply'
p369
(dp370
g361
I10
sg366
L0L
sg367
S'39/41'
p371
ssS'change'
p372
(dp373
g361
I10
sg366
L0L
sg367
S'17/17'
p374
ssS'query'
p375
(dp376
g361
I8
sg366
L0L
sg367
S'50/65'
p377
sssg367
S'125/149'
p378
ssS'Opera 9.64'
p379
(dp380
S'total_runs'
p381
L6L
sS'score'
p382
I6
sS'results'
p383
(dp384
S'unapply'
p385
(dp386
g382
I5
sS'median'
p387
L0L
sS'display'
p388
S'13/26'
p389
ssS'apply'
p390
(dp391
g382
I6
sg387
L0L
sg388
S'26/41'
p392
ssS'change'
p393
(dp394
g382
I4
sg387
L0L
sg388
S'7/17'
p395
ssS'query'
p396
(dp397
g382
I7
sg387
L0L
sg388
S'44/65'
p398
sssg388
S'90/149'
p399
ssS'Firefox 3.0.14'
p400
(dp401
S'total_runs'
p402
L13L
sS'score'
p403
I8
sS'results'
p404
(dp405
S'unapply'
p406
(dp407
g403
I7
sS'median'
p408
L0L
sS'display'
p409
S'17/26'
p410
ssS'apply'
p411
(dp412
g403
I8
sg408
L0L
sg409
S'34/41'
p413
ssS'change'
p414
(dp415
g403
I4
sg408
L0L
sg409
S'7/17'
p416
ssS'query'
p417
(dp418
g403
I9
sg408
L0L
sg409
S'59/65'
p419
sssg409
S'117/149'
p420
ssS'iPhone 3.0'
p421
(dp422
S'total_runs'
p423
L6L
sS'score'
p424
I8
sS'results'
p425
(dp426
S'unapply'
p427
(dp428
g424
I7
sS'median'
p429
L0L
sS'display'
p430
S'17/26'
p431
ssS'apply'
p432
(dp433
g424
I8
sg429
L0L
sg430
S'34/41'
p434
ssS'change'
p435
(dp436
g424
I10
sg429
L0L
sg430
S'17/17'
p437
ssS'query'
p438
(dp439
g424
I8
sg429
L0L
sg430
S'50/65'
p440
sssg430
S'118/149'
p441
ssS'iPhone 3.1'
p442
(dp443
S'total_runs'
p444
L7L
sS'score'
p445
I8
sS'results'
p446
(dp447
S'unapply'
p448
(dp449
g445
I7
sS'median'
p450
L0L
sS'display'
p451
S'17/26'
p452
ssS'apply'
p453
(dp454
g445
I8
sg450
L0L
sg451
S'34/41'
p455
ssS'change'
p456
(dp457
g445
I10
sg450
L0L
sg451
S'17/17'
p458
ssS'query'
p459
(dp460
g445
I8
sg450
L0L
sg451
S'50/65'
p461
sssg451
S'118/149'
p462
ssS'Chrome 4.0.206'
p463
(dp464
S'total_runs'
p465
L19L
sS'score'
p466
I9
sS'results'
p467
(dp468
S'unapply'
p469
(dp470
g466
I9
sS'median'
p471
L0L
sS'display'
p472
S'23/26'
p473
ssS'apply'
p474
(dp475
g466
I10
sg471
L0L
sg472
S'39/41'
p476
ssS'change'
p477
(dp478
g466
I10
sg471
L0L
sg472
S'17/17'
p479
ssS'query'
p480
(dp481
g466
I8
sg471
L0L
sg472
S'50/65'
p482
sssg472
S'129/149'
p483
ssS'Chrome 4.0.207'
p484
(dp485
S'total_runs'
p486
L14L
sS'score'
p487
I9
sS'results'
p488
(dp489
S'unapply'
p490
(dp491
g487
I9
sS'median'
p492
I0
sS'display'
p493
S'23/26'
p494
ssS'apply'
p495
(dp496
g487
I10
sg492
I0
sg493
S'39/41'
p497
ssS'change'
p498
(dp499
g487
I10
sg492
I0
sg493
S'17/17'
p500
ssS'query'
p501
(dp502
g487
I8
sg492
I0
sg493
S'50/65'
p503
sssg493
S'129/149'
p504
ssS'Chrome 4.0.205'
p505
(dp506
S'total_runs'
p507
L1L
sS'score'
p508
I9
sS'results'
p509
(dp510
S'unapply'
p511
(dp512
g508
I9
sS'median'
p513
L0L
sS'display'
p514
S'23/26'
p515
ssS'apply'
p516
(dp517
g508
I10
sg513
L0L
sg514
S'39/41'
p518
ssS'change'
p519
(dp520
g508
I10
sg513
L0L
sg514
S'17/17'
p521
ssS'query'
p522
(dp523
g508
I8
sg513
L0L
sg514
S'50/65'
p524
sssg514
S'129/149'
p525
ssS'Chrome 4.0.203'
p526
(dp527
S'total_runs'
p528
L4L
sS'score'
p529
I8
sS'results'
p530
(dp531
S'unapply'
p532
(dp533
g529
I9
sS'median'
p534
L0L
sS'display'
p535
S'24/26'
p536
ssS'apply'
p537
(dp538
g529
I6
sg534
L0L
sg535
S'23/41'
p539
ssS'change'
p540
(dp541
g529
I10
sg534
L0L
sg535
S'17/17'
p542
ssS'query'
p543
(dp544
g529
I8
sg534
L0L
sg535
S'51/65'
p545
sssg535
S'115/149'
p546
ssS'Firefox 3.0.13'
p547
(dp548
S'total_runs'
p549
L8L
sS'score'
p550
I8
sS'results'
p551
(dp552
S'unapply'
p553
(dp554
g550
I7
sS'median'
p555
L0L
sS'display'
p556
S'17/26'
p557
ssS'apply'
p558
(dp559
g550
I8
sg555
L0L
sg556
S'34/41'
p560
ssS'change'
p561
(dp562
g550
I4
sg555
L0L
sg556
S'7/17'
p563
ssS'query'
p564
(dp565
g550
I9
sg555
L0L
sg556
S'59/65'
p566
sssg556
S'117/149'
p567
ssS'Firefox (Shiretoko) 3.5'
p568
(dp569
S'total_runs'
p570
L8L
sS'score'
p571
I8
sS'results'
p572
(dp573
S'unapply'
p574
(dp575
g571
I7
sS'median'
p576
I0
sS'display'
p577
S'17/26'
p578
ssS'apply'
p579
(dp580
g571
I8
sg576
L0L
sg577
S'34/41'
p581
ssS'change'
p582
(dp583
g571
I4
sg576
I0
sg577
S'7/17'
p584
ssS'query'
p585
(dp586
g571
I9
sg576
L0L
sg577
S'59/65'
p587
sssg577
S'117/149'
p588
ssS'Firefox 3.0'
p589
(dp590
S'total_runs'
p591
L28L
sS'score'
p592
I8
sS'results'
p593
(dp594
S'unapply'
p595
(dp596
g592
I7
sS'median'
p597
L0L
sS'display'
p598
S'17/26'
p599
ssS'apply'
p600
(dp601
g592
I8
sg597
L0L
sg598
S'34/41'
p602
ssS'change'
p603
(dp604
g592
I4
sg597
L0L
sg598
S'7/17'
p605
ssS'query'
p606
(dp607
g592
I9
sg597
L0L
sg598
S'59/65'
p608
sssg598
S'117/149'
p609
ssS'Chrome 2.0.172'
p610
(dp611
S'total_runs'
p612
L19L
sS'score'
p613
I8
sS'results'
p614
(dp615
S'unapply'
p616
(dp617
g613
I7
sS'median'
p618
L0L
sS'display'
p619
S'19/26'
p620
ssS'apply'
p621
(dp622
g613
I10
sg618
L0L
sg619
S'39/41'
p623
ssS'change'
p624
(dp625
g613
I10
sg618
L0L
sg619
S'17/17'
p626
ssS'query'
p627
(dp628
g613
I8
sg618
L0L
sg619
S'50/65'
p629
sssg619
S'125/149'
p630
ssS'Chrome 4.0.208'
p631
(dp632
S'total_runs'
p633
L1L
sS'score'
p634
I9
sS'results'
p635
(dp636
S'unapply'
p637
(dp638
g634
I9
sS'median'
p639
I0
sS'display'
p640
S'23/26'
p641
ssS'apply'
p642
(dp643
g634
I10
sg639
I0
sg640
S'39/41'
p644
ssS'change'
p645
(dp646
g634
I10
sg639
I0
sg640
S'17/17'
p647
ssS'query'
p648
(dp649
g634
I8
sg639
I0
sg640
S'50/65'
p650
sssg640
S'129/149'
p651
ssS'Chrome 4.0.209'
p652
(dp653
S'total_runs'
p654
L1L
sS'score'
p655
I9
sS'results'
p656
(dp657
S'unapply'
p658
(dp659
g655
I9
sS'median'
p660
L0L
sS'display'
p661
S'23/26'
p662
ssS'apply'
p663
(dp664
g655
I10
sg660
L0L
sg661
S'39/41'
p665
ssS'change'
p666
(dp667
g655
I10
sg660
L0L
sg661
S'17/17'
p668
ssS'query'
p669
(dp670
g655
I8
sg660
L0L
sg661
S'50/65'
p671
sssg661
S'129/149'
p672
ssS'Maxthon 3.0'
p673
(dp674
S'total_runs'
p675
L1L
sS'score'
p676
I8
sS'results'
p677
(dp678
S'unapply'
p679
(dp680
g676
I7
sS'median'
p681
L0L
sS'display'
p682
S'19/26'
p683
ssS'apply'
p684
(dp685
g676
I10
sg681
L0L
sg682
S'39/41'
p686
ssS'change'
p687
(dp688
g676
I10
sg681
L0L
sg682
S'17/17'
p689
ssS'query'
p690
(dp691
g676
I8
sg681
L0L
sg682
S'50/65'
p692
sssg682
S'125/149'
p693
ssS'Firefox 2.0'
p694
(dp695
S'total_runs'
p696
L2L
sS'score'
p697
I8
sS'results'
p698
(dp699
S'unapply'
p700
(dp701
g697
I7
sS'median'
p702
L0L
sS'display'
p703
S'17/26'
p704
ssS'apply'
p705
(dp706
g697
I8
sg702
L0L
sg703
S'34/41'
p707
ssS'change'
p708
(dp709
g697
I4
sg702
L0L
sg703
S'7/17'
p710
ssS'query'
p711
(dp712
g697
I9
sg702
L0L
sg703
S'60/65'
p713
sssg703
S'118/149'
p714
ssS'iPhone 2.2.1'
p715
(dp716
S'total_runs'
p717
L2L
sS'score'
p718
I7
sS'results'
p719
(dp720
S'unapply'
p721
(dp722
g718
I3
sS'median'
p723
L0L
sS'display'
p724
S'9/26'
p725
ssS'apply'
p726
(dp727
g718
I7
sg723
L0L
sg724
S'28/41'
p728
ssS'change'
p729
(dp730
g718
I10
sg723
L0L
sg724
S'17/17'
p731
ssS'query'
p732
(dp733
g718
I8
sg723
L0L
sg724
S'50/65'
p734
sssg724
S'104/149'
p735
ssS'Opera 9.63'
p736
(dp737
S'total_runs'
p738
L1L
sS'score'
p739
I6
sS'results'
p740
(dp741
S'unapply'
p742
(dp743
g739
I5
sS'median'
p744
L0L
sS'display'
p745
S'13/26'
p746
ssS'apply'
p747
(dp748
g739
I6
sg744
L0L
sg745
S'26/41'
p749
ssS'change'
p750
(dp751
g739
I4
sg744
L0L
sg745
S'7/17'
p752
ssS'query'
p753
(dp754
g739
I6
sg744
L0L
sg745
S'42/65'
p755
sssg745
S'88/149'
p756
ssS'Android 1.5'
p757
(dp758
S'total_runs'
p759
L4L
sS'score'
p760
I8
sS'results'
p761
(dp762
S'unapply'
p763
(dp764
g760
I7
sS'median'
p765
L0L
sS'display'
p766
S'17/26'
p767
ssS'apply'
p768
(dp769
g760
I8
sg765
L0L
sg766
S'34/41'
p770
ssS'change'
p771
(dp772
g760
I10
sg765
L0L
sg766
S'17/17'
p773
ssS'query'
p774
(dp775
g760
I8
sg765
L0L
sg766
S'50/65'
p776
sssg766
S'118/149'
p777
ssS'Chrome 1.0.154'
p778
(dp779
S'total_runs'
p780
L5L
sS'score'
p781
I7
sS'results'
p782
(dp783
S'unapply'
p784
(dp785
g781
I3
sS'median'
p786
L0L
sS'display'
p787
S'8/26'
p788
ssS'apply'
p789
(dp790
g781
I7
sg786
L0L
sg787
S'28/41'
p791
ssS'change'
p792
(dp793
g781
I10
sg786
L0L
sg787
S'17/17'
p794
ssS'query'
p795
(dp796
g781
I8
sg786
L0L
sg787
S'50/65'
p797
sssg787
S'103/149'
p798
ssS'iPhone 2.2'
p799
(dp800
S'total_runs'
p801
L3L
sS'score'
p802
I7
sS'results'
p803
(dp804
S'unapply'
p805
(dp806
g802
I3
sS'median'
p807
L0L
sS'display'
p808
S'9/26'
p809
ssS'apply'
p810
(dp811
g802
I7
sg807
L0L
sg808
S'28/41'
p812
ssS'change'
p813
(dp814
g802
I10
sg807
L0L
sg808
S'17/17'
p815
ssS'query'
p816
(dp817
g802
I8
sg807
L0L
sg808
S'50/65'
p818
sssg808
S'104/149'
p819
ssS'Iceweasel 3.0.11'
p820
(dp821
S'total_runs'
p822
L1L
sS'score'
p823
I8
sS'results'
p824
(dp825
S'unapply'
p826
(dp827
g823
I7
sS'median'
p828
I0
sS'display'
p829
S'17/26'
p830
ssS'apply'
p831
(dp832
g823
I8
sg828
I0
sg829
S'34/41'
p833
ssS'change'
p834
(dp835
g823
I4
sg828
I0
sg829
S'7/17'
p836
ssS'query'
p837
(dp838
g823
I9
sg828
I0
sg829
S'59/65'
p839
sssg829
S'117/149'
p840
ssS'Iron 2.0.178'
p841
(dp842
S'total_runs'
p843
L1L
sS'score'
p844
I8
sS'results'
p845
(dp846
S'unapply'
p847
(dp848
g844
I7
sS'median'
p849
L0L
sS'display'
p850
S'19/26'
p851
ssS'apply'
p852
(dp853
g844
I10
sg849
L0L
sg850
S'39/41'
p854
ssS'change'
p855
(dp856
g844
I10
sg849
L0L
sg850
S'17/17'
p857
ssS'query'
p858
(dp859
g844
I8
sg849
L0L
sg850
S'50/65'
p860
sssg850
S'125/149'
p861
ssS'Safari 4.0.2'
p862
(dp863
S'total_runs'
p864
L3L
sS'score'
p865
I8
sS'results'
p866
(dp867
S'unapply'
p868
(dp869
g865
I7
sS'median'
p870
L0L
sS'display'
p871
S'19/26'
p872
ssS'apply'
p873
(dp874
g865
I10
sg870
L0L
sg871
S'39/41'
p875
ssS'change'
p876
(dp877
g865
I10
sg870
L0L
sg871
S'17/17'
p878
ssS'query'
p879
(dp880
g865
I8
sg870
L0L
sg871
S'50/65'
p881
sssg871
S'125/149'
p882
ssS'Safari 4.0.3'
p883
(dp884
S'total_runs'
p885
L67L
sS'score'
p886
I8
sS'results'
p887
(dp888
S'unapply'
p889
(dp890
g886
I7
sS'median'
p891
I0
sS'display'
p892
S'19/26'
p893
ssS'apply'
p894
(dp895
g886
I10
sg891
I0
sg892
S'39/41'
p896
ssS'change'
p897
(dp898
g886
I10
sg891
I0
sg892
S'17/17'
p899
ssS'query'
p900
(dp901
g886
I8
sg891
I0
sg892
S'50/65'
p902
sssg892
S'125/149'
p903
ssS'iPhone 3.0.1'
p904
(dp905
S'total_runs'
p906
L5L
sS'score'
p907
I8
sS'results'
p908
(dp909
S'unapply'
p910
(dp911
g907
I7
sS'median'
p912
L0L
sS'display'
p913
S'17/26'
p914
ssS'apply'
p915
(dp916
g907
I8
sg912
L0L
sg913
S'34/41'
p917
ssS'change'
p918
(dp919
g907
I10
sg912
L0L
sg913
S'17/17'
p920
ssS'query'
p921
(dp922
g907
I8
sg912
L0L
sg913
S'50/65'
p923
sssg913
S'118/149'
p924
ssS'Opera 10.10'
p925
(dp926
S'total_runs'
p927
L1L
sS'score'
p928
I6
sS'results'
p929
(dp930
S'unapply'
p931
(dp932
g928
I5
sS'median'
p933
I0
sS'display'
p934
S'13/26'
p935
ssS'apply'
p936
(dp937
g928
I6
sg933
I0
sg934
S'26/41'
p938
ssS'change'
p939
(dp940
g928
I4
sg933
I0
sg934
S'7/17'
p941
ssS'query'
p942
(dp943
g928
I7
sg933
I0
sg934
S'43/65'
p944
sssg934
S'89/149'
p945
ssS'iPhone 3.1.1'
p946
(dp947
S'total_runs'
p948
L2L
sS'score'
p949
I8
sS'results'
p950
(dp951
S'unapply'
p952
(dp953
g949
I7
sS'median'
p954
L0L
sS'display'
p955
S'17/26'
p956
ssS'apply'
p957
(dp958
g949
I8
sg954
L0L
sg955
S'34/41'
p959
ssS'change'
p960
(dp961
g949
I10
sg954
L0L
sg955
S'17/17'
p962
ssS'query'
p963
(dp964
g949
I8
sg954
L0L
sg955
S'50/65'
p965
sssg955
S'118/149'
p966
ssS'Firefox 3.5'
p967
(dp968
S'total_runs'
p969
L146L
sS'score'
p970
I8
sS'results'
p971
(dp972
S'unapply'
p973
(dp974
g970
I7
sS'median'
p975
L0L
sS'display'
p976
S'17/26'
p977
ssS'apply'
p978
(dp979
g970
I8
sg975
L0L
sg976
S'34/41'
p980
ssS'change'
p981
(dp982
g970
I4
sg975
L0L
sg976
S'7/17'
p983
ssS'query'
p984
(dp985
g970
I9
sg975
L0L
sg976
S'59/65'
p986
sssg976
S'117/149'
p987
ssS'Safari 3.2'
p988
(dp989
S'total_runs'
p990
L3L
sS'score'
p991
I7
sS'results'
p992
(dp993
S'unapply'
p994
(dp995
g991
I3
sS'median'
p996
L0L
sS'display'
p997
S'8/26'
p998
ssS'apply'
p999
(dp1000
g991
I7
sg996
L0L
sg997
S'28/41'
p1001
ssS'change'
p1002
(dp1003
g991
I10
sg996
L0L
sg997
S'17/17'
p1004
ssS'query'
p1005
(dp1006
g991
I8
sg996
L0L
sg997
S'50/65'
p1007
sssg997
S'103/149'
p1008
ssS'Safari 3.2.3'
p1009
(dp1010
S'total_runs'
p1011
L3L
sS'score'
p1012
I7
sS'results'
p1013
(dp1014
S'unapply'
p1015
(dp1016
g1012
I3
sS'median'
p1017
L0L
sS'display'
p1018
S'8/26'
p1019
ssS'apply'
p1020
(dp1021
g1012
I7
sg1017
L0L
sg1018
S'28/41'
p1022
ssS'change'
p1023
(dp1024
g1012
I10
sg1017
L0L
sg1018
S'17/17'
p1025
ssS'query'
p1026
(dp1027
g1012
I8
sg1017
L0L
sg1018
S'50/65'
p1028
sssg1018
S'103/149'
p1029
ssS'Firefox 3.0.10'
p1030
(dp1031
S'total_runs'
p1032
L3L
sS'score'
p1033
I8
sS'results'
p1034
(dp1035
S'unapply'
p1036
(dp1037
g1033
I7
sS'median'
p1038
L0L
sS'display'
p1039
S'17/26'
p1040
ssS'apply'
p1041
(dp1042
g1033
I8
sg1038
L0L
sg1039
S'33/41'
p1043
ssS'change'
p1044
(dp1045
g1033
I4
sg1038
L0L
sg1039
S'7/17'
p1046
ssS'query'
p1047
(dp1048
g1033
I9
sg1038
L0L
sg1039
S'61/65'
p1049
sssg1039
S'118/149'
p1050
ssS'IE 8.0'
p1051
(dp1052
S'total_runs'
p1053
L19L
sS'score'
p1054
I7
sS'results'
p1055
(dp1056
S'unapply'
p1057
(dp1058
g1054
I5
sS'median'
p1059
L0L
sS'display'
p1060
S'14/26'
p1061
ssS'apply'
p1062
(dp1063
g1054
I6
sg1059
L0L
sg1060
S'24/41'
p1064
ssS'change'
p1065
(dp1066
g1054
I3
sg1059
L0L
sg1060
S'5/17'
p1067
ssS'query'
p1068
(dp1069
g1054
I9
sg1059
L0L
sg1060
S'56/65'
p1070
sssg1060
S'99/149'
p1071
ssS'Firefox 2.0.0'
p1072
(dp1073
S'total_runs'
p1074
L1L
sS'score'
p1075
I8
sS'results'
p1076
(dp1077
S'unapply'
p1078
(dp1079
g1075
I7
sS'median'
p1080
I0
sS'display'
p1081
S'17/26'
p1082
ssS'apply'
p1083
(dp1084
g1075
I8
sg1080
I0
sg1081
S'34/41'
p1085
ssS'change'
p1086
(dp1087
g1075
I4
sg1080
I0
sg1081
S'7/17'
p1088
ssS'query'
p1089
(dp1090
g1075
I9
sg1080
I0
sg1081
S'59/65'
p1091
sssg1081
S'117/149'
p1092
ssS'Firefox (Shiretoko) 3.5.3'
p1093
(dp1094
S'total_runs'
p1095
L1L
sS'score'
p1096
I8
sS'results'
p1097
(dp1098
S'unapply'
p1099
(dp1100
g1096
I7
sS'median'
p1101
I0
sS'display'
p1102
S'17/26'
p1103
ssS'apply'
p1104
(dp1105
g1096
I8
sg1101
I0
sg1102
S'34/41'
p1106
ssS'change'
p1107
(dp1108
g1096
I4
sg1101
I0
sg1102
S'7/17'
p1109
ssS'query'
p1110
(dp1111
g1096
I9
sg1101
I0
sg1102
S'59/65'
p1112
sssg1102
S'117/149'
p1113
ssS'Firefox (Shiretoko) 3.5.2'
p1114
(dp1115
S'total_runs'
p1116
L6L
sS'score'
p1117
I8
sS'results'
p1118
(dp1119
S'unapply'
p1120
(dp1121
g1117
I7
sS'median'
p1122
I0
sS'display'
p1123
S'17/26'
p1124
ssS'apply'
p1125
(dp1126
g1117
I8
sg1122
I0
sg1123
S'34/41'
p1127
ssS'change'
p1128
(dp1129
g1117
I4
sg1122
I0
sg1123
S'7/17'
p1130
ssS'query'
p1131
(dp1132
g1117
I9
sg1122
I0
sg1123
S'59/65'
p1133
sssg1123
S'117/149'
p1134
ssS'Chrome 3.0.195'
p1135
(dp1136
S'total_runs'
p1137
L11L
sS'score'
p1138
I8
sS'results'
p1139
(dp1140
S'unapply'
p1141
(dp1142
g1138
I8
sS'median'
p1143
L0L
sS'display'
p1144
S'20/26'
p1145
ssS'apply'
p1146
(dp1147
g1138
I10
sg1143
L0L
sg1144
S'39/41'
p1148
ssS'change'
p1149
(dp1150
g1138
I10
sg1143
L0L
sg1144
S'17/17'
p1151
ssS'query'
p1152
(dp1153
g1138
I8
sg1143
L0L
sg1144
S'50/65'
p1154
sssg1144
S'126/149'
p1155
ss.