(dp0
S'Chrome 4'
p1
(dp2
S'total_runs'
p3
L58L
sS'score'
p4
I9
sS'results'
p5
(dp6
S'unapply'
p7
(dp8
g4
I9
sS'median'
p9
L0L
sS'display'
p10
S'23/26'
p11
ssS'apply'
p12
(dp13
g4
I10
sg9
L0L
sg10
S'39/41'
p14
ssS'change'
p15
(dp16
g4
I10
sg9
L0L
sg10
S'17/17'
p17
ssS'query'
p18
(dp19
g4
I8
sg9
L0L
sg10
S'50/65'
p20
sssg10
S'129/149'
p21
ssS'iPhone 3.1'
p22
(dp23
S'total_runs'
p24
L8L
sS'score'
p25
I8
sS'results'
p26
(dp27
S'unapply'
p28
(dp29
g25
I7
sS'median'
p30
L0L
sS'display'
p31
S'17/26'
p32
ssS'apply'
p33
(dp34
g25
I8
sg30
L0L
sg31
S'34/41'
p35
ssS'change'
p36
(dp37
g25
I10
sg30
L0L
sg31
S'17/17'
p38
ssS'query'
p39
(dp40
g25
I8
sg30
L0L
sg31
S'50/65'
p41
sssg31
S'118/149'
p42
ssS'Chrome 2'
p43
(dp44
S'total_runs'
p45
L35L
sS'score'
p46
I8
sS'results'
p47
(dp48
S'unapply'
p49
(dp50
g46
I7
sS'median'
p51
L0L
sS'display'
p52
S'19/26'
p53
ssS'apply'
p54
(dp55
g46
I10
sg51
L0L
sg52
S'39/41'
p56
ssS'change'
p57
(dp58
g46
I10
sg51
L0L
sg52
S'17/17'
p59
ssS'query'
p60
(dp61
g46
I8
sg51
L0L
sg52
S'50/65'
p62
sssg52
S'125/149'
p63
ssS'Chrome 3'
p64
(dp65
S'total_runs'
p66
L16L
sS'score'
p67
I8
sS'results'
p68
(dp69
S'unapply'
p70
(dp71
g67
I8
sS'median'
p72
L0L
sS'display'
p73
S'20/26'
p74
ssS'apply'
p75
(dp76
g67
I10
sg72
L0L
sg73
S'39/41'
p77
ssS'change'
p78
(dp79
g67
I10
sg72
L0L
sg73
S'17/17'
p80
ssS'query'
p81
(dp82
g67
I8
sg72
L0L
sg73
S'50/65'
p83
sssg73
S'126/149'
p84
ssS'Opera 9.64'
p85
(dp86
S'total_runs'
p87
L6L
sS'score'
p88
I6
sS'results'
p89
(dp90
S'unapply'
p91
(dp92
g88
I5
sS'median'
p93
L0L
sS'display'
p94
S'13/26'
p95
ssS'apply'
p96
(dp97
g88
I6
sg93
L0L
sg94
S'26/41'
p98
ssS'change'
p99
(dp100
g88
I4
sg93
L0L
sg94
S'7/17'
p101
ssS'query'
p102
(dp103
g88
I7
sg93
L0L
sg94
S'44/65'
p104
sssg94
S'90/149'
p105
ssS'IE 6'
p106
(dp107
S'total_runs'
p108
L7L
sS'score'
p109
I7
sS'results'
p110
(dp111
S'unapply'
p112
(dp113
g109
I5
sS'median'
p114
L0L
sS'display'
p115
S'14/26'
p116
ssS'apply'
p117
(dp118
g109
I6
sg114
L0L
sg115
S'24/41'
p119
ssS'change'
p120
(dp121
g109
I3
sg114
L0L
sg115
S'5/17'
p122
ssS'query'
p123
(dp124
g109
I9
sg114
L0L
sg115
S'56/65'
p125
sssg115
S'99/149'
p126
ssS'Safari 3.2'
p127
(dp128
S'total_runs'
p129
L3L
sS'score'
p130
I7
sS'results'
p131
(dp132
S'unapply'
p133
(dp134
g130
I3
sS'median'
p135
L0L
sS'display'
p136
S'8/26'
p137
ssS'apply'
p138
(dp139
g130
I7
sg135
L0L
sg136
S'28/41'
p140
ssS'change'
p141
(dp142
g130
I10
sg135
L0L
sg136
S'17/17'
p143
ssS'query'
p144
(dp145
g130
I8
sg135
L0L
sg136
S'50/65'
p146
sssg136
S'103/149'
p147
ssS'Safari 4.0'
p148
(dp149
S'total_runs'
p150
L97L
sS'score'
p151
I8
sS'results'
p152
(dp153
S'unapply'
p154
(dp155
g151
I7
sS'median'
p156
L0L
sS'display'
p157
S'19/26'
p158
ssS'apply'
p159
(dp160
g151
I10
sg156
L0L
sg157
S'39/41'
p161
ssS'change'
p162
(dp163
g151
I10
sg156
L0L
sg157
S'17/17'
p164
ssS'query'
p165
(dp166
g151
I8
sg156
L0L
sg157
S'50/65'
p167
sssg157
S'125/149'
p168
ssS'IE 8'
p169
(dp170
S'total_runs'
p171
L26L
sS'score'
p172
I7
sS'results'
p173
(dp174
S'unapply'
p175
(dp176
g172
I5
sS'median'
p177
L0L
sS'display'
p178
S'14/26'
p179
ssS'apply'
p180
(dp181
g172
I6
sg177
L0L
sg178
S'24/41'
p182
ssS'change'
p183
(dp184
g172
I3
sg177
L0L
sg178
S'5/17'
p185
ssS'query'
p186
(dp187
g172
I9
sg177
L0L
sg178
S'56/65'
p188
sssg178
S'99/149'
p189
ssS'Opera 10'
p190
(dp191
g150
L32L
sg151
I6
sg152
(dp192
g154
(dp193
g151
I5
sg156
L0L
sg157
S'13/26'
p194
ssg159
(dp195
g151
I6
sg156
L0L
sg157
S'26/41'
p196
ssg162
(dp197
g151
I4
sg156
L0L
sg157
S'7/17'
p198
ssg165
(dp199
g151
I7
sg156
L0L
sg157
S'43/65'
p200
sssg157
S'89/149'
p201
ssS'iPhone 2.2'
p202
(dp203
S'total_runs'
p204
L3L
sS'score'
p205
I7
sS'results'
p206
(dp207
S'unapply'
p208
(dp209
g205
I3
sS'median'
p210
L0L
sS'display'
p211
S'9/26'
p212
ssS'apply'
p213
(dp214
g205
I7
sg210
L0L
sg211
S'28/41'
p215
ssS'change'
p216
(dp217
g205
I10
sg210
L0L
sg211
S'17/17'
p218
ssS'query'
p219
(dp220
g205
I8
sg210
L0L
sg211
S'50/65'
p221
sssg211
S'104/149'
p222
ssS'Firefox 3.0'
p223
(dp224
S'total_runs'
p225
L46L
sS'score'
p226
I8
sS'results'
p227
(dp228
S'unapply'
p229
(dp230
g226
I7
sS'median'
p231
L0L
sS'display'
p232
S'17/26'
p233
ssS'apply'
p234
(dp235
g226
I8
sg231
L0L
sg232
S'34/41'
p236
ssS'change'
p237
(dp238
g226
I4
sg231
L0L
sg232
S'7/17'
p239
ssS'query'
p240
(dp241
g226
I9
sg231
L0L
sg232
S'59/65'
p242
sssg232
S'117/149'
p243
ssS'Firefox 3.5'
p244
(dp245
S'total_runs'
p246
L260L
sS'score'
p247
I8
sS'results'
p248
(dp249
S'unapply'
p250
(dp251
g247
I7
sS'median'
p252
L0L
sS'display'
p253
S'17/26'
p254
ssS'apply'
p255
(dp256
g247
I8
sg252
L0L
sg253
S'34/41'
p257
ssS'change'
p258
(dp259
g247
I4
sg252
L0L
sg253
S'7/17'
p260
ssS'query'
p261
(dp262
g247
I9
sg252
L0L
sg253
S'59/65'
p263
sssg253
S'117/149'
p264
ssS'IE 7'
p265
(dp266
S'total_runs'
p267
L12L
sS'score'
p268
I7
sS'results'
p269
(dp270
S'unapply'
p271
(dp272
g268
I5
sS'median'
p273
L0L
sS'display'
p274
S'14/26'
p275
ssS'apply'
p276
(dp277
g268
I6
sg273
L0L
sg274
S'24/41'
p278
ssS'change'
p279
(dp280
g268
I3
sg273
L0L
sg274
S'5/17'
p281
ssS'query'
p282
(dp283
g268
I9
sg273
L0L
sg274
S'56/65'
p284
sssg274
S'99/149'
p285
ss.