(dp0
S'Iron 2.0'
p1
(dp2
S'total_runs'
p3
L1L
sS'score'
p4
I8
sS'results'
p5
(dp6
S'unapply'
p7
(dp8
g4
I7
sS'median'
p9
L0L
sS'display'
p10
S'19/26'
p11
ssS'apply'
p12
(dp13
g4
I10
sg9
L0L
sg10
S'39/41'
p14
ssS'change'
p15
(dp16
g4
I10
sg9
L0L
sg10
S'17/17'
p17
ssS'query'
p18
(dp19
g4
I8
sg9
L0L
sg10
S'50/65'
p20
sssg10
S'125/149'
p21
ssS'IE 6.0'
p22
(dp23
S'total_runs'
p24
L5L
sS'score'
p25
I7
sS'results'
p26
(dp27
S'unapply'
p28
(dp29
g25
I5
sS'median'
p30
L0L
sS'display'
p31
S'14/26'
p32
ssS'apply'
p33
(dp34
g25
I6
sg30
L0L
sg31
S'24/41'
p35
ssS'change'
p36
(dp37
g25
I3
sg30
L0L
sg31
S'5/17'
p38
ssS'query'
p39
(dp40
g25
I9
sg30
L0L
sg31
S'56/65'
p41
sssg31
S'99/149'
p42
ssS'Konqueror 3.5'
p43
(dp44
S'total_runs'
p45
L2L
sS'score'
p46
I0
sS'results'
p47
(dp48
S'unapply'
p49
(dp50
g46
I0
sS'median'
p51
L0L
sS'display'
p52
S'0/26'
p53
ssS'apply'
p54
(dp55
g46
I0
sg51
L0L
sg52
S'0/41'
p56
ssS'change'
p57
(dp58
g46
I0
sg51
L0L
sg52
S'0/17'
p59
ssS'query'
p60
(dp61
g46
I0
sg51
L0L
sg52
S'0/65'
p62
sssg52
S'0/149'
p63
ssS'Firefox 2.0'
p64
(dp65
S'total_runs'
p66
L3L
sS'score'
p67
I8
sS'results'
p68
(dp69
S'unapply'
p70
(dp71
g67
I7
sS'median'
p72
L0L
sS'display'
p73
S'17/26'
p74
ssS'apply'
p75
(dp76
g67
I8
sg72
L0L
sg73
S'34/41'
p77
ssS'change'
p78
(dp79
g67
I4
sg72
L0L
sg73
S'7/17'
p80
ssS'query'
p81
(dp82
g67
I9
sg72
L0L
sg73
S'59/65'
p83
sssg73
S'117/149'
p84
ssS'Firefox (Shiretoko) 3.5'
p85
(dp86
S'total_runs'
p87
L13L
sS'score'
p88
I8
sS'results'
p89
(dp90
S'unapply'
p91
(dp92
g88
I7
sS'median'
p93
I0
sS'display'
p94
S'17/26'
p95
ssS'apply'
p96
(dp97
g88
I8
sg93
L0L
sg94
S'34/41'
p98
ssS'change'
p99
(dp100
g88
I4
sg93
I0
sg94
S'7/17'
p101
ssS'query'
p102
(dp103
g88
I9
sg93
L0L
sg94
S'59/65'
p104
sssg94
S'117/149'
p105
ssS'Arora 0.8'
p106
(dp107
S'total_runs'
p108
L1L
sS'score'
p109
I7
sS'results'
p110
(dp111
S'unapply'
p112
(dp113
g109
I3
sS'median'
p114
L0L
sS'display'
p115
S'9/26'
p116
ssS'apply'
p117
(dp118
g109
I9
sg114
L0L
sg115
S'35/41'
p119
ssS'change'
p120
(dp121
g109
I10
sg114
L0L
sg115
S'17/17'
p122
ssS'query'
p123
(dp124
g109
I8
sg114
L0L
sg115
S'50/65'
p125
sssg115
S'111/149'
p126
ssS'Arora 0.9'
p127
(dp128
S'total_runs'
p129
L1L
sS'score'
p130
I7
sS'results'
p131
(dp132
S'unapply'
p133
(dp134
g130
I3
sS'median'
p135
I0
sS'display'
p136
S'9/26'
p137
ssS'apply'
p138
(dp139
g130
I9
sg135
I0
sg136
S'35/41'
p140
ssS'change'
p141
(dp142
g130
I10
sg135
I0
sg136
S'17/17'
p143
ssS'query'
p144
(dp145
g130
I8
sg135
I0
sg136
S'50/65'
p146
sssg136
S'111/149'
p147
ssS'Konqueror 4.3'
p148
(dp149
S'total_runs'
p150
L2L
sS'score'
p151
I7
sS'results'
p152
(dp153
S'unapply'
p154
(dp155
g151
I3
sS'median'
p156
I0
sS'display'
p157
S'9/26'
p158
ssS'apply'
p159
(dp160
g151
I9
sg156
I0
sg157
S'36/41'
p161
ssS'change'
p162
(dp163
g151
I10
sg156
I0
sg157
S'17/17'
p164
ssS'query'
p165
(dp166
g151
I7
sg156
I0
sg157
S'47/65'
p167
sssg157
S'109/149'
p168
ssS'SeaMonkey 1.1'
p169
(dp170
S'total_runs'
p171
L1L
sS'score'
p172
I8
sS'results'
p173
(dp174
S'unapply'
p175
(dp176
g172
I7
sS'median'
p177
I0
sS'display'
p178
S'17/26'
p179
ssS'apply'
p180
(dp181
g172
I8
sg177
I0
sg178
S'34/41'
p182
ssS'change'
p183
(dp184
g172
I4
sg177
I0
sg178
S'7/17'
p185
ssS'query'
p186
(dp187
g172
I9
sg177
I0
sg178
S'59/65'
p188
sssg178
S'117/149'
p189
ssS'IE 7.0'
p190
(dp191
S'total_runs'
p192
L8L
sS'score'
p193
I7
sS'results'
p194
(dp195
S'unapply'
p196
(dp197
g193
I5
sS'median'
p198
L0L
sS'display'
p199
S'14/26'
p200
ssS'apply'
p201
(dp202
g193
I6
sg198
L0L
sg199
S'24/41'
p203
ssS'change'
p204
(dp205
g193
I3
sg198
L0L
sg199
S'5/17'
p206
ssS'query'
p207
(dp208
g193
I9
sg198
L0L
sg199
S'56/65'
p209
sssg199
S'99/149'
p210
ssS'Opera 10.00'
p211
(dp212
S'total_runs'
p213
L20L
sS'score'
p214
I6
sS'results'
p215
(dp216
S'unapply'
p217
(dp218
g214
I5
sS'median'
p219
L0L
sS'display'
p220
S'13/26'
p221
ssS'apply'
p222
(dp223
g214
I6
sg219
L0L
sg220
S'26/41'
p224
ssS'change'
p225
(dp226
g214
I4
sg219
L0L
sg220
S'7/17'
p227
ssS'query'
p228
(dp229
g214
I7
sg219
L0L
sg220
S'43/65'
p230
sssg220
S'89/149'
p231
ssS'Opera 9.64'
p232
(dp233
S'total_runs'
p234
L6L
sS'score'
p235
I6
sS'results'
p236
(dp237
S'unapply'
p238
(dp239
g235
I5
sS'median'
p240
L0L
sS'display'
p241
S'13/26'
p242
ssS'apply'
p243
(dp244
g235
I6
sg240
L0L
sg241
S'26/41'
p245
ssS'change'
p246
(dp247
g235
I4
sg240
L0L
sg241
S'7/17'
p248
ssS'query'
p249
(dp250
g235
I7
sg240
L0L
sg241
S'44/65'
p251
sssg241
S'90/149'
p252
ssS'iPhone 3.0'
p253
(dp254
S'total_runs'
p255
L8L
sS'score'
p256
I8
sS'results'
p257
(dp258
S'unapply'
p259
(dp260
g256
I7
sS'median'
p261
L0L
sS'display'
p262
S'17/26'
p263
ssS'apply'
p264
(dp265
g256
I8
sg261
L0L
sg262
S'34/41'
p266
ssS'change'
p267
(dp268
g256
I10
sg261
L0L
sg262
S'17/17'
p269
ssS'query'
p270
(dp271
g256
I8
sg261
L0L
sg262
S'50/65'
p272
sssg262
S'118/149'
p273
ssS'iPhone 3.1'
p274
(dp275
S'total_runs'
p276
L7L
sS'score'
p277
I8
sS'results'
p278
(dp279
S'unapply'
p280
(dp281
g277
I7
sS'median'
p282
L0L
sS'display'
p283
S'17/26'
p284
ssS'apply'
p285
(dp286
g277
I8
sg282
L0L
sg283
S'34/41'
p287
ssS'change'
p288
(dp289
g277
I10
sg282
L0L
sg283
S'17/17'
p290
ssS'query'
p291
(dp292
g277
I8
sg282
L0L
sg283
S'50/65'
p293
sssg283
S'118/149'
p294
ssS'Iceweasel 3.0'
p295
(dp296
S'total_runs'
p297
L1L
sS'score'
p298
I8
sS'results'
p299
(dp300
S'unapply'
p301
(dp302
g298
I7
sS'median'
p303
I0
sS'display'
p304
S'17/26'
p305
ssS'apply'
p306
(dp307
g298
I8
sg303
I0
sg304
S'34/41'
p308
ssS'change'
p309
(dp310
g298
I4
sg303
I0
sg304
S'7/17'
p311
ssS'query'
p312
(dp313
g298
I9
sg303
I0
sg304
S'59/65'
p314
sssg304
S'117/149'
p315
ssS'Camino 1.6'
p316
(dp317
S'total_runs'
p318
L3L
sS'score'
p319
I8
sS'results'
p320
(dp321
S'unapply'
p322
(dp323
g319
I7
sS'median'
p324
L0L
sS'display'
p325
S'17/26'
p326
ssS'apply'
p327
(dp328
g319
I8
sg324
L0L
sg325
S'34/41'
p329
ssS'change'
p330
(dp331
g319
I4
sg324
L0L
sg325
S'7/17'
p332
ssS'query'
p333
(dp334
g319
I9
sg324
L0L
sg325
S'59/65'
p335
sssg325
S'117/149'
p336
ssS'iPhone 2.2'
p337
(dp338
S'total_runs'
p339
L3L
sS'score'
p340
I7
sS'results'
p341
(dp342
S'unapply'
p343
(dp344
g340
I3
sS'median'
p345
L0L
sS'display'
p346
S'9/26'
p347
ssS'apply'
p348
(dp349
g340
I7
sg345
L0L
sg346
S'28/41'
p350
ssS'change'
p351
(dp352
g340
I10
sg345
L0L
sg346
S'17/17'
p353
ssS'query'
p354
(dp355
g340
I8
sg345
L0L
sg346
S'50/65'
p356
sssg346
S'104/149'
p357
ssS'Firefox 3.0'
p358
(dp359
S'total_runs'
p360
L37L
sS'score'
p361
I8
sS'results'
p362
(dp363
S'unapply'
p364
(dp365
g361
I7
sS'median'
p366
L0L
sS'display'
p367
S'17/26'
p368
ssS'apply'
p369
(dp370
g361
I8
sg366
L0L
sg367
S'34/41'
p371
ssS'change'
p372
(dp373
g361
I4
sg366
L0L
sg367
S'7/17'
p374
ssS'query'
p375
(dp376
g361
I9
sg366
L0L
sg367
S'59/65'
p377
sssg367
S'117/149'
p378
ssS'Firefox 3.5'
p379
(dp380
S'total_runs'
p381
L179L
sS'score'
p382
I8
sS'results'
p383
(dp384
S'unapply'
p385
(dp386
g382
I7
sS'median'
p387
L0L
sS'display'
p388
S'17/26'
p389
ssS'apply'
p390
(dp391
g382
I8
sg387
L0L
sg388
S'34/41'
p392
ssS'change'
p393
(dp394
g382
I4
sg387
L0L
sg388
S'7/17'
p395
ssS'query'
p396
(dp397
g382
I9
sg387
L0L
sg388
S'59/65'
p398
sssg388
S'117/149'
p399
ssS'Chrome 3.0'
p400
(dp401
S'total_runs'
p402
L14L
sS'score'
p403
I8
sS'results'
p404
(dp405
S'unapply'
p406
(dp407
g403
I8
sS'median'
p408
L0L
sS'display'
p409
S'20/26'
p410
ssS'apply'
p411
(dp412
g403
I10
sg408
L0L
sg409
S'39/41'
p413
ssS'change'
p414
(dp415
g403
I10
sg408
L0L
sg409
S'17/17'
p416
ssS'query'
p417
(dp418
g403
I8
sg408
L0L
sg409
S'50/65'
p419
sssg409
S'126/149'
p420
ssS'Maxthon 3.0'
p421
(dp422
S'total_runs'
p423
L1L
sS'score'
p424
I8
sS'results'
p425
(dp426
S'unapply'
p427
(dp428
g424
I7
sS'median'
p429
L0L
sS'display'
p430
S'19/26'
p431
ssS'apply'
p432
(dp433
g424
I10
sg429
L0L
sg430
S'39/41'
p434
ssS'change'
p435
(dp436
g424
I10
sg429
L0L
sg430
S'17/17'
p437
ssS'query'
p438
(dp439
g424
I8
sg429
L0L
sg430
S'50/65'
p440
sssg430
S'125/149'
p441
ssS'Chrome 2.0'
p442
(dp443
S'total_runs'
p444
L22L
sS'score'
p445
I8
sS'results'
p446
(dp447
S'unapply'
p448
(dp449
g445
I7
sS'median'
p450
L0L
sS'display'
p451
S'19/26'
p452
ssS'apply'
p453
(dp454
g445
I10
sg450
L0L
sg451
S'39/41'
p455
ssS'change'
p456
(dp457
g445
I10
sg450
L0L
sg451
S'17/17'
p458
ssS'query'
p459
(dp460
g445
I8
sg450
L0L
sg451
S'50/65'
p461
sssg451
S'125/149'
p462
ssS'Opera 9.63'
p463
(dp464
S'total_runs'
p465
L1L
sS'score'
p466
I6
sS'results'
p467
(dp468
S'unapply'
p469
(dp470
g466
I5
sS'median'
p471
L0L
sS'display'
p472
S'13/26'
p473
ssS'apply'
p474
(dp475
g466
I6
sg471
L0L
sg472
S'26/41'
p476
ssS'change'
p477
(dp478
g466
I4
sg471
L0L
sg472
S'7/17'
p479
ssS'query'
p480
(dp481
g466
I6
sg471
L0L
sg472
S'42/65'
p482
sssg472
S'88/149'
p483
ssS'Android 1.5'
p484
(dp485
S'total_runs'
p486
L4L
sS'score'
p487
I8
sS'results'
p488
(dp489
S'unapply'
p490
(dp491
g487
I7
sS'median'
p492
L0L
sS'display'
p493
S'17/26'
p494
ssS'apply'
p495
(dp496
g487
I8
sg492
L0L
sg493
S'34/41'
p497
ssS'change'
p498
(dp499
g487
I10
sg492
L0L
sg493
S'17/17'
p500
ssS'query'
p501
(dp502
g487
I8
sg492
L0L
sg493
S'50/65'
p503
sssg493
S'118/149'
p504
ssS'Chrome 4.0'
p505
(dp506
S'total_runs'
p507
L44L
sS'score'
p508
I9
sS'results'
p509
(dp510
S'unapply'
p511
(dp512
g508
I9
sS'median'
p513
L0L
sS'display'
p514
S'23/26'
p515
ssS'apply'
p516
(dp517
g508
I10
sg513
L0L
sg514
S'39/41'
p518
ssS'change'
p519
(dp520
g508
I10
sg513
L0L
sg514
S'17/17'
p521
ssS'query'
p522
(dp523
g508
I8
sg513
L0L
sg514
S'50/65'
p524
sssg514
S'129/149'
p525
ssS'Chrome 1.0'
p526
(dp527
S'total_runs'
p528
L5L
sS'score'
p529
I7
sS'results'
p530
(dp531
S'unapply'
p532
(dp533
g529
I3
sS'median'
p534
L0L
sS'display'
p535
S'8/26'
p536
ssS'apply'
p537
(dp538
g529
I7
sg534
L0L
sg535
S'28/41'
p539
ssS'change'
p540
(dp541
g529
I10
sg534
L0L
sg535
S'17/17'
p542
ssS'query'
p543
(dp544
g529
I8
sg534
L0L
sg535
S'50/65'
p545
sssg535
S'103/149'
p546
ssS'Opera 10.10'
p547
(dp548
S'total_runs'
p549
L1L
sS'score'
p550
I6
sS'results'
p551
(dp552
S'unapply'
p553
(dp554
g550
I5
sS'median'
p555
I0
sS'display'
p556
S'13/26'
p557
ssS'apply'
p558
(dp559
g550
I6
sg555
I0
sg556
S'26/41'
p560
ssS'change'
p561
(dp562
g550
I4
sg555
I0
sg556
S'7/17'
p563
ssS'query'
p564
(dp565
g550
I7
sg555
I0
sg556
S'43/65'
p566
sssg556
S'89/149'
p567
ssS'Midori 0.1'
p568
(dp569
S'total_runs'
p570
L1L
sS'score'
p571
I8
sS'results'
p572
(dp573
S'unapply'
p574
(dp575
g571
I7
sS'median'
p576
I0
sS'display'
p577
S'19/26'
p578
ssS'apply'
p579
(dp580
g571
I10
sg576
I0
sg577
S'39/41'
p581
ssS'change'
p582
(dp583
g571
I10
sg576
I0
sg577
S'17/17'
p584
ssS'query'
p585
(dp586
g571
I8
sg576
I0
sg577
S'50/65'
p587
sssg577
S'125/149'
p588
ssS'Safari 3.2'
p589
(dp590
S'total_runs'
p591
L3L
sS'score'
p592
I7
sS'results'
p593
(dp594
S'unapply'
p595
(dp596
g592
I3
sS'median'
p597
L0L
sS'display'
p598
S'8/26'
p599
ssS'apply'
p600
(dp601
g592
I7
sg597
L0L
sg598
S'28/41'
p602
ssS'change'
p603
(dp604
g592
I10
sg597
L0L
sg598
S'17/17'
p605
ssS'query'
p606
(dp607
g592
I8
sg597
L0L
sg598
S'50/65'
p608
sssg598
S'103/149'
p609
ssS'IE 8.0'
p610
(dp611
S'total_runs'
p612
L21L
sS'score'
p613
I7
sS'results'
p614
(dp615
S'unapply'
p616
(dp617
g613
I5
sS'median'
p618
L0L
sS'display'
p619
S'14/26'
p620
ssS'apply'
p621
(dp622
g613
I6
sg618
L0L
sg619
S'24/41'
p623
ssS'change'
p624
(dp625
g613
I3
sg618
L0L
sg619
S'5/17'
p626
ssS'query'
p627
(dp628
g613
I9
sg618
L0L
sg619
S'56/65'
p629
sssg619
S'99/149'
p630
ssS'NetNewsWire 3.1'
p631
(dp632
S'total_runs'
p633
L1L
sS'score'
p634
I8
sS'results'
p635
(dp636
S'unapply'
p637
(dp638
g634
I7
sS'median'
p639
I0
sS'display'
p640
S'19/26'
p641
ssS'apply'
p642
(dp643
g634
I10
sg639
I0
sg640
S'39/41'
p644
ssS'change'
p645
(dp646
g634
I10
sg639
I0
sg640
S'17/17'
p647
ssS'query'
p648
(dp649
g634
I8
sg639
I0
sg640
S'50/65'
p650
sssg640
S'125/149'
p651
ssS'NetNewsWire 3.2'
p652
(dp653
S'total_runs'
p654
L1L
sS'score'
p655
I8
sS'results'
p656
(dp657
S'unapply'
p658
(dp659
g655
I7
sS'median'
p660
I0
sS'display'
p661
S'19/26'
p662
ssS'apply'
p663
(dp664
g655
I10
sg660
I0
sg661
S'39/41'
p665
ssS'change'
p666
(dp667
g655
I10
sg660
I0
sg661
S'17/17'
p668
ssS'query'
p669
(dp670
g655
I8
sg660
I0
sg661
S'50/65'
p671
sssg661
S'125/149'
p672
ssS'Safari 4.0'
p673
(dp674
S'total_runs'
p675
L79L
sS'score'
p676
I8
sS'results'
p677
(dp678
S'unapply'
p679
(dp680
g676
I7
sS'median'
p681
L0L
sS'display'
p682
S'19/26'
p683
ssS'apply'
p684
(dp685
g676
I10
sg681
L0L
sg682
S'39/41'
p686
ssS'change'
p687
(dp688
g676
I10
sg681
L0L
sg682
S'17/17'
p689
ssS'query'
p690
(dp691
g676
I8
sg681
L0L
sg682
S'50/65'
p692
sssg682
S'125/149'
p693
ss.