(dp0
VOpera 9.6
p1
(dp2
S'total_runs'
p3
L1L
sS'score'
p4
I0
sS'results'
p5
(dp6
S'unapply'
p7
(dp8
g4
I0
sS'median'
p9
L0L
sS'display'
p10
S'0/26'
p11
ssS'apply'
p12
(dp13
g4
I0
sg9
L0L
sg10
S'0/41'
p14
ssS'change'
p15
(dp16
g4
I0
sg9
L0L
sg10
S'0/17'
p17
ssS'query'
p18
(dp19
g4
I0
sg9
L0L
sg10
S'0/65'
p20
sssg10
S'0/149'
p21
ssVOpera 9.5
p22
(dp23
S'total_runs'
p24
L1L
sS'score'
p25
I0
sS'results'
p26
(dp27
S'unapply'
p28
(dp29
g25
I0
sS'median'
p30
L0L
sS'display'
p31
S'0/26'
p32
ssS'apply'
p33
(dp34
g25
I0
sg30
L0L
sg31
S'0/41'
p35
ssS'change'
p36
(dp37
g25
I0
sg30
L0L
sg31
S'0/17'
p38
ssS'query'
p39
(dp40
g25
I0
sg30
L0L
sg31
S'0/65'
p41
sssg31
S'0/149'
p42
ssVFirefox 3.7.a1pre
p43
(dp44
S'total_runs'
p45
L2L
sS'score'
p46
I8
sS'results'
p47
(dp48
S'unapply'
p49
(dp50
g46
I7
sS'median'
p51
L0L
sS'display'
p52
S'17/26'
p53
ssS'apply'
p54
(dp55
g46
I8
sg51
L0L
sg52
S'34/41'
p56
ssS'change'
p57
(dp58
g46
I4
sg51
L0L
sg52
S'7/17'
p59
ssS'query'
p60
(dp61
g46
I9
sg51
L0L
sg52
S'59/65'
p62
sssg52
S'117/149'
p63
ssVGaleon 2.0.4
p64
(dp65
S'total_runs'
p66
L1L
sS'score'
p67
I8
sS'results'
p68
(dp69
S'unapply'
p70
(dp71
g67
I7
sS'median'
p72
L0L
sS'display'
p73
S'17/26'
p74
ssS'apply'
p75
(dp76
g67
I8
sg72
L0L
sg73
S'34/41'
p77
ssS'change'
p78
(dp79
g67
I4
sg72
L0L
sg73
S'7/17'
p80
ssS'query'
p81
(dp82
g67
I9
sg72
L0L
sg73
S'59/65'
p83
sssg73
S'117/149'
p84
ssVWii
p85
(dp86
S'total_runs'
p87
L1L
sS'score'
p88
I0
sS'results'
p89
(dp90
S'unapply'
p91
(dp92
g88
I0
sS'median'
p93
L0L
sS'display'
p94
S'0/26'
p95
ssS'apply'
p96
(dp97
g88
I0
sg93
L0L
sg94
S'0/41'
p98
ssS'change'
p99
(dp100
g88
I0
sg93
L0L
sg94
S'0/17'
p101
ssS'query'
p102
(dp103
g88
I0
sg93
L0L
sg94
S'0/65'
p104
sssg94
S'0/149'
p105
ssVGaleon 2.0.7
p106
(dp107
S'total_runs'
p108
L1L
sS'score'
p109
I8
sS'results'
p110
(dp111
S'unapply'
p112
(dp113
g109
I7
sS'median'
p114
L0L
sS'display'
p115
S'17/26'
p116
ssS'apply'
p117
(dp118
g109
I8
sg114
L0L
sg115
S'34/41'
p119
ssS'change'
p120
(dp121
g109
I4
sg114
L0L
sg115
S'7/17'
p122
ssS'query'
p123
(dp124
g109
I9
sg114
L0L
sg115
S'59/65'
p125
sssg115
S'117/149'
p126
ssVMaxthon 0
p127
(dp128
S'total_runs'
p129
L1L
sS'score'
p130
I7
sS'results'
p131
(dp132
S'unapply'
p133
(dp134
g130
I5
sS'median'
p135
L0L
sS'display'
p136
S'14/26'
p137
ssS'apply'
p138
(dp139
g130
I6
sg135
L0L
sg136
S'24/41'
p140
ssS'change'
p141
(dp142
g130
I3
sg135
L0L
sg136
S'5/17'
p143
ssS'query'
p144
(dp145
g130
I9
sg135
L0L
sg136
S'56/65'
p146
sssg136
S'99/149'
p147
ssVFirefox (Shiretoko) 3.5
p148
(dp149
S'total_runs'
p150
L138L
sS'score'
p151
I8
sS'results'
p152
(dp153
S'unapply'
p154
(dp155
g151
I7
sS'median'
p156
L0L
sS'display'
p157
S'17/26'
p158
ssS'apply'
p159
(dp160
g151
I8
sg156
L0L
sg157
S'34/41'
p161
ssS'change'
p162
(dp163
g151
I4
sg156
L0L
sg157
S'7/17'
p164
ssS'query'
p165
(dp166
g151
I9
sg156
L0L
sg157
S'59/65'
p167
sssg157
S'117/149'
p168
ssVFirefox 3.0.5
p169
(dp170
S'total_runs'
p171
L7L
sS'score'
p172
I8
sS'results'
p173
(dp174
S'unapply'
p175
(dp176
g172
I7
sS'median'
p177
L0L
sS'display'
p178
S'17/26'
p179
ssS'apply'
p180
(dp181
g172
I8
sg177
L0L
sg178
S'34/41'
p182
ssS'change'
p183
(dp184
g172
I4
sg177
L0L
sg178
S'7/17'
p185
ssS'query'
p186
(dp187
g172
I9
sg177
L0L
sg178
S'59/65'
p188
sssg178
S'117/149'
p189
ssVFirefox 3.0.4
p190
(dp191
S'total_runs'
p192
L3L
sS'score'
p193
I8
sS'results'
p194
(dp195
S'unapply'
p196
(dp197
g193
I7
sS'median'
p198
L0L
sS'display'
p199
S'17/26'
p200
ssS'apply'
p201
(dp202
g193
I8
sg198
L0L
sg199
S'34/41'
p203
ssS'change'
p204
(dp205
g193
I4
sg198
L0L
sg199
S'7/17'
p206
ssS'query'
p207
(dp208
g193
I9
sg198
L0L
sg199
S'59/65'
p209
sssg199
S'117/149'
p210
ssVFirefox 3.0.7
p211
(dp212
S'total_runs'
p213
L7L
sS'score'
p214
I8
sS'results'
p215
(dp216
S'unapply'
p217
(dp218
g214
I7
sS'median'
p219
L0L
sS'display'
p220
S'17/26'
p221
ssS'apply'
p222
(dp223
g214
I8
sg219
L0L
sg220
S'34/41'
p224
ssS'change'
p225
(dp226
g214
I4
sg219
L0L
sg220
S'7/17'
p227
ssS'query'
p228
(dp229
g214
I9
sg219
L0L
sg220
S'59/65'
p230
sssg220
S'117/149'
p231
ssVFirefox 3.0.6
p232
(dp233
S'total_runs'
p234
L9L
sS'score'
p235
I8
sS'results'
p236
(dp237
S'unapply'
p238
(dp239
g235
I7
sS'median'
p240
L0L
sS'display'
p241
S'17/26'
p242
ssS'apply'
p243
(dp244
g235
I8
sg240
L0L
sg241
S'34/41'
p245
ssS'change'
p246
(dp247
g235
I4
sg240
L0L
sg241
S'7/17'
p248
ssS'query'
p249
(dp250
g235
I9
sg240
L0L
sg241
S'59/65'
p251
sssg241
S'117/149'
p252
ssVFirefox 3.0.1
p253
(dp254
S'total_runs'
p255
L9L
sS'score'
p256
I8
sS'results'
p257
(dp258
S'unapply'
p259
(dp260
g256
I7
sS'median'
p261
L0L
sS'display'
p262
S'17/26'
p263
ssS'apply'
p264
(dp265
g256
I8
sg261
L0L
sg262
S'34/41'
p266
ssS'change'
p267
(dp268
g256
I4
sg261
L0L
sg262
S'7/17'
p269
ssS'query'
p270
(dp271
g256
I9
sg261
L0L
sg262
S'59/65'
p272
sssg262
S'117/149'
p273
ssVFirefox (Namoroka) 3.6b5pre
p274
(dp275
S'total_runs'
p276
L4L
sS'score'
p277
I8
sS'results'
p278
(dp279
S'unapply'
p280
(dp281
g277
I7
sS'median'
p282
L0L
sS'display'
p283
S'17/26'
p284
ssS'apply'
p285
(dp286
g277
I8
sg282
L0L
sg283
S'34/41'
p287
ssS'change'
p288
(dp289
g277
I4
sg282
L0L
sg283
S'7/17'
p290
ssS'query'
p291
(dp292
g277
I9
sg282
L0L
sg283
S'59/65'
p293
sssg283
S'117/149'
p294
ssVFirefox 3.0.3
p295
(dp296
S'total_runs'
p297
L6L
sS'score'
p298
I8
sS'results'
p299
(dp300
S'unapply'
p301
(dp302
g298
I7
sS'median'
p303
L0L
sS'display'
p304
S'17/26'
p305
ssS'apply'
p306
(dp307
g298
I8
sg303
L0L
sg304
S'34/41'
p308
ssS'change'
p309
(dp310
g298
I4
sg303
L0L
sg304
S'7/17'
p311
ssS'query'
p312
(dp313
g298
I9
sg303
L0L
sg304
S'59/65'
p314
sssg304
S'117/149'
p315
ssVFirefox 3.0.2
p316
(dp317
S'total_runs'
p318
L2L
sS'score'
p319
I8
sS'results'
p320
(dp321
S'unapply'
p322
(dp323
g319
I7
sS'median'
p324
L0L
sS'display'
p325
S'17/26'
p326
ssS'apply'
p327
(dp328
g319
I8
sg324
L0L
sg325
S'34/41'
p329
ssS'change'
p330
(dp331
g319
I4
sg324
L0L
sg325
S'7/17'
p332
ssS'query'
p333
(dp334
g319
I9
sg324
L0L
sg325
S'59/65'
p335
sssg325
S'117/149'
p336
ssVFirefox 3.5.4
p337
(dp338
S'total_runs'
p339
L161L
sS'score'
p340
I8
sS'results'
p341
(dp342
S'unapply'
p343
(dp344
g340
I7
sS'median'
p345
L0L
sS'display'
p346
S'17/26'
p347
ssS'apply'
p348
(dp349
g340
I8
sg345
L0L
sg346
S'34/41'
p350
ssS'change'
p351
(dp352
g340
I4
sg345
L0L
sg346
S'7/17'
p353
ssS'query'
p354
(dp355
g340
I9
sg345
L0L
sg346
S'59/65'
p356
sssg346
S'117/149'
p357
ssVFirefox 3.5.5
p358
(dp359
S'total_runs'
p360
L611L
sS'score'
p361
I8
sS'results'
p362
(dp363
S'unapply'
p364
(dp365
g361
I7
sS'median'
p366
L0L
sS'display'
p367
S'17/26'
p368
ssS'apply'
p369
(dp370
g361
I8
sg366
L0L
sg367
S'34/41'
p371
ssS'change'
p372
(dp373
g361
I4
sg366
L0L
sg367
S'7/17'
p374
ssS'query'
p375
(dp376
g361
I9
sg366
L0L
sg367
S'59/65'
p377
sssg367
S'117/149'
p378
ssVIceweasel 3.5.4
p379
(dp380
S'total_runs'
p381
L3L
sS'score'
p382
I8
sS'results'
p383
(dp384
S'unapply'
p385
(dp386
g382
I7
sS'median'
p387
L0L
sS'display'
p388
S'17/26'
p389
ssS'apply'
p390
(dp391
g382
I8
sg387
L0L
sg388
S'34/41'
p392
ssS'change'
p393
(dp394
g382
I4
sg387
L0L
sg388
S'7/17'
p395
ssS'query'
p396
(dp397
g382
I9
sg387
L0L
sg388
S'59/65'
p398
sssg388
S'117/149'
p399
ssVFirefox 3.0.9
p400
(dp401
S'total_runs'
p402
L3L
sS'score'
p403
I8
sS'results'
p404
(dp405
S'unapply'
p406
(dp407
g403
I7
sS'median'
p408
L0L
sS'display'
p409
S'17/26'
p410
ssS'apply'
p411
(dp412
g403
I8
sg408
L0L
sg409
S'34/41'
p413
ssS'change'
p414
(dp415
g403
I4
sg408
L0L
sg409
S'7/17'
p416
ssS'query'
p417
(dp418
g403
I9
sg408
L0L
sg409
S'59/65'
p419
sssg409
S'117/149'
p420
ssVFirefox 3.0.8
p421
(dp422
S'total_runs'
p423
L5L
sS'score'
p424
I8
sS'results'
p425
(dp426
S'unapply'
p427
(dp428
g424
I7
sS'median'
p429
L0L
sS'display'
p430
S'17/26'
p431
ssS'apply'
p432
(dp433
g424
I8
sg429
L0L
sg430
S'34/41'
p434
ssS'change'
p435
(dp436
g424
I4
sg429
L0L
sg430
S'7/17'
p437
ssS'query'
p438
(dp439
g424
I9
sg429
L0L
sg430
S'59/65'
p440
sssg430
S'117/149'
p441
ssVFirefox 3.5.2
p442
(dp443
S'total_runs'
p444
L175L
sS'score'
p445
I8
sS'results'
p446
(dp447
S'unapply'
p448
(dp449
g445
I7
sS'median'
p450
L0L
sS'display'
p451
S'17/26'
p452
ssS'apply'
p453
(dp454
g445
I8
sg450
L0L
sg451
S'34/41'
p455
ssS'change'
p456
(dp457
g445
I4
sg450
L0L
sg451
S'7/17'
p458
ssS'query'
p459
(dp460
g445
I9
sg450
L0L
sg451
S'59/65'
p461
sssg451
S'117/149'
p462
ssVFirefox 3.5.3
p463
(dp464
S'total_runs'
p465
L1670L
sS'score'
p466
I8
sS'results'
p467
(dp468
S'unapply'
p469
(dp470
g466
I7
sS'median'
p471
L0L
sS'display'
p472
S'17/26'
p473
ssS'apply'
p474
(dp475
g466
I8
sg471
L0L
sg472
S'34/41'
p476
ssS'change'
p477
(dp478
g466
I4
sg471
L0L
sg472
S'7/17'
p479
ssS'query'
p480
(dp481
g466
I9
sg471
L0L
sg472
S'59/65'
p482
sssg472
S'117/149'
p483
ssVChrome 4.0.264
p484
(dp485
S'total_runs'
p486
L1L
sS'score'
p487
I9
sS'results'
p488
(dp489
S'unapply'
p490
(dp491
g487
I9
sS'median'
p492
I0
sS'display'
p493
S'23/26'
p494
ssS'apply'
p495
(dp496
g487
I10
sg492
I0
sg493
S'39/41'
p497
ssS'change'
p498
(dp499
g487
I10
sg492
I0
sg493
S'17/17'
p500
ssS'query'
p501
(dp502
g487
I8
sg492
I0
sg493
S'50/65'
p503
sssg493
S'129/149'
p504
ssVFirefox 3.0.15
p505
(dp506
S'total_runs'
p507
L52L
sS'score'
p508
I8
sS'results'
p509
(dp510
S'unapply'
p511
(dp512
g508
I7
sS'median'
p513
L0L
sS'display'
p514
S'17/26'
p515
ssS'apply'
p516
(dp517
g508
I8
sg513
L0L
sg514
S'34/41'
p518
ssS'change'
p519
(dp520
g508
I4
sg513
L0L
sg514
S'7/17'
p521
ssS'query'
p522
(dp523
g508
I9
sg513
L0L
sg514
S'59/65'
p524
sssg514
S'117/149'
p525
ssVOpera 9.60
p526
(dp527
S'total_runs'
p528
L1L
sS'score'
p529
I6
sS'results'
p530
(dp531
S'unapply'
p532
(dp533
g529
I5
sS'median'
p534
L0L
sS'display'
p535
S'13/26'
p536
ssS'apply'
p537
(dp538
g529
I6
sg534
L0L
sg535
S'26/41'
p539
ssS'change'
p540
(dp541
g529
I4
sg534
L0L
sg535
S'7/17'
p542
ssS'query'
p543
(dp544
g529
I6
sg534
L0L
sg535
S'42/65'
p545
sssg535
S'88/149'
p546
ssVOpera 9.61
p547
(dp548
S'total_runs'
p549
L2L
sS'score'
p550
I9
sS'results'
p551
(dp552
S'unapply'
p553
(dp554
g550
I8
sS'median'
p555
L0L
sS'display'
p556
S'20/26'
p557
ssS'apply'
p558
(dp559
g550
I9
sg555
L0L
sg556
S'35/41'
p560
ssS'change'
p561
(dp562
g550
I8
sg555
L0L
sg556
S'13/17'
p563
ssS'query'
p564
(dp565
g550
I9
sg555
L0L
sg556
S'60/65'
p566
sssg556
S'128/149'
p567
ssVChrome 4.0.260
p568
(dp569
S'total_runs'
p570
L1L
sS'score'
p571
I9
sS'results'
p572
(dp573
S'unapply'
p574
(dp575
g571
I9
sS'median'
p576
L0L
sS'display'
p577
S'23/26'
p578
ssS'apply'
p579
(dp580
g571
I10
sg576
L0L
sg577
S'39/41'
p581
ssS'change'
p582
(dp583
g571
I10
sg576
L0L
sg577
S'17/17'
p584
ssS'query'
p585
(dp586
g571
I8
sg576
L0L
sg577
S'50/65'
p587
sssg577
S'129/149'
p588
ssVChrome 4.0.261
p589
(dp590
S'total_runs'
p591
L2L
sS'score'
p592
I9
sS'results'
p593
(dp594
S'unapply'
p595
(dp596
g592
I9
sS'median'
p597
L0L
sS'display'
p598
S'23/26'
p599
ssS'apply'
p600
(dp601
g592
I10
sg597
L0L
sg598
S'39/41'
p602
ssS'change'
p603
(dp604
g592
I10
sg597
L0L
sg598
S'17/17'
p605
ssS'query'
p606
(dp607
g592
I8
sg597
L0L
sg598
S'50/65'
p608
sssg598
S'129/149'
p609
ssVOpera 9.64
p610
(dp611
S'total_runs'
p612
L22L
sS'score'
p613
I6
sS'results'
p614
(dp615
S'unapply'
p616
(dp617
g613
I5
sS'median'
p618
L0L
sS'display'
p619
S'13/26'
p620
ssS'apply'
p621
(dp622
g613
I6
sg618
L0L
sg619
S'26/41'
p623
ssS'change'
p624
(dp625
g613
I4
sg618
L0L
sg619
S'7/17'
p626
ssS'query'
p627
(dp628
g613
I6
sg618
L0L
sg619
S'42/65'
p629
sssg619
S'88/149'
p630
ssVFirefox 3.0.14
p631
(dp632
S'total_runs'
p633
L196L
sS'score'
p634
I8
sS'results'
p635
(dp636
S'unapply'
p637
(dp638
g634
I7
sS'median'
p639
L0L
sS'display'
p640
S'17/26'
p641
ssS'apply'
p642
(dp643
g634
I8
sg639
L0L
sg640
S'34/41'
p644
ssS'change'
p645
(dp646
g634
I4
sg639
L0L
sg640
S'7/17'
p647
ssS'query'
p648
(dp649
g634
I9
sg639
L0L
sg640
S'59/65'
p650
sssg640
S'117/149'
p651
ssVFirefox 3.1.b3
p652
(dp653
S'total_runs'
p654
L1L
sS'score'
p655
I8
sS'results'
p656
(dp657
S'unapply'
p658
(dp659
g655
I7
sS'median'
p660
L0L
sS'display'
p661
S'17/26'
p662
ssS'apply'
p663
(dp664
g655
I8
sg660
L0L
sg661
S'34/41'
p665
ssS'change'
p666
(dp667
g655
I4
sg660
L0L
sg661
S'7/17'
p668
ssS'query'
p669
(dp670
g655
I9
sg660
L0L
sg661
S'59/65'
p671
sssg661
S'117/149'
p672
ssViPhone 3.1
p673
(dp674
S'total_runs'
p675
L68L
sS'score'
p676
I8
sS'results'
p677
(dp678
S'unapply'
p679
(dp680
g676
I7
sS'median'
p681
L0L
sS'display'
p682
S'17/26'
p683
ssS'apply'
p684
(dp685
g676
I8
sg681
L0L
sg682
S'34/41'
p686
ssS'change'
p687
(dp688
g676
I10
sg681
L0L
sg682
S'17/17'
p689
ssS'query'
p690
(dp691
g676
I8
sg681
L0L
sg682
S'50/65'
p692
sssg682
S'118/149'
p693
ssVNokia 97
p694
(dp695
S'total_runs'
p696
L1L
sS'score'
p697
I7
sS'results'
p698
(dp699
S'unapply'
p700
(dp701
g697
I3
sS'median'
p702
L0L
sS'display'
p703
S'8/26'
p704
ssS'apply'
p705
(dp706
g697
I7
sg702
L0L
sg703
S'28/41'
p707
ssS'change'
p708
(dp709
g697
I10
sg702
L0L
sg703
S'17/17'
p710
ssS'query'
p711
(dp712
g697
I7
sg702
L0L
sg703
S'47/65'
p713
sssg703
S'100/149'
p714
ssVIceweasel 2.0.0
p715
(dp716
S'total_runs'
p717
L1L
sS'score'
p718
I8
sS'results'
p719
(dp720
S'unapply'
p721
(dp722
g718
I7
sS'median'
p723
L0L
sS'display'
p724
S'17/26'
p725
ssS'apply'
p726
(dp727
g718
I8
sg723
L0L
sg724
S'34/41'
p728
ssS'change'
p729
(dp730
g718
I4
sg723
L0L
sg724
S'7/17'
p731
ssS'query'
p732
(dp733
g718
I9
sg723
L0L
sg724
S'59/65'
p734
sssg724
S'117/149'
p735
ssVFlock 1.1
p736
(dp737
S'total_runs'
p738
L1L
sS'score'
p739
I8
sS'results'
p740
(dp741
S'unapply'
p742
(dp743
g739
I7
sS'median'
p744
L0L
sS'display'
p745
S'17/26'
p746
ssS'apply'
p747
(dp748
g739
I8
sg744
L0L
sg745
S'34/41'
p749
ssS'change'
p750
(dp751
g739
I4
sg744
L0L
sg745
S'7/17'
p752
ssS'query'
p753
(dp754
g739
I9
sg744
L0L
sg745
S'59/65'
p755
sssg745
S'117/149'
p756
ssVChrome Frame (IE 6) 4.0.211
p757
(dp758
S'total_runs'
p759
L2L
sS'score'
p760
I9
sS'results'
p761
(dp762
S'unapply'
p763
(dp764
g760
I9
sS'median'
p765
L0L
sS'display'
p766
S'23/26'
p767
ssS'apply'
p768
(dp769
g760
I10
sg765
L0L
sg766
S'39/41'
p770
ssS'change'
p771
(dp772
g760
I10
sg765
L0L
sg766
S'17/17'
p773
ssS'query'
p774
(dp775
g760
I8
sg765
L0L
sg766
S'50/65'
p776
sssg766
S'129/149'
p777
ssVFirefox 3.6.a2pre
p778
(dp779
S'total_runs'
p780
L1L
sS'score'
p781
I8
sS'results'
p782
(dp783
S'unapply'
p784
(dp785
g781
I7
sS'median'
p786
L0L
sS'display'
p787
S'17/26'
p788
ssS'apply'
p789
(dp790
g781
I8
sg786
L0L
sg787
S'34/41'
p791
ssS'change'
p792
(dp793
g781
I4
sg786
L0L
sg787
S'7/17'
p794
ssS'query'
p795
(dp796
g781
I9
sg786
L0L
sg787
S'59/65'
p797
sssg787
S'117/149'
p798
ssVFluid 0.9.6
p799
(dp800
S'total_runs'
p801
L1L
sS'score'
p802
I8
sS'results'
p803
(dp804
S'unapply'
p805
(dp806
g802
I7
sS'median'
p807
L0L
sS'display'
p808
S'19/26'
p809
ssS'apply'
p810
(dp811
g802
I10
sg807
L0L
sg808
S'39/41'
p812
ssS'change'
p813
(dp814
g802
I10
sg807
L0L
sg808
S'17/17'
p815
ssS'query'
p816
(dp817
g802
I8
sg807
L0L
sg808
S'50/65'
p818
sssg808
S'125/149'
p819
ssVFirefox (Namoroka) 3.6a1
p820
(dp821
S'total_runs'
p822
L3L
sS'score'
p823
I8
sS'results'
p824
(dp825
S'unapply'
p826
(dp827
g823
I7
sS'median'
p828
L0L
sS'display'
p829
S'17/26'
p830
ssS'apply'
p831
(dp832
g823
I8
sg828
L0L
sg829
S'34/41'
p833
ssS'change'
p834
(dp835
g823
I4
sg828
L0L
sg829
S'7/17'
p836
ssS'query'
p837
(dp838
g823
I9
sg828
L0L
sg829
S'59/65'
p839
sssg829
S'117/149'
p840
ssVFirefox 3.6a1pre
p841
(dp842
S'total_runs'
p843
L1L
sS'score'
p844
I8
sS'results'
p845
(dp846
S'unapply'
p847
(dp848
g844
I7
sS'median'
p849
L0L
sS'display'
p850
S'17/26'
p851
ssS'apply'
p852
(dp853
g844
I8
sg849
L0L
sg850
S'34/41'
p854
ssS'change'
p855
(dp856
g844
I4
sg849
L0L
sg850
S'7/17'
p857
ssS'query'
p858
(dp859
g844
I9
sg849
L0L
sg850
S'59/65'
p860
sssg850
S'117/149'
p861
ssVFirefox 3.0.11
p862
(dp863
S'total_runs'
p864
L20L
sS'score'
p865
I8
sS'results'
p866
(dp867
S'unapply'
p868
(dp869
g865
I7
sS'median'
p870
L0L
sS'display'
p871
S'17/26'
p872
ssS'apply'
p873
(dp874
g865
I8
sg870
L0L
sg871
S'34/41'
p875
ssS'change'
p876
(dp877
g865
I4
sg870
L0L
sg871
S'7/17'
p878
ssS'query'
p879
(dp880
g865
I9
sg870
L0L
sg871
S'59/65'
p881
sssg871
S'117/149'
p882
ssVVienna 2.3.2
p883
(dp884
S'total_runs'
p885
L1L
sS'score'
p886
I8
sS'results'
p887
(dp888
S'unapply'
p889
(dp890
g886
I7
sS'median'
p891
L0L
sS'display'
p892
S'19/26'
p893
ssS'apply'
p894
(dp895
g886
I9
sg891
L0L
sg892
S'37/41'
p896
ssS'change'
p897
(dp898
g886
I10
sg891
L0L
sg892
S'17/17'
p899
ssS'query'
p900
(dp901
g886
I8
sg891
L0L
sg892
S'50/65'
p902
sssg892
S'123/149'
p903
ssVSafari 3.0.4
p904
(dp905
S'total_runs'
p906
L1L
sS'score'
p907
I7
sS'results'
p908
(dp909
S'unapply'
p910
(dp911
g907
I3
sS'median'
p912
L0L
sS'display'
p913
S'8/26'
p914
ssS'apply'
p915
(dp916
g907
I7
sg912
L0L
sg913
S'28/41'
p917
ssS'change'
p918
(dp919
g907
I10
sg912
L0L
sg913
S'17/17'
p920
ssS'query'
p921
(dp922
g907
I8
sg912
L0L
sg913
S'50/65'
p923
sssg913
S'103/149'
p924
ssVVienna 2.3.4
p925
(dp926
S'total_runs'
p927
L2L
sS'score'
p928
I8
sS'results'
p929
(dp930
S'unapply'
p931
(dp932
g928
I7
sS'median'
p933
L0L
sS'display'
p934
S'19/26'
p935
ssS'apply'
p936
(dp937
g928
I9
sg933
L0L
sg934
S'37/41'
p938
ssS'change'
p939
(dp940
g928
I10
sg933
L0L
sg934
S'17/17'
p941
ssS'query'
p942
(dp943
g928
I8
sg933
L0L
sg934
S'50/65'
p944
sssg934
S'123/149'
p945
ssVFirefox 3.0.10
p946
(dp947
S'total_runs'
p948
L18L
sS'score'
p949
I8
sS'results'
p950
(dp951
S'unapply'
p952
(dp953
g949
I7
sS'median'
p954
L0L
sS'display'
p955
S'17/26'
p956
ssS'apply'
p957
(dp958
g949
I8
sg954
L0L
sg955
S'34/41'
p959
ssS'change'
p960
(dp961
g949
I4
sg954
L0L
sg955
S'7/17'
p962
ssS'query'
p963
(dp964
g949
I9
sg954
L0L
sg955
S'59/65'
p965
sssg955
S'117/149'
p966
ssVNetFront 3.5
p967
(dp968
S'total_runs'
p969
L1L
sS'score'
p970
I0
sS'results'
p971
(dp972
S'unapply'
p973
(dp974
g970
I0
sS'median'
p975
L0L
sS'display'
p976
S'0/26'
p977
ssS'apply'
p978
(dp979
g970
I0
sg975
L0L
sg976
S'0/41'
p980
ssS'change'
p981
(dp982
g970
I0
sg975
L0L
sg976
S'0/17'
p983
ssS'query'
p984
(dp985
g970
I0
sg975
L0L
sg976
S'0/65'
p986
sssg976
S'0/149'
p987
ssVFirefox (Minefield) 3.7.a1pre
p988
(dp989
S'total_runs'
p990
L41L
sS'score'
p991
I8
sS'results'
p992
(dp993
S'unapply'
p994
(dp995
g991
I7
sS'median'
p996
L0L
sS'display'
p997
S'17/26'
p998
ssS'apply'
p999
(dp1000
g991
I8
sg996
L0L
sg997
S'34/41'
p1001
ssS'change'
p1002
(dp1003
g991
I4
sg996
L0L
sg997
S'7/17'
p1004
ssS'query'
p1005
(dp1006
g991
I9
sg996
L0L
sg997
S'59/65'
p1007
sssg997
S'117/149'
p1008
ssVOpera 9.70
p1009
(dp1010
S'total_runs'
p1011
L1L
sS'score'
p1012
I6
sS'results'
p1013
(dp1014
S'unapply'
p1015
(dp1016
g1012
I5
sS'median'
p1017
L0L
sS'display'
p1018
S'13/26'
p1019
ssS'apply'
p1020
(dp1021
g1012
I6
sg1017
L0L
sg1018
S'26/41'
p1022
ssS'change'
p1023
(dp1024
g1012
I4
sg1017
L0L
sg1018
S'7/17'
p1025
ssS'query'
p1026
(dp1027
g1012
I6
sg1017
L0L
sg1018
S'42/65'
p1028
sssg1018
S'88/149'
p1029
ssVFirefox (Minefield) 3.6a1pre
p1030
(dp1031
S'total_runs'
p1032
L5L
sS'score'
p1033
I8
sS'results'
p1034
(dp1035
S'unapply'
p1036
(dp1037
g1033
I7
sS'median'
p1038
L0L
sS'display'
p1039
S'17/26'
p1040
ssS'apply'
p1041
(dp1042
g1033
I8
sg1038
L0L
sg1039
S'34/41'
p1043
ssS'change'
p1044
(dp1045
g1033
I4
sg1038
L0L
sg1039
S'7/17'
p1046
ssS'query'
p1047
(dp1048
g1033
I9
sg1038
L0L
sg1039
S'59/65'
p1049
sssg1039
S'117/149'
p1050
ssVFirefox 3.0.12
p1051
(dp1052
S'total_runs'
p1053
L9L
sS'score'
p1054
I8
sS'results'
p1055
(dp1056
S'unapply'
p1057
(dp1058
g1054
I7
sS'median'
p1059
L0L
sS'display'
p1060
S'17/26'
p1061
ssS'apply'
p1062
(dp1063
g1054
I8
sg1059
L0L
sg1060
S'34/41'
p1064
ssS'change'
p1065
(dp1066
g1054
I4
sg1059
L0L
sg1060
S'7/17'
p1067
ssS'query'
p1068
(dp1069
g1054
I9
sg1059
L0L
sg1060
S'59/65'
p1070
sssg1060
S'117/149'
p1071
ssVIron 3.0.189
p1072
(dp1073
S'total_runs'
p1074
L2L
sS'score'
p1075
I8
sS'results'
p1076
(dp1077
S'unapply'
p1078
(dp1079
g1075
I7
sS'median'
p1080
L0L
sS'display'
p1081
S'19/26'
p1082
ssS'apply'
p1083
(dp1084
g1075
I10
sg1080
L0L
sg1081
S'39/41'
p1085
ssS'change'
p1086
(dp1087
g1075
I10
sg1080
L0L
sg1081
S'17/17'
p1088
ssS'query'
p1089
(dp1090
g1075
I8
sg1080
L0L
sg1081
S'50/65'
p1091
sssg1081
S'125/149'
p1092
ssVFirefox 1.5
p1093
(dp1094
S'total_runs'
p1095
L3L
sS'score'
p1096
I8
sS'results'
p1097
(dp1098
S'unapply'
p1099
(dp1100
g1096
I7
sS'median'
p1101
L0L
sS'display'
p1102
S'17/26'
p1103
ssS'apply'
p1104
(dp1105
g1096
I8
sg1101
L0L
sg1102
S'34/41'
p1106
ssS'change'
p1107
(dp1108
g1096
I4
sg1101
L0L
sg1102
S'7/17'
p1109
ssS'query'
p1110
(dp1111
g1096
I9
sg1101
L0L
sg1102
S'59/65'
p1112
sssg1102
S'117/149'
p1113
ssVIron 3.0.197
p1114
(dp1115
S'total_runs'
p1116
L36L
sS'score'
p1117
I9
sS'results'
p1118
(dp1119
S'unapply'
p1120
(dp1121
g1117
I9
sS'median'
p1122
L0L
sS'display'
p1123
S'23/26'
p1124
ssS'apply'
p1125
(dp1126
g1117
I10
sg1122
L0L
sg1123
S'39/41'
p1127
ssS'change'
p1128
(dp1129
g1117
I10
sg1122
L0L
sg1123
S'17/17'
p1130
ssS'query'
p1131
(dp1132
g1117
I8
sg1122
L0L
sg1123
S'50/65'
p1133
sssg1123
S'129/149'
p1134
ssVSafari 3.1.2
p1135
(dp1136
S'total_runs'
p1137
L3L
sS'score'
p1138
I7
sS'results'
p1139
(dp1140
S'unapply'
p1141
(dp1142
g1138
I3
sS'median'
p1143
L0L
sS'display'
p1144
S'9/26'
p1145
ssS'apply'
p1146
(dp1147
g1138
I7
sg1143
L0L
sg1144
S'28/41'
p1148
ssS'change'
p1149
(dp1150
g1138
I10
sg1143
L0L
sg1144
S'17/17'
p1151
ssS'query'
p1152
(dp1153
g1138
I8
sg1143
L0L
sg1144
S'50/65'
p1154
sssg1144
S'104/149'
p1155
ssVFirefox (Namoroka) 3.6.a1
p1156
(dp1157
S'total_runs'
p1158
L4L
sS'score'
p1159
I8
sS'results'
p1160
(dp1161
S'unapply'
p1162
(dp1163
g1159
I7
sS'median'
p1164
L0L
sS'display'
p1165
S'17/26'
p1166
ssS'apply'
p1167
(dp1168
g1159
I8
sg1164
L0L
sg1165
S'34/41'
p1169
ssS'change'
p1170
(dp1171
g1159
I4
sg1164
L0L
sg1165
S'7/17'
p1172
ssS'query'
p1173
(dp1174
g1159
I9
sg1164
L0L
sg1165
S'59/65'
p1175
sssg1165
S'117/149'
p1176
ssVNetscape 9.0.0
p1177
(dp1178
S'total_runs'
p1179
L1L
sS'score'
p1180
I8
sS'results'
p1181
(dp1182
S'unapply'
p1183
(dp1184
g1180
I7
sS'median'
p1185
L0L
sS'display'
p1186
S'17/26'
p1187
ssS'apply'
p1188
(dp1189
g1180
I8
sg1185
L0L
sg1186
S'34/41'
p1190
ssS'change'
p1191
(dp1192
g1180
I4
sg1185
L0L
sg1186
S'7/17'
p1193
ssS'query'
p1194
(dp1195
g1180
I9
sg1185
L0L
sg1186
S'59/65'
p1196
sssg1186
S'117/149'
p1197
ssVFlock 2.0.3
p1198
(dp1199
S'total_runs'
p1200
L2L
sS'score'
p1201
I8
sS'results'
p1202
(dp1203
S'unapply'
p1204
(dp1205
g1201
I7
sS'median'
p1206
L0L
sS'display'
p1207
S'17/26'
p1208
ssS'apply'
p1209
(dp1210
g1201
I8
sg1206
L0L
sg1207
S'34/41'
p1211
ssS'change'
p1212
(dp1213
g1201
I4
sg1206
L0L
sg1207
S'7/17'
p1214
ssS'query'
p1215
(dp1216
g1201
I9
sg1206
L0L
sg1207
S'59/65'
p1217
sssg1207
S'117/149'
p1218
ssVAvant 1
p1219
(dp1220
S'total_runs'
p1221
L8L
sS'score'
p1222
I6
sS'results'
p1223
(dp1224
S'unapply'
p1225
(dp1226
g1222
I4
sS'median'
p1227
L0L
sS'display'
p1228
S'11/26'
p1229
ssS'apply'
p1230
(dp1231
g1222
I6
sg1227
L0L
sg1228
S'24/41'
p1232
ssS'change'
p1233
(dp1234
g1222
I3
sg1227
L0L
sg1228
S'5/17'
p1235
ssS'query'
p1236
(dp1237
g1222
I9
sg1227
L0L
sg1228
S'56/65'
p1238
sssg1228
S'96/149'
p1239
ssViPhone 3.0.1
p1240
(dp1241
S'total_runs'
p1242
L8L
sS'score'
p1243
I8
sS'results'
p1244
(dp1245
S'unapply'
p1246
(dp1247
g1243
I7
sS'median'
p1248
L0L
sS'display'
p1249
S'17/26'
p1250
ssS'apply'
p1251
(dp1252
g1243
I8
sg1248
L0L
sg1249
S'34/41'
p1253
ssS'change'
p1254
(dp1255
g1243
I10
sg1248
L0L
sg1249
S'17/17'
p1256
ssS'query'
p1257
(dp1258
g1243
I8
sg1248
L0L
sg1249
S'50/65'
p1259
sssg1249
S'118/149'
p1260
ssVMidori 0.2.0
p1261
(dp1262
S'total_runs'
p1263
L1L
sS'score'
p1264
I8
sS'results'
p1265
(dp1266
S'unapply'
p1267
(dp1268
g1264
I7
sS'median'
p1269
L0L
sS'display'
p1270
S'19/26'
p1271
ssS'apply'
p1272
(dp1273
g1264
I10
sg1269
L0L
sg1270
S'39/41'
p1274
ssS'change'
p1275
(dp1276
g1264
I10
sg1269
L0L
sg1270
S'17/17'
p1277
ssS'query'
p1278
(dp1279
g1264
I8
sg1269
L0L
sg1270
S'50/65'
p1280
sssg1270
S'125/149'
p1281
ssVOpera 9.80
p1282
(dp1283
S'total_runs'
p1284
L1L
sS'score'
p1285
I6
sS'results'
p1286
(dp1287
S'unapply'
p1288
(dp1289
g1285
I5
sS'median'
p1290
L0L
sS'display'
p1291
S'13/26'
p1292
ssS'apply'
p1293
(dp1294
g1285
I6
sg1290
L0L
sg1291
S'26/41'
p1295
ssS'change'
p1296
(dp1297
g1285
I4
sg1290
L0L
sg1291
S'7/17'
p1298
ssS'query'
p1299
(dp1300
g1285
I7
sg1290
L0L
sg1291
S'43/65'
p1301
sssg1291
S'89/149'
p1302
ssVFirefox 3.2a1pre
p1303
(dp1304
S'total_runs'
p1305
L1L
sS'score'
p1306
I8
sS'results'
p1307
(dp1308
S'unapply'
p1309
(dp1310
g1306
I7
sS'median'
p1311
I0
sS'display'
p1312
S'17/26'
p1313
ssS'apply'
p1314
(dp1315
g1306
I8
sg1311
I0
sg1312
S'34/41'
p1316
ssS'change'
p1317
(dp1318
g1306
I4
sg1311
I0
sg1312
S'7/17'
p1319
ssS'query'
p1320
(dp1321
g1306
I9
sg1311
I0
sg1312
S'59/65'
p1322
sssg1312
S'117/149'
p1323
ssVFirefox 3.5
p1324
(dp1325
S'total_runs'
p1326
L2695L
sS'score'
p1327
I8
sS'results'
p1328
(dp1329
S'unapply'
p1330
(dp1331
g1327
I7
sS'median'
p1332
L0L
sS'display'
p1333
S'17/26'
p1334
ssS'apply'
p1335
(dp1336
g1327
I8
sg1332
L0L
sg1333
S'34/41'
p1337
ssS'change'
p1338
(dp1339
g1327
I4
sg1332
L0L
sg1333
S'7/17'
p1340
ssS'query'
p1341
(dp1342
g1327
I9
sg1332
L0L
sg1333
S'59/65'
p1343
sssg1333
S'117/149'
p1344
ssVSafari 3.2.1
p1345
(dp1346
S'total_runs'
p1347
L5L
sS'score'
p1348
I7
sS'results'
p1349
(dp1350
S'unapply'
p1351
(dp1352
g1348
I3
sS'median'
p1353
L0L
sS'display'
p1354
S'9/26'
p1355
ssS'apply'
p1356
(dp1357
g1348
I7
sg1353
L0L
sg1354
S'28/41'
p1358
ssS'change'
p1359
(dp1360
g1348
I10
sg1353
L0L
sg1354
S'17/17'
p1361
ssS'query'
p1362
(dp1363
g1348
I8
sg1353
L0L
sg1354
S'50/65'
p1364
sssg1354
S'104/149'
p1365
ssVNetscape 7.1
p1366
(dp1367
S'total_runs'
p1368
L1L
sS'score'
p1369
I8
sS'results'
p1370
(dp1371
S'unapply'
p1372
(dp1373
g1369
I7
sS'median'
p1374
L0L
sS'display'
p1375
S'17/26'
p1376
ssS'apply'
p1377
(dp1378
g1369
I8
sg1374
L0L
sg1375
S'34/41'
p1379
ssS'change'
p1380
(dp1381
g1369
I4
sg1374
L0L
sg1375
S'7/17'
p1382
ssS'query'
p1383
(dp1384
g1369
I9
sg1374
L0L
sg1375
S'59/65'
p1385
sssg1375
S'117/149'
p1386
ssVSafari 3.2.2
p1387
(dp1388
S'total_runs'
p1389
L1L
sS'score'
p1390
I7
sS'results'
p1391
(dp1392
S'unapply'
p1393
(dp1394
g1390
I3
sS'median'
p1395
L0L
sS'display'
p1396
S'9/26'
p1397
ssS'apply'
p1398
(dp1399
g1390
I7
sg1395
L0L
sg1396
S'28/41'
p1400
ssS'change'
p1401
(dp1402
g1390
I10
sg1395
L0L
sg1396
S'17/17'
p1403
ssS'query'
p1404
(dp1405
g1390
I8
sg1395
L0L
sg1396
S'50/65'
p1406
sssg1396
S'104/149'
p1407
ssVCamino 2.1a1pre
p1408
(dp1409
S'total_runs'
p1410
L1L
sS'score'
p1411
I8
sS'results'
p1412
(dp1413
S'unapply'
p1414
(dp1415
g1411
I7
sS'median'
p1416
L0L
sS'display'
p1417
S'17/26'
p1418
ssS'apply'
p1419
(dp1420
g1411
I8
sg1416
L0L
sg1417
S'34/41'
p1421
ssS'change'
p1422
(dp1423
g1411
I4
sg1416
L0L
sg1417
S'7/17'
p1424
ssS'query'
p1425
(dp1426
g1411
I8
sg1416
L0L
sg1417
S'54/65'
p1427
sssg1417
S'112/149'
p1428
ssViPhone 2.2.1
p1429
(dp1430
S'total_runs'
p1431
L4L
sS'score'
p1432
I7
sS'results'
p1433
(dp1434
S'unapply'
p1435
(dp1436
g1432
I3
sS'median'
p1437
L0L
sS'display'
p1438
S'9/26'
p1439
ssS'apply'
p1440
(dp1441
g1432
I7
sg1437
L0L
sg1438
S'28/41'
p1442
ssS'change'
p1443
(dp1444
g1432
I10
sg1437
L0L
sg1438
S'17/17'
p1445
ssS'query'
p1446
(dp1447
g1432
I8
sg1437
L0L
sg1438
S'50/65'
p1448
sssg1438
S'104/149'
p1449
ssVSeaMonkey 2.0
p1450
(dp1451
S'total_runs'
p1452
L17L
sS'score'
p1453
I8
sS'results'
p1454
(dp1455
S'unapply'
p1456
(dp1457
g1453
I7
sS'median'
p1458
L0L
sS'display'
p1459
S'17/26'
p1460
ssS'apply'
p1461
(dp1462
g1453
I8
sg1458
L0L
sg1459
S'34/41'
p1463
ssS'change'
p1464
(dp1465
g1453
I4
sg1458
L0L
sg1459
S'7/17'
p1466
ssS'query'
p1467
(dp1468
g1453
I9
sg1458
L0L
sg1459
S'59/65'
p1469
sssg1459
S'117/149'
p1470
ssVFlock 2.0
p1471
(dp1472
S'total_runs'
p1473
L2L
sS'score'
p1474
I8
sS'results'
p1475
(dp1476
S'unapply'
p1477
(dp1478
g1474
I7
sS'median'
p1479
L0L
sS'display'
p1480
S'17/26'
p1481
ssS'apply'
p1482
(dp1483
g1474
I8
sg1479
L0L
sg1480
S'34/41'
p1484
ssS'change'
p1485
(dp1486
g1474
I4
sg1479
L0L
sg1480
S'7/17'
p1487
ssS'query'
p1488
(dp1489
g1474
I9
sg1479
L0L
sg1480
S'59/65'
p1490
sssg1480
S'117/149'
p1491
ssVFirefox 3.6
p1492
(dp1493
S'total_runs'
p1494
L86L
sS'score'
p1495
I8
sS'results'
p1496
(dp1497
S'unapply'
p1498
(dp1499
g1495
I7
sS'median'
p1500
L0L
sS'display'
p1501
S'17/26'
p1502
ssS'apply'
p1503
(dp1504
g1495
I8
sg1500
L0L
sg1501
S'34/41'
p1505
ssS'change'
p1506
(dp1507
g1495
I4
sg1500
L0L
sg1501
S'7/17'
p1508
ssS'query'
p1509
(dp1510
g1495
I9
sg1500
L0L
sg1501
S'59/65'
p1511
sssg1501
S'117/149'
p1512
ssVSleipnir 2.8.5
p1513
(dp1514
S'total_runs'
p1515
L9L
sS'score'
p1516
I7
sS'results'
p1517
(dp1518
S'unapply'
p1519
(dp1520
g1516
I5
sS'median'
p1521
L0L
sS'display'
p1522
S'14/26'
p1523
ssS'apply'
p1524
(dp1525
g1516
I6
sg1521
L0L
sg1522
S'24/41'
p1526
ssS'change'
p1527
(dp1528
g1516
I3
sg1521
L0L
sg1522
S'5/17'
p1529
ssS'query'
p1530
(dp1531
g1516
I9
sg1521
L0L
sg1522
S'56/65'
p1532
sssg1522
S'99/149'
p1533
ssVFirefox (Namoroka) 3.6.a2pre
p1534
(dp1535
S'total_runs'
p1536
L20L
sS'score'
p1537
I8
sS'results'
p1538
(dp1539
S'unapply'
p1540
(dp1541
g1537
I7
sS'median'
p1542
L0L
sS'display'
p1543
S'17/26'
p1544
ssS'apply'
p1545
(dp1546
g1537
I8
sg1542
L0L
sg1543
S'34/41'
p1547
ssS'change'
p1548
(dp1549
g1537
I4
sg1542
L0L
sg1543
S'7/17'
p1550
ssS'query'
p1551
(dp1552
g1537
I9
sg1542
L0L
sg1543
S'59/65'
p1553
sssg1543
S'117/149'
p1554
ssVOpera Mini 4.2.13337
p1555
(dp1556
S'total_runs'
p1557
L1L
sS'score'
p1558
I0
sS'results'
p1559
(dp1560
S'unapply'
p1561
(dp1562
g1558
I0
sS'median'
p1563
L0L
sS'display'
p1564
S'0/26'
p1565
ssS'apply'
p1566
(dp1567
g1558
I0
sg1563
L0L
sg1564
S'0/41'
p1568
ssS'change'
p1569
(dp1570
g1558
I0
sg1563
L0L
sg1564
S'0/17'
p1571
ssS'query'
p1572
(dp1573
g1558
I0
sg1563
L0L
sg1564
S'0/65'
p1574
sssg1564
S'0/149'
p1575
ssVFirefox (Shiretoko) 3.5.5pre
p1576
(dp1577
S'total_runs'
p1578
L3L
sS'score'
p1579
I8
sS'results'
p1580
(dp1581
S'unapply'
p1582
(dp1583
g1579
I7
sS'median'
p1584
L0L
sS'display'
p1585
S'17/26'
p1586
ssS'apply'
p1587
(dp1588
g1579
I8
sg1584
L0L
sg1585
S'34/41'
p1589
ssS'change'
p1590
(dp1591
g1579
I4
sg1584
L0L
sg1585
S'7/17'
p1592
ssS'query'
p1593
(dp1594
g1579
I9
sg1584
L0L
sg1585
S'59/65'
p1595
sssg1585
S'117/149'
p1596
ssVIron 4.0.227
p1597
(dp1598
S'total_runs'
p1599
L4L
sS'score'
p1600
I9
sS'results'
p1601
(dp1602
S'unapply'
p1603
(dp1604
g1600
I9
sS'median'
p1605
L0L
sS'display'
p1606
S'23/26'
p1607
ssS'apply'
p1608
(dp1609
g1600
I10
sg1605
L0L
sg1606
S'39/41'
p1610
ssS'change'
p1611
(dp1612
g1600
I10
sg1605
L0L
sg1606
S'17/17'
p1613
ssS'query'
p1614
(dp1615
g1600
I8
sg1605
L0L
sg1606
S'50/65'
p1616
sssg1606
S'129/149'
p1617
ssVOpera Mini 4.2.14427
p1618
(dp1619
S'total_runs'
p1620
L1L
sS'score'
p1621
I2
sS'results'
p1622
(dp1623
S'unapply'
p1624
(dp1625
g1621
I10
sS'median'
p1626
L0L
sS'display'
p1627
S'26/26'
p1628
ssS'apply'
p1629
(dp1630
g1621
I0
sg1626
L0L
sg1627
S'0/41'
p1631
ssS'change'
p1632
(dp1633
g1621
I0
sg1626
L0L
sg1627
S'0/17'
p1634
ssS'query'
p1635
(dp1636
g1621
I0
sg1626
L0L
sg1627
S'0/65'
p1637
sssg1627
S'26/149'
p1638
ssVIE 6.0
p1639
(dp1640
S'total_runs'
p1641
L65L
sS'score'
p1642
I7
sS'results'
p1643
(dp1644
S'unapply'
p1645
(dp1646
g1642
I5
sS'median'
p1647
L0L
sS'display'
p1648
S'14/26'
p1649
ssS'apply'
p1650
(dp1651
g1642
I6
sg1647
L0L
sg1648
S'24/41'
p1652
ssS'change'
p1653
(dp1654
g1642
I3
sg1647
L0L
sg1648
S'5/17'
p1655
ssS'query'
p1656
(dp1657
g1642
I9
sg1647
L0L
sg1648
S'56/65'
p1658
sssg1648
S'99/149'
p1659
ssVCamino 1.6.7
p1660
(dp1661
S'total_runs'
p1662
L1L
sS'score'
p1663
I8
sS'results'
p1664
(dp1665
S'unapply'
p1666
(dp1667
g1663
I7
sS'median'
p1668
L0L
sS'display'
p1669
S'17/26'
p1670
ssS'apply'
p1671
(dp1672
g1663
I8
sg1668
L0L
sg1669
S'34/41'
p1673
ssS'change'
p1674
(dp1675
g1663
I4
sg1668
L0L
sg1669
S'7/17'
p1676
ssS'query'
p1677
(dp1678
g1663
I9
sg1668
L0L
sg1669
S'59/65'
p1679
sssg1669
S'117/149'
p1680
ssVCamino 1.6.8
p1681
(dp1682
S'total_runs'
p1683
L1L
sS'score'
p1684
I8
sS'results'
p1685
(dp1686
S'unapply'
p1687
(dp1688
g1684
I7
sS'median'
p1689
L0L
sS'display'
p1690
S'17/26'
p1691
ssS'apply'
p1692
(dp1693
g1684
I8
sg1689
L0L
sg1690
S'34/41'
p1694
ssS'change'
p1695
(dp1696
g1684
I4
sg1689
L0L
sg1690
S'7/17'
p1697
ssS'query'
p1698
(dp1699
g1684
I9
sg1689
L0L
sg1690
S'59/65'
p1700
sssg1690
S'117/149'
p1701
ssVCamino 1.6.9
p1702
(dp1703
S'total_runs'
p1704
L7L
sS'score'
p1705
I8
sS'results'
p1706
(dp1707
S'unapply'
p1708
(dp1709
g1705
I7
sS'median'
p1710
L0L
sS'display'
p1711
S'17/26'
p1712
ssS'apply'
p1713
(dp1714
g1705
I8
sg1710
L0L
sg1711
S'34/41'
p1715
ssS'change'
p1716
(dp1717
g1705
I4
sg1710
L0L
sg1711
S'7/17'
p1718
ssS'query'
p1719
(dp1720
g1705
I9
sg1710
L0L
sg1711
S'59/65'
p1721
sssg1711
S'117/149'
p1722
ssVOpera Mini 4.2.15227
p1723
(dp1724
S'total_runs'
p1725
L1L
sS'score'
p1726
I0
sS'results'
p1727
(dp1728
S'unapply'
p1729
(dp1730
g1726
I0
sS'median'
p1731
I0
sS'display'
p1732
S'0/26'
p1733
ssS'apply'
p1734
(dp1735
g1726
I0
sg1731
I0
sg1732
S'0/41'
p1736
ssS'change'
p1737
(dp1738
g1726
I0
sg1731
I0
sg1732
S'0/17'
p1739
ssS'query'
p1740
(dp1741
g1726
I0
sg1731
I0
sg1732
S'0/65'
p1742
sssg1732
S'0/149'
p1743
ssVKonqueror 4.3
p1744
(dp1745
S'total_runs'
p1746
L14L
sS'score'
p1747
I0
sS'results'
p1748
(dp1749
S'unapply'
p1750
(dp1751
g1747
I0
sS'median'
p1752
L0L
sS'display'
p1753
S'0/26'
p1754
ssS'apply'
p1755
(dp1756
g1747
I0
sg1752
L0L
sg1753
S'0/41'
p1757
ssS'change'
p1758
(dp1759
g1747
I0
sg1752
L0L
sg1753
S'0/17'
p1760
ssS'query'
p1761
(dp1762
g1747
I0
sg1752
L0L
sg1753
S'0/65'
p1763
sssg1753
S'0/149'
p1764
ssVKonqueror 4.2
p1765
(dp1766
S'total_runs'
p1767
L2L
sS'score'
p1768
I0
sS'results'
p1769
(dp1770
S'unapply'
p1771
(dp1772
g1768
I0
sS'median'
p1773
L0L
sS'display'
p1774
S'0/26'
p1775
ssS'apply'
p1776
(dp1777
g1768
I0
sg1773
L0L
sg1774
S'0/41'
p1778
ssS'change'
p1779
(dp1780
g1768
I0
sg1773
L0L
sg1774
S'0/17'
p1781
ssS'query'
p1782
(dp1783
g1768
I0
sg1773
L0L
sg1774
S'0/65'
p1784
sssg1774
S'0/149'
p1785
ssVMaxthon 3.0
p1786
(dp1787
S'total_runs'
p1788
L2L
sS'score'
p1789
I8
sS'results'
p1790
(dp1791
S'unapply'
p1792
(dp1793
g1789
I7
sS'median'
p1794
L0L
sS'display'
p1795
S'19/26'
p1796
ssS'apply'
p1797
(dp1798
g1789
I10
sg1794
L0L
sg1795
S'39/41'
p1799
ssS'change'
p1800
(dp1801
g1789
I10
sg1794
L0L
sg1795
S'17/17'
p1802
ssS'query'
p1803
(dp1804
g1789
I8
sg1794
L0L
sg1795
S'50/65'
p1805
sssg1795
S'125/149'
p1806
ssVSafari 3.1
p1807
(dp1808
S'total_runs'
p1809
L9L
sS'score'
p1810
I8
sS'results'
p1811
(dp1812
S'unapply'
p1813
(dp1814
g1810
I7
sS'median'
p1815
L0L
sS'display'
p1816
S'19/26'
p1817
ssS'apply'
p1818
(dp1819
g1810
I10
sg1815
L0L
sg1816
S'39/41'
p1820
ssS'change'
p1821
(dp1822
g1810
I10
sg1815
L0L
sg1816
S'17/17'
p1823
ssS'query'
p1824
(dp1825
g1810
I8
sg1815
L0L
sg1816
S'50/65'
p1826
sssg1816
S'125/149'
p1827
ssVFennec 1.0.b4pre
p1828
(dp1829
S'total_runs'
p1830
L1L
sS'score'
p1831
I8
sS'results'
p1832
(dp1833
S'unapply'
p1834
(dp1835
g1831
I7
sS'median'
p1836
L0L
sS'display'
p1837
S'17/26'
p1838
ssS'apply'
p1839
(dp1840
g1831
I8
sg1836
L0L
sg1837
S'34/41'
p1841
ssS'change'
p1842
(dp1843
g1831
I4
sg1836
L0L
sg1837
S'7/17'
p1844
ssS'query'
p1845
(dp1846
g1831
I9
sg1836
L0L
sg1837
S'59/65'
p1847
sssg1837
S'117/149'
p1848
ssVSeaMonkey 2.0.b2
p1849
(dp1850
S'total_runs'
p1851
L6L
sS'score'
p1852
I8
sS'results'
p1853
(dp1854
S'unapply'
p1855
(dp1856
g1852
I7
sS'median'
p1857
L0L
sS'display'
p1858
S'17/26'
p1859
ssS'apply'
p1860
(dp1861
g1852
I8
sg1857
L0L
sg1858
S'34/41'
p1862
ssS'change'
p1863
(dp1864
g1852
I4
sg1857
L0L
sg1858
S'7/17'
p1865
ssS'query'
p1866
(dp1867
g1852
I9
sg1857
L0L
sg1858
S'59/65'
p1868
sssg1858
S'117/149'
p1869
ssVLunascape 4.9.9
p1870
(dp1871
S'total_runs'
p1872
L1L
sS'score'
p1873
I7
sS'results'
p1874
(dp1875
S'unapply'
p1876
(dp1877
g1873
I3
sS'median'
p1878
L0L
sS'display'
p1879
S'9/26'
p1880
ssS'apply'
p1881
(dp1882
g1873
I9
sg1878
L0L
sg1879
S'35/41'
p1883
ssS'change'
p1884
(dp1885
g1873
I10
sg1878
L0L
sg1879
S'17/17'
p1886
ssS'query'
p1887
(dp1888
g1873
I8
sg1878
L0L
sg1879
S'50/65'
p1889
sssg1879
S'111/149'
p1890
ssVSafari 3.2.3
p1891
(dp1892
S'total_runs'
p1893
L6L
sS'score'
p1894
I7
sS'results'
p1895
(dp1896
S'unapply'
p1897
(dp1898
g1894
I3
sS'median'
p1899
L0L
sS'display'
p1900
S'9/26'
p1901
ssS'apply'
p1902
(dp1903
g1894
I7
sg1899
L0L
sg1900
S'28/41'
p1904
ssS'change'
p1905
(dp1906
g1894
I10
sg1899
L0L
sg1900
S'17/17'
p1907
ssS'query'
p1908
(dp1909
g1894
I8
sg1899
L0L
sg1900
S'50/65'
p1910
sssg1900
S'104/149'
p1911
ssVFirefox 1.5.0
p1912
(dp1913
S'total_runs'
p1914
L3L
sS'score'
p1915
I8
sS'results'
p1916
(dp1917
S'unapply'
p1918
(dp1919
g1915
I7
sS'median'
p1920
L0L
sS'display'
p1921
S'17/26'
p1922
ssS'apply'
p1923
(dp1924
g1915
I8
sg1920
L0L
sg1921
S'34/41'
p1925
ssS'change'
p1926
(dp1927
g1915
I4
sg1920
L0L
sg1921
S'7/17'
p1928
ssS'query'
p1929
(dp1930
g1915
I9
sg1920
L0L
sg1921
S'59/65'
p1931
sssg1921
S'117/149'
p1932
ssVFirefox 3.6b2
p1933
(dp1934
S'total_runs'
p1935
L21L
sS'score'
p1936
I8
sS'results'
p1937
(dp1938
S'unapply'
p1939
(dp1940
g1936
I7
sS'median'
p1941
L0L
sS'display'
p1942
S'17/26'
p1943
ssS'apply'
p1944
(dp1945
g1936
I8
sg1941
L0L
sg1942
S'34/41'
p1946
ssS'change'
p1947
(dp1948
g1936
I4
sg1941
L0L
sg1942
S'7/17'
p1949
ssS'query'
p1950
(dp1951
g1936
I9
sg1941
L0L
sg1942
S'59/65'
p1952
sssg1942
S'117/149'
p1953
ssVOpera 10.01
p1954
(dp1955
S'total_runs'
p1956
L110L
sS'score'
p1957
I6
sS'results'
p1958
(dp1959
S'unapply'
p1960
(dp1961
g1957
I5
sS'median'
p1962
L0L
sS'display'
p1963
S'13/26'
p1964
ssS'apply'
p1965
(dp1966
g1957
I6
sg1962
L0L
sg1963
S'26/41'
p1967
ssS'change'
p1968
(dp1969
g1957
I4
sg1962
L0L
sg1963
S'7/17'
p1970
ssS'query'
p1971
(dp1972
g1957
I7
sg1962
L0L
sg1963
S'43/65'
p1973
sssg1963
S'89/149'
p1974
ssVOpera 10.00
p1975
(dp1976
S'total_runs'
p1977
L389L
sS'score'
p1978
I6
sS'results'
p1979
(dp1980
S'unapply'
p1981
(dp1982
g1978
I5
sS'median'
p1983
L0L
sS'display'
p1984
S'13/26'
p1985
ssS'apply'
p1986
(dp1987
g1978
I6
sg1983
L0L
sg1984
S'26/41'
p1988
ssS'change'
p1989
(dp1990
g1978
I4
sg1983
L0L
sg1984
S'7/17'
p1991
ssS'query'
p1992
(dp1993
g1978
I7
sg1983
L0L
sg1984
S'43/65'
p1994
sssg1984
S'89/149'
p1995
ssVSafari 4.0
p1996
(dp1997
S'total_runs'
p1998
L687L
sS'score'
p1999
I8
sS'results'
p2000
(dp2001
S'unapply'
p2002
(dp2003
g1999
I7
sS'median'
p2004
L0L
sS'display'
p2005
S'19/26'
p2006
ssS'apply'
p2007
(dp2008
g1999
I10
sg2004
L0L
sg2005
S'39/41'
p2009
ssS'change'
p2010
(dp2011
g1999
I10
sg2004
L0L
sg2005
S'17/17'
p2012
ssS'query'
p2013
(dp2014
g1999
I8
sg2004
L0L
sg2005
S'50/65'
p2015
sssg2005
S'125/149'
p2016
ssVChrome Frame (IE 8) 4.0.211
p2017
(dp2018
S'total_runs'
p2019
L9L
sS'score'
p2020
I9
sS'results'
p2021
(dp2022
S'unapply'
p2023
(dp2024
g2020
I9
sS'median'
p2025
L0L
sS'display'
p2026
S'23/26'
p2027
ssS'apply'
p2028
(dp2029
g2020
I10
sg2025
L0L
sg2026
S'39/41'
p2030
ssS'change'
p2031
(dp2032
g2020
I10
sg2025
L0L
sg2026
S'17/17'
p2033
ssS'query'
p2034
(dp2035
g2020
I8
sg2025
L0L
sg2026
S'50/65'
p2036
sssg2026
S'129/149'
p2037
ssVFlock 1.2.7
p2038
(dp2039
S'total_runs'
p2040
L1L
sS'score'
p2041
I8
sS'results'
p2042
(dp2043
S'unapply'
p2044
(dp2045
g2041
I7
sS'median'
p2046
L0L
sS'display'
p2047
S'17/26'
p2048
ssS'apply'
p2049
(dp2050
g2041
I8
sg2046
L0L
sg2047
S'34/41'
p2051
ssS'change'
p2052
(dp2053
g2041
I4
sg2046
L0L
sg2047
S'7/17'
p2054
ssS'query'
p2055
(dp2056
g2041
I9
sg2046
L0L
sg2047
S'59/65'
p2057
sssg2047
S'117/149'
p2058
ssVIceweasel 3.5.2
p2059
(dp2060
S'total_runs'
p2061
L2L
sS'score'
p2062
I8
sS'results'
p2063
(dp2064
S'unapply'
p2065
(dp2066
g2062
I7
sS'median'
p2067
L0L
sS'display'
p2068
S'17/26'
p2069
ssS'apply'
p2070
(dp2071
g2062
I8
sg2067
L0L
sg2068
S'34/41'
p2072
ssS'change'
p2073
(dp2074
g2062
I4
sg2067
L0L
sg2068
S'7/17'
p2075
ssS'query'
p2076
(dp2077
g2062
I9
sg2067
L0L
sg2068
S'59/65'
p2078
sssg2068
S'117/149'
p2079
ssVIceweasel 3.5.1
p2080
(dp2081
S'total_runs'
p2082
L1L
sS'score'
p2083
I8
sS'results'
p2084
(dp2085
S'unapply'
p2086
(dp2087
g2083
I7
sS'median'
p2088
L0L
sS'display'
p2089
S'17/26'
p2090
ssS'apply'
p2091
(dp2092
g2083
I8
sg2088
L0L
sg2089
S'34/41'
p2093
ssS'change'
p2094
(dp2095
g2083
I4
sg2088
L0L
sg2089
S'7/17'
p2096
ssS'query'
p2097
(dp2098
g2083
I9
sg2088
L0L
sg2089
S'59/65'
p2099
sssg2089
S'117/149'
p2100
ssVIceweasel 3.5.3
p2101
(dp2102
S'total_runs'
p2103
L2L
sS'score'
p2104
I8
sS'results'
p2105
(dp2106
S'unapply'
p2107
(dp2108
g2104
I7
sS'median'
p2109
L0L
sS'display'
p2110
S'17/26'
p2111
ssS'apply'
p2112
(dp2113
g2104
I8
sg2109
L0L
sg2110
S'34/41'
p2114
ssS'change'
p2115
(dp2116
g2104
I4
sg2109
L0L
sg2110
S'7/17'
p2117
ssS'query'
p2118
(dp2119
g2104
I9
sg2109
L0L
sg2110
S'59/65'
p2120
sssg2110
S'117/149'
p2121
ssVFirefox (Minefield) 3.7a1pre
p2122
(dp2123
S'total_runs'
p2124
L91L
sS'score'
p2125
I8
sS'results'
p2126
(dp2127
S'unapply'
p2128
(dp2129
g2125
I7
sS'median'
p2130
L0L
sS'display'
p2131
S'17/26'
p2132
ssS'apply'
p2133
(dp2134
g2125
I8
sg2130
L0L
sg2131
S'34/41'
p2135
ssS'change'
p2136
(dp2137
g2125
I4
sg2130
L0L
sg2131
S'7/17'
p2138
ssS'query'
p2139
(dp2140
g2125
I9
sg2130
L0L
sg2131
S'59/65'
p2141
sssg2131
S'117/149'
p2142
ssVFirefox 3.5.1
p2143
(dp2144
S'total_runs'
p2145
L32L
sS'score'
p2146
I8
sS'results'
p2147
(dp2148
S'unapply'
p2149
(dp2150
g2146
I7
sS'median'
p2151
L0L
sS'display'
p2152
S'17/26'
p2153
ssS'apply'
p2154
(dp2155
g2146
I8
sg2151
L0L
sg2152
S'34/41'
p2156
ssS'change'
p2157
(dp2158
g2146
I4
sg2151
L0L
sg2152
S'7/17'
p2159
ssS'query'
p2160
(dp2161
g2146
I9
sg2151
L0L
sg2152
S'59/65'
p2162
sssg2152
S'117/149'
p2163
ssVChrome 4.0.206
p2164
(dp2165
S'total_runs'
p2166
L101L
sS'score'
p2167
I9
sS'results'
p2168
(dp2169
S'unapply'
p2170
(dp2171
g2167
I9
sS'median'
p2172
L0L
sS'display'
p2173
S'23/26'
p2174
ssS'apply'
p2175
(dp2176
g2167
I10
sg2172
L0L
sg2173
S'39/41'
p2177
ssS'change'
p2178
(dp2179
g2167
I10
sg2172
L0L
sg2173
S'17/17'
p2180
ssS'query'
p2181
(dp2182
g2167
I8
sg2172
L0L
sg2173
S'50/65'
p2183
sssg2173
S'129/149'
p2184
ssVChrome 4.0.207
p2185
(dp2186
S'total_runs'
p2187
L54L
sS'score'
p2188
I9
sS'results'
p2189
(dp2190
S'unapply'
p2191
(dp2192
g2188
I9
sS'median'
p2193
L0L
sS'display'
p2194
S'23/26'
p2195
ssS'apply'
p2196
(dp2197
g2188
I10
sg2193
L0L
sg2194
S'39/41'
p2198
ssS'change'
p2199
(dp2200
g2188
I10
sg2193
L0L
sg2194
S'17/17'
p2201
ssS'query'
p2202
(dp2203
g2188
I8
sg2193
L0L
sg2194
S'50/65'
p2204
sssg2194
S'129/149'
p2205
ssVChrome 4.0.204
p2206
(dp2207
S'total_runs'
p2208
L4L
sS'score'
p2209
I9
sS'results'
p2210
(dp2211
S'unapply'
p2212
(dp2213
g2209
I9
sS'median'
p2214
L0L
sS'display'
p2215
S'23/26'
p2216
ssS'apply'
p2217
(dp2218
g2209
I10
sg2214
L0L
sg2215
S'39/41'
p2219
ssS'change'
p2220
(dp2221
g2209
I10
sg2214
L0L
sg2215
S'17/17'
p2222
ssS'query'
p2223
(dp2224
g2209
I8
sg2214
L0L
sg2215
S'50/65'
p2225
sssg2215
S'129/149'
p2226
ssVChrome 4.0.205
p2227
(dp2228
S'total_runs'
p2229
L1L
sS'score'
p2230
I9
sS'results'
p2231
(dp2232
S'unapply'
p2233
(dp2234
g2230
I9
sS'median'
p2235
L0L
sS'display'
p2236
S'23/26'
p2237
ssS'apply'
p2238
(dp2239
g2230
I10
sg2235
L0L
sg2236
S'39/41'
p2240
ssS'change'
p2241
(dp2242
g2230
I10
sg2235
L0L
sg2236
S'17/17'
p2243
ssS'query'
p2244
(dp2245
g2230
I8
sg2235
L0L
sg2236
S'50/65'
p2246
sssg2236
S'129/149'
p2247
ssVChrome 4.0.202
p2248
(dp2249
S'total_runs'
p2250
L4L
sS'score'
p2251
I9
sS'results'
p2252
(dp2253
S'unapply'
p2254
(dp2255
g2251
I9
sS'median'
p2256
L0L
sS'display'
p2257
S'23/26'
p2258
ssS'apply'
p2259
(dp2260
g2251
I10
sg2256
L0L
sg2257
S'39/41'
p2261
ssS'change'
p2262
(dp2263
g2251
I10
sg2256
L0L
sg2257
S'17/17'
p2264
ssS'query'
p2265
(dp2266
g2251
I8
sg2256
L0L
sg2257
S'50/65'
p2267
sssg2257
S'129/149'
p2268
ssVChrome 4.0.203
p2269
(dp2270
S'total_runs'
p2271
L4L
sS'score'
p2272
I9
sS'results'
p2273
(dp2274
S'unapply'
p2275
(dp2276
g2272
I9
sS'median'
p2277
L0L
sS'display'
p2278
S'23/26'
p2279
ssS'apply'
p2280
(dp2281
g2272
I10
sg2277
L0L
sg2278
S'39/41'
p2282
ssS'change'
p2283
(dp2284
g2272
I10
sg2277
L0L
sg2278
S'17/17'
p2285
ssS'query'
p2286
(dp2287
g2272
I8
sg2277
L0L
sg2278
S'50/65'
p2288
sssg2278
S'129/149'
p2289
ssVFirefox 3.0.13
p2290
(dp2291
S'total_runs'
p2292
L49L
sS'score'
p2293
I8
sS'results'
p2294
(dp2295
S'unapply'
p2296
(dp2297
g2293
I7
sS'median'
p2298
L0L
sS'display'
p2299
S'17/26'
p2300
ssS'apply'
p2301
(dp2302
g2293
I8
sg2298
L0L
sg2299
S'34/41'
p2303
ssS'change'
p2304
(dp2305
g2293
I4
sg2298
L0L
sg2299
S'7/17'
p2306
ssS'query'
p2307
(dp2308
g2293
I9
sg2298
L0L
sg2299
S'59/65'
p2309
sssg2299
S'117/149'
p2310
ssVChrome 4.0.201
p2311
(dp2312
S'total_runs'
p2313
L2L
sS'score'
p2314
I9
sS'results'
p2315
(dp2316
S'unapply'
p2317
(dp2318
g2314
I9
sS'median'
p2319
L0L
sS'display'
p2320
S'23/26'
p2321
ssS'apply'
p2322
(dp2323
g2314
I10
sg2319
L0L
sg2320
S'39/41'
p2324
ssS'change'
p2325
(dp2326
g2314
I10
sg2319
L0L
sg2320
S'17/17'
p2327
ssS'query'
p2328
(dp2329
g2314
I8
sg2319
L0L
sg2320
S'50/65'
p2330
sssg2320
S'129/149'
p2331
ssVFirefox 3.1
p2332
(dp2333
S'total_runs'
p2334
L1L
sS'score'
p2335
I8
sS'results'
p2336
(dp2337
S'unapply'
p2338
(dp2339
g2335
I7
sS'median'
p2340
L0L
sS'display'
p2341
S'17/26'
p2342
ssS'apply'
p2343
(dp2344
g2335
I8
sg2340
L0L
sg2341
S'34/41'
p2345
ssS'change'
p2346
(dp2347
g2335
I4
sg2340
L0L
sg2341
S'7/17'
p2348
ssS'query'
p2349
(dp2350
g2335
I9
sg2340
L0L
sg2341
S'59/65'
p2351
sssg2341
S'117/149'
p2352
ssVFirefox 3.0
p2353
(dp2354
S'total_runs'
p2355
L396L
sS'score'
p2356
I8
sS'results'
p2357
(dp2358
S'unapply'
p2359
(dp2360
g2356
I7
sS'median'
p2361
L0L
sS'display'
p2362
S'17/26'
p2363
ssS'apply'
p2364
(dp2365
g2356
I8
sg2361
L0L
sg2362
S'34/41'
p2366
ssS'change'
p2367
(dp2368
g2356
I4
sg2361
L0L
sg2362
S'7/17'
p2369
ssS'query'
p2370
(dp2371
g2356
I9
sg2361
L0L
sg2362
S'59/65'
p2372
sssg2362
S'117/149'
p2373
ssVAndroid 2.0
p2374
(dp2375
S'total_runs'
p2376
L6L
sS'score'
p2377
I9
sS'results'
p2378
(dp2379
S'unapply'
p2380
(dp2381
g2377
I9
sS'median'
p2382
L0L
sS'display'
p2383
S'23/26'
p2384
ssS'apply'
p2385
(dp2386
g2377
I10
sg2382
L0L
sg2383
S'39/41'
p2387
ssS'change'
p2388
(dp2389
g2377
I10
sg2382
L0L
sg2383
S'17/17'
p2390
ssS'query'
p2391
(dp2392
g2377
I8
sg2382
L0L
sg2383
S'50/65'
p2393
sssg2383
S'129/149'
p2394
ssVChrome 2.0.172
p2395
(dp2396
S'total_runs'
p2397
L164L
sS'score'
p2398
I8
sS'results'
p2399
(dp2400
S'unapply'
p2401
(dp2402
g2398
I7
sS'median'
p2403
L0L
sS'display'
p2404
S'19/26'
p2405
ssS'apply'
p2406
(dp2407
g2398
I10
sg2403
L0L
sg2404
S'39/41'
p2408
ssS'change'
p2409
(dp2410
g2398
I10
sg2403
L0L
sg2404
S'17/17'
p2411
ssS'query'
p2412
(dp2413
g2398
I8
sg2403
L0L
sg2404
S'50/65'
p2414
sssg2404
S'125/149'
p2415
ssVChrome 4.0.208
p2416
(dp2417
S'total_runs'
p2418
L3L
sS'score'
p2419
I9
sS'results'
p2420
(dp2421
S'unapply'
p2422
(dp2423
g2419
I9
sS'median'
p2424
L0L
sS'display'
p2425
S'23/26'
p2426
ssS'apply'
p2427
(dp2428
g2419
I10
sg2424
L0L
sg2425
S'39/41'
p2429
ssS'change'
p2430
(dp2431
g2419
I10
sg2424
L0L
sg2425
S'17/17'
p2432
ssS'query'
p2433
(dp2434
g2419
I8
sg2424
L0L
sg2425
S'50/65'
p2435
sssg2425
S'129/149'
p2436
ssVChrome 4.0.209
p2437
(dp2438
S'total_runs'
p2439
L14L
sS'score'
p2440
I9
sS'results'
p2441
(dp2442
S'unapply'
p2443
(dp2444
g2440
I9
sS'median'
p2445
L0L
sS'display'
p2446
S'23/26'
p2447
ssS'apply'
p2448
(dp2449
g2440
I10
sg2445
L0L
sg2446
S'39/41'
p2450
ssS'change'
p2451
(dp2452
g2440
I10
sg2445
L0L
sg2446
S'17/17'
p2453
ssS'query'
p2454
(dp2455
g2440
I8
sg2445
L0L
sg2446
S'50/65'
p2456
sssg2446
S'129/149'
p2457
ssVOpera 9.62
p2458
(dp2459
S'total_runs'
p2460
L1L
sS'score'
p2461
I6
sS'results'
p2462
(dp2463
S'unapply'
p2464
(dp2465
g2461
I5
sS'median'
p2466
L0L
sS'display'
p2467
S'13/26'
p2468
ssS'apply'
p2469
(dp2470
g2461
I6
sg2466
L0L
sg2467
S'26/41'
p2471
ssS'change'
p2472
(dp2473
g2461
I4
sg2466
L0L
sg2467
S'7/17'
p2474
ssS'query'
p2475
(dp2476
g2461
I6
sg2466
L0L
sg2467
S'42/65'
p2477
sssg2467
S'88/149'
p2478
ssVNokia 5800
p2479
(dp2480
S'total_runs'
p2481
L2L
sS'score'
p2482
I7
sS'results'
p2483
(dp2484
S'unapply'
p2485
(dp2486
g2482
I3
sS'median'
p2487
L0L
sS'display'
p2488
S'8/26'
p2489
ssS'apply'
p2490
(dp2491
g2482
I7
sg2487
L0L
sg2488
S'28/41'
p2492
ssS'change'
p2493
(dp2494
g2482
I10
sg2487
L0L
sg2488
S'17/17'
p2495
ssS'query'
p2496
(dp2497
g2482
I7
sg2487
L0L
sg2488
S'47/65'
p2498
sssg2488
S'100/149'
p2499
ssVFirefox 2.0
p2500
(dp2501
S'total_runs'
p2502
L38L
sS'score'
p2503
I8
sS'results'
p2504
(dp2505
S'unapply'
p2506
(dp2507
g2503
I7
sS'median'
p2508
L0L
sS'display'
p2509
S'17/26'
p2510
ssS'apply'
p2511
(dp2512
g2503
I8
sg2508
L0L
sg2509
S'34/41'
p2513
ssS'change'
p2514
(dp2515
g2503
I4
sg2508
L0L
sg2509
S'7/17'
p2516
ssS'query'
p2517
(dp2518
g2503
I9
sg2508
L0L
sg2509
S'59/65'
p2519
sssg2509
S'117/149'
p2520
ssVNetNewsWire 3.2.1
p2521
(dp2522
S'total_runs'
p2523
L1L
sS'score'
p2524
I8
sS'results'
p2525
(dp2526
S'unapply'
p2527
(dp2528
g2524
I7
sS'median'
p2529
L0L
sS'display'
p2530
S'19/26'
p2531
ssS'apply'
p2532
(dp2533
g2524
I10
sg2529
L0L
sg2530
S'39/41'
p2534
ssS'change'
p2535
(dp2536
g2524
I10
sg2529
L0L
sg2530
S'17/17'
p2537
ssS'query'
p2538
(dp2539
g2524
I8
sg2529
L0L
sg2530
S'50/65'
p2540
sssg2530
S'125/149'
p2541
ssVMidori 0.1.9
p2542
(dp2543
S'total_runs'
p2544
L2L
sS'score'
p2545
I9
sS'results'
p2546
(dp2547
S'unapply'
p2548
(dp2549
g2545
I9
sS'median'
p2550
L0L
sS'display'
p2551
S'23/26'
p2552
ssS'apply'
p2553
(dp2554
g2545
I10
sg2550
L0L
sg2551
S'39/41'
p2555
ssS'change'
p2556
(dp2557
g2545
I10
sg2550
L0L
sg2551
S'17/17'
p2558
ssS'query'
p2559
(dp2560
g2545
I8
sg2550
L0L
sg2551
S'50/65'
p2561
sssg2551
S'129/149'
p2562
ssVOpera 9.63
p2563
(dp2564
S'total_runs'
p2565
L5L
sS'score'
p2566
I6
sS'results'
p2567
(dp2568
S'unapply'
p2569
(dp2570
g2566
I5
sS'median'
p2571
L0L
sS'display'
p2572
S'13/26'
p2573
ssS'apply'
p2574
(dp2575
g2566
I6
sg2571
L0L
sg2572
S'26/41'
p2576
ssS'change'
p2577
(dp2578
g2566
I4
sg2571
L0L
sg2572
S'7/17'
p2579
ssS'query'
p2580
(dp2581
g2566
I6
sg2571
L0L
sg2572
S'42/65'
p2582
sssg2572
S'88/149'
p2583
ssVAndroid 1.5
p2584
(dp2585
S'total_runs'
p2586
L17L
sS'score'
p2587
I8
sS'results'
p2588
(dp2589
S'unapply'
p2590
(dp2591
g2587
I7
sS'median'
p2592
L0L
sS'display'
p2593
S'17/26'
p2594
ssS'apply'
p2595
(dp2596
g2587
I8
sg2592
L0L
sg2593
S'34/41'
p2597
ssS'change'
p2598
(dp2599
g2587
I10
sg2592
L0L
sg2593
S'17/17'
p2600
ssS'query'
p2601
(dp2602
g2587
I8
sg2592
L0L
sg2593
S'50/65'
p2603
sssg2593
S'118/149'
p2604
ssVAndroid 1.6
p2605
(dp2606
S'total_runs'
p2607
L11L
sS'score'
p2608
I8
sS'results'
p2609
(dp2610
S'unapply'
p2611
(dp2612
g2608
I7
sS'median'
p2613
L0L
sS'display'
p2614
S'17/26'
p2615
ssS'apply'
p2616
(dp2617
g2608
I8
sg2613
L0L
sg2614
S'34/41'
p2618
ssS'change'
p2619
(dp2620
g2608
I10
sg2613
L0L
sg2614
S'17/17'
p2621
ssS'query'
p2622
(dp2623
g2608
I8
sg2613
L0L
sg2614
S'50/65'
p2624
sssg2614
S'118/149'
p2625
ssVFirefox 3.1b3
p2626
(dp2627
S'total_runs'
p2628
L1L
sS'score'
p2629
I8
sS'results'
p2630
(dp2631
S'unapply'
p2632
(dp2633
g2629
I7
sS'median'
p2634
L0L
sS'display'
p2635
S'17/26'
p2636
ssS'apply'
p2637
(dp2638
g2629
I8
sg2634
L0L
sg2635
S'34/41'
p2639
ssS'change'
p2640
(dp2641
g2629
I4
sg2634
L0L
sg2635
S'7/17'
p2642
ssS'query'
p2643
(dp2644
g2629
I9
sg2634
L0L
sg2635
S'59/65'
p2645
sssg2635
S'117/149'
p2646
ssVGranParadiso 3.0.12
p2647
(dp2648
S'total_runs'
p2649
L1L
sS'score'
p2650
I8
sS'results'
p2651
(dp2652
S'unapply'
p2653
(dp2654
g2650
I7
sS'median'
p2655
L0L
sS'display'
p2656
S'17/26'
p2657
ssS'apply'
p2658
(dp2659
g2650
I8
sg2655
L0L
sg2656
S'34/41'
p2660
ssS'change'
p2661
(dp2662
g2650
I4
sg2655
L0L
sg2656
S'7/17'
p2663
ssS'query'
p2664
(dp2665
g2650
I9
sg2655
L0L
sg2656
S'59/65'
p2666
sssg2656
S'117/149'
p2667
ssVOpera Mini 5.0.16875
p2668
(dp2669
S'total_runs'
p2670
L1L
sS'score'
p2671
I2
sS'results'
p2672
(dp2673
S'unapply'
p2674
(dp2675
g2671
I10
sS'median'
p2676
L0L
sS'display'
p2677
S'26/26'
p2678
ssS'apply'
p2679
(dp2680
g2671
I0
sg2676
L0L
sg2677
S'0/41'
p2681
ssS'change'
p2682
(dp2683
g2671
I0
sg2676
L0L
sg2677
S'0/17'
p2684
ssS'query'
p2685
(dp2686
g2671
I0
sg2676
L0L
sg2677
S'0/65'
p2687
sssg2677
S'26/149'
p2688
ssVKazehakase 0.5.6
p2689
(dp2690
S'total_runs'
p2691
L1L
sS'score'
p2692
I8
sS'results'
p2693
(dp2694
S'unapply'
p2695
(dp2696
g2692
I7
sS'median'
p2697
L0L
sS'display'
p2698
S'17/26'
p2699
ssS'apply'
p2700
(dp2701
g2692
I8
sg2697
L0L
sg2698
S'34/41'
p2702
ssS'change'
p2703
(dp2704
g2692
I4
sg2697
L0L
sg2698
S'7/17'
p2705
ssS'query'
p2706
(dp2707
g2692
I9
sg2697
L0L
sg2698
S'59/65'
p2708
sssg2698
S'117/149'
p2709
ssVOpera 9.52
p2710
(dp2711
S'total_runs'
p2712
L1L
sS'score'
p2713
I6
sS'results'
p2714
(dp2715
S'unapply'
p2716
(dp2717
g2713
I5
sS'median'
p2718
L0L
sS'display'
p2719
S'13/26'
p2720
ssS'apply'
p2721
(dp2722
g2713
I6
sg2718
L0L
sg2719
S'26/41'
p2723
ssS'change'
p2724
(dp2725
g2713
I4
sg2718
L0L
sg2719
S'7/17'
p2726
ssS'query'
p2727
(dp2728
g2713
I6
sg2718
L0L
sg2719
S'42/65'
p2729
sssg2719
S'88/149'
p2730
ssVCamino 1.6.10
p2731
(dp2732
S'total_runs'
p2733
L1L
sS'score'
p2734
I8
sS'results'
p2735
(dp2736
S'unapply'
p2737
(dp2738
g2734
I7
sS'median'
p2739
L0L
sS'display'
p2740
S'17/26'
p2741
ssS'apply'
p2742
(dp2743
g2734
I8
sg2739
L0L
sg2740
S'34/41'
p2744
ssS'change'
p2745
(dp2746
g2734
I4
sg2739
L0L
sg2740
S'7/17'
p2747
ssS'query'
p2748
(dp2749
g2734
I9
sg2739
L0L
sg2740
S'59/65'
p2750
sssg2740
S'117/149'
p2751
ssVOpera 9.50
p2752
(dp2753
S'total_runs'
p2754
L1L
sS'score'
p2755
I0
sS'results'
p2756
(dp2757
S'unapply'
p2758
(dp2759
g2755
I0
sS'median'
p2760
L0L
sS'display'
p2761
S'0/26'
p2762
ssS'apply'
p2763
(dp2764
g2755
I0
sg2760
L0L
sg2761
S'0/41'
p2765
ssS'change'
p2766
(dp2767
g2755
I0
sg2760
L0L
sg2761
S'0/17'
p2768
ssS'query'
p2769
(dp2770
g2755
I0
sg2760
L0L
sg2761
S'0/65'
p2771
sssg2761
S'0/149'
p2772
ssVSeaMonkey 2.0.b1
p2773
(dp2774
S'total_runs'
p2775
L1L
sS'score'
p2776
I8
sS'results'
p2777
(dp2778
S'unapply'
p2779
(dp2780
g2776
I7
sS'median'
p2781
L0L
sS'display'
p2782
S'17/26'
p2783
ssS'apply'
p2784
(dp2785
g2776
I8
sg2781
L0L
sg2782
S'34/41'
p2786
ssS'change'
p2787
(dp2788
g2776
I4
sg2781
L0L
sg2782
S'7/17'
p2789
ssS'query'
p2790
(dp2791
g2776
I9
sg2781
L0L
sg2782
S'59/65'
p2792
sssg2782
S'117/149'
p2793
ssVSeaMonkey 1.1.17
p2794
(dp2795
S'total_runs'
p2796
L2L
sS'score'
p2797
I8
sS'results'
p2798
(dp2799
S'unapply'
p2800
(dp2801
g2797
I7
sS'median'
p2802
L0L
sS'display'
p2803
S'17/26'
p2804
ssS'apply'
p2805
(dp2806
g2797
I8
sg2802
L0L
sg2803
S'34/41'
p2807
ssS'change'
p2808
(dp2809
g2797
I4
sg2802
L0L
sg2803
S'7/17'
p2810
ssS'query'
p2811
(dp2812
g2797
I9
sg2802
L0L
sg2803
S'59/65'
p2813
sssg2803
S'117/149'
p2814
ssVSeaMonkey 1.1.16
p2815
(dp2816
S'total_runs'
p2817
L1L
sS'score'
p2818
I8
sS'results'
p2819
(dp2820
S'unapply'
p2821
(dp2822
g2818
I7
sS'median'
p2823
L0L
sS'display'
p2824
S'17/26'
p2825
ssS'apply'
p2826
(dp2827
g2818
I8
sg2823
L0L
sg2824
S'34/41'
p2828
ssS'change'
p2829
(dp2830
g2818
I4
sg2823
L0L
sg2824
S'7/17'
p2831
ssS'query'
p2832
(dp2833
g2818
I9
sg2823
L0L
sg2824
S'59/65'
p2834
sssg2824
S'117/149'
p2835
ssVOpera 10.10
p2836
(dp2837
S'total_runs'
p2838
L195L
sS'score'
p2839
I6
sS'results'
p2840
(dp2841
S'unapply'
p2842
(dp2843
g2839
I5
sS'median'
p2844
L0L
sS'display'
p2845
S'13/26'
p2846
ssS'apply'
p2847
(dp2848
g2839
I6
sg2844
L0L
sg2845
S'26/41'
p2849
ssS'change'
p2850
(dp2851
g2839
I4
sg2844
L0L
sg2845
S'7/17'
p2852
ssS'query'
p2853
(dp2854
g2839
I7
sg2844
L0L
sg2845
S'43/65'
p2855
sssg2845
S'89/149'
p2856
ssVPalm Pre 1.0
p2857
(dp2858
S'total_runs'
p2859
L1L
sS'score'
p2860
I7
sS'results'
p2861
(dp2862
S'unapply'
p2863
(dp2864
g2860
I3
sS'median'
p2865
L0L
sS'display'
p2866
S'9/26'
p2867
ssS'apply'
p2868
(dp2869
g2860
I7
sg2865
L0L
sg2866
S'28/41'
p2870
ssS'change'
p2871
(dp2872
g2860
I10
sg2865
L0L
sg2866
S'17/17'
p2873
ssS'query'
p2874
(dp2875
g2860
I8
sg2865
L0L
sg2866
S'49/65'
p2876
sssg2866
S'103/149'
p2877
ssViPhone 3.1.1
p2878
(dp2879
S'total_runs'
p2880
L2L
sS'score'
p2881
I8
sS'results'
p2882
(dp2883
S'unapply'
p2884
(dp2885
g2881
I7
sS'median'
p2886
L0L
sS'display'
p2887
S'17/26'
p2888
ssS'apply'
p2889
(dp2890
g2881
I8
sg2886
L0L
sg2887
S'34/41'
p2891
ssS'change'
p2892
(dp2893
g2881
I10
sg2886
L0L
sg2887
S'17/17'
p2894
ssS'query'
p2895
(dp2896
g2881
I8
sg2886
L0L
sg2887
S'50/65'
p2897
sssg2887
S'118/149'
p2898
ssVOpera Mini 4.2.14320
p2899
(dp2900
S'total_runs'
p2901
L1L
sS'score'
p2902
I2
sS'results'
p2903
(dp2904
S'unapply'
p2905
(dp2906
g2902
I10
sS'median'
p2907
L0L
sS'display'
p2908
S'26/26'
p2909
ssS'apply'
p2910
(dp2911
g2902
I0
sg2907
L0L
sg2908
S'0/41'
p2912
ssS'change'
p2913
(dp2914
g2902
I0
sg2907
L0L
sg2908
S'0/17'
p2915
ssS'query'
p2916
(dp2917
g2902
I0
sg2907
L0L
sg2908
S'0/65'
p2918
sssg2908
S'26/149'
p2919
ssVChrome 0.2.152
p2920
(dp2921
S'total_runs'
p2922
L1L
sS'score'
p2923
I7
sS'results'
p2924
(dp2925
S'unapply'
p2926
(dp2927
g2923
I3
sS'median'
p2928
L0L
sS'display'
p2929
S'9/26'
p2930
ssS'apply'
p2931
(dp2932
g2923
I7
sg2928
L0L
sg2929
S'28/41'
p2933
ssS'change'
p2934
(dp2935
g2923
I10
sg2928
L0L
sg2929
S'17/17'
p2936
ssS'query'
p2937
(dp2938
g2923
I8
sg2928
L0L
sg2929
S'50/65'
p2939
sssg2929
S'104/149'
p2940
ssViPhone 3.1.2
p2941
(dp2942
S'total_runs'
p2943
L34L
sS'score'
p2944
I8
sS'results'
p2945
(dp2946
S'unapply'
p2947
(dp2948
g2944
I7
sS'median'
p2949
L0L
sS'display'
p2950
S'17/26'
p2951
ssS'apply'
p2952
(dp2953
g2944
I8
sg2949
L0L
sg2950
S'34/41'
p2954
ssS'change'
p2955
(dp2956
g2944
I10
sg2949
L0L
sg2950
S'17/17'
p2957
ssS'query'
p2958
(dp2959
g2944
I8
sg2949
L0L
sg2950
S'50/65'
p2960
sssg2950
S'118/149'
p2961
ssVIceweasel 3.0.6
p2962
(dp2963
S'total_runs'
p2964
L12L
sS'score'
p2965
I8
sS'results'
p2966
(dp2967
S'unapply'
p2968
(dp2969
g2965
I7
sS'median'
p2970
L0L
sS'display'
p2971
S'17/26'
p2972
ssS'apply'
p2973
(dp2974
g2965
I8
sg2970
L0L
sg2971
S'34/41'
p2975
ssS'change'
p2976
(dp2977
g2965
I4
sg2970
L0L
sg2971
S'7/17'
p2978
ssS'query'
p2979
(dp2980
g2965
I9
sg2970
L0L
sg2971
S'59/65'
p2981
sssg2971
S'117/149'
p2982
ssVSeaMonkey 1.1.18
p2983
(dp2984
S'total_runs'
p2985
L3L
sS'score'
p2986
I8
sS'results'
p2987
(dp2988
S'unapply'
p2989
(dp2990
g2986
I7
sS'median'
p2991
L0L
sS'display'
p2992
S'17/26'
p2993
ssS'apply'
p2994
(dp2995
g2986
I8
sg2991
L0L
sg2992
S'34/41'
p2996
ssS'change'
p2997
(dp2998
g2986
I4
sg2991
L0L
sg2992
S'7/17'
p2999
ssS'query'
p3000
(dp3001
g2986
I9
sg2991
L0L
sg2992
S'59/65'
p3002
sssg2992
S'117/149'
p3003
ssVIceweasel 3.0.5
p3004
(dp3005
S'total_runs'
p3006
L1L
sS'score'
p3007
I8
sS'results'
p3008
(dp3009
S'unapply'
p3010
(dp3011
g3007
I7
sS'median'
p3012
L0L
sS'display'
p3013
S'17/26'
p3014
ssS'apply'
p3015
(dp3016
g3007
I8
sg3012
L0L
sg3013
S'34/41'
p3017
ssS'change'
p3018
(dp3019
g3007
I4
sg3012
L0L
sg3013
S'7/17'
p3020
ssS'query'
p3021
(dp3022
g3007
I9
sg3012
L0L
sg3013
S'59/65'
p3023
sssg3013
S'117/149'
p3024
ssVFirefox (Shiretoko) 3.5.5
p3025
(dp3026
S'total_runs'
p3027
L16L
sS'score'
p3028
I8
sS'results'
p3029
(dp3030
S'unapply'
p3031
(dp3032
g3028
I7
sS'median'
p3033
L0L
sS'display'
p3034
S'17/26'
p3035
ssS'apply'
p3036
(dp3037
g3028
I8
sg3033
L0L
sg3034
S'34/41'
p3038
ssS'change'
p3039
(dp3040
g3028
I4
sg3033
L0L
sg3034
S'7/17'
p3041
ssS'query'
p3042
(dp3043
g3028
I9
sg3033
L0L
sg3034
S'59/65'
p3044
sssg3034
S'117/149'
p3045
ssVFirefox (Shiretoko) 3.5.4
p3046
(dp3047
S'total_runs'
p3048
L2L
sS'score'
p3049
I8
sS'results'
p3050
(dp3051
S'unapply'
p3052
(dp3053
g3049
I7
sS'median'
p3054
L0L
sS'display'
p3055
S'17/26'
p3056
ssS'apply'
p3057
(dp3058
g3049
I8
sg3054
L0L
sg3055
S'34/41'
p3059
ssS'change'
p3060
(dp3061
g3049
I4
sg3054
L0L
sg3055
S'7/17'
p3062
ssS'query'
p3063
(dp3064
g3049
I9
sg3054
L0L
sg3055
S'59/65'
p3065
sssg3055
S'117/149'
p3066
ssVIE 8.0
p3067
(dp3068
S'total_runs'
p3069
L317L
sS'score'
p3070
I7
sS'results'
p3071
(dp3072
S'unapply'
p3073
(dp3074
g3070
I5
sS'median'
p3075
L0L
sS'display'
p3076
S'14/26'
p3077
ssS'apply'
p3078
(dp3079
g3070
I6
sg3075
L0L
sg3076
S'24/41'
p3080
ssS'change'
p3081
(dp3082
g3070
I3
sg3075
L0L
sg3076
S'5/17'
p3083
ssS'query'
p3084
(dp3085
g3070
I9
sg3075
L0L
sg3076
S'56/65'
p3086
sssg3076
S'99/149'
p3087
ssVChrome 4.0.211
p3088
(dp3089
S'total_runs'
p3090
L37L
sS'score'
p3091
I9
sS'results'
p3092
(dp3093
S'unapply'
p3094
(dp3095
g3091
I9
sS'median'
p3096
L0L
sS'display'
p3097
S'23/26'
p3098
ssS'apply'
p3099
(dp3100
g3091
I10
sg3096
L0L
sg3097
S'39/41'
p3101
ssS'change'
p3102
(dp3103
g3091
I10
sg3096
L0L
sg3097
S'17/17'
p3104
ssS'query'
p3105
(dp3106
g3091
I8
sg3096
L0L
sg3097
S'50/65'
p3107
sssg3097
S'129/149'
p3108
ssVChrome 4.0.210
p3109
(dp3110
S'total_runs'
p3111
L1L
sS'score'
p3112
I9
sS'results'
p3113
(dp3114
S'unapply'
p3115
(dp3116
g3112
I9
sS'median'
p3117
L0L
sS'display'
p3118
S'23/26'
p3119
ssS'apply'
p3120
(dp3121
g3112
I10
sg3117
L0L
sg3118
S'39/41'
p3122
ssS'change'
p3123
(dp3124
g3112
I10
sg3117
L0L
sg3118
S'17/17'
p3125
ssS'query'
p3126
(dp3127
g3112
I8
sg3117
L0L
sg3118
S'50/65'
p3128
sssg3118
S'129/149'
p3129
ssVChrome 4.0.213
p3130
(dp3131
S'total_runs'
p3132
L26L
sS'score'
p3133
I9
sS'results'
p3134
(dp3135
S'unapply'
p3136
(dp3137
g3133
I9
sS'median'
p3138
L0L
sS'display'
p3139
S'23/26'
p3140
ssS'apply'
p3141
(dp3142
g3133
I10
sg3138
L0L
sg3139
S'39/41'
p3143
ssS'change'
p3144
(dp3145
g3133
I10
sg3138
L0L
sg3139
S'17/17'
p3146
ssS'query'
p3147
(dp3148
g3133
I8
sg3138
L0L
sg3139
S'50/65'
p3149
sssg3139
S'129/149'
p3150
ssVChrome 4.0.212
p3151
(dp3152
S'total_runs'
p3153
L18L
sS'score'
p3154
I9
sS'results'
p3155
(dp3156
S'unapply'
p3157
(dp3158
g3154
I9
sS'median'
p3159
L0L
sS'display'
p3160
S'23/26'
p3161
ssS'apply'
p3162
(dp3163
g3154
I10
sg3159
L0L
sg3160
S'39/41'
p3164
ssS'change'
p3165
(dp3166
g3154
I10
sg3159
L0L
sg3160
S'17/17'
p3167
ssS'query'
p3168
(dp3169
g3154
I8
sg3159
L0L
sg3160
S'50/65'
p3170
sssg3160
S'129/149'
p3171
ssVNetNewsWire 3.1
p3172
(dp3173
S'total_runs'
p3174
L1L
sS'score'
p3175
I8
sS'results'
p3176
(dp3177
S'unapply'
p3178
(dp3179
g3175
I7
sS'median'
p3180
L0L
sS'display'
p3181
S'19/26'
p3182
ssS'apply'
p3183
(dp3184
g3175
I10
sg3180
L0L
sg3181
S'39/41'
p3185
ssS'change'
p3186
(dp3187
g3175
I10
sg3180
L0L
sg3181
S'17/17'
p3188
ssS'query'
p3189
(dp3190
g3175
I8
sg3180
L0L
sg3181
S'50/65'
p3191
sssg3181
S'125/149'
p3192
ssVChrome 2.0.164
p3193
(dp3194
S'total_runs'
p3195
L1L
sS'score'
p3196
I8
sS'results'
p3197
(dp3198
S'unapply'
p3199
(dp3200
g3196
I7
sS'median'
p3201
L0L
sS'display'
p3202
S'19/26'
p3203
ssS'apply'
p3204
(dp3205
g3196
I10
sg3201
L0L
sg3202
S'39/41'
p3206
ssS'change'
p3207
(dp3208
g3196
I10
sg3201
L0L
sg3202
S'17/17'
p3209
ssS'query'
p3210
(dp3211
g3196
I8
sg3201
L0L
sg3202
S'50/65'
p3212
sssg3202
S'125/149'
p3213
ssVCamino 2.0b3
p3214
(dp3215
S'total_runs'
p3216
L1L
sS'score'
p3217
I8
sS'results'
p3218
(dp3219
S'unapply'
p3220
(dp3221
g3217
I7
sS'median'
p3222
L0L
sS'display'
p3223
S'17/26'
p3224
ssS'apply'
p3225
(dp3226
g3217
I8
sg3222
L0L
sg3223
S'34/41'
p3227
ssS'change'
p3228
(dp3229
g3217
I4
sg3222
L0L
sg3223
S'7/17'
p3230
ssS'query'
p3231
(dp3232
g3217
I9
sg3222
L0L
sg3223
S'59/65'
p3233
sssg3223
S'117/149'
p3234
ssVNetNewsWire 3.2
p3235
(dp3236
S'total_runs'
p3237
L7L
sS'score'
p3238
I8
sS'results'
p3239
(dp3240
S'unapply'
p3241
(dp3242
g3238
I7
sS'median'
p3243
L0L
sS'display'
p3244
S'19/26'
p3245
ssS'apply'
p3246
(dp3247
g3238
I10
sg3243
L0L
sg3244
S'39/41'
p3248
ssS'change'
p3249
(dp3250
g3238
I10
sg3243
L0L
sg3244
S'17/17'
p3251
ssS'query'
p3252
(dp3253
g3238
I8
sg3243
L0L
sg3244
S'50/65'
p3254
sssg3244
S'125/149'
p3255
ssVChrome 4.0.219
p3256
(dp3257
S'total_runs'
p3258
L10L
sS'score'
p3259
I9
sS'results'
p3260
(dp3261
S'unapply'
p3262
(dp3263
g3259
I9
sS'median'
p3264
L0L
sS'display'
p3265
S'23/26'
p3266
ssS'apply'
p3267
(dp3268
g3259
I10
sg3264
L0L
sg3265
S'39/41'
p3269
ssS'change'
p3270
(dp3271
g3259
I10
sg3264
L0L
sg3265
S'17/17'
p3272
ssS'query'
p3273
(dp3274
g3259
I8
sg3264
L0L
sg3265
S'50/65'
p3275
sssg3265
S'129/149'
p3276
ssVFirefox (Shiretoko) 3.5.6pre
p3277
(dp3278
S'total_runs'
p3279
L8L
sS'score'
p3280
I8
sS'results'
p3281
(dp3282
S'unapply'
p3283
(dp3284
g3280
I7
sS'median'
p3285
L0L
sS'display'
p3286
S'17/26'
p3287
ssS'apply'
p3288
(dp3289
g3280
I8
sg3285
L0L
sg3286
S'34/41'
p3290
ssS'change'
p3291
(dp3292
g3280
I4
sg3285
L0L
sg3286
S'7/17'
p3293
ssS'query'
p3294
(dp3295
g3280
I9
sg3285
L0L
sg3286
S'59/65'
p3296
sssg3286
S'117/149'
p3297
ssVFennec 1.0.b3
p3298
(dp3299
S'total_runs'
p3300
L3L
sS'score'
p3301
I8
sS'results'
p3302
(dp3303
S'unapply'
p3304
(dp3305
g3301
I7
sS'median'
p3306
L0L
sS'display'
p3307
S'17/26'
p3308
ssS'apply'
p3309
(dp3310
g3301
I8
sg3306
L0L
sg3307
S'34/41'
p3311
ssS'change'
p3312
(dp3313
g3301
I4
sg3306
L0L
sg3307
S'7/17'
p3314
ssS'query'
p3315
(dp3316
g3301
I9
sg3306
L0L
sg3307
S'59/65'
p3317
sssg3307
S'117/149'
p3318
ssVKonqueror 4.3.1
p3319
(dp3320
S'total_runs'
p3321
L3L
sS'score'
p3322
I7
sS'results'
p3323
(dp3324
S'unapply'
p3325
(dp3326
g3322
I3
sS'median'
p3327
L0L
sS'display'
p3328
S'9/26'
p3329
ssS'apply'
p3330
(dp3331
g3322
I9
sg3327
L0L
sg3328
S'36/41'
p3332
ssS'change'
p3333
(dp3334
g3322
I10
sg3327
L0L
sg3328
S'17/17'
p3335
ssS'query'
p3336
(dp3337
g3322
I7
sg3327
L0L
sg3328
S'47/65'
p3338
sssg3328
S'109/149'
p3339
ssVMaemo Browser 1.4.1
p3340
(dp3341
S'total_runs'
p3342
L1L
sS'score'
p3343
I8
sS'results'
p3344
(dp3345
S'unapply'
p3346
(dp3347
g3343
I7
sS'median'
p3348
L0L
sS'display'
p3349
S'17/26'
p3350
ssS'apply'
p3351
(dp3352
g3343
I8
sg3348
L0L
sg3349
S'34/41'
p3353
ssS'change'
p3354
(dp3355
g3343
I4
sg3348
L0L
sg3349
S'7/17'
p3356
ssS'query'
p3357
(dp3358
g3343
I9
sg3348
L0L
sg3349
S'60/65'
p3359
sssg3349
S'118/149'
p3360
ssVIceweasel 3.5
p3361
(dp3362
S'total_runs'
p3363
L10L
sS'score'
p3364
I8
sS'results'
p3365
(dp3366
S'unapply'
p3367
(dp3368
g3364
I7
sS'median'
p3369
L0L
sS'display'
p3370
S'17/26'
p3371
ssS'apply'
p3372
(dp3373
g3364
I8
sg3369
L0L
sg3370
S'34/41'
p3374
ssS'change'
p3375
(dp3376
g3364
I4
sg3369
L0L
sg3370
S'7/17'
p3377
ssS'query'
p3378
(dp3379
g3364
I9
sg3369
L0L
sg3370
S'59/65'
p3380
sssg3370
S'117/149'
p3381
ssVKonqueror 3.5
p3382
(dp3383
S'total_runs'
p3384
L8L
sS'score'
p3385
I0
sS'results'
p3386
(dp3387
S'unapply'
p3388
(dp3389
g3385
I0
sS'median'
p3390
L0L
sS'display'
p3391
S'0/26'
p3392
ssS'apply'
p3393
(dp3394
g3385
I0
sg3390
L0L
sg3391
S'0/41'
p3395
ssS'change'
p3396
(dp3397
g3385
I0
sg3390
L0L
sg3391
S'0/17'
p3398
ssS'query'
p3399
(dp3400
g3385
I0
sg3390
L0L
sg3391
S'0/65'
p3401
sssg3391
S'0/149'
p3402
ssVMidori 0.1.6
p3403
(dp3404
S'total_runs'
p3405
L1L
sS'score'
p3406
I9
sS'results'
p3407
(dp3408
S'unapply'
p3409
(dp3410
g3406
I9
sS'median'
p3411
L0L
sS'display'
p3412
S'23/26'
p3413
ssS'apply'
p3414
(dp3415
g3406
I10
sg3411
L0L
sg3412
S'39/41'
p3416
ssS'change'
p3417
(dp3418
g3406
I10
sg3411
L0L
sg3412
S'17/17'
p3419
ssS'query'
p3420
(dp3421
g3406
I8
sg3411
L0L
sg3412
S'50/65'
p3422
sssg3412
S'129/149'
p3423
ssVIron 2.0.178
p3424
(dp3425
S'total_runs'
p3426
L5L
sS'score'
p3427
I8
sS'results'
p3428
(dp3429
S'unapply'
p3430
(dp3431
g3427
I7
sS'median'
p3432
L0L
sS'display'
p3433
S'19/26'
p3434
ssS'apply'
p3435
(dp3436
g3427
I10
sg3432
L0L
sg3433
S'39/41'
p3437
ssS'change'
p3438
(dp3439
g3427
I10
sg3432
L0L
sg3433
S'17/17'
p3440
ssS'query'
p3441
(dp3442
g3427
I8
sg3432
L0L
sg3433
S'50/65'
p3443
sssg3433
S'125/149'
p3444
ssVCamino 2.0
p3445
(dp3446
S'total_runs'
p3447
L4L
sS'score'
p3448
I8
sS'results'
p3449
(dp3450
S'unapply'
p3451
(dp3452
g3448
I7
sS'median'
p3453
L0L
sS'display'
p3454
S'17/26'
p3455
ssS'apply'
p3456
(dp3457
g3448
I8
sg3453
L0L
sg3454
S'34/41'
p3458
ssS'change'
p3459
(dp3460
g3448
I4
sg3453
L0L
sg3454
S'7/17'
p3461
ssS'query'
p3462
(dp3463
g3448
I9
sg3453
L0L
sg3454
S'59/65'
p3464
sssg3454
S'117/149'
p3465
ssVChrome Frame (IE 8) 4.0.245
p3466
(dp3467
S'total_runs'
p3468
L1L
sS'score'
p3469
I9
sS'results'
p3470
(dp3471
S'unapply'
p3472
(dp3473
g3469
I9
sS'median'
p3474
L0L
sS'display'
p3475
S'23/26'
p3476
ssS'apply'
p3477
(dp3478
g3469
I10
sg3474
L0L
sg3475
S'39/41'
p3479
ssS'change'
p3480
(dp3481
g3469
I10
sg3474
L0L
sg3475
S'17/17'
p3482
ssS'query'
p3483
(dp3484
g3469
I8
sg3474
L0L
sg3475
S'50/65'
p3485
sssg3475
S'129/149'
p3486
ssVMidori 0.2.1
p3487
(dp3488
S'total_runs'
p3489
L3L
sS'score'
p3490
I9
sS'results'
p3491
(dp3492
S'unapply'
p3493
(dp3494
g3490
I9
sS'median'
p3495
L0L
sS'display'
p3496
S'23/26'
p3497
ssS'apply'
p3498
(dp3499
g3490
I10
sg3495
L0L
sg3496
S'39/41'
p3500
ssS'change'
p3501
(dp3502
g3490
I10
sg3495
L0L
sg3496
S'17/17'
p3503
ssS'query'
p3504
(dp3505
g3490
I8
sg3495
L0L
sg3496
S'50/65'
p3506
sssg3496
S'129/149'
p3507
ssVOpera 8.54
p3508
(dp3509
S'total_runs'
p3510
L1L
sS'score'
p3511
I0
sS'results'
p3512
(dp3513
S'unapply'
p3514
(dp3515
g3511
I0
sS'median'
p3516
L0L
sS'display'
p3517
S'0/26'
p3518
ssS'apply'
p3519
(dp3520
g3511
I0
sg3516
L0L
sg3517
S'0/41'
p3521
ssS'change'
p3522
(dp3523
g3511
I0
sg3516
L0L
sg3517
S'0/17'
p3524
ssS'query'
p3525
(dp3526
g3511
I0
sg3516
L0L
sg3517
S'0/65'
p3527
sssg3517
S'0/149'
p3528
ssVOpera Mini 5.0.15650
p3529
(dp3530
S'total_runs'
p3531
L2L
sS'score'
p3532
I2
sS'results'
p3533
(dp3534
S'unapply'
p3535
(dp3536
g3532
I10
sS'median'
p3537
L0L
sS'display'
p3538
S'26/26'
p3539
ssS'apply'
p3540
(dp3541
g3532
I0
sg3537
L0L
sg3538
S'0/41'
p3542
ssS'change'
p3543
(dp3544
g3532
I0
sg3537
L0L
sg3538
S'0/17'
p3545
ssS'query'
p3546
(dp3547
g3532
I0
sg3537
L0L
sg3538
S'0/65'
p3548
sssg3538
S'26/149'
p3549
ssVFirefox 3.6a2pre
p3550
(dp3551
S'total_runs'
p3552
L2L
sS'score'
p3553
I8
sS'results'
p3554
(dp3555
S'unapply'
p3556
(dp3557
g3553
I7
sS'median'
p3558
L0L
sS'display'
p3559
S'17/26'
p3560
ssS'apply'
p3561
(dp3562
g3553
I8
sg3558
L0L
sg3559
S'34/41'
p3563
ssS'change'
p3564
(dp3565
g3553
I4
sg3558
L0L
sg3559
S'7/17'
p3566
ssS'query'
p3567
(dp3568
g3553
I9
sg3558
L0L
sg3559
S'59/65'
p3569
sssg3559
S'117/149'
p3570
ssVIE 7.0
p3571
(dp3572
S'total_runs'
p3573
L150L
sS'score'
p3574
I7
sS'results'
p3575
(dp3576
S'unapply'
p3577
(dp3578
g3574
I5
sS'median'
p3579
L0L
sS'display'
p3580
S'14/26'
p3581
ssS'apply'
p3582
(dp3583
g3574
I6
sg3579
L0L
sg3580
S'24/41'
p3584
ssS'change'
p3585
(dp3586
g3574
I3
sg3579
L0L
sg3580
S'5/17'
p3587
ssS'query'
p3588
(dp3589
g3574
I9
sg3579
L0L
sg3580
S'56/65'
p3590
sssg3580
S'99/149'
p3591
ssVFirefox 3.6.a1
p3592
(dp3593
S'total_runs'
p3594
L1L
sS'score'
p3595
I8
sS'results'
p3596
(dp3597
S'unapply'
p3598
(dp3599
g3595
I7
sS'median'
p3600
L0L
sS'display'
p3601
S'17/26'
p3602
ssS'apply'
p3603
(dp3604
g3595
I8
sg3600
L0L
sg3601
S'34/41'
p3605
ssS'change'
p3606
(dp3607
g3595
I4
sg3600
L0L
sg3601
S'7/17'
p3608
ssS'query'
p3609
(dp3610
g3595
I9
sg3600
L0L
sg3601
S'59/65'
p3611
sssg3601
S'117/149'
p3612
ssVOpera 10.20
p3613
(dp3614
S'total_runs'
p3615
L5L
sS'score'
p3616
I6
sS'results'
p3617
(dp3618
S'unapply'
p3619
(dp3620
g3616
I5
sS'median'
p3621
L0L
sS'display'
p3622
S'13/26'
p3623
ssS'apply'
p3624
(dp3625
g3616
I6
sg3621
L0L
sg3622
S'26/41'
p3626
ssS'change'
p3627
(dp3628
g3616
I4
sg3621
L0L
sg3622
S'7/17'
p3629
ssS'query'
p3630
(dp3631
g3616
I6
sg3621
L0L
sg3622
S'42/65'
p3632
sssg3622
S'88/149'
p3633
ssVOther
p3634
(dp3635
S'total_runs'
p3636
L33L
sS'score'
p3637
I8
sS'results'
p3638
(dp3639
S'unapply'
p3640
(dp3641
g3637
I7
sS'median'
p3642
L0L
sS'display'
p3643
S'18/26'
p3644
ssS'apply'
p3645
(dp3646
g3637
I10
sg3642
L0L
sg3643
S'39/41'
p3647
ssS'change'
p3648
(dp3649
g3637
I10
sg3642
L0L
sg3643
S'17/17'
p3650
ssS'query'
p3651
(dp3652
g3637
I8
sg3642
L0L
sg3643
S'49/65'
p3653
sssg3643
S'123/149'
p3654
ssVOpera 9.51
p3655
(dp3656
S'total_runs'
p3657
L1L
sS'score'
p3658
I6
sS'results'
p3659
(dp3660
S'unapply'
p3661
(dp3662
g3658
I5
sS'median'
p3663
L0L
sS'display'
p3664
S'13/26'
p3665
ssS'apply'
p3666
(dp3667
g3658
I6
sg3663
L0L
sg3664
S'26/41'
p3668
ssS'change'
p3669
(dp3670
g3658
I4
sg3663
L0L
sg3664
S'7/17'
p3671
ssS'query'
p3672
(dp3673
g3658
I6
sg3663
L0L
sg3664
S'42/65'
p3674
sssg3664
S'88/149'
p3675
ssVChrome Frame (IE 7) 4.0.211
p3676
(dp3677
S'total_runs'
p3678
L2L
sS'score'
p3679
I9
sS'results'
p3680
(dp3681
S'unapply'
p3682
(dp3683
g3679
I9
sS'median'
p3684
L0L
sS'display'
p3685
S'23/26'
p3686
ssS'apply'
p3687
(dp3688
g3679
I10
sg3684
L0L
sg3685
S'39/41'
p3689
ssS'change'
p3690
(dp3691
g3679
I10
sg3684
L0L
sg3685
S'17/17'
p3692
ssS'query'
p3693
(dp3694
g3679
I8
sg3684
L0L
sg3685
S'50/65'
p3695
sssg3685
S'129/149'
p3696
ssVMaxthon 2.0
p3697
(dp3698
S'total_runs'
p3699
L5L
sS'score'
p3700
I7
sS'results'
p3701
(dp3702
S'unapply'
p3703
(dp3704
g3700
I5
sS'median'
p3705
L0L
sS'display'
p3706
S'14/26'
p3707
ssS'apply'
p3708
(dp3709
g3700
I6
sg3705
L0L
sg3706
S'24/41'
p3710
ssS'change'
p3711
(dp3712
g3700
I3
sg3705
L0L
sg3706
S'5/17'
p3713
ssS'query'
p3714
(dp3715
g3700
I9
sg3705
L0L
sg3706
S'56/65'
p3716
sssg3706
S'99/149'
p3717
ssVStainless 0.6
p3718
(dp3719
S'total_runs'
p3720
L1L
sS'score'
p3721
I8
sS'results'
p3722
(dp3723
S'unapply'
p3724
(dp3725
g3721
I7
sS'median'
p3726
L0L
sS'display'
p3727
S'19/26'
p3728
ssS'apply'
p3729
(dp3730
g3721
I10
sg3726
L0L
sg3727
S'39/41'
p3731
ssS'change'
p3732
(dp3733
g3721
I10
sg3726
L0L
sg3727
S'17/17'
p3734
ssS'query'
p3735
(dp3736
g3721
I8
sg3726
L0L
sg3727
S'50/65'
p3737
sssg3727
S'125/149'
p3738
ssVMidori 0.1.10
p3739
(dp3740
S'total_runs'
p3741
L1L
sS'score'
p3742
I9
sS'results'
p3743
(dp3744
S'unapply'
p3745
(dp3746
g3742
I9
sS'median'
p3747
L0L
sS'display'
p3748
S'23/26'
p3749
ssS'apply'
p3750
(dp3751
g3742
I10
sg3747
L0L
sg3748
S'39/41'
p3752
ssS'change'
p3753
(dp3754
g3742
I10
sg3747
L0L
sg3748
S'17/17'
p3755
ssS'query'
p3756
(dp3757
g3742
I8
sg3747
L0L
sg3748
S'50/65'
p3758
sssg3748
S'129/149'
p3759
ssVCamino 2.0.b3
p3760
(dp3761
S'total_runs'
p3762
L1L
sS'score'
p3763
I8
sS'results'
p3764
(dp3765
S'unapply'
p3766
(dp3767
g3763
I7
sS'median'
p3768
L0L
sS'display'
p3769
S'17/26'
p3770
ssS'apply'
p3771
(dp3772
g3763
I8
sg3768
L0L
sg3769
S'34/41'
p3773
ssS'change'
p3774
(dp3775
g3763
I4
sg3768
L0L
sg3769
S'7/17'
p3776
ssS'query'
p3777
(dp3778
g3763
I9
sg3768
L0L
sg3769
S'59/65'
p3779
sssg3769
S'117/149'
p3780
ssVSeaMonkey 2.0a2
p3781
(dp3782
S'total_runs'
p3783
L1L
sS'score'
p3784
I8
sS'results'
p3785
(dp3786
S'unapply'
p3787
(dp3788
g3784
I7
sS'median'
p3789
L0L
sS'display'
p3790
S'19/26'
p3791
ssS'apply'
p3792
(dp3793
g3784
I8
sg3789
L0L
sg3790
S'34/41'
p3794
ssS'change'
p3795
(dp3796
g3784
I4
sg3789
L0L
sg3790
S'7/17'
p3797
ssS'query'
p3798
(dp3799
g3784
I9
sg3789
L0L
sg3790
S'59/65'
p3800
sssg3790
S'119/149'
p3801
ssVFirefox (Shiretoko) 3.5.4pre
p3802
(dp3803
S'total_runs'
p3804
L20L
sS'score'
p3805
I8
sS'results'
p3806
(dp3807
S'unapply'
p3808
(dp3809
g3805
I7
sS'median'
p3810
L0L
sS'display'
p3811
S'17/26'
p3812
ssS'apply'
p3813
(dp3814
g3805
I8
sg3810
L0L
sg3811
S'34/41'
p3815
ssS'change'
p3816
(dp3817
g3805
I4
sg3810
L0L
sg3811
S'7/17'
p3818
ssS'query'
p3819
(dp3820
g3805
I9
sg3810
L0L
sg3811
S'59/65'
p3821
sssg3811
S'117/149'
p3822
ssVFirefox 2.0.0
p3823
(dp3824
S'total_runs'
p3825
L29L
sS'score'
p3826
I8
sS'results'
p3827
(dp3828
S'unapply'
p3829
(dp3830
g3826
I7
sS'median'
p3831
L0L
sS'display'
p3832
S'17/26'
p3833
ssS'apply'
p3834
(dp3835
g3826
I8
sg3831
L0L
sg3832
S'34/41'
p3836
ssS'change'
p3837
(dp3838
g3826
I4
sg3831
L0L
sg3832
S'7/17'
p3839
ssS'query'
p3840
(dp3841
g3826
I9
sg3831
L0L
sg3832
S'59/65'
p3842
sssg3832
S'117/149'
p3843
ssVChrome 0.2.149
p3844
(dp3845
S'total_runs'
p3846
L2L
sS'score'
p3847
I7
sS'results'
p3848
(dp3849
S'unapply'
p3850
(dp3851
g3847
I3
sS'median'
p3852
L0L
sS'display'
p3853
S'9/26'
p3854
ssS'apply'
p3855
(dp3856
g3847
I7
sg3852
L0L
sg3853
S'28/41'
p3857
ssS'change'
p3858
(dp3859
g3847
I10
sg3852
L0L
sg3853
S'17/17'
p3860
ssS'query'
p3861
(dp3862
g3847
I8
sg3852
L0L
sg3853
S'50/65'
p3863
sssg3853
S'104/149'
p3864
ssVChrome 4.0.220
p3865
(dp3866
S'total_runs'
p3867
L11L
sS'score'
p3868
I9
sS'results'
p3869
(dp3870
S'unapply'
p3871
(dp3872
g3868
I9
sS'median'
p3873
L0L
sS'display'
p3874
S'23/26'
p3875
ssS'apply'
p3876
(dp3877
g3868
I10
sg3873
L0L
sg3874
S'39/41'
p3878
ssS'change'
p3879
(dp3880
g3868
I10
sg3873
L0L
sg3874
S'17/17'
p3881
ssS'query'
p3882
(dp3883
g3868
I8
sg3873
L0L
sg3874
S'50/65'
p3884
sssg3874
S'129/149'
p3885
ssVChrome 4.0.221
p3886
(dp3887
S'total_runs'
p3888
L18L
sS'score'
p3889
I9
sS'results'
p3890
(dp3891
S'unapply'
p3892
(dp3893
g3889
I9
sS'median'
p3894
L0L
sS'display'
p3895
S'23/26'
p3896
ssS'apply'
p3897
(dp3898
g3889
I10
sg3894
L0L
sg3895
S'39/41'
p3899
ssS'change'
p3900
(dp3901
g3889
I10
sg3894
L0L
sg3895
S'17/17'
p3902
ssS'query'
p3903
(dp3904
g3889
I8
sg3894
L0L
sg3895
S'50/65'
p3905
sssg3895
S'129/149'
p3906
ssVChrome 4.0.222
p3907
(dp3908
S'total_runs'
p3909
L21L
sS'score'
p3910
I9
sS'results'
p3911
(dp3912
S'unapply'
p3913
(dp3914
g3910
I9
sS'median'
p3915
L0L
sS'display'
p3916
S'23/26'
p3917
ssS'apply'
p3918
(dp3919
g3910
I10
sg3915
L0L
sg3916
S'39/41'
p3920
ssS'change'
p3921
(dp3922
g3910
I10
sg3915
L0L
sg3916
S'17/17'
p3923
ssS'query'
p3924
(dp3925
g3910
I8
sg3915
L0L
sg3916
S'50/65'
p3926
sssg3916
S'129/149'
p3927
ssVChrome 4.0.223
p3928
(dp3929
S'total_runs'
p3930
L105L
sS'score'
p3931
I9
sS'results'
p3932
(dp3933
S'unapply'
p3934
(dp3935
g3931
I9
sS'median'
p3936
L0L
sS'display'
p3937
S'23/26'
p3938
ssS'apply'
p3939
(dp3940
g3931
I10
sg3936
L0L
sg3937
S'39/41'
p3941
ssS'change'
p3942
(dp3943
g3931
I10
sg3936
L0L
sg3937
S'17/17'
p3944
ssS'query'
p3945
(dp3946
g3931
I8
sg3936
L0L
sg3937
S'50/65'
p3947
sssg3937
S'129/149'
p3948
ssVChrome 4.0.224
p3949
(dp3950
S'total_runs'
p3951
L2L
sS'score'
p3952
I9
sS'results'
p3953
(dp3954
S'unapply'
p3955
(dp3956
g3952
I9
sS'median'
p3957
L0L
sS'display'
p3958
S'23/26'
p3959
ssS'apply'
p3960
(dp3961
g3952
I10
sg3957
L0L
sg3958
S'39/41'
p3962
ssS'change'
p3963
(dp3964
g3952
I10
sg3957
L0L
sg3958
S'17/17'
p3965
ssS'query'
p3966
(dp3967
g3952
I8
sg3957
L0L
sg3958
S'50/65'
p3968
sssg3958
S'129/149'
p3969
ssVChrome 4.0.225
p3970
(dp3971
S'total_runs'
p3972
L1L
sS'score'
p3973
I9
sS'results'
p3974
(dp3975
S'unapply'
p3976
(dp3977
g3973
I9
sS'median'
p3978
L0L
sS'display'
p3979
S'23/26'
p3980
ssS'apply'
p3981
(dp3982
g3973
I10
sg3978
L0L
sg3979
S'39/41'
p3983
ssS'change'
p3984
(dp3985
g3973
I10
sg3978
L0L
sg3979
S'17/17'
p3986
ssS'query'
p3987
(dp3988
g3973
I8
sg3978
L0L
sg3979
S'50/65'
p3989
sssg3979
S'129/149'
p3990
ssVChrome 4.0.226
p3991
(dp3992
S'total_runs'
p3993
L5L
sS'score'
p3994
I9
sS'results'
p3995
(dp3996
S'unapply'
p3997
(dp3998
g3994
I9
sS'median'
p3999
L0L
sS'display'
p4000
S'23/26'
p4001
ssS'apply'
p4002
(dp4003
g3994
I10
sg3999
L0L
sg4000
S'39/41'
p4004
ssS'change'
p4005
(dp4006
g3994
I10
sg3999
L0L
sg4000
S'17/17'
p4007
ssS'query'
p4008
(dp4009
g3994
I8
sg3999
L0L
sg4000
S'50/65'
p4010
sssg4000
S'129/149'
p4011
ssVChrome 4.0.227
p4012
(dp4013
S'total_runs'
p4014
L5L
sS'score'
p4015
I9
sS'results'
p4016
(dp4017
S'unapply'
p4018
(dp4019
g4015
I9
sS'median'
p4020
L0L
sS'display'
p4021
S'23/26'
p4022
ssS'apply'
p4023
(dp4024
g4015
I10
sg4020
L0L
sg4021
S'39/41'
p4025
ssS'change'
p4026
(dp4027
g4015
I10
sg4020
L0L
sg4021
S'17/17'
p4028
ssS'query'
p4029
(dp4030
g4015
I8
sg4020
L0L
sg4021
S'50/65'
p4031
sssg4021
S'129/149'
p4032
ssVQtWeb 3.1
p4033
(dp4034
S'total_runs'
p4035
L1L
sS'score'
p4036
I7
sS'results'
p4037
(dp4038
S'unapply'
p4039
(dp4040
g4036
I3
sS'median'
p4041
L0L
sS'display'
p4042
S'9/26'
p4043
ssS'apply'
p4044
(dp4045
g4036
I9
sg4041
L0L
sg4042
S'35/41'
p4046
ssS'change'
p4047
(dp4048
g4036
I10
sg4041
L0L
sg4042
S'17/17'
p4049
ssS'query'
p4050
(dp4051
g4036
I8
sg4041
L0L
sg4042
S'50/65'
p4052
sssg4042
S'111/149'
p4053
ssVSwiftfox 3.5.5
p4054
(dp4055
S'total_runs'
p4056
L2L
sS'score'
p4057
I8
sS'results'
p4058
(dp4059
S'unapply'
p4060
(dp4061
g4057
I7
sS'median'
p4062
L0L
sS'display'
p4063
S'17/26'
p4064
ssS'apply'
p4065
(dp4066
g4057
I8
sg4062
L0L
sg4063
S'34/41'
p4067
ssS'change'
p4068
(dp4069
g4057
I4
sg4062
L0L
sg4063
S'7/17'
p4070
ssS'query'
p4071
(dp4072
g4057
I9
sg4062
L0L
sg4063
S'59/65'
p4073
sssg4063
S'117/149'
p4074
ssVIron 2.0.168
p4075
(dp4076
S'total_runs'
p4077
L1L
sS'score'
p4078
I8
sS'results'
p4079
(dp4080
S'unapply'
p4081
(dp4082
g4078
I7
sS'median'
p4083
L0L
sS'display'
p4084
S'19/26'
p4085
ssS'apply'
p4086
(dp4087
g4078
I10
sg4083
L0L
sg4084
S'39/41'
p4088
ssS'change'
p4089
(dp4090
g4078
I10
sg4083
L0L
sg4084
S'17/17'
p4091
ssS'query'
p4092
(dp4093
g4078
I8
sg4083
L0L
sg4084
S'50/65'
p4094
sssg4084
S'125/149'
p4095
ssVFirefox (Namoroka) 3.6b3pre
p4096
(dp4097
S'total_runs'
p4098
L2L
sS'score'
p4099
I8
sS'results'
p4100
(dp4101
S'unapply'
p4102
(dp4103
g4099
I7
sS'median'
p4104
L0L
sS'display'
p4105
S'17/26'
p4106
ssS'apply'
p4107
(dp4108
g4099
I8
sg4104
L0L
sg4105
S'34/41'
p4109
ssS'change'
p4110
(dp4111
g4099
I4
sg4104
L0L
sg4105
S'7/17'
p4112
ssS'query'
p4113
(dp4114
g4099
I9
sg4104
L0L
sg4105
S'59/65'
p4115
sssg4105
S'117/149'
p4116
ssViPhone 2.2
p4117
(dp4118
S'total_runs'
p4119
L4L
sS'score'
p4120
I7
sS'results'
p4121
(dp4122
S'unapply'
p4123
(dp4124
g4120
I3
sS'median'
p4125
L0L
sS'display'
p4126
S'9/26'
p4127
ssS'apply'
p4128
(dp4129
g4120
I7
sg4125
L0L
sg4126
S'28/41'
p4130
ssS'change'
p4131
(dp4132
g4120
I10
sg4125
L0L
sg4126
S'17/17'
p4133
ssS'query'
p4134
(dp4135
g4120
I8
sg4125
L0L
sg4126
S'50/65'
p4136
sssg4126
S'104/149'
p4137
ssVIceweasel 3.0.11
p4138
(dp4139
S'total_runs'
p4140
L1L
sS'score'
p4141
I8
sS'results'
p4142
(dp4143
S'unapply'
p4144
(dp4145
g4141
I7
sS'median'
p4146
L0L
sS'display'
p4147
S'17/26'
p4148
ssS'apply'
p4149
(dp4150
g4141
I8
sg4146
L0L
sg4147
S'34/41'
p4151
ssS'change'
p4152
(dp4153
g4141
I4
sg4146
L0L
sg4147
S'7/17'
p4154
ssS'query'
p4155
(dp4156
g4141
I9
sg4146
L0L
sg4147
S'59/65'
p4157
sssg4147
S'117/149'
p4158
ssVFirefox (Namoroka) 3.6b4pre
p4159
(dp4160
S'total_runs'
p4161
L3L
sS'score'
p4162
I8
sS'results'
p4163
(dp4164
S'unapply'
p4165
(dp4166
g4162
I7
sS'median'
p4167
L0L
sS'display'
p4168
S'17/26'
p4169
ssS'apply'
p4170
(dp4171
g4162
I8
sg4167
L0L
sg4168
S'34/41'
p4172
ssS'change'
p4173
(dp4174
g4162
I4
sg4167
L0L
sg4168
S'7/17'
p4175
ssS'query'
p4176
(dp4177
g4162
I9
sg4167
L0L
sg4168
S'59/65'
p4178
sssg4168
S'117/149'
p4179
ssVVodafone 1.0
p4180
(dp4181
S'total_runs'
p4182
L1L
sS'score'
p4183
I8
sS'results'
p4184
(dp4185
S'unapply'
p4186
(dp4187
g4183
I7
sS'median'
p4188
L0L
sS'display'
p4189
S'17/26'
p4190
ssS'apply'
p4191
(dp4192
g4183
I8
sg4188
L0L
sg4189
S'34/41'
p4193
ssS'change'
p4194
(dp4195
g4183
I4
sg4188
L0L
sg4189
S'7/17'
p4196
ssS'query'
p4197
(dp4198
g4183
I9
sg4188
L0L
sg4189
S'59/65'
p4199
sssg4189
S'117/149'
p4200
ssVSwiftfox 3.5.2
p4201
(dp4202
S'total_runs'
p4203
L3L
sS'score'
p4204
I8
sS'results'
p4205
(dp4206
S'unapply'
p4207
(dp4208
g4204
I7
sS'median'
p4209
L0L
sS'display'
p4210
S'17/26'
p4211
ssS'apply'
p4212
(dp4213
g4204
I8
sg4209
L0L
sg4210
S'34/41'
p4214
ssS'change'
p4215
(dp4216
g4204
I4
sg4209
L0L
sg4210
S'7/17'
p4217
ssS'query'
p4218
(dp4219
g4204
I9
sg4209
L0L
sg4210
S'59/65'
p4220
sssg4210
S'117/149'
p4221
ssVFlock 2.5.5
p4222
(dp4223
S'total_runs'
p4224
L1L
sS'score'
p4225
I8
sS'results'
p4226
(dp4227
S'unapply'
p4228
(dp4229
g4225
I7
sS'median'
p4230
L0L
sS'display'
p4231
S'17/26'
p4232
ssS'apply'
p4233
(dp4234
g4225
I8
sg4230
L0L
sg4231
S'34/41'
p4235
ssS'change'
p4236
(dp4237
g4225
I4
sg4230
L0L
sg4231
S'7/17'
p4238
ssS'query'
p4239
(dp4240
g4225
I9
sg4230
L0L
sg4231
S'59/65'
p4241
sssg4231
S'117/149'
p4242
ssVSeaMonkey 2.0b2pre
p4243
(dp4244
S'total_runs'
p4245
L1L
sS'score'
p4246
I8
sS'results'
p4247
(dp4248
S'unapply'
p4249
(dp4250
g4246
I7
sS'median'
p4251
L0L
sS'display'
p4252
S'17/26'
p4253
ssS'apply'
p4254
(dp4255
g4246
I8
sg4251
L0L
sg4252
S'34/41'
p4256
ssS'change'
p4257
(dp4258
g4246
I4
sg4251
L0L
sg4252
S'7/17'
p4259
ssS'query'
p4260
(dp4261
g4246
I9
sg4251
L0L
sg4252
S'59/65'
p4262
sssg4252
S'117/149'
p4263
ssVFirefox (Minefield) 3.6.a1pre
p4264
(dp4265
S'total_runs'
p4266
L8L
sS'score'
p4267
I8
sS'results'
p4268
(dp4269
S'unapply'
p4270
(dp4271
g4267
I7
sS'median'
p4272
L0L
sS'display'
p4273
S'17/26'
p4274
ssS'apply'
p4275
(dp4276
g4267
I8
sg4272
L0L
sg4273
S'34/41'
p4277
ssS'change'
p4278
(dp4279
g4267
I4
sg4272
L0L
sg4273
S'7/17'
p4280
ssS'query'
p4281
(dp4282
g4267
I9
sg4272
L0L
sg4273
S'59/65'
p4283
sssg4273
S'117/149'
p4284
ssVIceweasel 3.5.5
p4285
(dp4286
S'total_runs'
p4287
L2L
sS'score'
p4288
I8
sS'results'
p4289
(dp4290
S'unapply'
p4291
(dp4292
g4288
I7
sS'median'
p4293
L0L
sS'display'
p4294
S'17/26'
p4295
ssS'apply'
p4296
(dp4297
g4288
I8
sg4293
L0L
sg4294
S'34/41'
p4298
ssS'change'
p4299
(dp4300
g4288
I4
sg4293
L0L
sg4294
S'7/17'
p4301
ssS'query'
p4302
(dp4303
g4288
I9
sg4293
L0L
sg4294
S'59/65'
p4304
sssg4294
S'117/149'
p4305
ssVK-Meleon 1.5.2
p4306
(dp4307
S'total_runs'
p4308
L2L
sS'score'
p4309
I8
sS'results'
p4310
(dp4311
S'unapply'
p4312
(dp4313
g4309
I7
sS'median'
p4314
L0L
sS'display'
p4315
S'17/26'
p4316
ssS'apply'
p4317
(dp4318
g4309
I8
sg4314
L0L
sg4315
S'34/41'
p4319
ssS'change'
p4320
(dp4321
g4309
I4
sg4314
L0L
sg4315
S'7/17'
p4322
ssS'query'
p4323
(dp4324
g4309
I9
sg4314
L0L
sg4315
S'59/65'
p4325
sssg4315
S'117/149'
p4326
ssVK-Meleon 1.5.3
p4327
(dp4328
S'total_runs'
p4329
L4L
sS'score'
p4330
I8
sS'results'
p4331
(dp4332
S'unapply'
p4333
(dp4334
g4330
I7
sS'median'
p4335
L0L
sS'display'
p4336
S'17/26'
p4337
ssS'apply'
p4338
(dp4339
g4330
I8
sg4335
L0L
sg4336
S'34/41'
p4340
ssS'change'
p4341
(dp4342
g4330
I4
sg4335
L0L
sg4336
S'7/17'
p4343
ssS'query'
p4344
(dp4345
g4330
I9
sg4335
L0L
sg4336
S'59/65'
p4346
sssg4336
S'117/149'
p4347
ssVChrome 4.0.239
p4348
(dp4349
S'total_runs'
p4350
L2L
sS'score'
p4351
I9
sS'results'
p4352
(dp4353
S'unapply'
p4354
(dp4355
g4351
I9
sS'median'
p4356
L0L
sS'display'
p4357
S'23/26'
p4358
ssS'apply'
p4359
(dp4360
g4351
I10
sg4356
L0L
sg4357
S'39/41'
p4361
ssS'change'
p4362
(dp4363
g4351
I10
sg4356
L0L
sg4357
S'17/17'
p4364
ssS'query'
p4365
(dp4366
g4351
I8
sg4356
L0L
sg4357
S'50/65'
p4367
sssg4357
S'129/149'
p4368
ssVChrome 4.0.237
p4369
(dp4370
S'total_runs'
p4371
L93L
sS'score'
p4372
I9
sS'results'
p4373
(dp4374
S'unapply'
p4375
(dp4376
g4372
I9
sS'median'
p4377
L0L
sS'display'
p4378
S'23/26'
p4379
ssS'apply'
p4380
(dp4381
g4372
I10
sg4377
L0L
sg4378
S'39/41'
p4382
ssS'change'
p4383
(dp4384
g4372
I10
sg4377
L0L
sg4378
S'17/17'
p4385
ssS'query'
p4386
(dp4387
g4372
I8
sg4377
L0L
sg4378
S'50/65'
p4388
sssg4378
S'129/149'
p4389
ssVChrome 4.0.235
p4390
(dp4391
S'total_runs'
p4392
L1L
sS'score'
p4393
I9
sS'results'
p4394
(dp4395
S'unapply'
p4396
(dp4397
g4393
I9
sS'median'
p4398
L0L
sS'display'
p4399
S'23/26'
p4400
ssS'apply'
p4401
(dp4402
g4393
I10
sg4398
L0L
sg4399
S'39/41'
p4403
ssS'change'
p4404
(dp4405
g4393
I10
sg4398
L0L
sg4399
S'17/17'
p4406
ssS'query'
p4407
(dp4408
g4393
I8
sg4398
L0L
sg4399
S'50/65'
p4409
sssg4399
S'129/149'
p4410
ssVSwiftfox 3.5.3
p4411
(dp4412
S'total_runs'
p4413
L1L
sS'score'
p4414
I7
sS'results'
p4415
(dp4416
S'unapply'
p4417
(dp4418
g4414
I7
sS'median'
p4419
L0L
sS'display'
p4420
S'17/26'
p4421
ssS'apply'
p4422
(dp4423
g4414
I8
sg4419
L0L
sg4420
S'34/41'
p4424
ssS'change'
p4425
(dp4426
g4414
I4
sg4419
L0L
sg4420
S'7/17'
p4427
ssS'query'
p4428
(dp4429
g4414
I8
sg4419
L0L
sg4420
S'53/65'
p4430
sssg4420
S'111/149'
p4431
ssVChrome 4.0.233
p4432
(dp4433
S'total_runs'
p4434
L1L
sS'score'
p4435
I9
sS'results'
p4436
(dp4437
S'unapply'
p4438
(dp4439
g4435
I9
sS'median'
p4440
L0L
sS'display'
p4441
S'23/26'
p4442
ssS'apply'
p4443
(dp4444
g4435
I10
sg4440
L0L
sg4441
S'39/41'
p4445
ssS'change'
p4446
(dp4447
g4435
I10
sg4440
L0L
sg4441
S'17/17'
p4448
ssS'query'
p4449
(dp4450
g4435
I8
sg4440
L0L
sg4441
S'50/65'
p4451
sssg4441
S'129/149'
p4452
ssVChrome 4.0.232
p4453
(dp4454
S'total_runs'
p4455
L1L
sS'score'
p4456
I9
sS'results'
p4457
(dp4458
S'unapply'
p4459
(dp4460
g4456
I9
sS'median'
p4461
L0L
sS'display'
p4462
S'23/26'
p4463
ssS'apply'
p4464
(dp4465
g4456
I10
sg4461
L0L
sg4462
S'39/41'
p4466
ssS'change'
p4467
(dp4468
g4456
I10
sg4461
L0L
sg4462
S'17/17'
p4469
ssS'query'
p4470
(dp4471
g4456
I8
sg4461
L0L
sg4462
S'50/65'
p4472
sssg4462
S'129/149'
p4473
ssVChrome 4.0.231
p4474
(dp4475
S'total_runs'
p4476
L1L
sS'score'
p4477
I9
sS'results'
p4478
(dp4479
S'unapply'
p4480
(dp4481
g4477
I9
sS'median'
p4482
L0L
sS'display'
p4483
S'23/26'
p4484
ssS'apply'
p4485
(dp4486
g4477
I10
sg4482
L0L
sg4483
S'39/41'
p4487
ssS'change'
p4488
(dp4489
g4477
I10
sg4482
L0L
sg4483
S'17/17'
p4490
ssS'query'
p4491
(dp4492
g4477
I8
sg4482
L0L
sg4483
S'50/65'
p4493
sssg4483
S'129/149'
p4494
ssVSafari 3.0
p4495
(dp4496
S'total_runs'
p4497
L4L
sS'score'
p4498
I7
sS'results'
p4499
(dp4500
S'unapply'
p4501
(dp4502
g4498
I3
sS'median'
p4503
L0L
sS'display'
p4504
S'8/26'
p4505
ssS'apply'
p4506
(dp4507
g4498
I7
sg4503
L0L
sg4504
S'28/41'
p4508
ssS'change'
p4509
(dp4510
g4498
I10
sg4503
L0L
sg4504
S'17/17'
p4511
ssS'query'
p4512
(dp4513
g4498
I8
sg4503
L0L
sg4504
S'50/65'
p4514
sssg4504
S'103/149'
p4515
ssVStainless 0.7
p4516
(dp4517
S'total_runs'
p4518
L2L
sS'score'
p4519
I8
sS'results'
p4520
(dp4521
S'unapply'
p4522
(dp4523
g4519
I7
sS'median'
p4524
L0L
sS'display'
p4525
S'19/26'
p4526
ssS'apply'
p4527
(dp4528
g4519
I10
sg4524
L0L
sg4525
S'39/41'
p4529
ssS'change'
p4530
(dp4531
g4519
I10
sg4524
L0L
sg4525
S'17/17'
p4532
ssS'query'
p4533
(dp4534
g4519
I8
sg4524
L0L
sg4525
S'50/65'
p4535
sssg4525
S'125/149'
p4536
ssVMicroB 0.3.7
p4537
(dp4538
S'total_runs'
p4539
L1L
sS'score'
p4540
I8
sS'results'
p4541
(dp4542
S'unapply'
p4543
(dp4544
g4540
I7
sS'median'
p4545
L0L
sS'display'
p4546
S'17/26'
p4547
ssS'apply'
p4548
(dp4549
g4540
I8
sg4545
L0L
sg4546
S'34/41'
p4550
ssS'change'
p4551
(dp4552
g4540
I4
sg4545
L0L
sg4546
S'7/17'
p4553
ssS'query'
p4554
(dp4555
g4540
I9
sg4545
L0L
sg4546
S'60/65'
p4556
sssg4546
S'118/149'
p4557
ssVCamino 1.5.4
p4558
(dp4559
S'total_runs'
p4560
L1L
sS'score'
p4561
I8
sS'results'
p4562
(dp4563
S'unapply'
p4564
(dp4565
g4561
I7
sS'median'
p4566
L0L
sS'display'
p4567
S'17/26'
p4568
ssS'apply'
p4569
(dp4570
g4561
I8
sg4566
L0L
sg4567
S'34/41'
p4571
ssS'change'
p4572
(dp4573
g4561
I4
sg4566
L0L
sg4567
S'7/17'
p4574
ssS'query'
p4575
(dp4576
g4561
I9
sg4566
L0L
sg4567
S'59/65'
p4577
sssg4567
S'117/149'
p4578
ssVLunascape 6.0.0
p4579
(dp4580
S'total_runs'
p4581
L2L
sS'score'
p4582
I8
sS'results'
p4583
(dp4584
S'unapply'
p4585
(dp4586
g4582
I7
sS'median'
p4587
L0L
sS'display'
p4588
S'17/26'
p4589
ssS'apply'
p4590
(dp4591
g4582
I8
sg4587
L0L
sg4588
S'34/41'
p4592
ssS'change'
p4593
(dp4594
g4582
I4
sg4587
L0L
sg4588
S'7/17'
p4595
ssS'query'
p4596
(dp4597
g4582
I9
sg4587
L0L
sg4588
S'59/65'
p4598
sssg4588
S'117/149'
p4599
ssVOpera 10.50
p4600
(dp4601
S'total_runs'
p4602
L1L
sS'score'
p4603
I6
sS'results'
p4604
(dp4605
S'unapply'
p4606
(dp4607
g4603
I5
sS'median'
p4608
L0L
sS'display'
p4609
S'13/26'
p4610
ssS'apply'
p4611
(dp4612
g4603
I6
sg4608
L0L
sg4609
S'26/41'
p4613
ssS'change'
p4614
(dp4615
g4603
I4
sg4608
L0L
sg4609
S'7/17'
p4616
ssS'query'
p4617
(dp4618
g4603
I6
sg4608
L0L
sg4609
S'42/65'
p4619
sssg4609
S'88/149'
p4620
ssVSeaMonkey 2.0.1
p4621
(dp4622
S'total_runs'
p4623
L2L
sS'score'
p4624
I8
sS'results'
p4625
(dp4626
S'unapply'
p4627
(dp4628
g4624
I7
sS'median'
p4629
L0L
sS'display'
p4630
S'17/26'
p4631
ssS'apply'
p4632
(dp4633
g4624
I8
sg4629
L0L
sg4630
S'34/41'
p4634
ssS'change'
p4635
(dp4636
g4624
I4
sg4629
L0L
sg4630
S'7/17'
p4637
ssS'query'
p4638
(dp4639
g4624
I9
sg4629
L0L
sg4630
S'59/65'
p4640
sssg4630
S'117/149'
p4641
ssVWii 9.30
p4642
(dp4643
S'total_runs'
p4644
L1L
sS'score'
p4645
I0
sS'results'
p4646
(dp4647
S'unapply'
p4648
(dp4649
g4645
I0
sS'median'
p4650
L0L
sS'display'
p4651
S'0/26'
p4652
ssS'apply'
p4653
(dp4654
g4645
I0
sg4650
L0L
sg4651
S'0/41'
p4655
ssS'change'
p4656
(dp4657
g4645
I0
sg4650
L0L
sg4651
S'0/17'
p4658
ssS'query'
p4659
(dp4660
g4645
I0
sg4650
L0L
sg4651
S'0/65'
p4661
sssg4651
S'0/149'
p4662
ssVArora 0.5
p4663
(dp4664
S'total_runs'
p4665
L1L
sS'score'
p4666
I7
sS'results'
p4667
(dp4668
S'unapply'
p4669
(dp4670
g4666
I3
sS'median'
p4671
L0L
sS'display'
p4672
S'9/26'
p4673
ssS'apply'
p4674
(dp4675
g4666
I9
sg4671
L0L
sg4672
S'35/41'
p4676
ssS'change'
p4677
(dp4678
g4666
I10
sg4671
L0L
sg4672
S'17/17'
p4679
ssS'query'
p4680
(dp4681
g4666
I8
sg4671
L0L
sg4672
S'50/65'
p4682
sssg4672
S'111/149'
p4683
ssVArora 0.6
p4684
(dp4685
S'total_runs'
p4686
L1L
sS'score'
p4687
I7
sS'results'
p4688
(dp4689
S'unapply'
p4690
(dp4691
g4687
I3
sS'median'
p4692
L0L
sS'display'
p4693
S'8/26'
p4694
ssS'apply'
p4695
(dp4696
g4687
I7
sg4692
L0L
sg4693
S'27/41'
p4697
ssS'change'
p4698
(dp4699
g4687
I10
sg4692
L0L
sg4693
S'17/17'
p4700
ssS'query'
p4701
(dp4702
g4687
I8
sg4692
L0L
sg4693
S'50/65'
p4703
sssg4693
S'102/149'
p4704
ssVArora 0.7
p4705
(dp4706
S'total_runs'
p4707
L1L
sS'score'
p4708
I7
sS'results'
p4709
(dp4710
S'unapply'
p4711
(dp4712
g4708
I3
sS'median'
p4713
L0L
sS'display'
p4714
S'9/26'
p4715
ssS'apply'
p4716
(dp4717
g4708
I9
sg4713
L0L
sg4714
S'35/41'
p4718
ssS'change'
p4719
(dp4720
g4708
I10
sg4713
L0L
sg4714
S'17/17'
p4721
ssS'query'
p4722
(dp4723
g4708
I8
sg4713
L0L
sg4714
S'50/65'
p4724
sssg4714
S'111/149'
p4725
ssVSafari 3.2
p4726
(dp4727
S'total_runs'
p4728
L13L
sS'score'
p4729
I7
sS'results'
p4730
(dp4731
S'unapply'
p4732
(dp4733
g4729
I3
sS'median'
p4734
L0L
sS'display'
p4735
S'9/26'
p4736
ssS'apply'
p4737
(dp4738
g4729
I7
sg4734
L0L
sg4735
S'28/41'
p4739
ssS'change'
p4740
(dp4741
g4729
I10
sg4734
L0L
sg4735
S'17/17'
p4742
ssS'query'
p4743
(dp4744
g4729
I8
sg4734
L0L
sg4735
S'50/65'
p4745
sssg4735
S'104/149'
p4746
ssVIceweasel 3.0.14
p4747
(dp4748
S'total_runs'
p4749
L8L
sS'score'
p4750
I8
sS'results'
p4751
(dp4752
S'unapply'
p4753
(dp4754
g4750
I7
sS'median'
p4755
L0L
sS'display'
p4756
S'17/26'
p4757
ssS'apply'
p4758
(dp4759
g4750
I8
sg4755
L0L
sg4756
S'34/41'
p4760
ssS'change'
p4761
(dp4762
g4750
I4
sg4755
L0L
sg4756
S'7/17'
p4763
ssS'query'
p4764
(dp4765
g4750
I9
sg4755
L0L
sg4756
S'59/65'
p4766
sssg4756
S'117/149'
p4767
ssVChrome 4.0.255
p4768
(dp4769
S'total_runs'
p4770
L1L
sS'score'
p4771
I9
sS'results'
p4772
(dp4773
S'unapply'
p4774
(dp4775
g4771
I9
sS'median'
p4776
L0L
sS'display'
p4777
S'23/26'
p4778
ssS'apply'
p4779
(dp4780
g4771
I10
sg4776
L0L
sg4777
S'39/41'
p4781
ssS'change'
p4782
(dp4783
g4771
I10
sg4776
L0L
sg4777
S'17/17'
p4784
ssS'query'
p4785
(dp4786
g4771
I8
sg4776
L0L
sg4777
S'50/65'
p4787
sssg4777
S'129/149'
p4788
ssVFirefox 3.6a1
p4789
(dp4790
S'total_runs'
p4791
L1L
sS'score'
p4792
I8
sS'results'
p4793
(dp4794
S'unapply'
p4795
(dp4796
g4792
I7
sS'median'
p4797
L0L
sS'display'
p4798
S'17/26'
p4799
ssS'apply'
p4800
(dp4801
g4792
I8
sg4797
L0L
sg4798
S'34/41'
p4802
ssS'change'
p4803
(dp4804
g4792
I4
sg4797
L0L
sg4798
S'7/17'
p4805
ssS'query'
p4806
(dp4807
g4792
I9
sg4797
L0L
sg4798
S'59/65'
p4808
sssg4798
S'117/149'
p4809
ssVArora 0.8
p4810
(dp4811
S'total_runs'
p4812
L3L
sS'score'
p4813
I7
sS'results'
p4814
(dp4815
S'unapply'
p4816
(dp4817
g4813
I3
sS'median'
p4818
L0L
sS'display'
p4819
S'9/26'
p4820
ssS'apply'
p4821
(dp4822
g4813
I9
sg4818
L0L
sg4819
S'35/41'
p4823
ssS'change'
p4824
(dp4825
g4813
I10
sg4818
L0L
sg4819
S'17/17'
p4826
ssS'query'
p4827
(dp4828
g4813
I8
sg4818
L0L
sg4819
S'50/65'
p4829
sssg4819
S'111/149'
p4830
ssVArora 0.9
p4831
(dp4832
S'total_runs'
p4833
L8L
sS'score'
p4834
I8
sS'results'
p4835
(dp4836
S'unapply'
p4837
(dp4838
g4834
I3
sS'median'
p4839
L0L
sS'display'
p4840
S'9/26'
p4841
ssS'apply'
p4842
(dp4843
g4834
I9
sg4839
L0L
sg4840
S'36/41'
p4844
ssS'change'
p4845
(dp4846
g4834
I10
sg4839
L0L
sg4840
S'17/17'
p4847
ssS'query'
p4848
(dp4849
g4834
I8
sg4839
L0L
sg4840
S'50/65'
p4850
sssg4840
S'112/149'
p4851
ssVIceweasel 3.0.12
p4852
(dp4853
S'total_runs'
p4854
L4L
sS'score'
p4855
I8
sS'results'
p4856
(dp4857
S'unapply'
p4858
(dp4859
g4855
I7
sS'median'
p4860
L0L
sS'display'
p4861
S'17/26'
p4862
ssS'apply'
p4863
(dp4864
g4855
I8
sg4860
L0L
sg4861
S'34/41'
p4865
ssS'change'
p4866
(dp4867
g4855
I4
sg4860
L0L
sg4861
S'7/17'
p4868
ssS'query'
p4869
(dp4870
g4855
I9
sg4860
L0L
sg4861
S'59/65'
p4871
sssg4861
S'117/149'
p4872
ssVMidori 0.1.8
p4873
(dp4874
S'total_runs'
p4875
L4L
sS'score'
p4876
I8
sS'results'
p4877
(dp4878
S'unapply'
p4879
(dp4880
g4876
I7
sS'median'
p4881
L0L
sS'display'
p4882
S'19/26'
p4883
ssS'apply'
p4884
(dp4885
g4876
I10
sg4881
L0L
sg4882
S'39/41'
p4886
ssS'change'
p4887
(dp4888
g4876
I10
sg4881
L0L
sg4882
S'17/17'
p4889
ssS'query'
p4890
(dp4891
g4876
I7
sg4881
L0L
sg4882
S'47/65'
p4892
sssg4882
S'122/149'
p4893
ssVNetNewsWire 3.1.3
p4894
(dp4895
S'total_runs'
p4896
L1L
sS'score'
p4897
I8
sS'results'
p4898
(dp4899
S'unapply'
p4900
(dp4901
g4897
I7
sS'median'
p4902
L0L
sS'display'
p4903
S'19/26'
p4904
ssS'apply'
p4905
(dp4906
g4897
I10
sg4902
L0L
sg4903
S'39/41'
p4907
ssS'change'
p4908
(dp4909
g4897
I10
sg4902
L0L
sg4903
S'17/17'
p4910
ssS'query'
p4911
(dp4912
g4897
I8
sg4902
L0L
sg4903
S'50/65'
p4913
sssg4903
S'125/149'
p4914
ssVUzbl 0
p4915
(dp4916
S'total_runs'
p4917
L20L
sS'score'
p4918
I9
sS'results'
p4919
(dp4920
S'unapply'
p4921
(dp4922
g4918
I9
sS'median'
p4923
L0L
sS'display'
p4924
S'23/26'
p4925
ssS'apply'
p4926
(dp4927
g4918
I10
sg4923
L0L
sg4924
S'39/41'
p4928
ssS'change'
p4929
(dp4930
g4918
I10
sg4923
L0L
sg4924
S'17/17'
p4931
ssS'query'
p4932
(dp4933
g4918
I8
sg4923
L0L
sg4924
S'50/65'
p4934
sssg4924
S'129/149'
p4935
ssVSeaMonkey 2.0b2
p4936
(dp4937
S'total_runs'
p4938
L5L
sS'score'
p4939
I8
sS'results'
p4940
(dp4941
S'unapply'
p4942
(dp4943
g4939
I7
sS'median'
p4944
L0L
sS'display'
p4945
S'17/26'
p4946
ssS'apply'
p4947
(dp4948
g4939
I8
sg4944
L0L
sg4945
S'34/41'
p4949
ssS'change'
p4950
(dp4951
g4939
I4
sg4944
L0L
sg4945
S'7/17'
p4952
ssS'query'
p4953
(dp4954
g4939
I9
sg4944
L0L
sg4945
S'59/65'
p4955
sssg4945
S'117/149'
p4956
ssVSeaMonkey 2.0b1
p4957
(dp4958
S'total_runs'
p4959
L1L
sS'score'
p4960
I8
sS'results'
p4961
(dp4962
S'unapply'
p4963
(dp4964
g4960
I7
sS'median'
p4965
L0L
sS'display'
p4966
S'17/26'
p4967
ssS'apply'
p4968
(dp4969
g4960
I8
sg4965
L0L
sg4966
S'34/41'
p4970
ssS'change'
p4971
(dp4972
g4960
I4
sg4965
L0L
sg4966
S'7/17'
p4973
ssS'query'
p4974
(dp4975
g4960
I9
sg4965
L0L
sg4966
S'59/65'
p4976
sssg4966
S'117/149'
p4977
ssVSeaMonkey 1.1.8
p4978
(dp4979
S'total_runs'
p4980
L1L
sS'score'
p4981
I8
sS'results'
p4982
(dp4983
S'unapply'
p4984
(dp4985
g4981
I7
sS'median'
p4986
L0L
sS'display'
p4987
S'17/26'
p4988
ssS'apply'
p4989
(dp4990
g4981
I8
sg4986
L0L
sg4987
S'34/41'
p4991
ssS'change'
p4992
(dp4993
g4981
I4
sg4986
L0L
sg4987
S'7/17'
p4994
ssS'query'
p4995
(dp4996
g4981
I9
sg4986
L0L
sg4987
S'59/65'
p4997
sssg4987
S'117/149'
p4998
ssVNetNewsWire 3.2.3
p4999
(dp5000
S'total_runs'
p5001
L1L
sS'score'
p5002
I8
sS'results'
p5003
(dp5004
S'unapply'
p5005
(dp5006
g5002
I7
sS'median'
p5007
L0L
sS'display'
p5008
S'19/26'
p5009
ssS'apply'
p5010
(dp5011
g5002
I10
sg5007
L0L
sg5008
S'39/41'
p5012
ssS'change'
p5013
(dp5014
g5002
I10
sg5007
L0L
sg5008
S'17/17'
p5015
ssS'query'
p5016
(dp5017
g5002
I8
sg5007
L0L
sg5008
S'50/65'
p5018
sssg5008
S'125/149'
p5019
ssVArora 0.10
p5020
(dp5021
S'total_runs'
p5022
L3L
sS'score'
p5023
I7
sS'results'
p5024
(dp5025
S'unapply'
p5026
(dp5027
g5023
I3
sS'median'
p5028
L0L
sS'display'
p5029
S'9/26'
p5030
ssS'apply'
p5031
(dp5032
g5023
I9
sg5028
L0L
sg5029
S'35/41'
p5033
ssS'change'
p5034
(dp5035
g5023
I10
sg5028
L0L
sg5029
S'17/17'
p5036
ssS'query'
p5037
(dp5038
g5023
I8
sg5028
L0L
sg5029
S'50/65'
p5039
sssg5029
S'111/149'
p5040
ssVCamino 2.1.a1pre
p5041
(dp5042
S'total_runs'
p5043
L1L
sS'score'
p5044
I8
sS'results'
p5045
(dp5046
S'unapply'
p5047
(dp5048
g5044
I7
sS'median'
p5049
L0L
sS'display'
p5050
S'17/26'
p5051
ssS'apply'
p5052
(dp5053
g5044
I8
sg5049
L0L
sg5050
S'34/41'
p5054
ssS'change'
p5055
(dp5056
g5044
I4
sg5049
L0L
sg5050
S'7/17'
p5057
ssS'query'
p5058
(dp5059
g5044
I8
sg5049
L0L
sg5050
S'54/65'
p5060
sssg5050
S'112/149'
p5061
ssVFirefox (Namoroka) 3.7a1pre
p5062
(dp5063
S'total_runs'
p5064
L1L
sS'score'
p5065
I8
sS'results'
p5066
(dp5067
S'unapply'
p5068
(dp5069
g5065
I7
sS'median'
p5070
L0L
sS'display'
p5071
S'17/26'
p5072
ssS'apply'
p5073
(dp5074
g5065
I8
sg5070
L0L
sg5071
S'34/41'
p5075
ssS'change'
p5076
(dp5077
g5065
I4
sg5070
L0L
sg5071
S'7/17'
p5078
ssS'query'
p5079
(dp5080
g5065
I9
sg5070
L0L
sg5071
S'59/65'
p5081
sssg5071
S'117/149'
p5082
ssVChrome 4.0.249
p5083
(dp5084
S'total_runs'
p5085
L55L
sS'score'
p5086
I9
sS'results'
p5087
(dp5088
S'unapply'
p5089
(dp5090
g5086
I9
sS'median'
p5091
L0L
sS'display'
p5092
S'23/26'
p5093
ssS'apply'
p5094
(dp5095
g5086
I10
sg5091
L0L
sg5092
S'39/41'
p5096
ssS'change'
p5097
(dp5098
g5086
I10
sg5091
L0L
sg5092
S'17/17'
p5099
ssS'query'
p5100
(dp5101
g5086
I8
sg5091
L0L
sg5092
S'50/65'
p5102
sssg5092
S'129/149'
p5103
ssVChrome 4.0.242
p5104
(dp5105
S'total_runs'
p5106
L1L
sS'score'
p5107
I9
sS'results'
p5108
(dp5109
S'unapply'
p5110
(dp5111
g5107
I9
sS'median'
p5112
L0L
sS'display'
p5113
S'23/26'
p5114
ssS'apply'
p5115
(dp5116
g5107
I10
sg5112
L0L
sg5113
S'39/41'
p5117
ssS'change'
p5118
(dp5119
g5107
I10
sg5112
L0L
sg5113
S'17/17'
p5120
ssS'query'
p5121
(dp5122
g5107
I8
sg5112
L0L
sg5113
S'50/65'
p5123
sssg5113
S'129/149'
p5124
ssVChrome 4.0.240
p5125
(dp5126
S'total_runs'
p5127
L2L
sS'score'
p5128
I9
sS'results'
p5129
(dp5130
S'unapply'
p5131
(dp5132
g5128
I9
sS'median'
p5133
L0L
sS'display'
p5134
S'23/26'
p5135
ssS'apply'
p5136
(dp5137
g5128
I10
sg5133
L0L
sg5134
S'39/41'
p5138
ssS'change'
p5139
(dp5140
g5128
I10
sg5133
L0L
sg5134
S'17/17'
p5141
ssS'query'
p5142
(dp5143
g5128
I8
sg5133
L0L
sg5134
S'50/65'
p5144
sssg5134
S'129/149'
p5145
ssVChrome 4.0.241
p5146
(dp5147
S'total_runs'
p5148
L3L
sS'score'
p5149
I9
sS'results'
p5150
(dp5151
S'unapply'
p5152
(dp5153
g5149
I9
sS'median'
p5154
L0L
sS'display'
p5155
S'23/26'
p5156
ssS'apply'
p5157
(dp5158
g5149
I10
sg5154
L0L
sg5155
S'39/41'
p5159
ssS'change'
p5160
(dp5161
g5149
I10
sg5154
L0L
sg5155
S'17/17'
p5162
ssS'query'
p5163
(dp5164
g5149
I8
sg5154
L0L
sg5155
S'50/65'
p5165
sssg5155
S'129/149'
p5166
ssVChrome 4.0.246
p5167
(dp5168
S'total_runs'
p5169
L5L
sS'score'
p5170
I9
sS'results'
p5171
(dp5172
S'unapply'
p5173
(dp5174
g5170
I9
sS'median'
p5175
L0L
sS'display'
p5176
S'23/26'
p5177
ssS'apply'
p5178
(dp5179
g5170
I10
sg5175
L0L
sg5176
S'39/41'
p5180
ssS'change'
p5181
(dp5182
g5170
I10
sg5175
L0L
sg5176
S'17/17'
p5183
ssS'query'
p5184
(dp5185
g5170
I8
sg5175
L0L
sg5176
S'50/65'
p5186
sssg5176
S'129/149'
p5187
ssVChrome 4.0.244
p5188
(dp5189
S'total_runs'
p5190
L3L
sS'score'
p5191
I9
sS'results'
p5192
(dp5193
S'unapply'
p5194
(dp5195
g5191
I9
sS'median'
p5196
L0L
sS'display'
p5197
S'23/26'
p5198
ssS'apply'
p5199
(dp5200
g5191
I10
sg5196
L0L
sg5197
S'39/41'
p5201
ssS'change'
p5202
(dp5203
g5191
I10
sg5196
L0L
sg5197
S'17/17'
p5204
ssS'query'
p5205
(dp5206
g5191
I8
sg5196
L0L
sg5197
S'50/65'
p5207
sssg5197
S'129/149'
p5208
ssVChrome 4.0.245
p5209
(dp5210
S'total_runs'
p5211
L23L
sS'score'
p5212
I9
sS'results'
p5213
(dp5214
S'unapply'
p5215
(dp5216
g5212
I9
sS'median'
p5217
L0L
sS'display'
p5218
S'23/26'
p5219
ssS'apply'
p5220
(dp5221
g5212
I10
sg5217
L0L
sg5218
S'39/41'
p5222
ssS'change'
p5223
(dp5224
g5212
I10
sg5217
L0L
sg5218
S'17/17'
p5225
ssS'query'
p5226
(dp5227
g5212
I8
sg5217
L0L
sg5218
S'50/65'
p5228
sssg5218
S'129/149'
p5229
ssVSeaMonkey 2.0.a2
p5230
(dp5231
S'total_runs'
p5232
L3L
sS'score'
p5233
I8
sS'results'
p5234
(dp5235
S'unapply'
p5236
(dp5237
g5233
I7
sS'median'
p5238
L0L
sS'display'
p5239
S'19/26'
p5240
ssS'apply'
p5241
(dp5242
g5233
I8
sg5238
L0L
sg5239
S'34/41'
p5243
ssS'change'
p5244
(dp5245
g5233
I4
sg5238
L0L
sg5239
S'7/17'
p5246
ssS'query'
p5247
(dp5248
g5233
I9
sg5238
L0L
sg5239
S'59/65'
p5249
sssg5239
S'119/149'
p5250
ssVJasmine 1.0
p5251
(dp5252
S'total_runs'
p5253
L2L
sS'score'
p5254
I10
sS'results'
p5255
(dp5256
S'unapply'
p5257
(dp5258
g5254
I9
sS'median'
p5259
L0L
sS'display'
p5260
S'23/26'
p5261
ssS'apply'
p5262
(dp5263
g5254
I10
sg5259
L0L
sg5260
S'40/41'
p5264
ssS'change'
p5265
(dp5266
g5254
I10
sg5259
L0L
sg5260
S'17/17'
p5267
ssS'query'
p5268
(dp5269
g5254
I10
sg5259
L0L
sg5260
S'65/65'
p5270
sssg5260
S'145/149'
p5271
ssVFirefox 3.7a1pre
p5272
(dp5273
S'total_runs'
p5274
L2L
sS'score'
p5275
I8
sS'results'
p5276
(dp5277
S'unapply'
p5278
(dp5279
g5275
I7
sS'median'
p5280
L0L
sS'display'
p5281
S'17/26'
p5282
ssS'apply'
p5283
(dp5284
g5275
I8
sg5280
L0L
sg5281
S'34/41'
p5285
ssS'change'
p5286
(dp5287
g5275
I4
sg5280
L0L
sg5281
S'7/17'
p5288
ssS'query'
p5289
(dp5290
g5275
I9
sg5280
L0L
sg5281
S'59/65'
p5291
sssg5281
S'117/149'
p5292
ssVChrome 3.0.182
p5293
(dp5294
S'total_runs'
p5295
L2L
sS'score'
p5296
I8
sS'results'
p5297
(dp5298
S'unapply'
p5299
(dp5300
g5296
I7
sS'median'
p5301
L0L
sS'display'
p5302
S'19/26'
p5303
ssS'apply'
p5304
(dp5305
g5296
I10
sg5301
L0L
sg5302
S'39/41'
p5306
ssS'change'
p5307
(dp5308
g5296
I10
sg5301
L0L
sg5302
S'17/17'
p5309
ssS'query'
p5310
(dp5311
g5296
I8
sg5301
L0L
sg5302
S'50/65'
p5312
sssg5302
S'125/149'
p5313
ssVFirefox (Shiretoko) 3.5.1
p5314
(dp5315
S'total_runs'
p5316
L1L
sS'score'
p5317
I8
sS'results'
p5318
(dp5319
S'unapply'
p5320
(dp5321
g5317
I7
sS'median'
p5322
L0L
sS'display'
p5323
S'17/26'
p5324
ssS'apply'
p5325
(dp5326
g5317
I8
sg5322
L0L
sg5323
S'34/41'
p5327
ssS'change'
p5328
(dp5329
g5317
I4
sg5322
L0L
sg5323
S'7/17'
p5330
ssS'query'
p5331
(dp5332
g5317
I9
sg5322
L0L
sg5323
S'59/65'
p5333
sssg5323
S'117/149'
p5334
ssVSafari 3.1.1
p5335
(dp5336
S'total_runs'
p5337
L1L
sS'score'
p5338
I8
sS'results'
p5339
(dp5340
S'unapply'
p5341
(dp5342
g5338
I7
sS'median'
p5343
L0L
sS'display'
p5344
S'19/26'
p5345
ssS'apply'
p5346
(dp5347
g5338
I10
sg5343
L0L
sg5344
S'39/41'
p5348
ssS'change'
p5349
(dp5350
g5338
I10
sg5343
L0L
sg5344
S'17/17'
p5351
ssS'query'
p5352
(dp5353
g5338
I8
sg5343
L0L
sg5344
S'50/65'
p5354
sssg5344
S'125/149'
p5355
ssVFirefox (Shiretoko) 3.5.2
p5356
(dp5357
S'total_runs'
p5358
L61L
sS'score'
p5359
I8
sS'results'
p5360
(dp5361
S'unapply'
p5362
(dp5363
g5359
I7
sS'median'
p5364
L0L
sS'display'
p5365
S'17/26'
p5366
ssS'apply'
p5367
(dp5368
g5359
I8
sg5364
L0L
sg5365
S'34/41'
p5369
ssS'change'
p5370
(dp5371
g5359
I4
sg5364
L0L
sg5365
S'7/17'
p5372
ssS'query'
p5373
(dp5374
g5359
I9
sg5364
L0L
sg5365
S'59/65'
p5375
sssg5365
S'117/149'
p5376
ssVFirefox (Namoroka) 3.6a2pre
p5377
(dp5378
S'total_runs'
p5379
L12L
sS'score'
p5380
I8
sS'results'
p5381
(dp5382
S'unapply'
p5383
(dp5384
g5380
I7
sS'median'
p5385
L0L
sS'display'
p5386
S'17/26'
p5387
ssS'apply'
p5388
(dp5389
g5380
I8
sg5385
L0L
sg5386
S'34/41'
p5390
ssS'change'
p5391
(dp5392
g5380
I4
sg5385
L0L
sg5386
S'7/17'
p5393
ssS'query'
p5394
(dp5395
g5380
I9
sg5385
L0L
sg5386
S'59/65'
p5396
sssg5386
S'117/149'
p5397
ssS'total_runs'
p5398
L11365L
sVFirefox 3.6b4
p5399
(dp5400
S'total_runs'
p5401
L33L
sS'score'
p5402
I8
sS'results'
p5403
(dp5404
S'unapply'
p5405
(dp5406
g5402
I7
sS'median'
p5407
L0L
sS'display'
p5408
S'17/26'
p5409
ssS'apply'
p5410
(dp5411
g5402
I8
sg5407
L0L
sg5408
S'34/41'
p5412
ssS'change'
p5413
(dp5414
g5402
I4
sg5407
L0L
sg5408
S'7/17'
p5415
ssS'query'
p5416
(dp5417
g5402
I9
sg5407
L0L
sg5408
S'59/65'
p5418
sssg5408
S'117/149'
p5419
ssVFirefox 3.6b3
p5420
(dp5421
S'total_runs'
p5422
L15L
sS'score'
p5423
I8
sS'results'
p5424
(dp5425
S'unapply'
p5426
(dp5427
g5423
I7
sS'median'
p5428
L0L
sS'display'
p5429
S'17/26'
p5430
ssS'apply'
p5431
(dp5432
g5423
I8
sg5428
L0L
sg5429
S'34/41'
p5433
ssS'change'
p5434
(dp5435
g5423
I4
sg5428
L0L
sg5429
S'7/17'
p5436
ssS'query'
p5437
(dp5438
g5423
I9
sg5428
L0L
sg5429
S'59/65'
p5439
sssg5429
S'117/149'
p5440
ssVFirefox (Shiretoko) 3.5.3
p5441
(dp5442
S'total_runs'
p5443
L26L
sS'score'
p5444
I8
sS'results'
p5445
(dp5446
S'unapply'
p5447
(dp5448
g5444
I7
sS'median'
p5449
L0L
sS'display'
p5450
S'17/26'
p5451
ssS'apply'
p5452
(dp5453
g5444
I8
sg5449
L0L
sg5450
S'34/41'
p5454
ssS'change'
p5455
(dp5456
g5444
I4
sg5449
L0L
sg5450
S'7/17'
p5457
ssS'query'
p5458
(dp5459
g5444
I9
sg5449
L0L
sg5450
S'59/65'
p5460
sssg5450
S'117/149'
p5461
ssVFirefox 3.6b1
p5462
(dp5463
S'total_runs'
p5464
L13L
sS'score'
p5465
I8
sS'results'
p5466
(dp5467
S'unapply'
p5468
(dp5469
g5465
I7
sS'median'
p5470
L0L
sS'display'
p5471
S'17/26'
p5472
ssS'apply'
p5473
(dp5474
g5465
I8
sg5470
L0L
sg5471
S'34/41'
p5475
ssS'change'
p5476
(dp5477
g5465
I4
sg5470
L0L
sg5471
S'7/17'
p5478
ssS'query'
p5479
(dp5480
g5465
I9
sg5470
L0L
sg5471
S'59/65'
p5481
sssg5471
S'117/149'
p5482
ssVOpera Mini 4.2.14912
p5483
(dp5484
S'total_runs'
p5485
L7L
sS'score'
p5486
I2
sS'results'
p5487
(dp5488
S'unapply'
p5489
(dp5490
g5486
I10
sS'median'
p5491
L0L
sS'display'
p5492
S'26/26'
p5493
ssS'apply'
p5494
(dp5495
g5486
I0
sg5491
L0L
sg5492
S'0/41'
p5496
ssS'change'
p5497
(dp5498
g5486
I0
sg5491
L0L
sg5492
S'0/17'
p5499
ssS'query'
p5500
(dp5501
g5486
I0
sg5491
L0L
sg5492
S'0/65'
p5502
sssg5492
S'26/149'
p5503
ssViCab 4.7
p5504
(dp5505
S'total_runs'
p5506
L1L
sS'score'
p5507
I8
sS'results'
p5508
(dp5509
S'unapply'
p5510
(dp5511
g5507
I7
sS'median'
p5512
L0L
sS'display'
p5513
S'19/26'
p5514
ssS'apply'
p5515
(dp5516
g5507
I10
sg5512
L0L
sg5513
S'39/41'
p5517
ssS'change'
p5518
(dp5519
g5507
I10
sg5512
L0L
sg5513
S'17/17'
p5520
ssS'query'
p5521
(dp5522
g5507
I8
sg5512
L0L
sg5513
S'50/65'
p5523
sssg5513
S'125/149'
p5524
ssVChrome 1.0.154
p5525
(dp5526
S'total_runs'
p5527
L4L
sS'score'
p5528
I7
sS'results'
p5529
(dp5530
S'unapply'
p5531
(dp5532
g5528
I3
sS'median'
p5533
L0L
sS'display'
p5534
S'9/26'
p5535
ssS'apply'
p5536
(dp5537
g5528
I7
sg5533
L0L
sg5534
S'28/41'
p5538
ssS'change'
p5539
(dp5540
g5528
I10
sg5533
L0L
sg5534
S'17/17'
p5541
ssS'query'
p5542
(dp5543
g5528
I8
sg5533
L0L
sg5534
S'50/65'
p5544
sssg5534
S'104/149'
p5545
ssVPlayStation 3
p5546
(dp5547
S'total_runs'
p5548
L3L
sS'score'
p5549
I0
sS'results'
p5550
(dp5551
S'unapply'
p5552
(dp5553
g5549
I0
sS'median'
p5554
L0L
sS'display'
p5555
S'0/26'
p5556
ssS'apply'
p5557
(dp5558
g5549
I0
sg5554
L0L
sg5555
S'0/41'
p5559
ssS'change'
p5560
(dp5561
g5549
I0
sg5554
L0L
sg5555
S'0/17'
p5562
ssS'query'
p5563
(dp5564
g5549
I0
sg5554
L0L
sg5555
S'0/65'
p5565
sssg5555
S'0/149'
p5566
ssVFennec 1.0b3
p5567
(dp5568
S'total_runs'
p5569
L2L
sS'score'
p5570
I8
sS'results'
p5571
(dp5572
S'unapply'
p5573
(dp5574
g5570
I7
sS'median'
p5575
L0L
sS'display'
p5576
S'17/26'
p5577
ssS'apply'
p5578
(dp5579
g5570
I8
sg5575
L0L
sg5576
S'34/41'
p5580
ssS'change'
p5581
(dp5582
g5570
I4
sg5575
L0L
sg5576
S'7/17'
p5583
ssS'query'
p5584
(dp5585
g5570
I9
sg5575
L0L
sg5576
S'59/65'
p5586
sssg5576
S'117/149'
p5587
ssVChrome Frame (IE 7) 4.0.223
p5588
(dp5589
S'total_runs'
p5590
L1L
sS'score'
p5591
I9
sS'results'
p5592
(dp5593
S'unapply'
p5594
(dp5595
g5591
I9
sS'median'
p5596
L0L
sS'display'
p5597
S'23/26'
p5598
ssS'apply'
p5599
(dp5600
g5591
I10
sg5596
L0L
sg5597
S'39/41'
p5601
ssS'change'
p5602
(dp5603
g5591
I10
sg5596
L0L
sg5597
S'17/17'
p5604
ssS'query'
p5605
(dp5606
g5591
I8
sg5596
L0L
sg5597
S'50/65'
p5607
sssg5597
S'129/149'
p5608
ssVFennec 1.0b4
p5609
(dp5610
S'total_runs'
p5611
L1L
sS'score'
p5612
I8
sS'results'
p5613
(dp5614
S'unapply'
p5615
(dp5616
g5612
I7
sS'median'
p5617
L0L
sS'display'
p5618
S'17/26'
p5619
ssS'apply'
p5620
(dp5621
g5612
I8
sg5617
L0L
sg5618
S'34/41'
p5622
ssS'change'
p5623
(dp5624
g5612
I4
sg5617
L0L
sg5618
S'7/17'
p5625
ssS'query'
p5626
(dp5627
g5612
I9
sg5617
L0L
sg5618
S'59/65'
p5628
sssg5618
S'117/149'
p5629
ssVFennec 1.0b5
p5630
(dp5631
S'total_runs'
p5632
L1L
sS'score'
p5633
I8
sS'results'
p5634
(dp5635
S'unapply'
p5636
(dp5637
g5633
I7
sS'median'
p5638
L0L
sS'display'
p5639
S'17/26'
p5640
ssS'apply'
p5641
(dp5642
g5633
I8
sg5638
L0L
sg5639
S'34/41'
p5643
ssS'change'
p5644
(dp5645
g5633
I4
sg5638
L0L
sg5639
S'7/17'
p5646
ssS'query'
p5647
(dp5648
g5633
I9
sg5638
L0L
sg5639
S'59/65'
p5649
sssg5639
S'117/149'
p5650
ssVSafari 4.0.1
p5651
(dp5652
S'total_runs'
p5653
L3L
sS'score'
p5654
I8
sS'results'
p5655
(dp5656
S'unapply'
p5657
(dp5658
g5654
I7
sS'median'
p5659
L0L
sS'display'
p5660
S'19/26'
p5661
ssS'apply'
p5662
(dp5663
g5654
I10
sg5659
L0L
sg5660
S'39/41'
p5664
ssS'change'
p5665
(dp5666
g5654
I10
sg5659
L0L
sg5660
S'17/17'
p5667
ssS'query'
p5668
(dp5669
g5654
I8
sg5659
L0L
sg5660
S'50/65'
p5670
sssg5660
S'125/149'
p5671
ssVSafari 4.0.2
p5672
(dp5673
S'total_runs'
p5674
L20L
sS'score'
p5675
I8
sS'results'
p5676
(dp5677
S'unapply'
p5678
(dp5679
g5675
I7
sS'median'
p5680
L0L
sS'display'
p5681
S'19/26'
p5682
ssS'apply'
p5683
(dp5684
g5675
I10
sg5680
L0L
sg5681
S'39/41'
p5685
ssS'change'
p5686
(dp5687
g5675
I10
sg5680
L0L
sg5681
S'17/17'
p5688
ssS'query'
p5689
(dp5690
g5675
I8
sg5680
L0L
sg5681
S'50/65'
p5691
sssg5681
S'125/149'
p5692
ssVSafari 4.0.3
p5693
(dp5694
S'total_runs'
p5695
L578L
sS'score'
p5696
I8
sS'results'
p5697
(dp5698
S'unapply'
p5699
(dp5700
g5696
I7
sS'median'
p5701
L0L
sS'display'
p5702
S'19/26'
p5703
ssS'apply'
p5704
(dp5705
g5696
I10
sg5701
L0L
sg5702
S'39/41'
p5706
ssS'change'
p5707
(dp5708
g5696
I10
sg5701
L0L
sg5702
S'17/17'
p5709
ssS'query'
p5710
(dp5711
g5696
I8
sg5701
L0L
sg5702
S'50/65'
p5712
sssg5702
S'125/149'
p5713
ssVSafari 4.0.4
p5714
(dp5715
g5398
L71L
sS'score'
p5716
I8
sS'results'
p5717
(dp5718
S'unapply'
p5719
(dp5720
g5716
I7
sS'median'
p5721
L0L
sS'display'
p5722
S'19/26'
p5723
ssS'apply'
p5724
(dp5725
g5716
I10
sg5721
L0L
sg5722
S'39/41'
p5726
ssS'change'
p5727
(dp5728
g5716
I10
sg5721
L0L
sg5722
S'17/17'
p5729
ssS'query'
p5730
(dp5731
g5716
I8
sg5721
L0L
sg5722
S'50/65'
p5732
sssg5722
S'125/149'
p5733
ssVEpiphany 2.22
p5734
(dp5735
S'total_runs'
p5736
L4L
sS'score'
p5737
I8
sS'results'
p5738
(dp5739
S'unapply'
p5740
(dp5741
g5737
I7
sS'median'
p5742
L0L
sS'display'
p5743
S'17/26'
p5744
ssS'apply'
p5745
(dp5746
g5737
I8
sg5742
L0L
sg5743
S'34/41'
p5747
ssS'change'
p5748
(dp5749
g5737
I4
sg5742
L0L
sg5743
S'7/17'
p5750
ssS'query'
p5751
(dp5752
g5737
I9
sg5742
L0L
sg5743
S'59/65'
p5753
sssg5743
S'117/149'
p5754
ssVLunascape 5.1.2
p5755
(dp5756
S'total_runs'
p5757
L1L
sS'score'
p5758
I8
sS'results'
p5759
(dp5760
S'unapply'
p5761
(dp5762
g5758
I7
sS'median'
p5763
L0L
sS'display'
p5764
S'19/26'
p5765
ssS'apply'
p5766
(dp5767
g5758
I9
sg5763
L0L
sg5764
S'37/41'
p5768
ssS'change'
p5769
(dp5770
g5758
I10
sg5763
L0L
sg5764
S'17/17'
p5771
ssS'query'
p5772
(dp5773
g5758
I8
sg5763
L0L
sg5764
S'50/65'
p5774
sssg5764
S'123/149'
p5775
ssVFirefox (Namoroka) 3.6b1pre
p5776
(dp5777
S'total_runs'
p5778
L3L
sS'score'
p5779
I8
sS'results'
p5780
(dp5781
S'unapply'
p5782
(dp5783
g5779
I7
sS'median'
p5784
L0L
sS'display'
p5785
S'17/26'
p5786
ssS'apply'
p5787
(dp5788
g5779
I8
sg5784
L0L
sg5785
S'34/41'
p5789
ssS'change'
p5790
(dp5791
g5779
I4
sg5784
L0L
sg5785
S'7/17'
p5792
ssS'query'
p5793
(dp5794
g5779
I9
sg5784
L0L
sg5785
S'59/65'
p5795
sssg5785
S'117/149'
p5796
ssVSleipnir 2.9.1
p5797
(dp5798
S'total_runs'
p5799
L2L
sS'score'
p5800
I7
sS'results'
p5801
(dp5802
S'unapply'
p5803
(dp5804
g5800
I5
sS'median'
p5805
L0L
sS'display'
p5806
S'14/26'
p5807
ssS'apply'
p5808
(dp5809
g5800
I6
sg5805
L0L
sg5806
S'24/41'
p5810
ssS'change'
p5811
(dp5812
g5800
I3
sg5805
L0L
sg5806
S'5/17'
p5813
ssS'query'
p5814
(dp5815
g5800
I9
sg5805
L0L
sg5806
S'56/65'
p5816
sssg5806
S'99/149'
p5817
ssVLunascape 5.1.5
p5818
(dp5819
S'total_runs'
p5820
L9L
sS'score'
p5821
I8
sS'results'
p5822
(dp5823
S'unapply'
p5824
(dp5825
g5821
I7
sS'median'
p5826
L0L
sS'display'
p5827
S'17/26'
p5828
ssS'apply'
p5829
(dp5830
g5821
I8
sg5826
L0L
sg5827
S'34/41'
p5831
ssS'change'
p5832
(dp5833
g5821
I4
sg5826
L0L
sg5827
S'7/17'
p5834
ssS'query'
p5835
(dp5836
g5821
I9
sg5826
L0L
sg5827
S'59/65'
p5837
sssg5827
S'117/149'
p5838
ssViPhone 3.0
p5839
(dp5840
S'total_runs'
p5841
L20L
sS'score'
p5842
I8
sS'results'
p5843
(dp5844
S'unapply'
p5845
(dp5846
g5842
I7
sS'median'
p5847
L0L
sS'display'
p5848
S'17/26'
p5849
ssS'apply'
p5850
(dp5851
g5842
I8
sg5847
L0L
sg5848
S'34/41'
p5852
ssS'change'
p5853
(dp5854
g5842
I10
sg5847
L0L
sg5848
S'17/17'
p5855
ssS'query'
p5856
(dp5857
g5842
I8
sg5847
L0L
sg5848
S'50/65'
p5858
sssg5848
S'118/149'
p5859
ssVChrome 4.0.251
p5860
(dp5861
S'total_runs'
p5862
L3L
sS'score'
p5863
I9
sS'results'
p5864
(dp5865
S'unapply'
p5866
(dp5867
g5863
I9
sS'median'
p5868
L0L
sS'display'
p5869
S'23/26'
p5870
ssS'apply'
p5871
(dp5872
g5863
I10
sg5868
L0L
sg5869
S'39/41'
p5873
ssS'change'
p5874
(dp5875
g5863
I10
sg5868
L0L
sg5869
S'17/17'
p5876
ssS'query'
p5877
(dp5878
g5863
I8
sg5868
L0L
sg5869
S'50/65'
p5879
sssg5869
S'129/149'
p5880
ssVChrome 4.0.250
p5881
(dp5882
S'total_runs'
p5883
L1L
sS'score'
p5884
I9
sS'results'
p5885
(dp5886
S'unapply'
p5887
(dp5888
g5884
I9
sS'median'
p5889
L0L
sS'display'
p5890
S'23/26'
p5891
ssS'apply'
p5892
(dp5893
g5884
I10
sg5889
L0L
sg5890
S'39/41'
p5894
ssS'change'
p5895
(dp5896
g5884
I10
sg5889
L0L
sg5890
S'17/17'
p5897
ssS'query'
p5898
(dp5899
g5884
I8
sg5889
L0L
sg5890
S'50/65'
p5900
sssg5890
S'129/149'
p5901
ssVChrome 4.0.253
p5902
(dp5903
S'total_runs'
p5904
L4L
sS'score'
p5905
I9
sS'results'
p5906
(dp5907
S'unapply'
p5908
(dp5909
g5905
I9
sS'median'
p5910
L0L
sS'display'
p5911
S'23/26'
p5912
ssS'apply'
p5913
(dp5914
g5905
I10
sg5910
L0L
sg5911
S'39/41'
p5915
ssS'change'
p5916
(dp5917
g5905
I10
sg5910
L0L
sg5911
S'17/17'
p5918
ssS'query'
p5919
(dp5920
g5905
I8
sg5910
L0L
sg5911
S'50/65'
p5921
sssg5911
S'129/149'
p5922
ssVChrome 4.0.252
p5923
(dp5924
S'total_runs'
p5925
L1L
sS'score'
p5926
I9
sS'results'
p5927
(dp5928
S'unapply'
p5929
(dp5930
g5926
I9
sS'median'
p5931
L0L
sS'display'
p5932
S'23/26'
p5933
ssS'apply'
p5934
(dp5935
g5926
I10
sg5931
L0L
sg5932
S'39/41'
p5936
ssS'change'
p5937
(dp5938
g5926
I10
sg5931
L0L
sg5932
S'17/17'
p5939
ssS'query'
p5940
(dp5941
g5926
I8
sg5931
L0L
sg5932
S'50/65'
p5942
sssg5932
S'129/149'
p5943
ssVChrome Frame (IE 8) 4.0.223
p5944
(dp5945
S'total_runs'
p5946
L2L
sS'score'
p5947
I9
sS'results'
p5948
(dp5949
S'unapply'
p5950
(dp5951
g5947
I9
sS'median'
p5952
L0L
sS'display'
p5953
S'23/26'
p5954
ssS'apply'
p5955
(dp5956
g5947
I10
sg5952
L0L
sg5953
S'39/41'
p5957
ssS'change'
p5958
(dp5959
g5947
I10
sg5952
L0L
sg5953
S'17/17'
p5960
ssS'query'
p5961
(dp5962
g5947
I8
sg5952
L0L
sg5953
S'50/65'
p5963
sssg5953
S'129/149'
p5964
ssVChrome 4.0.254
p5965
(dp5966
S'total_runs'
p5967
L1L
sS'score'
p5968
I9
sS'results'
p5969
(dp5970
S'unapply'
p5971
(dp5972
g5968
I9
sS'median'
p5973
L0L
sS'display'
p5974
S'23/26'
p5975
ssS'apply'
p5976
(dp5977
g5968
I10
sg5973
L0L
sg5974
S'39/41'
p5978
ssS'change'
p5979
(dp5980
g5968
I10
sg5973
L0L
sg5974
S'17/17'
p5981
ssS'query'
p5982
(dp5983
g5968
I8
sg5973
L0L
sg5974
S'50/65'
p5984
sssg5974
S'129/149'
p5985
ssVChrome 4.0.257
p5986
(dp5987
S'total_runs'
p5988
L1L
sS'score'
p5989
I9
sS'results'
p5990
(dp5991
S'unapply'
p5992
(dp5993
g5989
I9
sS'median'
p5994
L0L
sS'display'
p5995
S'23/26'
p5996
ssS'apply'
p5997
(dp5998
g5989
I10
sg5994
L0L
sg5995
S'39/41'
p5999
ssS'change'
p6000
(dp6001
g5989
I10
sg5994
L0L
sg5995
S'17/17'
p6002
ssS'query'
p6003
(dp6004
g5989
I8
sg5994
L0L
sg5995
S'50/65'
p6005
sssg5995
S'129/149'
p6006
ssVChrome 4.0.256
p6007
(dp6008
S'total_runs'
p6009
L4L
sS'score'
p6010
I9
sS'results'
p6011
(dp6012
S'unapply'
p6013
(dp6014
g6010
I9
sS'median'
p6015
L0L
sS'display'
p6016
S'23/26'
p6017
ssS'apply'
p6018
(dp6019
g6010
I10
sg6015
L0L
sg6016
S'39/41'
p6020
ssS'change'
p6021
(dp6022
g6010
I10
sg6015
L0L
sg6016
S'17/17'
p6023
ssS'query'
p6024
(dp6025
g6010
I8
sg6015
L0L
sg6016
S'50/65'
p6026
sssg6016
S'129/149'
p6027
ssVChrome 3.0.198
p6028
(dp6029
S'total_runs'
p6030
L2L
sS'score'
p6031
I9
sS'results'
p6032
(dp6033
S'unapply'
p6034
(dp6035
g6031
I9
sS'median'
p6036
L0L
sS'display'
p6037
S'23/26'
p6038
ssS'apply'
p6039
(dp6040
g6031
I10
sg6036
L0L
sg6037
S'39/41'
p6041
ssS'change'
p6042
(dp6043
g6031
I10
sg6036
L0L
sg6037
S'17/17'
p6044
ssS'query'
p6045
(dp6046
g6031
I8
sg6036
L0L
sg6037
S'50/65'
p6047
sssg6037
S'129/149'
p6048
ssVFennec 1.0b4pre
p6049
(dp6050
S'total_runs'
p6051
L1L
sS'score'
p6052
I8
sS'results'
p6053
(dp6054
S'unapply'
p6055
(dp6056
g6052
I7
sS'median'
p6057
L0L
sS'display'
p6058
S'17/26'
p6059
ssS'apply'
p6060
(dp6061
g6052
I8
sg6057
L0L
sg6058
S'34/41'
p6062
ssS'change'
p6063
(dp6064
g6052
I4
sg6057
L0L
sg6058
S'7/17'
p6065
ssS'query'
p6066
(dp6067
g6052
I9
sg6057
L0L
sg6058
S'59/65'
p6068
sssg6058
S'117/149'
p6069
ssVFirefox (Namoroka) 3.6b2pre
p6070
(dp6071
S'total_runs'
p6072
L3L
sS'score'
p6073
I8
sS'results'
p6074
(dp6075
S'unapply'
p6076
(dp6077
g6073
I7
sS'median'
p6078
L0L
sS'display'
p6079
S'17/26'
p6080
ssS'apply'
p6081
(dp6082
g6073
I8
sg6078
L0L
sg6079
S'34/41'
p6083
ssS'change'
p6084
(dp6085
g6073
I4
sg6078
L0L
sg6079
S'7/17'
p6086
ssS'query'
p6087
(dp6088
g6073
I9
sg6078
L0L
sg6079
S'59/65'
p6089
sssg6079
S'117/149'
p6090
ssVChrome 3.0.191
p6091
(dp6092
S'total_runs'
p6093
L1L
sS'score'
p6094
I8
sS'results'
p6095
(dp6096
S'unapply'
p6097
(dp6098
g6094
I7
sS'median'
p6099
L0L
sS'display'
p6100
S'19/26'
p6101
ssS'apply'
p6102
(dp6103
g6094
I10
sg6099
L0L
sg6100
S'39/41'
p6104
ssS'change'
p6105
(dp6106
g6094
I10
sg6099
L0L
sg6100
S'17/17'
p6107
ssS'query'
p6108
(dp6109
g6094
I8
sg6099
L0L
sg6100
S'50/65'
p6110
sssg6100
S'125/149'
p6111
ssVChrome 3.0.195
p6112
(dp6113
S'total_runs'
p6114
L403L
sS'score'
p6115
I8
sS'results'
p6116
(dp6117
S'unapply'
p6118
(dp6119
g6115
I8
sS'median'
p6120
L0L
sS'display'
p6121
S'20/26'
p6122
ssS'apply'
p6123
(dp6124
g6115
I10
sg6120
L0L
sg6121
S'39/41'
p6125
ssS'change'
p6126
(dp6127
g6115
I10
sg6120
L0L
sg6121
S'17/17'
p6128
ssS'query'
p6129
(dp6130
g6115
I8
sg6120
L0L
sg6121
S'50/65'
p6131
sssg6121
S'126/149'
p6132
ssVChrome 3.0.194
p6133
(dp6134
S'total_runs'
p6135
L1L
sS'score'
p6136
I8
sS'results'
p6137
(dp6138
S'unapply'
p6139
(dp6140
g6136
I7
sS'median'
p6141
L0L
sS'display'
p6142
S'19/26'
p6143
ssS'apply'
p6144
(dp6145
g6136
I10
sg6141
L0L
sg6142
S'39/41'
p6146
ssS'change'
p6147
(dp6148
g6136
I10
sg6141
L0L
sg6142
S'17/17'
p6149
ssS'query'
p6150
(dp6151
g6136
I8
sg6141
L0L
sg6142
S'50/65'
p6152
sssg6142
S'125/149'
p6153
ssVChrome 3.0.196
p6154
(dp6155
S'total_runs'
p6156
L3L
sS'score'
p6157
I9
sS'results'
p6158
(dp6159
S'unapply'
p6160
(dp6161
g6157
I9
sS'median'
p6162
L0L
sS'display'
p6163
S'23/26'
p6164
ssS'apply'
p6165
(dp6166
g6157
I10
sg6162
L0L
sg6163
S'39/41'
p6167
ssS'change'
p6168
(dp6169
g6157
I10
sg6162
L0L
sg6163
S'17/17'
p6170
ssS'query'
p6171
(dp6172
g6157
I8
sg6162
L0L
sg6163
S'50/65'
p6173
sssg6163
S'129/149'
p6174
ss.