(dp0
S'total_runs'
p1
L6193L
sS'Chrome 4'
p2
(dp3
S'total_runs'
p4
L658L
sS'score'
p5
I9
sS'results'
p6
(dp7
S'unapply'
p8
(dp9
g5
I9
sS'median'
p10
L0L
sS'display'
p11
S'23/26'
p12
ssS'apply'
p13
(dp14
g5
I10
sg10
L0L
sg11
S'39/41'
p15
ssS'change'
p16
(dp17
g5
I10
sg10
L0L
sg11
S'17/17'
p18
ssS'query'
p19
(dp20
g5
I8
sg10
L0L
sg11
S'50/65'
p21
sssg11
S'129/149'
p22
ssS'iPhone 3.1'
p23
(dp24
S'total_runs'
p25
L68L
sS'score'
p26
I8
sS'results'
p27
(dp28
S'unapply'
p29
(dp30
g26
I7
sS'median'
p31
L0L
sS'display'
p32
S'17/26'
p33
ssS'apply'
p34
(dp35
g26
I8
sg31
L0L
sg32
S'34/41'
p36
ssS'change'
p37
(dp38
g26
I10
sg31
L0L
sg32
S'17/17'
p39
ssS'query'
p40
(dp41
g26
I8
sg31
L0L
sg32
S'50/65'
p42
sssg32
S'118/149'
p43
ssS'Chrome 3'
p44
(dp45
S'total_runs'
p46
L411L
sS'score'
p47
I8
sS'results'
p48
(dp49
S'unapply'
p50
(dp51
g47
I8
sS'median'
p52
L0L
sS'display'
p53
S'20/26'
p54
ssS'apply'
p55
(dp56
g47
I10
sg52
L0L
sg53
S'39/41'
p57
ssS'change'
p58
(dp59
g47
I10
sg52
L0L
sg53
S'17/17'
p60
ssS'query'
p61
(dp62
g47
I8
sg52
L0L
sg53
S'50/65'
p63
sssg53
S'126/149'
p64
ssS'Opera 9.64'
p65
(dp66
S'total_runs'
p67
L22L
sS'score'
p68
I6
sS'results'
p69
(dp70
S'unapply'
p71
(dp72
g68
I5
sS'median'
p73
L0L
sS'display'
p74
S'13/26'
p75
ssS'apply'
p76
(dp77
g68
I6
sg73
L0L
sg74
S'26/41'
p78
ssS'change'
p79
(dp80
g68
I4
sg73
L0L
sg74
S'7/17'
p81
ssS'query'
p82
(dp83
g68
I6
sg73
L0L
sg74
S'42/65'
p84
sssg74
S'88/149'
p85
ssS'IE 6'
p86
(dp87
S'total_runs'
p88
L65L
sS'score'
p89
I7
sS'results'
p90
(dp91
S'unapply'
p92
(dp93
g89
I5
sS'median'
p94
L0L
sS'display'
p95
S'14/26'
p96
ssS'apply'
p97
(dp98
g89
I6
sg94
L0L
sg95
S'24/41'
p99
ssS'change'
p100
(dp101
g89
I3
sg94
L0L
sg95
S'5/17'
p102
ssS'query'
p103
(dp104
g89
I9
sg94
L0L
sg95
S'56/65'
p105
sssg95
S'99/149'
p106
ssS'Safari 3.2'
p107
(dp108
S'total_runs'
p109
L13L
sS'score'
p110
I7
sS'results'
p111
(dp112
S'unapply'
p113
(dp114
g110
I3
sS'median'
p115
L0L
sS'display'
p116
S'9/26'
p117
ssS'apply'
p118
(dp119
g110
I7
sg115
L0L
sg116
S'28/41'
p120
ssS'change'
p121
(dp122
g110
I10
sg115
L0L
sg116
S'17/17'
p123
ssS'query'
p124
(dp125
g110
I8
sg115
L0L
sg116
S'50/65'
p126
sssg116
S'104/149'
p127
ssS'Safari 4.0'
p128
(dp129
S'total_runs'
p130
L687L
sS'score'
p131
I8
sS'results'
p132
(dp133
S'unapply'
p134
(dp135
g131
I7
sS'median'
p136
L0L
sS'display'
p137
S'19/26'
p138
ssS'apply'
p139
(dp140
g131
I10
sg136
L0L
sg137
S'39/41'
p141
ssS'change'
p142
(dp143
g131
I10
sg136
L0L
sg137
S'17/17'
p144
ssS'query'
p145
(dp146
g131
I8
sg136
L0L
sg137
S'50/65'
p147
sssg137
S'125/149'
p148
ssS'IE 8'
p149
(dp150
S'total_runs'
p151
L318L
sS'score'
p152
I7
sS'results'
p153
(dp154
S'unapply'
p155
(dp156
g152
I5
sS'median'
p157
L0L
sS'display'
p158
S'14/26'
p159
ssS'apply'
p160
(dp161
g152
I6
sg157
L0L
sg158
S'24/41'
p162
ssS'change'
p163
(dp164
g152
I3
sg157
L0L
sg158
S'5/17'
p165
ssS'query'
p166
(dp167
g152
I9
sg157
L0L
sg158
S'56/65'
p168
sssg158
S'99/149'
p169
ssS'Opera 10'
p170
(dp171
S'total_runs'
p172
L706L
sS'score'
p173
I6
sS'results'
p174
(dp175
S'unapply'
p176
(dp177
g173
I5
sS'median'
p178
L0L
sS'display'
p179
S'13/26'
p180
ssS'apply'
p181
(dp182
g173
I6
sg178
L0L
sg179
S'26/41'
p183
ssS'change'
p184
(dp185
g173
I4
sg178
L0L
sg179
S'7/17'
p186
ssS'query'
p187
(dp188
g173
I7
sg178
L0L
sg179
S'43/65'
p189
sssg179
S'89/149'
p190
ssS'iPhone 2.2'
p191
(dp192
S'total_runs'
p193
L4L
sS'score'
p194
I7
sS'results'
p195
(dp196
S'unapply'
p197
(dp198
g194
I3
sS'median'
p199
L0L
sS'display'
p200
S'9/26'
p201
ssS'apply'
p202
(dp203
g194
I7
sg199
L0L
sg200
S'28/41'
p204
ssS'change'
p205
(dp206
g194
I10
sg199
L0L
sg200
S'17/17'
p207
ssS'query'
p208
(dp209
g194
I8
sg199
L0L
sg200
S'50/65'
p210
sssg200
S'104/149'
p211
ssS'Firefox 3.0'
p212
(dp213
S'total_runs'
p214
L396L
sS'score'
p215
I8
sS'results'
p216
(dp217
S'unapply'
p218
(dp219
g215
I7
sS'median'
p220
L0L
sS'display'
p221
S'17/26'
p222
ssS'apply'
p223
(dp224
g215
I8
sg220
L0L
sg221
S'34/41'
p225
ssS'change'
p226
(dp227
g215
I4
sg220
L0L
sg221
S'7/17'
p228
ssS'query'
p229
(dp230
g215
I9
sg220
L0L
sg221
S'59/65'
p231
sssg221
S'117/149'
p232
ssS'Firefox 3.5'
p233
(dp234
S'total_runs'
p235
L2695L
sS'score'
p236
I8
sS'results'
p237
(dp238
S'unapply'
p239
(dp240
g236
I7
sS'median'
p241
L0L
sS'display'
p242
S'17/26'
p243
ssS'apply'
p244
(dp245
g236
I8
sg241
L0L
sg242
S'34/41'
p246
ssS'change'
p247
(dp248
g236
I4
sg241
L0L
sg242
S'7/17'
p249
ssS'query'
p250
(dp251
g236
I9
sg241
L0L
sg242
S'59/65'
p252
sssg242
S'117/149'
p253
ssS'IE 7'
p254
(dp255
S'total_runs'
p256
L150L
sS'score'
p257
I7
sS'results'
p258
(dp259
S'unapply'
p260
(dp261
g257
I5
sS'median'
p262
L0L
sS'display'
p263
S'14/26'
p264
ssS'apply'
p265
(dp266
g257
I6
sg262
L0L
sg263
S'24/41'
p267
ssS'change'
p268
(dp269
g257
I3
sg262
L0L
sg263
S'5/17'
p270
ssS'query'
p271
(dp272
g257
I9
sg262
L0L
sg263
S'56/65'
p273
sssg263
S'99/149'
p274
ss.