(dp0
S'IE 6.0'
p1
(dp2
S'total_runs'
p3
L7L
sS'score'
p4
I7
sS'results'
p5
(dp6
S'unapply'
p7
(dp8
g4
I5
sS'median'
p9
L0L
sS'display'
p10
S'14/26'
p11
ssS'apply'
p12
(dp13
g4
I6
sg9
L0L
sg10
S'24/41'
p14
ssS'change'
p15
(dp16
g4
I3
sg9
L0L
sg10
S'5/17'
p17
ssS'query'
p18
(dp19
g4
I9
sg9
L0L
sg10
S'56/65'
p20
sssg10
S'99/149'
p21
ssS'Konqueror 3.5'
p22
(dp23
S'total_runs'
p24
L2L
sS'score'
p25
I0
sS'results'
p26
(dp27
S'unapply'
p28
(dp29
g25
I0
sS'median'
p30
L0L
sS'display'
p31
S'0/26'
p32
ssS'apply'
p33
(dp34
g25
I0
sg30
L0L
sg31
S'0/41'
p35
ssS'change'
p36
(dp37
g25
I0
sg30
L0L
sg31
S'0/17'
p38
ssS'query'
p39
(dp40
g25
I0
sg30
L0L
sg31
S'0/65'
p41
sssg31
S'0/149'
p42
ssS'Firefox (Shiretoko) 3.5.4pre'
p43
(dp44
S'total_runs'
p45
L5L
sS'score'
p46
I8
sS'results'
p47
(dp48
S'unapply'
p49
(dp50
g46
I7
sS'median'
p51
I0
sS'display'
p52
S'17/26'
p53
ssS'apply'
p54
(dp55
g46
I8
sg51
I0
sg52
S'34/41'
p56
ssS'change'
p57
(dp58
g46
I4
sg51
I0
sg52
S'7/17'
p59
ssS'query'
p60
(dp61
g46
I9
sg51
I0
sg52
S'59/65'
p62
sssg52
S'117/149'
p63
ssS'Camino 1.6.8'
p64
(dp65
S'total_runs'
p66
L1L
sS'score'
p67
I8
sS'results'
p68
(dp69
S'unapply'
p70
(dp71
g67
I7
sS'median'
p72
I0
sS'display'
p73
S'17/26'
p74
ssS'apply'
p75
(dp76
g67
I8
sg72
I0
sg73
S'34/41'
p77
ssS'change'
p78
(dp79
g67
I4
sg72
I0
sg73
S'7/17'
p80
ssS'query'
p81
(dp82
g67
I9
sg72
I0
sg73
S'59/65'
p83
sssg73
S'117/149'
p84
ssS'Camino 1.6.9'
p85
(dp86
S'total_runs'
p87
L2L
sS'score'
p88
I8
sS'results'
p89
(dp90
S'unapply'
p91
(dp92
g88
I7
sS'median'
p93
L0L
sS'display'
p94
S'17/26'
p95
ssS'apply'
p96
(dp97
g88
I8
sg93
L0L
sg94
S'34/41'
p98
ssS'change'
p99
(dp100
g88
I4
sg93
L0L
sg94
S'7/17'
p101
ssS'query'
p102
(dp103
g88
I9
sg93
L0L
sg94
S'59/65'
p104
sssg94
S'117/149'
p105
ssS'Arora 0.8'
p106
(dp107
S'total_runs'
p108
L2L
sS'score'
p109
I7
sS'results'
p110
(dp111
S'unapply'
p112
(dp113
g109
I3
sS'median'
p114
L0L
sS'display'
p115
S'9/26'
p116
ssS'apply'
p117
(dp118
g109
I9
sg114
L0L
sg115
S'35/41'
p119
ssS'change'
p120
(dp121
g109
I10
sg114
L0L
sg115
S'17/17'
p122
ssS'query'
p123
(dp124
g109
I8
sg114
L0L
sg115
S'50/65'
p125
sssg115
S'111/149'
p126
ssS'Arora 0.9'
p127
(dp128
S'total_runs'
p129
L2L
sS'score'
p130
I7
sS'results'
p131
(dp132
S'unapply'
p133
(dp134
g130
I3
sS'median'
p135
L0L
sS'display'
p136
S'9/26'
p137
ssS'apply'
p138
(dp139
g130
I9
sg135
L0L
sg136
S'35/41'
p140
ssS'change'
p141
(dp142
g130
I10
sg135
L0L
sg136
S'17/17'
p143
ssS'query'
p144
(dp145
g130
I8
sg135
L0L
sg136
S'50/65'
p146
sssg136
S'111/149'
p147
ssS'Midori 0.1.9'
p148
(dp149
S'total_runs'
p150
L1L
sS'score'
p151
I8
sS'results'
p152
(dp153
S'unapply'
p154
(dp155
g151
I7
sS'median'
p156
I0
sS'display'
p157
S'19/26'
p158
ssS'apply'
p159
(dp160
g151
I10
sg156
I0
sg157
S'39/41'
p161
ssS'change'
p162
(dp163
g151
I10
sg156
I0
sg157
S'17/17'
p164
ssS'query'
p165
(dp166
g151
I8
sg156
I0
sg157
S'50/65'
p167
sssg157
S'125/149'
p168
ssS'SeaMonkey 1.1.18'
p169
(dp170
S'total_runs'
p171
L1L
sS'score'
p172
I8
sS'results'
p173
(dp174
S'unapply'
p175
(dp176
g172
I7
sS'median'
p177
I0
sS'display'
p178
S'17/26'
p179
ssS'apply'
p180
(dp181
g172
I8
sg177
I0
sg178
S'34/41'
p182
ssS'change'
p183
(dp184
g172
I4
sg177
I0
sg178
S'7/17'
p185
ssS'query'
p186
(dp187
g172
I9
sg177
I0
sg178
S'59/65'
p188
sssg178
S'117/149'
p189
ssS'Konqueror 4.3'
p190
(dp191
S'total_runs'
p192
L3L
sS'score'
p193
I0
sS'results'
p194
(dp195
S'unapply'
p196
(dp197
g193
I0
sS'median'
p198
L0L
sS'display'
p199
S'0/26'
p200
ssS'apply'
p201
(dp202
g193
I0
sg198
L0L
sg199
S'0/41'
p203
ssS'change'
p204
(dp205
g193
I0
sg198
L0L
sg199
S'0/17'
p206
ssS'query'
p207
(dp208
g193
I0
sg198
L0L
sg199
S'0/65'
p209
sssg199
S'0/149'
p210
ssS'Firefox 3.0.7'
p211
(dp212
S'total_runs'
p213
L1L
sS'score'
p214
I8
sS'results'
p215
(dp216
S'unapply'
p217
(dp218
g214
I7
sS'median'
p219
I0
sS'display'
p220
S'17/26'
p221
ssS'apply'
p222
(dp223
g214
I8
sg219
I0
sg220
S'34/41'
p224
ssS'change'
p225
(dp226
g214
I4
sg219
I0
sg220
S'7/17'
p227
ssS'query'
p228
(dp229
g214
I9
sg219
I0
sg220
S'59/65'
p230
sssg220
S'117/149'
p231
ssS'NetNewsWire 3.1.3'
p232
(dp233
S'total_runs'
p234
L1L
sS'score'
p235
I8
sS'results'
p236
(dp237
S'unapply'
p238
(dp239
g235
I7
sS'median'
p240
I0
sS'display'
p241
S'19/26'
p242
ssS'apply'
p243
(dp244
g235
I10
sg240
I0
sg241
S'39/41'
p245
ssS'change'
p246
(dp247
g235
I10
sg240
I0
sg241
S'17/17'
p248
ssS'query'
p249
(dp250
g235
I8
sg240
I0
sg241
S'50/65'
p251
sssg241
S'125/149'
p252
ssS'Firefox 3.0.1'
p253
(dp254
S'total_runs'
p255
L1L
sS'score'
p256
I8
sS'results'
p257
(dp258
S'unapply'
p259
(dp260
g256
I7
sS'median'
p261
I0
sS'display'
p262
S'17/26'
p263
ssS'apply'
p264
(dp265
g256
I8
sg261
I0
sg262
S'34/41'
p266
ssS'change'
p267
(dp268
g256
I4
sg261
I0
sg262
S'7/17'
p269
ssS'query'
p270
(dp271
g256
I9
sg261
I0
sg262
S'59/65'
p272
sssg262
S'117/149'
p273
ssS'IE 7.0'
p274
(dp275
S'total_runs'
p276
L12L
sS'score'
p277
I7
sS'results'
p278
(dp279
S'unapply'
p280
(dp281
g277
I5
sS'median'
p282
L0L
sS'display'
p283
S'14/26'
p284
ssS'apply'
p285
(dp286
g277
I6
sg282
L0L
sg283
S'24/41'
p287
ssS'change'
p288
(dp289
g277
I3
sg282
L0L
sg283
S'5/17'
p290
ssS'query'
p291
(dp292
g277
I9
sg282
L0L
sg283
S'56/65'
p293
sssg283
S'99/149'
p294
ssS'Firefox 3.0.9'
p295
(dp296
S'total_runs'
p297
L2L
sS'score'
p298
I8
sS'results'
p299
(dp300
S'unapply'
p301
(dp302
g298
I7
sS'median'
p303
L0L
sS'display'
p304
S'17/26'
p305
ssS'apply'
p306
(dp307
g298
I8
sg303
L0L
sg304
S'34/41'
p308
ssS'change'
p309
(dp310
g298
I4
sg303
L0L
sg304
S'7/17'
p311
ssS'query'
p312
(dp313
g298
I9
sg303
L0L
sg304
S'61/65'
p314
sssg304
S'119/149'
p315
ssS'Firefox 3.5.1'
p316
(dp317
S'total_runs'
p318
L3L
sS'score'
p319
I8
sS'results'
p320
(dp321
S'unapply'
p322
(dp323
g319
I7
sS'median'
p324
L0L
sS'display'
p325
S'17/26'
p326
ssS'apply'
p327
(dp328
g319
I8
sg324
L0L
sg325
S'34/41'
p329
ssS'change'
p330
(dp331
g319
I4
sg324
L0L
sg325
S'7/17'
p332
ssS'query'
p333
(dp334
g319
I9
sg324
L0L
sg325
S'59/65'
p335
sssg325
S'117/149'
p336
ssS'Firefox 3.5.2'
p337
(dp338
S'total_runs'
p339
L27L
sS'score'
p340
I8
sS'results'
p341
(dp342
S'unapply'
p343
(dp344
g340
I7
sS'median'
p345
L0L
sS'display'
p346
S'17/26'
p347
ssS'apply'
p348
(dp349
g340
I8
sg345
L0L
sg346
S'34/41'
p350
ssS'change'
p351
(dp352
g340
I4
sg345
L0L
sg346
S'7/17'
p353
ssS'query'
p354
(dp355
g340
I9
sg345
L0L
sg346
S'59/65'
p356
sssg346
S'117/149'
p357
ssS'Firefox 3.5.3'
p358
(dp359
S'total_runs'
p360
L223L
sS'score'
p361
I8
sS'results'
p362
(dp363
S'unapply'
p364
(dp365
g361
I7
sS'median'
p366
I0
sS'display'
p367
S'17/26'
p368
ssS'apply'
p369
(dp370
g361
I8
sg366
I0
sg367
S'34/41'
p371
ssS'change'
p372
(dp373
g361
I4
sg366
I0
sg367
S'7/17'
p374
ssS'query'
p375
(dp376
g361
I9
sg366
I0
sg367
S'59/65'
p377
sssg367
S'117/149'
p378
ssS'Fluid 0.9.6'
p379
(dp380
S'total_runs'
p381
L1L
sS'score'
p382
I8
sS'results'
p383
(dp384
S'unapply'
p385
(dp386
g382
I7
sS'median'
p387
I0
sS'display'
p388
S'19/26'
p389
ssS'apply'
p390
(dp391
g382
I10
sg387
I0
sg388
S'39/41'
p392
ssS'change'
p393
(dp394
g382
I10
sg387
I0
sg388
S'17/17'
p395
ssS'query'
p396
(dp397
g382
I8
sg387
I0
sg388
S'50/65'
p398
sssg388
S'125/149'
p399
ssS'Opera 9.63'
p400
(dp401
S'total_runs'
p402
L1L
sS'score'
p403
I6
sS'results'
p404
(dp405
S'unapply'
p406
(dp407
g403
I5
sS'median'
p408
L0L
sS'display'
p409
S'13/26'
p410
ssS'apply'
p411
(dp412
g403
I6
sg408
L0L
sg409
S'26/41'
p413
ssS'change'
p414
(dp415
g403
I4
sg408
L0L
sg409
S'7/17'
p416
ssS'query'
p417
(dp418
g403
I6
sg408
L0L
sg409
S'42/65'
p419
sssg409
S'88/149'
p420
ssS'Safari 4.0'
p421
(dp422
g381
L99L
sg382
I8
sg383
(dp423
g385
(dp424
g382
I7
sg387
L0L
sg388
S'19/26'
p425
ssg390
(dp426
g382
I10
sg387
L0L
sg388
S'39/41'
p427
ssg393
(dp428
g382
I10
sg387
L0L
sg388
S'17/17'
p429
ssg396
(dp430
g382
I8
sg387
L0L
sg388
S'50/65'
p431
sssg388
S'125/149'
p432
ssS'Opera 9.64'
p433
(dp434
S'total_runs'
p435
L6L
sS'score'
p436
I6
sS'results'
p437
(dp438
S'unapply'
p439
(dp440
g436
I5
sS'median'
p441
L0L
sS'display'
p442
S'13/26'
p443
ssS'apply'
p444
(dp445
g436
I6
sg441
L0L
sg442
S'26/41'
p446
ssS'change'
p447
(dp448
g436
I4
sg441
L0L
sg442
S'7/17'
p449
ssS'query'
p450
(dp451
g436
I7
sg441
L0L
sg442
S'44/65'
p452
sssg442
S'90/149'
p453
ssS'Firefox 3.0.14'
p454
(dp455
S'total_runs'
p456
L21L
sS'score'
p457
I8
sS'results'
p458
(dp459
S'unapply'
p460
(dp461
g457
I7
sS'median'
p462
L0L
sS'display'
p463
S'17/26'
p464
ssS'apply'
p465
(dp466
g457
I8
sg462
L0L
sg463
S'34/41'
p467
ssS'change'
p468
(dp469
g457
I4
sg462
L0L
sg463
S'7/17'
p470
ssS'query'
p471
(dp472
g457
I9
sg462
L0L
sg463
S'59/65'
p473
sssg463
S'117/149'
p474
ssS'iPhone 3.0'
p475
(dp476
S'total_runs'
p477
L8L
sS'score'
p478
I8
sS'results'
p479
(dp480
S'unapply'
p481
(dp482
g478
I7
sS'median'
p483
L0L
sS'display'
p484
S'17/26'
p485
ssS'apply'
p486
(dp487
g478
I8
sg483
L0L
sg484
S'34/41'
p488
ssS'change'
p489
(dp490
g478
I10
sg483
L0L
sg484
S'17/17'
p491
ssS'query'
p492
(dp493
g478
I8
sg483
L0L
sg484
S'50/65'
p494
sssg484
S'118/149'
p495
ssS'iPhone 3.1'
p496
(dp497
S'total_runs'
p498
L8L
sS'score'
p499
I8
sS'results'
p500
(dp501
S'unapply'
p502
(dp503
g499
I7
sS'median'
p504
L0L
sS'display'
p505
S'17/26'
p506
ssS'apply'
p507
(dp508
g499
I8
sg504
L0L
sg505
S'34/41'
p509
ssS'change'
p510
(dp511
g499
I10
sg504
L0L
sg505
S'17/17'
p512
ssS'query'
p513
(dp514
g499
I8
sg504
L0L
sg505
S'50/65'
p515
sssg505
S'118/149'
p516
ssS'Iceweasel 3.5.1'
p517
(dp518
S'total_runs'
p519
L1L
sS'score'
p520
I8
sS'results'
p521
(dp522
S'unapply'
p523
(dp524
g520
I7
sS'median'
p525
I0
sS'display'
p526
S'17/26'
p527
ssS'apply'
p528
(dp529
g520
I8
sg525
I0
sg526
S'34/41'
p530
ssS'change'
p531
(dp532
g520
I4
sg525
I0
sg526
S'7/17'
p533
ssS'query'
p534
(dp535
g520
I9
sg525
I0
sg526
S'59/65'
p536
sssg526
S'117/149'
p537
ssS'Iceweasel 3.5'
p538
(dp539
S'total_runs'
p540
L1L
sS'score'
p541
I8
sS'results'
p542
(dp543
S'unapply'
p544
(dp545
g541
I7
sS'median'
p546
I0
sS'display'
p547
S'17/26'
p548
ssS'apply'
p549
(dp550
g541
I8
sg546
I0
sg547
S'34/41'
p551
ssS'change'
p552
(dp553
g541
I4
sg546
I0
sg547
S'7/17'
p554
ssS'query'
p555
(dp556
g541
I9
sg546
I0
sg547
S'59/65'
p557
sssg547
S'117/149'
p558
ssS'Firefox 3.0.12'
p559
(dp560
S'total_runs'
p561
L1L
sS'score'
p562
I0
sS'results'
p563
(dp564
S'unapply'
p565
(dp566
g562
I0
sS'median'
p567
I0
sS'display'
p568
S'0/26'
p569
ssS'apply'
p570
(dp571
g562
I0
sg567
I0
sg568
S'0/41'
p572
ssS'change'
p573
(dp574
g562
I0
sg567
I0
sg568
S'0/17'
p575
ssS'query'
p576
(dp577
g562
I0
sg567
I0
sg568
S'0/65'
p578
sssg568
S'0/149'
p579
ssS'Chrome 4.0.206'
p580
(dp581
S'total_runs'
p582
L27L
sS'score'
p583
I9
sS'results'
p584
(dp585
S'unapply'
p586
(dp587
g583
I9
sS'median'
p588
L0L
sS'display'
p589
S'23/26'
p590
ssS'apply'
p591
(dp592
g583
I10
sg588
L0L
sg589
S'39/41'
p593
ssS'change'
p594
(dp595
g583
I10
sg588
L0L
sg589
S'17/17'
p596
ssS'query'
p597
(dp598
g583
I8
sg588
L0L
sg589
S'50/65'
p599
sssg589
S'129/149'
p600
ssS'Chrome 4.0.207'
p601
(dp602
S'total_runs'
p603
L21L
sS'score'
p604
I9
sS'results'
p605
(dp606
S'unapply'
p607
(dp608
g604
I9
sS'median'
p609
L0L
sS'display'
p610
S'23/26'
p611
ssS'apply'
p612
(dp613
g604
I10
sg609
L0L
sg610
S'39/41'
p614
ssS'change'
p615
(dp616
g604
I10
sg609
L0L
sg610
S'17/17'
p617
ssS'query'
p618
(dp619
g604
I8
sg609
L0L
sg610
S'50/65'
p620
sssg610
S'129/149'
p621
ssS'Chrome 4.0.205'
p622
(dp623
S'total_runs'
p624
L1L
sS'score'
p625
I9
sS'results'
p626
(dp627
S'unapply'
p628
(dp629
g625
I9
sS'median'
p630
L0L
sS'display'
p631
S'23/26'
p632
ssS'apply'
p633
(dp634
g625
I10
sg630
L0L
sg631
S'39/41'
p635
ssS'change'
p636
(dp637
g625
I10
sg630
L0L
sg631
S'17/17'
p638
ssS'query'
p639
(dp640
g625
I8
sg630
L0L
sg631
S'50/65'
p641
sssg631
S'129/149'
p642
ssS'Firefox 3.0.11'
p643
(dp644
S'total_runs'
p645
L2L
sS'score'
p646
I8
sS'results'
p647
(dp648
S'unapply'
p649
(dp650
g646
I7
sS'median'
p651
I0
sS'display'
p652
S'17/26'
p653
ssS'apply'
p654
(dp655
g646
I8
sg651
I0
sg652
S'34/41'
p656
ssS'change'
p657
(dp658
g646
I4
sg651
I0
sg652
S'7/17'
p659
ssS'query'
p660
(dp661
g646
I9
sg651
I0
sg652
S'59/65'
p662
sssg652
S'117/149'
p663
ssS'Chrome 4.0.203'
p664
(dp665
S'total_runs'
p666
L4L
sS'score'
p667
I8
sS'results'
p668
(dp669
S'unapply'
p670
(dp671
g667
I9
sS'median'
p672
L0L
sS'display'
p673
S'24/26'
p674
ssS'apply'
p675
(dp676
g667
I6
sg672
L0L
sg673
S'23/41'
p677
ssS'change'
p678
(dp679
g667
I10
sg672
L0L
sg673
S'17/17'
p680
ssS'query'
p681
(dp682
g667
I8
sg672
L0L
sg673
S'51/65'
p683
sssg673
S'115/149'
p684
ssS'Firefox 3.0.13'
p685
(dp686
S'total_runs'
p687
L13L
sS'score'
p688
I8
sS'results'
p689
(dp690
S'unapply'
p691
(dp692
g688
I7
sS'median'
p693
L0L
sS'display'
p694
S'17/26'
p695
ssS'apply'
p696
(dp697
g688
I8
sg693
L0L
sg694
S'34/41'
p698
ssS'change'
p699
(dp700
g688
I4
sg693
L0L
sg694
S'7/17'
p701
ssS'query'
p702
(dp703
g688
I9
sg693
L0L
sg694
S'59/65'
p704
sssg694
S'117/149'
p705
ssS'Firefox (Shiretoko) 3.5'
p706
(dp707
S'total_runs'
p708
L18L
sS'score'
p709
I8
sS'results'
p710
(dp711
S'unapply'
p712
(dp713
g709
I7
sS'median'
p714
I0
sS'display'
p715
S'17/26'
p716
ssS'apply'
p717
(dp718
g709
I8
sg714
L0L
sg715
S'34/41'
p719
ssS'change'
p720
(dp721
g709
I4
sg714
I0
sg715
S'7/17'
p722
ssS'query'
p723
(dp724
g709
I9
sg714
L0L
sg715
S'59/65'
p725
sssg715
S'117/149'
p726
ssS'Firefox 3.0'
p727
(dp728
S'total_runs'
p729
L47L
sS'score'
p730
I8
sS'results'
p731
(dp732
S'unapply'
p733
(dp734
g730
I7
sS'median'
p735
L0L
sS'display'
p736
S'17/26'
p737
ssS'apply'
p738
(dp739
g730
I8
sg735
L0L
sg736
S'34/41'
p740
ssS'change'
p741
(dp742
g730
I4
sg735
L0L
sg736
S'7/17'
p743
ssS'query'
p744
(dp745
g730
I9
sg735
L0L
sg736
S'59/65'
p746
sssg736
S'117/149'
p747
ssS'Chrome 2.0.172'
p748
(dp749
S'total_runs'
p750
L35L
sS'score'
p751
I8
sS'results'
p752
(dp753
S'unapply'
p754
(dp755
g751
I7
sS'median'
p756
L0L
sS'display'
p757
S'19/26'
p758
ssS'apply'
p759
(dp760
g751
I10
sg756
L0L
sg757
S'39/41'
p761
ssS'change'
p762
(dp763
g751
I10
sg756
L0L
sg757
S'17/17'
p764
ssS'query'
p765
(dp766
g751
I8
sg756
L0L
sg757
S'50/65'
p767
sssg757
S'125/149'
p768
ssS'Chrome 4.0.208'
p769
(dp770
S'total_runs'
p771
L2L
sS'score'
p772
I9
sS'results'
p773
(dp774
S'unapply'
p775
(dp776
g772
I9
sS'median'
p777
L0L
sS'display'
p778
S'23/26'
p779
ssS'apply'
p780
(dp781
g772
I10
sg777
L0L
sg778
S'39/41'
p782
ssS'change'
p783
(dp784
g772
I10
sg777
L0L
sg778
S'17/17'
p785
ssS'query'
p786
(dp787
g772
I8
sg777
L0L
sg778
S'50/65'
p788
sssg778
S'129/149'
p789
ssS'Chrome 4.0.209'
p790
(dp791
S'total_runs'
p792
L3L
sS'score'
p793
I9
sS'results'
p794
(dp795
S'unapply'
p796
(dp797
g793
I9
sS'median'
p798
L0L
sS'display'
p799
S'23/26'
p800
ssS'apply'
p801
(dp802
g793
I10
sg798
L0L
sg799
S'39/41'
p803
ssS'change'
p804
(dp805
g793
I10
sg798
L0L
sg799
S'17/17'
p806
ssS'query'
p807
(dp808
g793
I8
sg798
L0L
sg799
S'50/65'
p809
sssg799
S'129/149'
p810
ssS'Maxthon 3.0'
p811
(dp812
S'total_runs'
p813
L1L
sS'score'
p814
I8
sS'results'
p815
(dp816
S'unapply'
p817
(dp818
g814
I7
sS'median'
p819
L0L
sS'display'
p820
S'19/26'
p821
ssS'apply'
p822
(dp823
g814
I10
sg819
L0L
sg820
S'39/41'
p824
ssS'change'
p825
(dp826
g814
I10
sg819
L0L
sg820
S'17/17'
p827
ssS'query'
p828
(dp829
g814
I8
sg819
L0L
sg820
S'50/65'
p830
sssg820
S'125/149'
p831
ssS'Firefox 2.0'
p832
(dp833
S'total_runs'
p834
L4L
sS'score'
p835
I8
sS'results'
p836
(dp837
S'unapply'
p838
(dp839
g835
I7
sS'median'
p840
L0L
sS'display'
p841
S'17/26'
p842
ssS'apply'
p843
(dp844
g835
I8
sg840
L0L
sg841
S'34/41'
p845
ssS'change'
p846
(dp847
g835
I4
sg840
L0L
sg841
S'7/17'
p848
ssS'query'
p849
(dp850
g835
I9
sg840
L0L
sg841
S'59/65'
p851
sssg841
S'117/149'
p852
ssS'iPhone 2.2.1'
p853
(dp854
S'total_runs'
p855
L2L
sS'score'
p856
I7
sS'results'
p857
(dp858
S'unapply'
p859
(dp860
g856
I3
sS'median'
p861
L0L
sS'display'
p862
S'9/26'
p863
ssS'apply'
p864
(dp865
g856
I7
sg861
L0L
sg862
S'28/41'
p866
ssS'change'
p867
(dp868
g856
I10
sg861
L0L
sg862
S'17/17'
p869
ssS'query'
p870
(dp871
g856
I8
sg861
L0L
sg862
S'50/65'
p872
sssg862
S'104/149'
p873
ssS'Opera 10.00'
p874
(dp875
S'total_runs'
p876
L29L
sS'score'
p877
I6
sS'results'
p878
(dp879
S'unapply'
p880
(dp881
g877
I5
sS'median'
p882
L0L
sS'display'
p883
S'13/26'
p884
ssS'apply'
p885
(dp886
g877
I6
sg882
L0L
sg883
S'26/41'
p887
ssS'change'
p888
(dp889
g877
I4
sg882
L0L
sg883
S'7/17'
p890
ssS'query'
p891
(dp892
g877
I7
sg882
L0L
sg883
S'43/65'
p893
sssg883
S'89/149'
p894
ssS'Android 1.5'
p895
(dp896
S'total_runs'
p897
L4L
sS'score'
p898
I8
sS'results'
p899
(dp900
S'unapply'
p901
(dp902
g898
I7
sS'median'
p903
L0L
sS'display'
p904
S'17/26'
p905
ssS'apply'
p906
(dp907
g898
I8
sg903
L0L
sg904
S'34/41'
p908
ssS'change'
p909
(dp910
g898
I10
sg903
L0L
sg904
S'17/17'
p911
ssS'query'
p912
(dp913
g898
I8
sg903
L0L
sg904
S'50/65'
p914
sssg904
S'118/149'
p915
ssS'Chrome 1.0.154'
p916
(dp917
S'total_runs'
p918
L5L
sS'score'
p919
I7
sS'results'
p920
(dp921
S'unapply'
p922
(dp923
g919
I3
sS'median'
p924
L0L
sS'display'
p925
S'8/26'
p926
ssS'apply'
p927
(dp928
g919
I7
sg924
L0L
sg925
S'28/41'
p929
ssS'change'
p930
(dp931
g919
I10
sg924
L0L
sg925
S'17/17'
p932
ssS'query'
p933
(dp934
g919
I8
sg924
L0L
sg925
S'50/65'
p935
sssg925
S'103/149'
p936
ssS'iPhone 2.2'
p937
(dp938
S'total_runs'
p939
L3L
sS'score'
p940
I7
sS'results'
p941
(dp942
S'unapply'
p943
(dp944
g940
I3
sS'median'
p945
L0L
sS'display'
p946
S'9/26'
p947
ssS'apply'
p948
(dp949
g940
I7
sg945
L0L
sg946
S'28/41'
p950
ssS'change'
p951
(dp952
g940
I10
sg945
L0L
sg946
S'17/17'
p953
ssS'query'
p954
(dp955
g940
I8
sg945
L0L
sg946
S'50/65'
p956
sssg946
S'104/149'
p957
ssS'Iceweasel 3.0.11'
p958
(dp959
S'total_runs'
p960
L1L
sS'score'
p961
I8
sS'results'
p962
(dp963
S'unapply'
p964
(dp965
g961
I7
sS'median'
p966
I0
sS'display'
p967
S'17/26'
p968
ssS'apply'
p969
(dp970
g961
I8
sg966
I0
sg967
S'34/41'
p971
ssS'change'
p972
(dp973
g961
I4
sg966
I0
sg967
S'7/17'
p974
ssS'query'
p975
(dp976
g961
I9
sg966
I0
sg967
S'59/65'
p977
sssg967
S'117/149'
p978
ssS'Iron 2.0.178'
p979
(dp980
S'total_runs'
p981
L1L
sS'score'
p982
I8
sS'results'
p983
(dp984
S'unapply'
p985
(dp986
g982
I7
sS'median'
p987
L0L
sS'display'
p988
S'19/26'
p989
ssS'apply'
p990
(dp991
g982
I10
sg987
L0L
sg988
S'39/41'
p992
ssS'change'
p993
(dp994
g982
I10
sg987
L0L
sg988
S'17/17'
p995
ssS'query'
p996
(dp997
g982
I8
sg987
L0L
sg988
S'50/65'
p998
sssg988
S'125/149'
p999
ssS'Safari 4.0.2'
p1000
(dp1001
S'total_runs'
p1002
L3L
sS'score'
p1003
I8
sS'results'
p1004
(dp1005
S'unapply'
p1006
(dp1007
g1003
I7
sS'median'
p1008
L0L
sS'display'
p1009
S'19/26'
p1010
ssS'apply'
p1011
(dp1012
g1003
I10
sg1008
L0L
sg1009
S'39/41'
p1013
ssS'change'
p1014
(dp1015
g1003
I10
sg1008
L0L
sg1009
S'17/17'
p1016
ssS'query'
p1017
(dp1018
g1003
I8
sg1008
L0L
sg1009
S'50/65'
p1019
sssg1009
S'125/149'
p1020
ssS'Safari 4.0.3'
p1021
(dp1022
g381
L89L
sg382
I8
sg383
(dp1023
g385
(dp1024
g382
I7
sg387
I0
sg388
S'19/26'
p1025
ssg390
(dp1026
g382
I10
sg387
I0
sg388
S'39/41'
p1027
ssg393
(dp1028
g382
I10
sg387
I0
sg388
S'17/17'
p1029
ssg396
(dp1030
g382
I8
sg387
I0
sg388
S'50/65'
p1031
sssg388
S'125/149'
p1032
ssS'iPhone 3.0.1'
p1033
(dp1034
S'total_runs'
p1035
L7L
sS'score'
p1036
I8
sS'results'
p1037
(dp1038
S'unapply'
p1039
(dp1040
g1036
I7
sS'median'
p1041
L0L
sS'display'
p1042
S'17/26'
p1043
ssS'apply'
p1044
(dp1045
g1036
I8
sg1041
L0L
sg1042
S'34/41'
p1046
ssS'change'
p1047
(dp1048
g1036
I10
sg1041
L0L
sg1042
S'17/17'
p1049
ssS'query'
p1050
(dp1051
g1036
I8
sg1041
L0L
sg1042
S'50/65'
p1052
sssg1042
S'118/149'
p1053
ssS'Opera 10.10'
p1054
(dp1055
S'total_runs'
p1056
L3L
sS'score'
p1057
I6
sS'results'
p1058
(dp1059
S'unapply'
p1060
(dp1061
g1057
I5
sS'median'
p1062
L0L
sS'display'
p1063
S'13/26'
p1064
ssS'apply'
p1065
(dp1066
g1057
I6
sg1062
L0L
sg1063
S'26/41'
p1067
ssS'change'
p1068
(dp1069
g1057
I4
sg1062
L0L
sg1063
S'7/17'
p1070
ssS'query'
p1071
(dp1072
g1057
I7
sg1062
L0L
sg1063
S'43/65'
p1073
sssg1063
S'89/149'
p1074
ssS'iPhone 3.1.1'
p1075
(dp1076
S'total_runs'
p1077
L2L
sS'score'
p1078
I8
sS'results'
p1079
(dp1080
S'unapply'
p1081
(dp1082
g1078
I7
sS'median'
p1083
L0L
sS'display'
p1084
S'17/26'
p1085
ssS'apply'
p1086
(dp1087
g1078
I8
sg1083
L0L
sg1084
S'34/41'
p1088
ssS'change'
p1089
(dp1090
g1078
I10
sg1083
L0L
sg1084
S'17/17'
p1091
ssS'query'
p1092
(dp1093
g1078
I8
sg1083
L0L
sg1084
S'50/65'
p1094
sssg1084
S'118/149'
p1095
ssS'Firefox 3.5'
p1096
(dp1097
S'total_runs'
p1098
L260L
sS'score'
p1099
I8
sS'results'
p1100
(dp1101
S'unapply'
p1102
(dp1103
g1099
I7
sS'median'
p1104
L0L
sS'display'
p1105
S'17/26'
p1106
ssS'apply'
p1107
(dp1108
g1099
I8
sg1104
L0L
sg1105
S'34/41'
p1109
ssS'change'
p1110
(dp1111
g1099
I4
sg1104
L0L
sg1105
S'7/17'
p1112
ssS'query'
p1113
(dp1114
g1099
I9
sg1104
L0L
sg1105
S'59/65'
p1115
sssg1105
S'117/149'
p1116
ssS'Safari 3.2'
p1117
(dp1118
S'total_runs'
p1119
L3L
sS'score'
p1120
I7
sS'results'
p1121
(dp1122
S'unapply'
p1123
(dp1124
g1120
I3
sS'median'
p1125
L0L
sS'display'
p1126
S'8/26'
p1127
ssS'apply'
p1128
(dp1129
g1120
I7
sg1125
L0L
sg1126
S'28/41'
p1130
ssS'change'
p1131
(dp1132
g1120
I10
sg1125
L0L
sg1126
S'17/17'
p1133
ssS'query'
p1134
(dp1135
g1120
I8
sg1125
L0L
sg1126
S'50/65'
p1136
sssg1126
S'103/149'
p1137
ssS'Safari 3.2.3'
p1138
(dp1139
S'total_runs'
p1140
L3L
sS'score'
p1141
I7
sS'results'
p1142
(dp1143
S'unapply'
p1144
(dp1145
g1141
I3
sS'median'
p1146
L0L
sS'display'
p1147
S'8/26'
p1148
ssS'apply'
p1149
(dp1150
g1141
I7
sg1146
L0L
sg1147
S'28/41'
p1151
ssS'change'
p1152
(dp1153
g1141
I10
sg1146
L0L
sg1147
S'17/17'
p1154
ssS'query'
p1155
(dp1156
g1141
I8
sg1146
L0L
sg1147
S'50/65'
p1157
sssg1147
S'103/149'
p1158
ssS'Firefox 3.0.10'
p1159
(dp1160
S'total_runs'
p1161
L6L
sS'score'
p1162
I8
sS'results'
p1163
(dp1164
S'unapply'
p1165
(dp1166
g1162
I7
sS'median'
p1167
L0L
sS'display'
p1168
S'17/26'
p1169
ssS'apply'
p1170
(dp1171
g1162
I8
sg1167
L0L
sg1168
S'34/41'
p1172
ssS'change'
p1173
(dp1174
g1162
I4
sg1167
L0L
sg1168
S'7/17'
p1175
ssS'query'
p1176
(dp1177
g1162
I9
sg1167
L0L
sg1168
S'59/65'
p1178
sssg1168
S'117/149'
p1179
ssS'IE 8.0'
p1180
(dp1181
S'total_runs'
p1182
L26L
sS'score'
p1183
I7
sS'results'
p1184
(dp1185
S'unapply'
p1186
(dp1187
g1183
I5
sS'median'
p1188
L0L
sS'display'
p1189
S'14/26'
p1190
ssS'apply'
p1191
(dp1192
g1183
I6
sg1188
L0L
sg1189
S'24/41'
p1193
ssS'change'
p1194
(dp1195
g1183
I3
sg1188
L0L
sg1189
S'5/17'
p1196
ssS'query'
p1197
(dp1198
g1183
I9
sg1188
L0L
sg1189
S'56/65'
p1199
sssg1189
S'99/149'
p1200
ssS'Firefox 2.0.0'
p1201
(dp1202
S'total_runs'
p1203
L2L
sS'score'
p1204
I8
sS'results'
p1205
(dp1206
S'unapply'
p1207
(dp1208
g1204
I7
sS'median'
p1209
L0L
sS'display'
p1210
S'17/26'
p1211
ssS'apply'
p1212
(dp1213
g1204
I8
sg1209
L0L
sg1210
S'34/41'
p1214
ssS'change'
p1215
(dp1216
g1204
I4
sg1209
L0L
sg1210
S'7/17'
p1217
ssS'query'
p1218
(dp1219
g1204
I9
sg1209
L0L
sg1210
S'59/65'
p1220
sssg1210
S'117/149'
p1221
ssS'Firefox (Shiretoko) 3.5.3'
p1222
(dp1223
S'total_runs'
p1224
L2L
sS'score'
p1225
I8
sS'results'
p1226
(dp1227
S'unapply'
p1228
(dp1229
g1225
I7
sS'median'
p1230
I0
sS'display'
p1231
S'17/26'
p1232
ssS'apply'
p1233
(dp1234
g1225
I8
sg1230
I0
sg1231
S'34/41'
p1235
ssS'change'
p1236
(dp1237
g1225
I4
sg1230
I0
sg1231
S'7/17'
p1238
ssS'query'
p1239
(dp1240
g1225
I9
sg1230
I0
sg1231
S'59/65'
p1241
sssg1231
S'117/149'
p1242
ssS'Firefox (Shiretoko) 3.5.2'
p1243
(dp1244
S'total_runs'
p1245
L11L
sS'score'
p1246
I8
sS'results'
p1247
(dp1248
S'unapply'
p1249
(dp1250
g1246
I7
sS'median'
p1251
I0
sS'display'
p1252
S'17/26'
p1253
ssS'apply'
p1254
(dp1255
g1246
I8
sg1251
I0
sg1252
S'34/41'
p1256
ssS'change'
p1257
(dp1258
g1246
I4
sg1251
I0
sg1252
S'7/17'
p1259
ssS'query'
p1260
(dp1261
g1246
I9
sg1251
I0
sg1252
S'59/65'
p1262
sssg1252
S'117/149'
p1263
ssS'NetNewsWire 3.2'
p1264
(dp1265
S'total_runs'
p1266
L1L
sS'score'
p1267
I8
sS'results'
p1268
(dp1269
S'unapply'
p1270
(dp1271
g1267
I7
sS'median'
p1272
I0
sS'display'
p1273
S'19/26'
p1274
ssS'apply'
p1275
(dp1276
g1267
I10
sg1272
I0
sg1273
S'39/41'
p1277
ssS'change'
p1278
(dp1279
g1267
I10
sg1272
I0
sg1273
S'17/17'
p1280
ssS'query'
p1281
(dp1282
g1267
I8
sg1272
I0
sg1273
S'50/65'
p1283
sssg1273
S'125/149'
p1284
ssS'Chrome 3.0.195'
p1285
(dp1286
S'total_runs'
p1287
L16L
sS'score'
p1288
I8
sS'results'
p1289
(dp1290
S'unapply'
p1291
(dp1292
g1288
I8
sS'median'
p1293
L0L
sS'display'
p1294
S'20/26'
p1295
ssS'apply'
p1296
(dp1297
g1288
I10
sg1293
L0L
sg1294
S'39/41'
p1298
ssS'change'
p1299
(dp1300
g1288
I10
sg1293
L0L
sg1294
S'17/17'
p1301
ssS'query'
p1302
(dp1303
g1288
I8
sg1293
L0L
sg1294
S'50/65'
p1304
sssg1294
S'126/149'
p1305
ss.