(dp0
VGaleon 2.0.4
p1
(dp2
S'summary_display'
p3
S'117/149'
p4
sS'total_runs'
p5
L1L
sS'summary_score'
p6
I79
sS'results'
p7
(dp8
S'unapply'
p9
(dp10
S'score'
p11
I65
sS'raw_score'
p12
I0
sS'display'
p13
S'17/26'
p14
ssS'apply'
p15
(dp16
g11
I83
sg12
I0
sg13
S'34/41'
p17
ssS'change'
p18
(dp19
g11
I41
sg12
I0
sg13
S'7/17'
p20
ssS'query'
p21
(dp22
g11
I91
sg12
I0
sg13
S'59/65'
p23
ssssVGaleon 2.0.7
p24
(dp25
S'summary_display'
p26
S'117/149'
p27
sS'total_runs'
p28
L1L
sS'summary_score'
p29
I79
sS'results'
p30
(dp31
S'unapply'
p32
(dp33
S'score'
p34
I65
sS'raw_score'
p35
I0
sS'display'
p36
S'17/26'
p37
ssS'apply'
p38
(dp39
g34
I83
sg35
I0
sg36
S'34/41'
p40
ssS'change'
p41
(dp42
g34
I41
sg35
I0
sg36
S'7/17'
p43
ssS'query'
p44
(dp45
g34
I91
sg35
I0
sg36
S'59/65'
p46
ssssVMaxthon 0
p47
(dp48
S'summary_display'
p49
S'99/149'
p50
sS'total_runs'
p51
L1L
sS'summary_score'
p52
I66
sS'results'
p53
(dp54
S'unapply'
p55
(dp56
S'score'
p57
I54
sS'raw_score'
p58
I0
sS'display'
p59
S'14/26'
p60
ssS'apply'
p61
(dp62
g57
I59
sg58
I0
sg59
S'24/41'
p63
ssS'change'
p64
(dp65
g57
I29
sg58
I0
sg59
S'5/17'
p66
ssS'query'
p67
(dp68
g57
I86
sg58
I0
sg59
S'56/65'
p69
ssssVFirefox (Shiretoko) 3.5
p70
(dp71
S'summary_display'
p72
S'117/149'
p73
sS'total_runs'
p74
L176L
sS'summary_score'
p75
I79
sS'results'
p76
(dp77
S'unapply'
p78
(dp79
S'score'
p80
I65
sS'raw_score'
p81
I0
sS'display'
p82
S'17/26'
p83
ssS'apply'
p84
(dp85
g80
I83
sg81
I0
sg82
S'34/41'
p86
ssS'change'
p87
(dp88
g80
I41
sg81
I0
sg82
S'7/17'
p89
ssS'query'
p90
(dp91
g80
I91
sg81
I0
sg82
S'59/65'
p92
ssssVIceweasel 3.5.5
p93
(dp94
S'summary_display'
p95
S'117/149'
p96
sS'total_runs'
p97
L5L
sS'summary_score'
p98
I79
sS'results'
p99
(dp100
S'unapply'
p101
(dp102
S'score'
p103
I65
sS'raw_score'
p104
I0
sS'display'
p105
S'17/26'
p106
ssS'apply'
p107
(dp108
g103
I83
sg104
I0
sg105
S'34/41'
p109
ssS'change'
p110
(dp111
g103
I41
sg104
I0
sg105
S'7/17'
p112
ssS'query'
p113
(dp114
g103
I91
sg104
I0
sg105
S'59/65'
p115
ssssVOpera 9.62
p116
(dp117
S'summary_display'
p118
S'88/149'
p119
sS'total_runs'
p120
L1L
sS'summary_score'
p121
I59
sS'results'
p122
(dp123
S'unapply'
p124
(dp125
S'score'
p126
I50
sS'raw_score'
p127
I0
sS'display'
p128
S'13/26'
p129
ssS'apply'
p130
(dp131
g126
I63
sg127
I0
sg128
S'26/41'
p132
ssS'change'
p133
(dp134
g126
I41
sg127
I0
sg128
S'7/17'
p135
ssS'query'
p136
(dp137
g126
I65
sg127
I0
sg128
S'42/65'
p138
ssssVOpera 9.63
p139
(dp140
S'summary_display'
p141
S'88/149'
p142
sS'total_runs'
p143
L8L
sS'summary_score'
p144
I59
sS'results'
p145
(dp146
S'unapply'
p147
(dp148
S'score'
p149
I50
sS'raw_score'
p150
I0
sS'display'
p151
S'13/26'
p152
ssS'apply'
p153
(dp154
g149
I63
sg150
I0
sg151
S'26/41'
p155
ssS'change'
p156
(dp157
g149
I41
sg150
I0
sg151
S'7/17'
p158
ssS'query'
p159
(dp160
g149
I65
sg150
I0
sg151
S'42/65'
p161
ssssVOpera 9.60
p162
(dp163
S'summary_display'
p164
S'88/149'
p165
sS'total_runs'
p166
L1L
sS'summary_score'
p167
I59
sS'results'
p168
(dp169
S'unapply'
p170
(dp171
S'score'
p172
I50
sS'raw_score'
p173
I0
sS'display'
p174
S'13/26'
p175
ssS'apply'
p176
(dp177
g172
I63
sg173
I0
sg174
S'26/41'
p178
ssS'change'
p179
(dp180
g172
I41
sg173
I0
sg174
S'7/17'
p181
ssS'query'
p182
(dp183
g172
I65
sg173
I0
sg174
S'42/65'
p184
ssssVOpera 9.61
p185
(dp186
S'summary_display'
p187
S'128/149'
p188
sS'total_runs'
p189
L2L
sS'summary_score'
p190
I86
sS'results'
p191
(dp192
S'unapply'
p193
(dp194
S'score'
p195
I77
sS'raw_score'
p196
I0
sS'display'
p197
S'20/26'
p198
ssS'apply'
p199
(dp200
g195
I85
sg196
I0
sg197
S'35/41'
p201
ssS'change'
p202
(dp203
g195
I76
sg196
I0
sg197
S'13/17'
p204
ssS'query'
p205
(dp206
g195
I92
sg196
I0
sg197
S'60/65'
p207
ssssVOpera 9.64
p208
(dp209
S'summary_display'
p210
S'88/149'
p211
sS'total_runs'
p212
L30L
sS'summary_score'
p213
I59
sS'results'
p214
(dp215
S'unapply'
p216
(dp217
S'score'
p218
I50
sS'raw_score'
p219
I0
sS'display'
p220
S'13/26'
p221
ssS'apply'
p222
(dp223
g218
I63
sg219
I0
sg220
S'26/41'
p224
ssS'change'
p225
(dp226
g218
I41
sg219
I0
sg220
S'7/17'
p227
ssS'query'
p228
(dp229
g218
I65
sg219
I0
sg220
S'42/65'
p230
ssssVVienna 2.3.2
p231
(dp232
S'summary_display'
p233
S'123/149'
p234
sS'total_runs'
p235
L1L
sS'summary_score'
p236
I83
sS'results'
p237
(dp238
S'unapply'
p239
(dp240
S'score'
p241
I73
sS'raw_score'
p242
I0
sS'display'
p243
S'19/26'
p244
ssS'apply'
p245
(dp246
g241
I90
sg242
I0
sg243
S'37/41'
p247
ssS'change'
p248
(dp249
g241
I100
sg242
I0
sg243
S'17/17'
p250
ssS'query'
p251
(dp252
g241
I77
sg242
I0
sg243
S'50/65'
p253
ssssVVienna 2.3.4
p254
(dp255
S'summary_display'
p256
S'123/149'
p257
sS'total_runs'
p258
L2L
sS'summary_score'
p259
I83
sS'results'
p260
(dp261
S'unapply'
p262
(dp263
S'score'
p264
I73
sS'raw_score'
p265
I0
sS'display'
p266
S'19/26'
p267
ssS'apply'
p268
(dp269
g264
I90
sg265
I0
sg266
S'37/41'
p270
ssS'change'
p271
(dp272
g264
I100
sg265
I0
sg266
S'17/17'
p273
ssS'query'
p274
(dp275
g264
I77
sg265
I0
sg266
S'50/65'
p276
ssssVNetNewsWire 3.1.3
p277
(dp278
S'summary_display'
p279
S'125/149'
p280
sS'total_runs'
p281
L1L
sS'summary_score'
p282
I84
sS'results'
p283
(dp284
S'unapply'
p285
(dp286
S'score'
p287
I73
sS'raw_score'
p288
I0
sS'display'
p289
S'19/26'
p290
ssS'apply'
p291
(dp292
g287
I95
sg288
I0
sg289
S'39/41'
p293
ssS'change'
p294
(dp295
g287
I100
sg288
I0
sg289
S'17/17'
p296
ssS'query'
p297
(dp298
g287
I77
sg288
I0
sg289
S'50/65'
p299
ssssVSeaMonkey 2.0a2
p300
(dp301
S'summary_display'
p302
S'119/149'
p303
sS'total_runs'
p304
L3L
sS'summary_score'
p305
I80
sS'results'
p306
(dp307
S'unapply'
p308
(dp309
S'score'
p310
I73
sS'raw_score'
p311
I0
sS'display'
p312
S'19/26'
p313
ssS'apply'
p314
(dp315
g310
I83
sg311
I0
sg312
S'34/41'
p316
ssS'change'
p317
(dp318
g310
I41
sg311
I0
sg312
S'7/17'
p319
ssS'query'
p320
(dp321
g310
I91
sg311
I0
sg312
S'59/65'
p322
ssssVFirefox (Minefield) 3.7a1pre
p323
(dp324
S'summary_display'
p325
S'117/149'
p326
sS'total_runs'
p327
L174L
sS'summary_score'
p328
I79
sS'results'
p329
(dp330
S'unapply'
p331
(dp332
S'score'
p333
I65
sS'raw_score'
p334
I0
sS'display'
p335
S'17/26'
p336
ssS'apply'
p337
(dp338
g333
I83
sg334
I0
sg335
S'34/41'
p339
ssS'change'
p340
(dp341
g333
I41
sg334
I0
sg335
S'7/17'
p342
ssS'query'
p343
(dp344
g333
I91
sg334
I0
sg335
S'59/65'
p345
ssssVAndroid 2.0
p346
(dp347
S'summary_display'
p348
S'129/149'
p349
sS'total_runs'
p350
L11L
sS'summary_score'
p351
I87
sS'results'
p352
(dp353
S'unapply'
p354
(dp355
S'score'
p356
I88
sS'raw_score'
p357
I0
sS'display'
p358
S'23/26'
p359
ssS'apply'
p360
(dp361
g356
I95
sg357
I0
sg358
S'39/41'
p362
ssS'change'
p363
(dp364
g356
I100
sg357
I0
sg358
S'17/17'
p365
ssS'query'
p366
(dp367
g356
I77
sg357
I0
sg358
S'50/65'
p368
ssssVAndroid 2.1
p369
(dp370
S'summary_display'
p371
S'126/146'
p372
sS'total_runs'
p373
L1L
sS'summary_score'
p374
I86
sS'results'
p375
(dp376
S'unapply'
p377
(dp378
S'score'
p379
I88
sS'raw_score'
p380
I0
sS'display'
p381
S'22/25'
p382
ssS'apply'
p383
(dp384
g379
I95
sg380
I0
sg381
S'37/39'
p385
ssS'change'
p386
(dp387
g379
I100
sg380
I0
sg381
S'17/17'
p388
ssS'query'
p389
(dp390
g379
I77
sg380
I0
sg381
S'50/65'
p391
ssssVFirefox 2.0
p392
(dp393
S'summary_display'
p394
S'117/149'
p395
sS'total_runs'
p396
L50L
sS'summary_score'
p397
I79
sS'results'
p398
(dp399
S'unapply'
p400
(dp401
S'score'
p402
I65
sS'raw_score'
p403
I0
sS'display'
p404
S'17/26'
p405
ssS'apply'
p406
(dp407
g402
I83
sg403
I0
sg404
S'34/41'
p408
ssS'change'
p409
(dp410
g402
I41
sg403
I0
sg404
S'7/17'
p411
ssS'query'
p412
(dp413
g402
I91
sg403
I0
sg404
S'59/65'
p414
ssssVCamino 1.6.10
p415
(dp416
S'summary_display'
p417
S'117/149'
p418
sS'total_runs'
p419
L1L
sS'summary_score'
p420
I79
sS'results'
p421
(dp422
S'unapply'
p423
(dp424
S'score'
p425
I65
sS'raw_score'
p426
I0
sS'display'
p427
S'17/26'
p428
ssS'apply'
p429
(dp430
g425
I83
sg426
I0
sg427
S'34/41'
p431
ssS'change'
p432
(dp433
g425
I41
sg426
I0
sg427
S'7/17'
p434
ssS'query'
p435
(dp436
g425
I91
sg426
I0
sg427
S'59/65'
p437
ssssVSeaMonkey 1.1.15
p438
(dp439
S'summary_display'
p440
S'114/146'
p441
sS'total_runs'
p442
L1L
sS'summary_score'
p443
I78
sS'results'
p444
(dp445
S'unapply'
p446
(dp447
S'score'
p448
I65
sS'raw_score'
p449
I0
sS'display'
p450
S'17/26'
p451
ssS'apply'
p452
(dp453
g448
I83
sg449
I0
sg450
S'33/40'
p454
ssS'change'
p455
(dp456
g448
I41
sg449
Nsg450
S'7/17'
p457
ssS'query'
p458
(dp459
g448
I90
sg449
I0
sg450
S'57/63'
p460
ssssVSeaMonkey 1.1.17
p461
(dp462
S'summary_display'
p463
S'117/149'
p464
sS'total_runs'
p465
L2L
sS'summary_score'
p466
I79
sS'results'
p467
(dp468
S'unapply'
p469
(dp470
S'score'
p471
I65
sS'raw_score'
p472
I0
sS'display'
p473
S'17/26'
p474
ssS'apply'
p475
(dp476
g471
I83
sg472
I0
sg473
S'34/41'
p477
ssS'change'
p478
(dp479
g471
I41
sg472
I0
sg473
S'7/17'
p480
ssS'query'
p481
(dp482
g471
I91
sg472
I0
sg473
S'59/65'
p483
ssssVSeaMonkey 1.1.16
p484
(dp485
S'summary_display'
p486
S'117/149'
p487
sS'total_runs'
p488
L2L
sS'summary_score'
p489
I79
sS'results'
p490
(dp491
S'unapply'
p492
(dp493
S'score'
p494
I65
sS'raw_score'
p495
I0
sS'display'
p496
S'17/26'
p497
ssS'apply'
p498
(dp499
g494
I83
sg495
I0
sg496
S'34/41'
p500
ssS'change'
p501
(dp502
g494
I41
sg495
I0
sg496
S'7/17'
p503
ssS'query'
p504
(dp505
g494
I91
sg495
I0
sg496
S'59/65'
p506
ssssVOpera 10.10
p507
(dp508
S'summary_display'
p509
S'89/149'
p510
sS'total_runs'
p511
L406L
sS'summary_score'
p512
I60
sS'results'
p513
(dp514
S'unapply'
p515
(dp516
S'score'
p517
I50
sS'raw_score'
p518
I0
sS'display'
p519
S'13/26'
p520
ssS'apply'
p521
(dp522
g517
I63
sg518
I0
sg519
S'26/41'
p523
ssS'change'
p524
(dp525
g517
I41
sg518
I0
sg519
S'7/17'
p526
ssS'query'
p527
(dp528
g517
I66
sg518
I0
sg519
S'43/65'
p529
ssssVSeaMonkey 1.1.18
p530
(dp531
S'summary_display'
p532
S'117/149'
p533
sS'total_runs'
p534
L3L
sS'summary_score'
p535
I79
sS'results'
p536
(dp537
S'unapply'
p538
(dp539
S'score'
p540
I65
sS'raw_score'
p541
I0
sS'display'
p542
S'17/26'
p543
ssS'apply'
p544
(dp545
g540
I83
sg541
I0
sg542
S'34/41'
p546
ssS'change'
p547
(dp548
g540
I41
sg541
I0
sg542
S'7/17'
p549
ssS'query'
p550
(dp551
g540
I91
sg541
I0
sg542
S'59/65'
p552
ssssVFirefox (Shiretoko) 3.5.5
p553
(dp554
S'summary_display'
p555
S'117/149'
p556
sS'total_runs'
p557
L17L
sS'summary_score'
p558
I79
sS'results'
p559
(dp560
S'unapply'
p561
(dp562
S'score'
p563
I65
sS'raw_score'
p564
I0
sS'display'
p565
S'17/26'
p566
ssS'apply'
p567
(dp568
g563
I83
sg564
I0
sg565
S'34/41'
p569
ssS'change'
p570
(dp571
g563
I41
sg564
I0
sg565
S'7/17'
p572
ssS'query'
p573
(dp574
g563
I91
sg564
I0
sg565
S'59/65'
p575
ssssVFirefox (Shiretoko) 3.5.4
p576
(dp577
S'summary_display'
p578
S'117/149'
p579
sS'total_runs'
p580
L2L
sS'summary_score'
p581
I79
sS'results'
p582
(dp583
S'unapply'
p584
(dp585
S'score'
p586
I65
sS'raw_score'
p587
I0
sS'display'
p588
S'17/26'
p589
ssS'apply'
p590
(dp591
g586
I83
sg587
I0
sg588
S'34/41'
p592
ssS'change'
p593
(dp594
g586
I41
sg587
I0
sg588
S'7/17'
p595
ssS'query'
p596
(dp597
g586
I91
sg587
I0
sg588
S'59/65'
p598
ssssVFirefox (Shiretoko) 3.5.7
p599
(dp600
S'summary_display'
p601
S'117/149'
p602
sS'total_runs'
p603
L1L
sS'summary_score'
p604
I79
sS'results'
p605
(dp606
S'unapply'
p607
(dp608
S'score'
p609
I65
sS'raw_score'
p610
I0
sS'display'
p611
S'17/26'
p612
ssS'apply'
p613
(dp614
g609
I83
sg610
I0
sg611
S'34/41'
p615
ssS'change'
p616
(dp617
g609
I41
sg610
I0
sg611
S'7/17'
p618
ssS'query'
p619
(dp620
g609
I91
sg610
I0
sg611
S'59/65'
p621
ssssVFirefox (Shiretoko) 3.5.6
p622
(dp623
S'summary_display'
p624
S'117/149'
p625
sS'total_runs'
p626
L2L
sS'summary_score'
p627
I79
sS'results'
p628
(dp629
S'unapply'
p630
(dp631
S'score'
p632
I65
sS'raw_score'
p633
I0
sS'display'
p634
S'17/26'
p635
ssS'apply'
p636
(dp637
g632
I83
sg633
I0
sg634
S'34/41'
p638
ssS'change'
p639
(dp640
g632
I41
sg633
I0
sg634
S'7/17'
p641
ssS'query'
p642
(dp643
g632
I91
sg633
I0
sg634
S'59/65'
p644
ssssVFirefox (Shiretoko) 3.5.1
p645
(dp646
S'summary_display'
p647
S'117/149'
p648
sS'total_runs'
p649
L1L
sS'summary_score'
p650
I79
sS'results'
p651
(dp652
S'unapply'
p653
(dp654
S'score'
p655
I65
sS'raw_score'
p656
I0
sS'display'
p657
S'17/26'
p658
ssS'apply'
p659
(dp660
g655
I83
sg656
I0
sg657
S'34/41'
p661
ssS'change'
p662
(dp663
g655
I41
sg656
I0
sg657
S'7/17'
p664
ssS'query'
p665
(dp666
g655
I91
sg656
I0
sg657
S'59/65'
p667
ssssVFirefox (Shiretoko) 3.5.3
p668
(dp669
S'summary_display'
p670
S'117/149'
p671
sS'total_runs'
p672
L36L
sS'summary_score'
p673
I79
sS'results'
p674
(dp675
S'unapply'
p676
(dp677
S'score'
p678
I65
sS'raw_score'
p679
I0
sS'display'
p680
S'17/26'
p681
ssS'apply'
p682
(dp683
g678
I83
sg679
I0
sg680
S'34/41'
p684
ssS'change'
p685
(dp686
g678
I41
sg679
I0
sg680
S'7/17'
p687
ssS'query'
p688
(dp689
g678
I91
sg679
I0
sg680
S'59/65'
p690
ssssVFirefox (Shiretoko) 3.5.2
p691
(dp692
S'summary_display'
p693
S'117/149'
p694
sS'total_runs'
p695
L69L
sS'summary_score'
p696
I79
sS'results'
p697
(dp698
S'unapply'
p699
(dp700
S'score'
p701
I65
sS'raw_score'
p702
I0
sS'display'
p703
S'17/26'
p704
ssS'apply'
p705
(dp706
g701
I83
sg702
I0
sg703
S'34/41'
p707
ssS'change'
p708
(dp709
g701
I41
sg702
I0
sg703
S'7/17'
p710
ssS'query'
p711
(dp712
g701
I91
sg702
I0
sg703
S'59/65'
p713
ssssVChrome Frame (IE 8) 4.0.245
p714
(dp715
S'summary_display'
p716
S'129/149'
p717
sS'total_runs'
p718
L1L
sS'summary_score'
p719
I87
sS'results'
p720
(dp721
S'unapply'
p722
(dp723
S'score'
p724
I88
sS'raw_score'
p725
I0
sS'display'
p726
S'23/26'
p727
ssS'apply'
p728
(dp729
g724
I95
sg725
I0
sg726
S'39/41'
p730
ssS'change'
p731
(dp732
g724
I100
sg725
I0
sg726
S'17/17'
p733
ssS'query'
p734
(dp735
g724
I77
sg725
I0
sg726
S'50/65'
p736
ssssVFirefox (Shiretoko) 3.5.7pre
p737
(dp738
S'summary_display'
p739
S'117/149'
p740
sS'total_runs'
p741
L2L
sS'summary_score'
p742
I79
sS'results'
p743
(dp744
S'unapply'
p745
(dp746
S'score'
p747
I65
sS'raw_score'
p748
I0
sS'display'
p749
S'17/26'
p750
ssS'apply'
p751
(dp752
g747
I83
sg748
I0
sg749
S'34/41'
p753
ssS'change'
p754
(dp755
g747
I41
sg748
I0
sg749
S'7/17'
p756
ssS'query'
p757
(dp758
g747
I91
sg748
I0
sg749
S'59/65'
p759
ssssVMidori 0.1.10
p760
(dp761
S'summary_display'
p762
S'129/149'
p763
sS'total_runs'
p764
L1L
sS'summary_score'
p765
I87
sS'results'
p766
(dp767
S'unapply'
p768
(dp769
S'score'
p770
I88
sS'raw_score'
p771
I0
sS'display'
p772
S'23/26'
p773
ssS'apply'
p774
(dp775
g770
I95
sg771
I0
sg772
S'39/41'
p776
ssS'change'
p777
(dp778
g770
I100
sg771
I0
sg772
S'17/17'
p779
ssS'query'
p780
(dp781
g770
I77
sg771
I0
sg772
S'50/65'
p782
ssssVChrome 4.0.220
p783
(dp784
S'summary_display'
p785
S'129/149'
p786
sS'total_runs'
p787
L11L
sS'summary_score'
p788
I87
sS'results'
p789
(dp790
S'unapply'
p791
(dp792
S'score'
p793
I88
sS'raw_score'
p794
I0
sS'display'
p795
S'23/26'
p796
ssS'apply'
p797
(dp798
g793
I95
sg794
I0
sg795
S'39/41'
p799
ssS'change'
p800
(dp801
g793
I100
sg794
I0
sg795
S'17/17'
p802
ssS'query'
p803
(dp804
g793
I77
sg794
I0
sg795
S'50/65'
p805
ssssVChrome 4.0.221
p806
(dp807
S'summary_display'
p808
S'129/149'
p809
sS'total_runs'
p810
L18L
sS'summary_score'
p811
I87
sS'results'
p812
(dp813
S'unapply'
p814
(dp815
S'score'
p816
I88
sS'raw_score'
p817
I0
sS'display'
p818
S'23/26'
p819
ssS'apply'
p820
(dp821
g816
I95
sg817
I0
sg818
S'39/41'
p822
ssS'change'
p823
(dp824
g816
I100
sg817
I0
sg818
S'17/17'
p825
ssS'query'
p826
(dp827
g816
I77
sg817
I0
sg818
S'50/65'
p828
ssssVChrome 4.0.222
p829
(dp830
S'summary_display'
p831
S'129/149'
p832
sS'total_runs'
p833
L21L
sS'summary_score'
p834
I87
sS'results'
p835
(dp836
S'unapply'
p837
(dp838
S'score'
p839
I88
sS'raw_score'
p840
I0
sS'display'
p841
S'23/26'
p842
ssS'apply'
p843
(dp844
g839
I95
sg840
I0
sg841
S'39/41'
p845
ssS'change'
p846
(dp847
g839
I100
sg840
I0
sg841
S'17/17'
p848
ssS'query'
p849
(dp850
g839
I77
sg840
I0
sg841
S'50/65'
p851
ssssVChrome 4.0.223
p852
(dp853
S'summary_display'
p854
S'129/149'
p855
sS'total_runs'
p856
L111L
sS'summary_score'
p857
I87
sS'results'
p858
(dp859
S'unapply'
p860
(dp861
S'score'
p862
I88
sS'raw_score'
p863
I0
sS'display'
p864
S'23/26'
p865
ssS'apply'
p866
(dp867
g862
I95
sg863
I0
sg864
S'39/41'
p868
ssS'change'
p869
(dp870
g862
I100
sg863
I0
sg864
S'17/17'
p871
ssS'query'
p872
(dp873
g862
I77
sg863
I0
sg864
S'50/65'
p874
ssssVChrome 4.0.224
p875
(dp876
S'summary_display'
p877
S'129/149'
p878
sS'total_runs'
p879
L2L
sS'summary_score'
p880
I87
sS'results'
p881
(dp882
S'unapply'
p883
(dp884
S'score'
p885
I88
sS'raw_score'
p886
I0
sS'display'
p887
S'23/26'
p888
ssS'apply'
p889
(dp890
g885
I95
sg886
I0
sg887
S'39/41'
p891
ssS'change'
p892
(dp893
g885
I100
sg886
I0
sg887
S'17/17'
p894
ssS'query'
p895
(dp896
g885
I77
sg886
I0
sg887
S'50/65'
p897
ssssVChrome 4.0.225
p898
(dp899
S'summary_display'
p900
S'129/149'
p901
sS'total_runs'
p902
L1L
sS'summary_score'
p903
I87
sS'results'
p904
(dp905
S'unapply'
p906
(dp907
S'score'
p908
I88
sS'raw_score'
p909
I0
sS'display'
p910
S'23/26'
p911
ssS'apply'
p912
(dp913
g908
I95
sg909
I0
sg910
S'39/41'
p914
ssS'change'
p915
(dp916
g908
I100
sg909
I0
sg910
S'17/17'
p917
ssS'query'
p918
(dp919
g908
I77
sg909
I0
sg910
S'50/65'
p920
ssssVChrome 4.0.226
p921
(dp922
S'summary_display'
p923
S'129/149'
p924
sS'total_runs'
p925
L5L
sS'summary_score'
p926
I87
sS'results'
p927
(dp928
S'unapply'
p929
(dp930
S'score'
p931
I88
sS'raw_score'
p932
I0
sS'display'
p933
S'23/26'
p934
ssS'apply'
p935
(dp936
g931
I95
sg932
I0
sg933
S'39/41'
p937
ssS'change'
p938
(dp939
g931
I100
sg932
I0
sg933
S'17/17'
p940
ssS'query'
p941
(dp942
g931
I77
sg932
I0
sg933
S'50/65'
p943
ssssVChrome 4.0.227
p944
(dp945
S'summary_display'
p946
S'129/149'
p947
sS'total_runs'
p948
L5L
sS'summary_score'
p949
I87
sS'results'
p950
(dp951
S'unapply'
p952
(dp953
S'score'
p954
I88
sS'raw_score'
p955
I0
sS'display'
p956
S'23/26'
p957
ssS'apply'
p958
(dp959
g954
I95
sg955
I0
sg956
S'39/41'
p960
ssS'change'
p961
(dp962
g954
I100
sg955
I0
sg956
S'17/17'
p963
ssS'query'
p964
(dp965
g954
I77
sg955
I0
sg956
S'50/65'
p966
ssssVFirefox (Namoroka) 3.6b3pre
p967
(dp968
S'summary_display'
p969
S'117/149'
p970
sS'total_runs'
p971
L2L
sS'summary_score'
p972
I79
sS'results'
p973
(dp974
S'unapply'
p975
(dp976
S'score'
p977
I65
sS'raw_score'
p978
I0
sS'display'
p979
S'17/26'
p980
ssS'apply'
p981
(dp982
g977
I83
sg978
I0
sg979
S'34/41'
p983
ssS'change'
p984
(dp985
g977
I41
sg978
I0
sg979
S'7/17'
p986
ssS'query'
p987
(dp988
g977
I91
sg978
I0
sg979
S'59/65'
p989
ssssVFlock 2.5.6
p990
(dp991
S'summary_display'
p992
S'114/145'
p993
sS'total_runs'
p994
L1L
sS'summary_score'
p995
I79
sS'results'
p996
(dp997
S'unapply'
p998
(dp999
S'score'
p1000
I68
sS'raw_score'
p1001
I0
sS'display'
p1002
S'17/25'
p1003
ssS'apply'
p1004
(dp1005
g1000
I83
sg1001
I0
sg1002
S'33/40'
p1006
ssS'change'
p1007
(dp1008
g1000
I41
sg1001
I0
sg1002
S'7/17'
p1009
ssS'query'
p1010
(dp1011
g1000
I90
sg1001
I0
sg1002
S'57/63'
p1012
ssssVFlock 2.5.5
p1013
(dp1014
S'summary_display'
p1015
S'117/149'
p1016
sS'total_runs'
p1017
L2L
sS'summary_score'
p1018
I79
sS'results'
p1019
(dp1020
S'unapply'
p1021
(dp1022
S'score'
p1023
I65
sS'raw_score'
p1024
I0
sS'display'
p1025
S'17/26'
p1026
ssS'apply'
p1027
(dp1028
g1023
I83
sg1024
I0
sg1025
S'34/41'
p1029
ssS'change'
p1030
(dp1031
g1023
I41
sg1024
I0
sg1025
S'7/17'
p1032
ssS'query'
p1033
(dp1034
g1023
I91
sg1024
I0
sg1025
S'59/65'
p1035
ssssVOpera Mini 4.2.15227
p1036
(dp1037
S'summary_display'
p1038
S'0/149'
p1039
sS'total_runs'
p1040
L1L
sS'summary_score'
p1041
I0
sS'results'
p1042
(dp1043
S'unapply'
p1044
(dp1045
S'score'
p1046
I0
sS'raw_score'
p1047
I0
sS'display'
p1048
S'0/26'
p1049
ssS'apply'
p1050
(dp1051
g1046
I0
sg1047
I0
sg1048
S'0/41'
p1052
ssS'change'
p1053
(dp1054
g1046
I0
sg1047
I0
sg1048
S'0/17'
p1055
ssS'query'
p1056
(dp1057
g1046
I0
sg1047
I0
sg1048
S'0/65'
p1058
ssssVWii 9.30
p1059
(dp1060
S'summary_display'
p1061
S'0/149'
p1062
sS'total_runs'
p1063
L2L
sS'summary_score'
p1064
I0
sS'results'
p1065
(dp1066
S'unapply'
p1067
(dp1068
S'score'
p1069
I0
sS'raw_score'
p1070
I0
sS'display'
p1071
S'0/26'
p1072
ssS'apply'
p1073
(dp1074
g1069
I0
sg1070
I0
sg1071
S'0/41'
p1075
ssS'change'
p1076
(dp1077
g1069
I0
sg1070
I0
sg1071
S'0/17'
p1078
ssS'query'
p1079
(dp1080
g1069
I0
sg1070
I0
sg1071
S'0/65'
p1081
ssssVIceweasel 3.0.14
p1082
(dp1083
S'summary_display'
p1084
S'117/149'
p1085
sS'total_runs'
p1086
L10L
sS'summary_score'
p1087
I79
sS'results'
p1088
(dp1089
S'unapply'
p1090
(dp1091
S'score'
p1092
I65
sS'raw_score'
p1093
I0
sS'display'
p1094
S'17/26'
p1095
ssS'apply'
p1096
(dp1097
g1092
I83
sg1093
I0
sg1094
S'34/41'
p1098
ssS'change'
p1099
(dp1100
g1092
I41
sg1093
I0
sg1094
S'7/17'
p1101
ssS'query'
p1102
(dp1103
g1092
I91
sg1093
I0
sg1094
S'59/65'
p1104
ssssVIceweasel 3.0.11
p1105
(dp1106
S'summary_display'
p1107
S'117/149'
p1108
sS'total_runs'
p1109
L1L
sS'summary_score'
p1110
I79
sS'results'
p1111
(dp1112
S'unapply'
p1113
(dp1114
S'score'
p1115
I65
sS'raw_score'
p1116
I0
sS'display'
p1117
S'17/26'
p1118
ssS'apply'
p1119
(dp1120
g1115
I83
sg1116
I0
sg1117
S'34/41'
p1121
ssS'change'
p1122
(dp1123
g1115
I41
sg1116
I0
sg1117
S'7/17'
p1124
ssS'query'
p1125
(dp1126
g1115
I91
sg1116
I0
sg1117
S'59/65'
p1127
ssssVIceweasel 3.0.12
p1128
(dp1129
S'summary_display'
p1130
S'117/149'
p1131
sS'total_runs'
p1132
L8L
sS'summary_score'
p1133
I79
sS'results'
p1134
(dp1135
S'unapply'
p1136
(dp1137
S'score'
p1138
I65
sS'raw_score'
p1139
I0
sS'display'
p1140
S'17/26'
p1141
ssS'apply'
p1142
(dp1143
g1138
I83
sg1139
I0
sg1140
S'34/41'
p1144
ssS'change'
p1145
(dp1146
g1138
I41
sg1139
I0
sg1140
S'7/17'
p1147
ssS'query'
p1148
(dp1149
g1138
I91
sg1139
I0
sg1140
S'59/65'
p1150
ssssVSeaMonkey 2.0b2
p1151
(dp1152
S'summary_display'
p1153
S'117/149'
p1154
sS'total_runs'
p1155
L6L
sS'summary_score'
p1156
I79
sS'results'
p1157
(dp1158
S'unapply'
p1159
(dp1160
S'score'
p1161
I65
sS'raw_score'
p1162
I0
sS'display'
p1163
S'17/26'
p1164
ssS'apply'
p1165
(dp1166
g1161
I83
sg1162
I0
sg1163
S'34/41'
p1167
ssS'change'
p1168
(dp1169
g1161
I41
sg1162
I0
sg1163
S'7/17'
p1170
ssS'query'
p1171
(dp1172
g1161
I91
sg1162
I0
sg1163
S'59/65'
p1173
ssssVSeaMonkey 2.0b1
p1174
(dp1175
S'summary_display'
p1176
S'117/149'
p1177
sS'total_runs'
p1178
L1L
sS'summary_score'
p1179
I79
sS'results'
p1180
(dp1181
S'unapply'
p1182
(dp1183
S'score'
p1184
I65
sS'raw_score'
p1185
I0
sS'display'
p1186
S'17/26'
p1187
ssS'apply'
p1188
(dp1189
g1184
I83
sg1185
I0
sg1186
S'34/41'
p1190
ssS'change'
p1191
(dp1192
g1184
I41
sg1185
I0
sg1186
S'7/17'
p1193
ssS'query'
p1194
(dp1195
g1184
I91
sg1185
I0
sg1186
S'59/65'
p1196
ssssVChrome 4.0.269
p1197
(dp1198
S'summary_display'
p1199
S'129/149'
p1200
sS'total_runs'
p1201
L1L
sS'summary_score'
p1202
I87
sS'results'
p1203
(dp1204
S'unapply'
p1205
(dp1206
S'score'
p1207
I88
sS'raw_score'
p1208
I0
sS'display'
p1209
S'23/26'
p1210
ssS'apply'
p1211
(dp1212
g1207
I95
sg1208
I0
sg1209
S'39/41'
p1213
ssS'change'
p1214
(dp1215
g1207
I100
sg1208
I0
sg1209
S'17/17'
p1216
ssS'query'
p1217
(dp1218
g1207
I77
sg1208
I0
sg1209
S'50/65'
p1219
ssssVFirefox 3.7a1pre
p1220
(dp1221
S'summary_display'
p1222
S'117/149'
p1223
sS'total_runs'
p1224
L3L
sS'summary_score'
p1225
I79
sS'results'
p1226
(dp1227
S'unapply'
p1228
(dp1229
S'score'
p1230
I65
sS'raw_score'
p1231
I0
sS'display'
p1232
S'17/26'
p1233
ssS'apply'
p1234
(dp1235
g1230
I83
sg1231
I0
sg1232
S'34/41'
p1236
ssS'change'
p1237
(dp1238
g1230
I41
sg1231
I0
sg1232
S'7/17'
p1239
ssS'query'
p1240
(dp1241
g1230
I91
sg1231
I0
sg1232
S'59/65'
p1242
ssssVSafari 3.1.2
p1243
(dp1244
S'summary_display'
p1245
S'120/149'
p1246
sS'total_runs'
p1247
L4L
sS'summary_score'
p1248
I81
sS'results'
p1249
(dp1250
S'unapply'
p1251
(dp1252
S'score'
p1253
I65
sS'raw_score'
p1254
I0
sS'display'
p1255
S'17/26'
p1256
ssS'apply'
p1257
(dp1258
g1253
I88
sg1254
I0
sg1255
S'36/41'
p1259
ssS'change'
p1260
(dp1261
g1253
I100
sg1254
I0
sg1255
S'17/17'
p1262
ssS'query'
p1263
(dp1264
g1253
I77
sg1254
I0
sg1255
S'50/65'
p1265
ssssVSafari 3.1.1
p1266
(dp1267
S'summary_display'
p1268
S'125/149'
p1269
sS'total_runs'
p1270
L2L
sS'summary_score'
p1271
I84
sS'results'
p1272
(dp1273
S'unapply'
p1274
(dp1275
S'score'
p1276
I73
sS'raw_score'
p1277
I0
sS'display'
p1278
S'19/26'
p1279
ssS'apply'
p1280
(dp1281
g1276
I95
sg1277
I0
sg1278
S'39/41'
p1282
ssS'change'
p1283
(dp1284
g1276
I100
sg1277
I0
sg1278
S'17/17'
p1285
ssS'query'
p1286
(dp1287
g1276
I77
sg1277
I0
sg1278
S'50/65'
p1288
ssssVFirefox 1.5
p1289
(dp1290
S'summary_display'
p1291
S'117/149'
p1292
sS'total_runs'
p1293
L5L
sS'summary_score'
p1294
I79
sS'results'
p1295
(dp1296
S'unapply'
p1297
(dp1298
S'score'
p1299
I65
sS'raw_score'
p1300
I0
sS'display'
p1301
S'17/26'
p1302
ssS'apply'
p1303
(dp1304
g1299
I83
sg1300
I0
sg1301
S'34/41'
p1305
ssS'change'
p1306
(dp1307
g1299
I41
sg1300
I0
sg1301
S'7/17'
p1308
ssS'query'
p1309
(dp1310
g1299
I91
sg1300
I0
sg1301
S'59/65'
p1311
ssssVSafari 4.0.1
p1312
(dp1313
S'summary_display'
p1314
S'125/149'
p1315
sS'total_runs'
p1316
L3L
sS'summary_score'
p1317
I84
sS'results'
p1318
(dp1319
S'unapply'
p1320
(dp1321
S'score'
p1322
I73
sS'raw_score'
p1323
I0
sS'display'
p1324
S'19/26'
p1325
ssS'apply'
p1326
(dp1327
g1322
I95
sg1323
I0
sg1324
S'39/41'
p1328
ssS'change'
p1329
(dp1330
g1322
I100
sg1323
I0
sg1324
S'17/17'
p1331
ssS'query'
p1332
(dp1333
g1322
I77
sg1323
I0
sg1324
S'50/65'
p1334
ssssVSafari 4.0.2
p1335
(dp1336
S'summary_display'
p1337
S'125/149'
p1338
sS'total_runs'
p1339
L30L
sS'summary_score'
p1340
I84
sS'results'
p1341
(dp1342
S'unapply'
p1343
(dp1344
S'score'
p1345
I73
sS'raw_score'
p1346
I0
sS'display'
p1347
S'19/26'
p1348
ssS'apply'
p1349
(dp1350
g1345
I95
sg1346
I0
sg1347
S'39/41'
p1351
ssS'change'
p1352
(dp1353
g1345
I100
sg1346
I0
sg1347
S'17/17'
p1354
ssS'query'
p1355
(dp1356
g1345
I77
sg1346
I0
sg1347
S'50/65'
p1357
ssssVSafari 4.0.3
p1358
(dp1359
S'summary_display'
p1360
S'125/149'
p1361
sS'total_runs'
p1362
L788L
sS'summary_score'
p1363
I84
sS'results'
p1364
(dp1365
S'unapply'
p1366
(dp1367
S'score'
p1368
I73
sS'raw_score'
p1369
I0
sS'display'
p1370
S'19/26'
p1371
ssS'apply'
p1372
(dp1373
g1368
I95
sg1369
I0
sg1370
S'39/41'
p1374
ssS'change'
p1375
(dp1376
g1368
I100
sg1369
I0
sg1370
S'17/17'
p1377
ssS'query'
p1378
(dp1379
g1368
I77
sg1369
I0
sg1370
S'50/65'
p1380
ssssVSafari 4.0.4
p1381
(dp1382
S'summary_display'
p1383
S'125/149'
p1384
sS'total_runs'
p1385
L135L
sS'summary_score'
p1386
I84
sS'results'
p1387
(dp1388
S'unapply'
p1389
(dp1390
S'score'
p1391
I73
sS'raw_score'
p1392
I0
sS'display'
p1393
S'19/26'
p1394
ssS'apply'
p1395
(dp1396
g1391
I95
sg1392
I0
sg1393
S'39/41'
p1397
ssS'change'
p1398
(dp1399
g1391
I100
sg1392
I0
sg1393
S'17/17'
p1400
ssS'query'
p1401
(dp1402
g1391
I77
sg1392
I0
sg1393
S'50/65'
p1403
ssssVSleipnir 2.9.1
p1404
(dp1405
S'summary_display'
p1406
S'99/149'
p1407
sS'total_runs'
p1408
L4L
sS'summary_score'
p1409
I66
sS'results'
p1410
(dp1411
S'unapply'
p1412
(dp1413
S'score'
p1414
I54
sS'raw_score'
p1415
I0
sS'display'
p1416
S'14/26'
p1417
ssS'apply'
p1418
(dp1419
g1414
I59
sg1415
I0
sg1416
S'24/41'
p1420
ssS'change'
p1421
(dp1422
g1414
I29
sg1415
I0
sg1416
S'5/17'
p1423
ssS'query'
p1424
(dp1425
g1414
I86
sg1415
I0
sg1416
S'56/65'
p1426
ssssVFirefox (Namoroka) 3.6b2pre
p1427
(dp1428
S'summary_display'
p1429
S'117/149'
p1430
sS'total_runs'
p1431
L3L
sS'summary_score'
p1432
I79
sS'results'
p1433
(dp1434
S'unapply'
p1435
(dp1436
S'score'
p1437
I65
sS'raw_score'
p1438
I0
sS'display'
p1439
S'17/26'
p1440
ssS'apply'
p1441
(dp1442
g1437
I83
sg1438
I0
sg1439
S'34/41'
p1443
ssS'change'
p1444
(dp1445
g1437
I41
sg1438
I0
sg1439
S'7/17'
p1446
ssS'query'
p1447
(dp1448
g1437
I91
sg1438
I0
sg1439
S'59/65'
p1449
ssssVOpera 9.7
p1450
(dp1451
S'summary_display'
p1452
S'0/149'
p1453
sS'total_runs'
p1454
L2L
sS'summary_score'
p1455
I0
sS'results'
p1456
(dp1457
S'unapply'
p1458
(dp1459
S'score'
p1460
I0
sS'raw_score'
p1461
I0
sS'display'
p1462
S'0/26'
p1463
ssS'apply'
p1464
(dp1465
g1460
I0
sg1461
I0
sg1462
S'0/41'
p1466
ssS'change'
p1467
(dp1468
g1460
I0
sg1461
I0
sg1462
S'0/17'
p1469
ssS'query'
p1470
(dp1471
g1460
I0
sg1461
I0
sg1462
S'0/65'
p1472
ssssVOpera 9.6
p1473
(dp1474
S'summary_display'
p1475
S'0/149'
p1476
sS'total_runs'
p1477
L1L
sS'summary_score'
p1478
I0
sS'results'
p1479
(dp1480
S'unapply'
p1481
(dp1482
S'score'
p1483
I0
sS'raw_score'
p1484
I0
sS'display'
p1485
S'0/26'
p1486
ssS'apply'
p1487
(dp1488
g1483
I0
sg1484
I0
sg1485
S'0/41'
p1489
ssS'change'
p1490
(dp1491
g1483
I0
sg1484
I0
sg1485
S'0/17'
p1492
ssS'query'
p1493
(dp1494
g1483
I0
sg1484
I0
sg1485
S'0/65'
p1495
ssssVOpera 9.5
p1496
(dp1497
S'summary_display'
p1498
S'0/149'
p1499
sS'total_runs'
p1500
L1L
sS'summary_score'
p1501
I0
sS'results'
p1502
(dp1503
S'unapply'
p1504
(dp1505
S'score'
p1506
I0
sS'raw_score'
p1507
I0
sS'display'
p1508
S'0/26'
p1509
ssS'apply'
p1510
(dp1511
g1506
I0
sg1507
I0
sg1508
S'0/41'
p1512
ssS'change'
p1513
(dp1514
g1506
I0
sg1507
I0
sg1508
S'0/17'
p1515
ssS'query'
p1516
(dp1517
g1506
I0
sg1507
I0
sg1508
S'0/65'
p1518
ssssVFirefox 3.0.5
p1519
(dp1520
S'summary_display'
p1521
S'117/149'
p1522
sS'total_runs'
p1523
L10L
sS'summary_score'
p1524
I79
sS'results'
p1525
(dp1526
S'unapply'
p1527
(dp1528
S'score'
p1529
I65
sS'raw_score'
p1530
I0
sS'display'
p1531
S'17/26'
p1532
ssS'apply'
p1533
(dp1534
g1529
I83
sg1530
I0
sg1531
S'34/41'
p1535
ssS'change'
p1536
(dp1537
g1529
I41
sg1530
I0
sg1531
S'7/17'
p1538
ssS'query'
p1539
(dp1540
g1529
I91
sg1530
I0
sg1531
S'59/65'
p1541
ssssVFirefox 3.0.4
p1542
(dp1543
S'summary_display'
p1544
S'117/149'
p1545
sS'total_runs'
p1546
L3L
sS'summary_score'
p1547
I79
sS'results'
p1548
(dp1549
S'unapply'
p1550
(dp1551
S'score'
p1552
I65
sS'raw_score'
p1553
I0
sS'display'
p1554
S'17/26'
p1555
ssS'apply'
p1556
(dp1557
g1552
I83
sg1553
I0
sg1554
S'34/41'
p1558
ssS'change'
p1559
(dp1560
g1552
I41
sg1553
I0
sg1554
S'7/17'
p1561
ssS'query'
p1562
(dp1563
g1552
I91
sg1553
I0
sg1554
S'59/65'
p1564
ssssVFirefox 3.0.7
p1565
(dp1566
S'summary_display'
p1567
S'117/149'
p1568
sS'total_runs'
p1569
L12L
sS'summary_score'
p1570
I79
sS'results'
p1571
(dp1572
S'unapply'
p1573
(dp1574
S'score'
p1575
I65
sS'raw_score'
p1576
I0
sS'display'
p1577
S'17/26'
p1578
ssS'apply'
p1579
(dp1580
g1575
I83
sg1576
I0
sg1577
S'34/41'
p1581
ssS'change'
p1582
(dp1583
g1575
I41
sg1576
I0
sg1577
S'7/17'
p1584
ssS'query'
p1585
(dp1586
g1575
I91
sg1576
I0
sg1577
S'59/65'
p1587
ssssVFirefox 3.0.6
p1588
(dp1589
S'summary_display'
p1590
S'117/149'
p1591
sS'total_runs'
p1592
L14L
sS'summary_score'
p1593
I79
sS'results'
p1594
(dp1595
S'unapply'
p1596
(dp1597
S'score'
p1598
I65
sS'raw_score'
p1599
I0
sS'display'
p1600
S'17/26'
p1601
ssS'apply'
p1602
(dp1603
g1598
I83
sg1599
I0
sg1600
S'34/41'
p1604
ssS'change'
p1605
(dp1606
g1598
I41
sg1599
I0
sg1600
S'7/17'
p1607
ssS'query'
p1608
(dp1609
g1598
I91
sg1599
I0
sg1600
S'59/65'
p1610
ssssVFirefox 3.0.1
p1611
(dp1612
S'summary_display'
p1613
S'117/149'
p1614
sS'total_runs'
p1615
L15L
sS'summary_score'
p1616
I79
sS'results'
p1617
(dp1618
S'unapply'
p1619
(dp1620
S'score'
p1621
I65
sS'raw_score'
p1622
I0
sS'display'
p1623
S'17/26'
p1624
ssS'apply'
p1625
(dp1626
g1621
I83
sg1622
I0
sg1623
S'34/41'
p1627
ssS'change'
p1628
(dp1629
g1621
I41
sg1622
I0
sg1623
S'7/17'
p1630
ssS'query'
p1631
(dp1632
g1621
I91
sg1622
I0
sg1623
S'59/65'
p1633
ssssVOpera Mini 4.2.13337
p1634
(dp1635
S'summary_display'
p1636
S'0/149'
p1637
sS'total_runs'
p1638
L1L
sS'summary_score'
p1639
I0
sS'results'
p1640
(dp1641
S'unapply'
p1642
(dp1643
S'score'
p1644
I0
sS'raw_score'
p1645
I0
sS'display'
p1646
S'0/26'
p1647
ssS'apply'
p1648
(dp1649
g1644
I0
sg1645
I0
sg1646
S'0/41'
p1650
ssS'change'
p1651
(dp1652
g1644
I0
sg1645
I0
sg1646
S'0/17'
p1653
ssS'query'
p1654
(dp1655
g1644
I0
sg1645
I0
sg1646
S'0/65'
p1656
ssssVFirefox 3.0.3
p1657
(dp1658
S'summary_display'
p1659
S'117/149'
p1660
sS'total_runs'
p1661
L10L
sS'summary_score'
p1662
I79
sS'results'
p1663
(dp1664
S'unapply'
p1665
(dp1666
S'score'
p1667
I65
sS'raw_score'
p1668
I0
sS'display'
p1669
S'17/26'
p1670
ssS'apply'
p1671
(dp1672
g1667
I83
sg1668
I0
sg1669
S'34/41'
p1673
ssS'change'
p1674
(dp1675
g1667
I41
sg1668
I0
sg1669
S'7/17'
p1676
ssS'query'
p1677
(dp1678
g1667
I91
sg1668
I0
sg1669
S'59/65'
p1679
ssssVFirefox 3.0.2
p1680
(dp1681
S'summary_display'
p1682
S'117/149'
p1683
sS'total_runs'
p1684
L3L
sS'summary_score'
p1685
I79
sS'results'
p1686
(dp1687
S'unapply'
p1688
(dp1689
S'score'
p1690
I65
sS'raw_score'
p1691
I0
sS'display'
p1692
S'17/26'
p1693
ssS'apply'
p1694
(dp1695
g1690
I83
sg1691
I0
sg1692
S'34/41'
p1696
ssS'change'
p1697
(dp1698
g1690
I41
sg1691
I0
sg1692
S'7/17'
p1699
ssS'query'
p1700
(dp1701
g1690
I91
sg1691
I0
sg1692
S'59/65'
p1702
ssssVFirefox 3.0.9
p1703
(dp1704
S'summary_display'
p1705
S'117/149'
p1706
sS'total_runs'
p1707
L4L
sS'summary_score'
p1708
I79
sS'results'
p1709
(dp1710
S'unapply'
p1711
(dp1712
S'score'
p1713
I65
sS'raw_score'
p1714
I0
sS'display'
p1715
S'17/26'
p1716
ssS'apply'
p1717
(dp1718
g1713
I83
sg1714
I0
sg1715
S'34/41'
p1719
ssS'change'
p1720
(dp1721
g1713
I41
sg1714
I0
sg1715
S'7/17'
p1722
ssS'query'
p1723
(dp1724
g1713
I91
sg1714
I0
sg1715
S'59/65'
p1725
ssssVFirefox 3.0.8
p1726
(dp1727
S'summary_display'
p1728
S'117/149'
p1729
sS'total_runs'
p1730
L8L
sS'summary_score'
p1731
I79
sS'results'
p1732
(dp1733
S'unapply'
p1734
(dp1735
S'score'
p1736
I65
sS'raw_score'
p1737
I0
sS'display'
p1738
S'17/26'
p1739
ssS'apply'
p1740
(dp1741
g1736
I83
sg1737
I0
sg1738
S'34/41'
p1742
ssS'change'
p1743
(dp1744
g1736
I41
sg1737
I0
sg1738
S'7/17'
p1745
ssS'query'
p1746
(dp1747
g1736
I91
sg1737
I0
sg1738
S'59/65'
p1748
ssssVChrome 4.0.264
p1749
(dp1750
S'summary_display'
p1751
S'129/149'
p1752
sS'total_runs'
p1753
L1L
sS'summary_score'
p1754
I87
sS'results'
p1755
(dp1756
S'unapply'
p1757
(dp1758
S'score'
p1759
I88
sS'raw_score'
p1760
I0
sS'display'
p1761
S'23/26'
p1762
ssS'apply'
p1763
(dp1764
g1759
I95
sg1760
I0
sg1761
S'39/41'
p1765
ssS'change'
p1766
(dp1767
g1759
I100
sg1760
I0
sg1761
S'17/17'
p1768
ssS'query'
p1769
(dp1770
g1759
I77
sg1760
I0
sg1761
S'50/65'
p1771
ssssVChrome 4.0.266
p1772
(dp1773
S'summary_display'
p1774
S'129/149'
p1775
sS'total_runs'
p1776
L33L
sS'summary_score'
p1777
I87
sS'results'
p1778
(dp1779
S'unapply'
p1780
(dp1781
S'score'
p1782
I88
sS'raw_score'
p1783
I0
sS'display'
p1784
S'23/26'
p1785
ssS'apply'
p1786
(dp1787
g1782
I95
sg1783
I0
sg1784
S'39/41'
p1788
ssS'change'
p1789
(dp1790
g1782
I100
sg1783
I0
sg1784
S'17/17'
p1791
ssS'query'
p1792
(dp1793
g1782
I77
sg1783
I0
sg1784
S'50/65'
p1794
ssssVChrome 4.0.267
p1795
(dp1796
S'summary_display'
p1797
S'129/149'
p1798
sS'total_runs'
p1799
L9L
sS'summary_score'
p1800
I87
sS'results'
p1801
(dp1802
S'unapply'
p1803
(dp1804
S'score'
p1805
I88
sS'raw_score'
p1806
I0
sS'display'
p1807
S'23/26'
p1808
ssS'apply'
p1809
(dp1810
g1805
I95
sg1806
I0
sg1807
S'39/41'
p1811
ssS'change'
p1812
(dp1813
g1805
I100
sg1806
I0
sg1807
S'17/17'
p1814
ssS'query'
p1815
(dp1816
g1805
I77
sg1806
I0
sg1807
S'50/65'
p1817
ssssVChrome 4.0.260
p1818
(dp1819
S'summary_display'
p1820
S'129/149'
p1821
sS'total_runs'
p1822
L1L
sS'summary_score'
p1823
I87
sS'results'
p1824
(dp1825
S'unapply'
p1826
(dp1827
S'score'
p1828
I88
sS'raw_score'
p1829
I0
sS'display'
p1830
S'23/26'
p1831
ssS'apply'
p1832
(dp1833
g1828
I95
sg1829
I0
sg1830
S'39/41'
p1834
ssS'change'
p1835
(dp1836
g1828
I100
sg1829
I0
sg1830
S'17/17'
p1837
ssS'query'
p1838
(dp1839
g1828
I77
sg1829
I0
sg1830
S'50/65'
p1840
ssssVChrome 4.0.261
p1841
(dp1842
S'summary_display'
p1843
S'129/149'
p1844
sS'total_runs'
p1845
L2L
sS'summary_score'
p1846
I87
sS'results'
p1847
(dp1848
S'unapply'
p1849
(dp1850
S'score'
p1851
I88
sS'raw_score'
p1852
I0
sS'display'
p1853
S'23/26'
p1854
ssS'apply'
p1855
(dp1856
g1851
I95
sg1852
I0
sg1853
S'39/41'
p1857
ssS'change'
p1858
(dp1859
g1851
I100
sg1852
I0
sg1853
S'17/17'
p1860
ssS'query'
p1861
(dp1862
g1851
I77
sg1852
I0
sg1853
S'50/65'
p1863
ssssVOpera Mini 4.2.14427
p1864
(dp1865
S'summary_display'
p1866
S'26/149'
p1867
sS'total_runs'
p1868
L1L
sS'summary_score'
p1869
I17
sS'results'
p1870
(dp1871
S'unapply'
p1872
(dp1873
S'score'
p1874
I100
sS'raw_score'
p1875
I0
sS'display'
p1876
S'26/26'
p1877
ssS'apply'
p1878
(dp1879
g1874
I0
sg1875
I0
sg1876
S'0/41'
p1880
ssS'change'
p1881
(dp1882
g1874
I0
sg1875
I0
sg1876
S'0/17'
p1883
ssS'query'
p1884
(dp1885
g1874
I0
sg1875
I0
sg1876
S'0/65'
p1886
ssssVChrome 4.0.306
p1887
(dp1888
S'summary_display'
p1889
S'129/149'
p1890
sS'total_runs'
p1891
L2L
sS'summary_score'
p1892
I87
sS'results'
p1893
(dp1894
S'unapply'
p1895
(dp1896
S'score'
p1897
I88
sS'raw_score'
p1898
I0
sS'display'
p1899
S'23/26'
p1900
ssS'apply'
p1901
(dp1902
g1897
I95
sg1898
I0
sg1899
S'39/41'
p1903
ssS'change'
p1904
(dp1905
g1897
I100
sg1898
I0
sg1899
S'17/17'
p1906
ssS'query'
p1907
(dp1908
g1897
I77
sg1898
I0
sg1899
S'50/65'
p1909
ssssVChrome 4.0.305
p1910
(dp1911
S'summary_display'
p1912
S'129/149'
p1913
sS'total_runs'
p1914
L2L
sS'summary_score'
p1915
I87
sS'results'
p1916
(dp1917
S'unapply'
p1918
(dp1919
S'score'
p1920
I88
sS'raw_score'
p1921
I0
sS'display'
p1922
S'23/26'
p1923
ssS'apply'
p1924
(dp1925
g1920
I95
sg1921
I0
sg1922
S'39/41'
p1926
ssS'change'
p1927
(dp1928
g1920
I100
sg1921
I0
sg1922
S'17/17'
p1929
ssS'query'
p1930
(dp1931
g1920
I77
sg1921
I0
sg1922
S'50/65'
p1932
ssssVChrome 4.0.304
p1933
(dp1934
S'summary_display'
p1935
S'129/149'
p1936
sS'total_runs'
p1937
L2L
sS'summary_score'
p1938
I87
sS'results'
p1939
(dp1940
S'unapply'
p1941
(dp1942
S'score'
p1943
I88
sS'raw_score'
p1944
I0
sS'display'
p1945
S'23/26'
p1946
ssS'apply'
p1947
(dp1948
g1943
I95
sg1944
I0
sg1945
S'39/41'
p1949
ssS'change'
p1950
(dp1951
g1943
I100
sg1944
I0
sg1945
S'17/17'
p1952
ssS'query'
p1953
(dp1954
g1943
I77
sg1944
I0
sg1945
S'50/65'
p1955
ssssVChrome 4.0.268
p1956
(dp1957
S'summary_display'
p1958
S'129/149'
p1959
sS'total_runs'
p1960
L2L
sS'summary_score'
p1961
I87
sS'results'
p1962
(dp1963
S'unapply'
p1964
(dp1965
S'score'
p1966
I88
sS'raw_score'
p1967
I0
sS'display'
p1968
S'23/26'
p1969
ssS'apply'
p1970
(dp1971
g1966
I95
sg1967
I0
sg1968
S'39/41'
p1972
ssS'change'
p1973
(dp1974
g1966
I100
sg1967
I0
sg1968
S'17/17'
p1975
ssS'query'
p1976
(dp1977
g1966
I77
sg1967
I0
sg1968
S'50/65'
p1978
ssssVChrome 4.0.302
p1979
(dp1980
S'summary_display'
p1981
S'129/149'
p1982
sS'total_runs'
p1983
L14L
sS'summary_score'
p1984
I87
sS'results'
p1985
(dp1986
S'unapply'
p1987
(dp1988
S'score'
p1989
I88
sS'raw_score'
p1990
I0
sS'display'
p1991
S'23/26'
p1992
ssS'apply'
p1993
(dp1994
g1989
I95
sg1990
I0
sg1991
S'39/41'
p1995
ssS'change'
p1996
(dp1997
g1989
I100
sg1990
I0
sg1991
S'17/17'
p1998
ssS'query'
p1999
(dp2000
g1989
I77
sg1990
I0
sg1991
S'50/65'
p2001
ssssVChrome 4.0.301
p2002
(dp2003
S'summary_display'
p2004
S'129/149'
p2005
sS'total_runs'
p2006
L1L
sS'summary_score'
p2007
I87
sS'results'
p2008
(dp2009
S'unapply'
p2010
(dp2011
S'score'
p2012
I88
sS'raw_score'
p2013
I0
sS'display'
p2014
S'23/26'
p2015
ssS'apply'
p2016
(dp2017
g2012
I95
sg2013
I0
sg2014
S'39/41'
p2018
ssS'change'
p2019
(dp2020
g2012
I100
sg2013
I0
sg2014
S'17/17'
p2021
ssS'query'
p2022
(dp2023
g2012
I77
sg2013
I0
sg2014
S'50/65'
p2024
ssssVOpera 10.20
p2025
(dp2026
S'summary_display'
p2027
S'89/149'
p2028
sS'total_runs'
p2029
L37L
sS'summary_score'
p2030
I60
sS'results'
p2031
(dp2032
S'unapply'
p2033
(dp2034
S'score'
p2035
I50
sS'raw_score'
p2036
I0
sS'display'
p2037
S'13/26'
p2038
ssS'apply'
p2039
(dp2040
g2035
I63
sg2036
I0
sg2037
S'26/41'
p2041
ssS'change'
p2042
(dp2043
g2035
I41
sg2036
I0
sg2037
S'7/17'
p2044
ssS'query'
p2045
(dp2046
g2035
I66
sg2036
I0
sg2037
S'43/65'
p2047
ssssVChrome 5.0.306
p2048
(dp2049
S'summary_display'
p2050
S'129/149'
p2051
sS'total_runs'
p2052
L2L
sS'summary_score'
p2053
I87
sS'results'
p2054
(dp2055
S'unapply'
p2056
(dp2057
S'score'
p2058
I88
sS'raw_score'
p2059
I0
sS'display'
p2060
S'23/26'
p2061
ssS'apply'
p2062
(dp2063
g2058
I95
sg2059
I0
sg2060
S'39/41'
p2064
ssS'change'
p2065
(dp2066
g2058
I100
sg2059
I0
sg2060
S'17/17'
p2067
ssS'query'
p2068
(dp2069
g2058
I77
sg2059
I0
sg2060
S'50/65'
p2070
ssssVNetscape 8.1.3
p2071
(dp2072
S'summary_display'
p2073
S'118/149'
p2074
sS'total_runs'
p2075
L1L
sS'summary_score'
p2076
I79
sS'results'
p2077
(dp2078
S'unapply'
p2079
(dp2080
S'score'
p2081
I65
sS'raw_score'
p2082
I0
sS'display'
p2083
S'17/26'
p2084
ssS'apply'
p2085
(dp2086
g2081
I85
sg2082
I0
sg2083
S'35/41'
p2087
ssS'change'
p2088
(dp2089
g2081
I41
sg2082
I0
sg2083
S'7/17'
p2090
ssS'query'
p2091
(dp2092
g2081
I91
sg2082
I0
sg2083
S'59/65'
p2093
ssssVChrome 4.0.288
p2094
(dp2095
S'summary_display'
p2096
S'129/149'
p2097
sS'total_runs'
p2098
L14L
sS'summary_score'
p2099
I87
sS'results'
p2100
(dp2101
S'unapply'
p2102
(dp2103
S'score'
p2104
I88
sS'raw_score'
p2105
I0
sS'display'
p2106
S'23/26'
p2107
ssS'apply'
p2108
(dp2109
g2104
I95
sg2105
I0
sg2106
S'39/41'
p2110
ssS'change'
p2111
(dp2112
g2104
I100
sg2105
I0
sg2106
S'17/17'
p2113
ssS'query'
p2114
(dp2115
g2104
I77
sg2105
I0
sg2106
S'50/65'
p2116
ssssVChrome 4.0.289
p2117
(dp2118
S'summary_display'
p2119
S'129/149'
p2120
sS'total_runs'
p2121
L1L
sS'summary_score'
p2122
I87
sS'results'
p2123
(dp2124
S'unapply'
p2125
(dp2126
S'score'
p2127
I88
sS'raw_score'
p2128
I0
sS'display'
p2129
S'23/26'
p2130
ssS'apply'
p2131
(dp2132
g2127
I95
sg2128
I0
sg2129
S'39/41'
p2133
ssS'change'
p2134
(dp2135
g2127
I100
sg2128
I0
sg2129
S'17/17'
p2136
ssS'query'
p2137
(dp2138
g2127
I77
sg2128
I0
sg2129
S'50/65'
p2139
ssssVFirefox (Minefield) 3.6a1pre
p2140
(dp2141
S'summary_display'
p2142
S'117/149'
p2143
sS'total_runs'
p2144
L8L
sS'summary_score'
p2145
I79
sS'results'
p2146
(dp2147
S'unapply'
p2148
(dp2149
S'score'
p2150
I65
sS'raw_score'
p2151
I0
sS'display'
p2152
S'17/26'
p2153
ssS'apply'
p2154
(dp2155
g2150
I83
sg2151
I0
sg2152
S'34/41'
p2156
ssS'change'
p2157
(dp2158
g2150
I41
sg2151
I0
sg2152
S'7/17'
p2159
ssS'query'
p2160
(dp2161
g2150
I91
sg2151
I0
sg2152
S'59/65'
p2162
ssssVChrome 4.0.285
p2163
(dp2164
S'summary_display'
p2165
S'129/149'
p2166
sS'total_runs'
p2167
L1L
sS'summary_score'
p2168
I87
sS'results'
p2169
(dp2170
S'unapply'
p2171
(dp2172
S'score'
p2173
I88
sS'raw_score'
p2174
I0
sS'display'
p2175
S'23/26'
p2176
ssS'apply'
p2177
(dp2178
g2173
I95
sg2174
I0
sg2175
S'39/41'
p2179
ssS'change'
p2180
(dp2181
g2173
I100
sg2174
I0
sg2175
S'17/17'
p2182
ssS'query'
p2183
(dp2184
g2173
I77
sg2174
I0
sg2175
S'50/65'
p2185
ssssVChrome 4.0.282
p2186
(dp2187
S'summary_display'
p2188
S'129/149'
p2189
sS'total_runs'
p2190
L2L
sS'summary_score'
p2191
I87
sS'results'
p2192
(dp2193
S'unapply'
p2194
(dp2195
S'score'
p2196
I88
sS'raw_score'
p2197
I0
sS'display'
p2198
S'23/26'
p2199
ssS'apply'
p2200
(dp2201
g2196
I95
sg2197
I0
sg2198
S'39/41'
p2202
ssS'change'
p2203
(dp2204
g2196
I100
sg2197
I0
sg2198
S'17/17'
p2205
ssS'query'
p2206
(dp2207
g2196
I77
sg2197
I0
sg2198
S'50/65'
p2208
ssssVChrome 4.0.283
p2209
(dp2210
S'summary_display'
p2211
S'129/149'
p2212
sS'total_runs'
p2213
L3L
sS'summary_score'
p2214
I87
sS'results'
p2215
(dp2216
S'unapply'
p2217
(dp2218
S'score'
p2219
I88
sS'raw_score'
p2220
I0
sS'display'
p2221
S'23/26'
p2222
ssS'apply'
p2223
(dp2224
g2219
I95
sg2220
I0
sg2221
S'39/41'
p2225
ssS'change'
p2226
(dp2227
g2219
I100
sg2220
I0
sg2221
S'17/17'
p2228
ssS'query'
p2229
(dp2230
g2219
I77
sg2220
I0
sg2221
S'50/65'
p2231
ssssVChrome 4.0.280
p2232
(dp2233
S'summary_display'
p2234
S'129/149'
p2235
sS'total_runs'
p2236
L1L
sS'summary_score'
p2237
I87
sS'results'
p2238
(dp2239
S'unapply'
p2240
(dp2241
S'score'
p2242
I88
sS'raw_score'
p2243
I0
sS'display'
p2244
S'23/26'
p2245
ssS'apply'
p2246
(dp2247
g2242
I95
sg2243
I0
sg2244
S'39/41'
p2248
ssS'change'
p2249
(dp2250
g2242
I100
sg2243
I0
sg2244
S'17/17'
p2251
ssS'query'
p2252
(dp2253
g2242
I77
sg2243
I0
sg2244
S'50/65'
p2254
ssssVChrome 4.0.281
p2255
(dp2256
S'summary_display'
p2257
S'129/149'
p2258
sS'total_runs'
p2259
L1L
sS'summary_score'
p2260
I87
sS'results'
p2261
(dp2262
S'unapply'
p2263
(dp2264
S'score'
p2265
I88
sS'raw_score'
p2266
I0
sS'display'
p2267
S'23/26'
p2268
ssS'apply'
p2269
(dp2270
g2265
I95
sg2266
I0
sg2267
S'39/41'
p2271
ssS'change'
p2272
(dp2273
g2265
I100
sg2266
I0
sg2267
S'17/17'
p2274
ssS'query'
p2275
(dp2276
g2265
I77
sg2266
I0
sg2267
S'50/65'
p2277
ssssVOpera 9.70
p2278
(dp2279
S'summary_display'
p2280
S'88/149'
p2281
sS'total_runs'
p2282
L1L
sS'summary_score'
p2283
I59
sS'results'
p2284
(dp2285
S'unapply'
p2286
(dp2287
S'score'
p2288
I50
sS'raw_score'
p2289
I0
sS'display'
p2290
S'13/26'
p2291
ssS'apply'
p2292
(dp2293
g2288
I63
sg2289
I0
sg2290
S'26/41'
p2294
ssS'change'
p2295
(dp2296
g2288
I41
sg2289
I0
sg2290
S'7/17'
p2297
ssS'query'
p2298
(dp2299
g2288
I65
sg2289
I0
sg2290
S'42/65'
p2300
ssssVLunascape 6.0.1
p2301
(dp2302
S'summary_display'
p2303
S'112/149'
p2304
sS'total_runs'
p2305
L7L
sS'summary_score'
p2306
I75
sS'results'
p2307
(dp2308
S'unapply'
p2309
(dp2310
S'score'
p2311
I65
sS'raw_score'
p2312
I0
sS'display'
p2313
S'17/26'
p2314
ssS'apply'
p2315
(dp2316
g2311
I83
sg2312
I0
sg2313
S'34/41'
p2317
ssS'change'
p2318
(dp2319
g2311
I41
sg2312
I0
sg2313
S'7/17'
p2320
ssS'query'
p2321
(dp2322
g2311
I83
sg2312
I0
sg2313
S'54/65'
p2323
ssssVLunascape 6.0.0
p2324
(dp2325
S'summary_display'
p2326
S'117/149'
p2327
sS'total_runs'
p2328
L4L
sS'summary_score'
p2329
I79
sS'results'
p2330
(dp2331
S'unapply'
p2332
(dp2333
S'score'
p2334
I65
sS'raw_score'
p2335
I0
sS'display'
p2336
S'17/26'
p2337
ssS'apply'
p2338
(dp2339
g2334
I83
sg2335
I0
sg2336
S'34/41'
p2340
ssS'change'
p2341
(dp2342
g2334
I41
sg2335
I0
sg2336
S'7/17'
p2343
ssS'query'
p2344
(dp2345
g2334
I91
sg2335
I0
sg2336
S'59/65'
p2346
ssssVIron 4.0.227
p2347
(dp2348
S'summary_display'
p2349
S'129/149'
p2350
sS'total_runs'
p2351
L10L
sS'summary_score'
p2352
I87
sS'results'
p2353
(dp2354
S'unapply'
p2355
(dp2356
S'score'
p2357
I88
sS'raw_score'
p2358
I0
sS'display'
p2359
S'23/26'
p2360
ssS'apply'
p2361
(dp2362
g2357
I95
sg2358
I0
sg2359
S'39/41'
p2363
ssS'change'
p2364
(dp2365
g2357
I100
sg2358
I0
sg2359
S'17/17'
p2366
ssS'query'
p2367
(dp2368
g2357
I77
sg2358
I0
sg2359
S'50/65'
p2369
ssssVIE 6.0
p2370
(dp2371
S'summary_display'
p2372
S'99/149'
p2373
sS'total_runs'
p2374
L104L
sS'summary_score'
p2375
I66
sS'results'
p2376
(dp2377
S'unapply'
p2378
(dp2379
S'score'
p2380
I54
sS'raw_score'
p2381
I0
sS'display'
p2382
S'14/26'
p2383
ssS'apply'
p2384
(dp2385
g2380
I59
sg2381
I0
sg2382
S'24/41'
p2386
ssS'change'
p2387
(dp2388
g2380
I29
sg2381
I0
sg2382
S'5/17'
p2389
ssS'query'
p2390
(dp2391
g2380
I86
sg2381
I0
sg2382
S'56/65'
p2392
ssssVShiira 0
p2393
(dp2394
S'summary_display'
p2395
S'125/149'
p2396
sS'total_runs'
p2397
L1L
sS'summary_score'
p2398
I84
sS'results'
p2399
(dp2400
S'unapply'
p2401
(dp2402
S'score'
p2403
I73
sS'raw_score'
p2404
I0
sS'display'
p2405
S'19/26'
p2406
ssS'apply'
p2407
(dp2408
g2403
I95
sg2404
I0
sg2405
S'39/41'
p2409
ssS'change'
p2410
(dp2411
g2403
I100
sg2404
I0
sg2405
S'17/17'
p2412
ssS'query'
p2413
(dp2414
g2403
I77
sg2404
I0
sg2405
S'50/65'
p2415
ssssVIE 4.0
p2416
(dp2417
S'summary_display'
p2418
S'64/149'
p2419
sS'total_runs'
p2420
L1L
sS'summary_score'
p2421
I43
sS'results'
p2422
(dp2423
S'unapply'
p2424
(dp2425
S'score'
p2426
I4
sS'raw_score'
p2427
I0
sS'display'
p2428
S'1/26'
p2429
ssS'apply'
p2430
(dp2431
g2426
I71
sg2427
I0
sg2428
S'29/41'
p2432
ssS'change'
p2433
(dp2434
g2426
I0
sg2427
I0
sg2428
S'0/17'
p2435
ssS'query'
p2436
(dp2437
g2426
I52
sg2427
I0
sg2428
S'34/65'
p2438
ssssVOpera Mini 4.0.10406
p2439
(dp2440
S'summary_display'
p2441
S'26/149'
p2442
sS'total_runs'
p2443
L1L
sS'summary_score'
p2444
I17
sS'results'
p2445
(dp2446
S'unapply'
p2447
(dp2448
S'score'
p2449
I100
sS'raw_score'
p2450
I0
sS'display'
p2451
S'26/26'
p2452
ssS'apply'
p2453
(dp2454
g2449
I0
sg2450
I0
sg2451
S'0/41'
p2455
ssS'change'
p2456
(dp2457
g2449
I0
sg2450
I0
sg2451
S'0/17'
p2458
ssS'query'
p2459
(dp2460
g2449
I0
sg2450
I0
sg2451
S'0/65'
p2461
ssssVFirefox 1.5.0
p2462
(dp2463
S'summary_display'
p2464
S'117/149'
p2465
sS'total_runs'
p2466
L4L
sS'summary_score'
p2467
I79
sS'results'
p2468
(dp2469
S'unapply'
p2470
(dp2471
S'score'
p2472
I65
sS'raw_score'
p2473
I0
sS'display'
p2474
S'17/26'
p2475
ssS'apply'
p2476
(dp2477
g2472
I83
sg2473
I0
sg2474
S'34/41'
p2478
ssS'change'
p2479
(dp2480
g2472
I41
sg2473
I0
sg2474
S'7/17'
p2481
ssS'query'
p2482
(dp2483
g2472
I91
sg2473
I0
sg2474
S'59/65'
p2484
ssssVFlock 1.2.7
p2485
(dp2486
S'summary_display'
p2487
S'117/149'
p2488
sS'total_runs'
p2489
L1L
sS'summary_score'
p2490
I79
sS'results'
p2491
(dp2492
S'unapply'
p2493
(dp2494
S'score'
p2495
I65
sS'raw_score'
p2496
I0
sS'display'
p2497
S'17/26'
p2498
ssS'apply'
p2499
(dp2500
g2495
I83
sg2496
I0
sg2497
S'34/41'
p2501
ssS'change'
p2502
(dp2503
g2495
I41
sg2496
I0
sg2497
S'7/17'
p2504
ssS'query'
p2505
(dp2506
g2495
I91
sg2496
I0
sg2497
S'59/65'
p2507
ssssViPhone 2.2
p2508
(dp2509
S'summary_display'
p2510
S'104/149'
p2511
sS'total_runs'
p2512
L8L
sS'summary_score'
p2513
I70
sS'results'
p2514
(dp2515
S'unapply'
p2516
(dp2517
S'score'
p2518
I35
sS'raw_score'
p2519
I0
sS'display'
p2520
S'9/26'
p2521
ssS'apply'
p2522
(dp2523
g2518
I68
sg2519
I0
sg2520
S'28/41'
p2524
ssS'change'
p2525
(dp2526
g2518
I100
sg2519
I0
sg2520
S'17/17'
p2527
ssS'query'
p2528
(dp2529
g2518
I77
sg2519
I0
sg2520
S'50/65'
p2530
ssssVNetscape 9.0.0
p2531
(dp2532
S'summary_display'
p2533
S'117/149'
p2534
sS'total_runs'
p2535
L1L
sS'summary_score'
p2536
I79
sS'results'
p2537
(dp2538
S'unapply'
p2539
(dp2540
S'score'
p2541
I65
sS'raw_score'
p2542
I0
sS'display'
p2543
S'17/26'
p2544
ssS'apply'
p2545
(dp2546
g2541
I83
sg2542
I0
sg2543
S'34/41'
p2547
ssS'change'
p2548
(dp2549
g2541
I41
sg2542
I0
sg2543
S'7/17'
p2550
ssS'query'
p2551
(dp2552
g2541
I91
sg2542
I0
sg2543
S'59/65'
p2553
ssssVNetNewsWire 3.2.1
p2554
(dp2555
S'summary_display'
p2556
S'125/149'
p2557
sS'total_runs'
p2558
L1L
sS'summary_score'
p2559
I84
sS'results'
p2560
(dp2561
S'unapply'
p2562
(dp2563
S'score'
p2564
I73
sS'raw_score'
p2565
I0
sS'display'
p2566
S'19/26'
p2567
ssS'apply'
p2568
(dp2569
g2564
I95
sg2565
I0
sg2566
S'39/41'
p2570
ssS'change'
p2571
(dp2572
g2564
I100
sg2565
I0
sg2566
S'17/17'
p2573
ssS'query'
p2574
(dp2575
g2564
I77
sg2565
I0
sg2566
S'50/65'
p2576
ssssVAndroid 1.5
p2577
(dp2578
S'summary_display'
p2579
S'118/149'
p2580
sS'total_runs'
p2581
L25L
sS'summary_score'
p2582
I79
sS'results'
p2583
(dp2584
S'unapply'
p2585
(dp2586
S'score'
p2587
I65
sS'raw_score'
p2588
I0
sS'display'
p2589
S'17/26'
p2590
ssS'apply'
p2591
(dp2592
g2587
I83
sg2588
I0
sg2589
S'34/41'
p2593
ssS'change'
p2594
(dp2595
g2587
I100
sg2588
I0
sg2589
S'17/17'
p2596
ssS'query'
p2597
(dp2598
g2587
I77
sg2588
I0
sg2589
S'50/65'
p2599
ssssVAndroid 1.6
p2600
(dp2601
S'summary_display'
p2602
S'118/149'
p2603
sS'total_runs'
p2604
L12L
sS'summary_score'
p2605
I79
sS'results'
p2606
(dp2607
S'unapply'
p2608
(dp2609
S'score'
p2610
I65
sS'raw_score'
p2611
I0
sS'display'
p2612
S'17/26'
p2613
ssS'apply'
p2614
(dp2615
g2610
I83
sg2611
I0
sg2612
S'34/41'
p2616
ssS'change'
p2617
(dp2618
g2610
I100
sg2611
I0
sg2612
S'17/17'
p2619
ssS'query'
p2620
(dp2621
g2610
I77
sg2611
I0
sg2612
S'50/65'
p2622
ssssVAndroid 1.1
p2623
(dp2624
S'summary_display'
p2625
S'103/149'
p2626
sS'total_runs'
p2627
L2L
sS'summary_score'
p2628
I69
sS'results'
p2629
(dp2630
S'unapply'
p2631
(dp2632
S'score'
p2633
I35
sS'raw_score'
p2634
I0
sS'display'
p2635
S'9/26'
p2636
ssS'apply'
p2637
(dp2638
g2633
I68
sg2634
I0
sg2635
S'28/41'
p2639
ssS'change'
p2640
(dp2641
g2633
I94
sg2634
I0
sg2635
S'16/17'
p2642
ssS'query'
p2643
(dp2644
g2633
I77
sg2634
I0
sg2635
S'50/65'
p2645
ssssViPhone 3.1.1
p2646
(dp2647
S'summary_display'
p2648
S'118/149'
p2649
sS'total_runs'
p2650
L3L
sS'summary_score'
p2651
I79
sS'results'
p2652
(dp2653
S'unapply'
p2654
(dp2655
S'score'
p2656
I65
sS'raw_score'
p2657
I0
sS'display'
p2658
S'17/26'
p2659
ssS'apply'
p2660
(dp2661
g2656
I83
sg2657
I0
sg2658
S'34/41'
p2662
ssS'change'
p2663
(dp2664
g2656
I100
sg2657
I0
sg2658
S'17/17'
p2665
ssS'query'
p2666
(dp2667
g2656
I77
sg2657
I0
sg2658
S'50/65'
p2668
ssssViPhone 3.1.2
p2669
(dp2670
S'summary_display'
p2671
S'118/149'
p2672
sS'total_runs'
p2673
L42L
sS'summary_score'
p2674
I79
sS'results'
p2675
(dp2676
S'unapply'
p2677
(dp2678
S'score'
p2679
I65
sS'raw_score'
p2680
I0
sS'display'
p2681
S'17/26'
p2682
ssS'apply'
p2683
(dp2684
g2679
I83
sg2680
I0
sg2681
S'34/41'
p2685
ssS'change'
p2686
(dp2687
g2679
I100
sg2680
I0
sg2681
S'17/17'
p2688
ssS'query'
p2689
(dp2690
g2679
I77
sg2680
I0
sg2681
S'50/65'
p2691
ssssVIceweasel 3.0.6
p2692
(dp2693
S'summary_display'
p2694
S'117/149'
p2695
sS'total_runs'
p2696
L17L
sS'summary_score'
p2697
I79
sS'results'
p2698
(dp2699
S'unapply'
p2700
(dp2701
S'score'
p2702
I65
sS'raw_score'
p2703
I0
sS'display'
p2704
S'17/26'
p2705
ssS'apply'
p2706
(dp2707
g2702
I83
sg2703
I0
sg2704
S'34/41'
p2708
ssS'change'
p2709
(dp2710
g2702
I41
sg2703
I0
sg2704
S'7/17'
p2711
ssS'query'
p2712
(dp2713
g2702
I91
sg2703
I0
sg2704
S'59/65'
p2714
ssssVIceweasel 3.0.5
p2715
(dp2716
S'summary_display'
p2717
S'117/149'
p2718
sS'total_runs'
p2719
L1L
sS'summary_score'
p2720
I79
sS'results'
p2721
(dp2722
S'unapply'
p2723
(dp2724
S'score'
p2725
I65
sS'raw_score'
p2726
I0
sS'display'
p2727
S'17/26'
p2728
ssS'apply'
p2729
(dp2730
g2725
I83
sg2726
I0
sg2727
S'34/41'
p2731
ssS'change'
p2732
(dp2733
g2725
I41
sg2726
I0
sg2727
S'7/17'
p2734
ssS'query'
p2735
(dp2736
g2725
I91
sg2726
I0
sg2727
S'59/65'
p2737
ssssVIE 8.0
p2738
(dp2739
S'summary_display'
p2740
S'99/149'
p2741
sS'total_runs'
p2742
L474L
sS'summary_score'
p2743
I66
sS'results'
p2744
(dp2745
S'unapply'
p2746
(dp2747
S'score'
p2748
I54
sS'raw_score'
p2749
I0
sS'display'
p2750
S'14/26'
p2751
ssS'apply'
p2752
(dp2753
g2748
I59
sg2749
I0
sg2750
S'24/41'
p2754
ssS'change'
p2755
(dp2756
g2748
I29
sg2749
I0
sg2750
S'5/17'
p2757
ssS'query'
p2758
(dp2759
g2748
I86
sg2749
I0
sg2750
S'56/65'
p2760
ssssVFirefox 2.0.0
p2761
(dp2762
S'summary_display'
p2763
S'117/149'
p2764
sS'total_runs'
p2765
L39L
sS'summary_score'
p2766
I79
sS'results'
p2767
(dp2768
S'unapply'
p2769
(dp2770
S'score'
p2771
I65
sS'raw_score'
p2772
I0
sS'display'
p2773
S'17/26'
p2774
ssS'apply'
p2775
(dp2776
g2771
I83
sg2772
I0
sg2773
S'34/41'
p2777
ssS'change'
p2778
(dp2779
g2771
I41
sg2772
I0
sg2773
S'7/17'
p2780
ssS'query'
p2781
(dp2782
g2771
I91
sg2772
I0
sg2773
S'59/65'
p2783
ssssVChrome 1.0.154
p2784
(dp2785
S'summary_display'
p2786
S'104/149'
p2787
sS'total_runs'
p2788
L10L
sS'summary_score'
p2789
I70
sS'results'
p2790
(dp2791
S'unapply'
p2792
(dp2793
S'score'
p2794
I35
sS'raw_score'
p2795
I0
sS'display'
p2796
S'9/26'
p2797
ssS'apply'
p2798
(dp2799
g2794
I68
sg2795
I0
sg2796
S'28/41'
p2800
ssS'change'
p2801
(dp2802
g2794
I100
sg2795
I0
sg2796
S'17/17'
p2803
ssS'query'
p2804
(dp2805
g2794
I77
sg2795
I0
sg2796
S'50/65'
p2806
ssssVCamino 2.0b3
p2807
(dp2808
S'summary_display'
p2809
S'117/149'
p2810
sS'total_runs'
p2811
L1L
sS'summary_score'
p2812
I79
sS'results'
p2813
(dp2814
S'unapply'
p2815
(dp2816
S'score'
p2817
I65
sS'raw_score'
p2818
I0
sS'display'
p2819
S'17/26'
p2820
ssS'apply'
p2821
(dp2822
g2817
I83
sg2818
I0
sg2819
S'34/41'
p2823
ssS'change'
p2824
(dp2825
g2817
I41
sg2818
I0
sg2819
S'7/17'
p2826
ssS'query'
p2827
(dp2828
g2817
I91
sg2818
I0
sg2819
S'59/65'
p2829
ssssVSafari 4.0
p2830
(dp2831
S'summary_display'
p2832
S'125/149'
p2833
sS'total_runs'
p2834
L984L
sS'summary_score'
p2835
I84
sS'results'
p2836
(dp2837
S'unapply'
p2838
(dp2839
S'score'
p2840
I73
sS'raw_score'
p2841
I0
sS'display'
p2842
S'19/26'
p2843
ssS'apply'
p2844
(dp2845
g2840
I95
sg2841
I0
sg2842
S'39/41'
p2846
ssS'change'
p2847
(dp2848
g2840
I100
sg2841
I0
sg2842
S'17/17'
p2849
ssS'query'
p2850
(dp2851
g2840
I77
sg2841
I0
sg2842
S'50/65'
p2852
ssssVSleipnir 2.9.2
p2853
(dp2854
S'summary_display'
p2855
S'99/149'
p2856
sS'total_runs'
p2857
L1L
sS'summary_score'
p2858
I66
sS'results'
p2859
(dp2860
S'unapply'
p2861
(dp2862
S'score'
p2863
I54
sS'raw_score'
p2864
I0
sS'display'
p2865
S'14/26'
p2866
ssS'apply'
p2867
(dp2868
g2863
I59
sg2864
I0
sg2865
S'24/41'
p2869
ssS'change'
p2870
(dp2871
g2863
I29
sg2864
I0
sg2865
S'5/17'
p2872
ssS'query'
p2873
(dp2874
g2863
I86
sg2864
I0
sg2865
S'56/65'
p2875
ssssVMaemo Browser 1.4.1
p2876
(dp2877
S'summary_display'
p2878
S'118/149'
p2879
sS'total_runs'
p2880
L1L
sS'summary_score'
p2881
I79
sS'results'
p2882
(dp2883
S'unapply'
p2884
(dp2885
S'score'
p2886
I65
sS'raw_score'
p2887
I0
sS'display'
p2888
S'17/26'
p2889
ssS'apply'
p2890
(dp2891
g2886
I83
sg2887
I0
sg2888
S'34/41'
p2892
ssS'change'
p2893
(dp2894
g2886
I41
sg2887
I0
sg2888
S'7/17'
p2895
ssS'query'
p2896
(dp2897
g2886
I92
sg2887
I0
sg2888
S'60/65'
p2898
ssssVKonqueror 3.5
p2899
(dp2900
S'summary_display'
p2901
S'0/149'
p2902
sS'total_runs'
p2903
L10L
sS'summary_score'
p2904
I0
sS'results'
p2905
(dp2906
S'unapply'
p2907
(dp2908
S'score'
p2909
I0
sS'raw_score'
p2910
I0
sS'display'
p2911
S'0/26'
p2912
ssS'apply'
p2913
(dp2914
g2909
I0
sg2910
I0
sg2911
S'0/41'
p2915
ssS'change'
p2916
(dp2917
g2909
I0
sg2910
I0
sg2911
S'0/17'
p2918
ssS'query'
p2919
(dp2920
g2909
I0
sg2910
I0
sg2911
S'0/65'
p2921
ssssVOpera 8.54
p2922
(dp2923
S'summary_display'
p2924
S'0/149'
p2925
sS'total_runs'
p2926
L1L
sS'summary_score'
p2927
I0
sS'results'
p2928
(dp2929
S'unapply'
p2930
(dp2931
S'score'
p2932
I0
sS'raw_score'
p2933
I0
sS'display'
p2934
S'0/26'
p2935
ssS'apply'
p2936
(dp2937
g2932
I0
sg2933
I0
sg2934
S'0/41'
p2938
ssS'change'
p2939
(dp2940
g2932
I0
sg2933
I0
sg2934
S'0/17'
p2941
ssS'query'
p2942
(dp2943
g2932
I0
sg2933
I0
sg2934
S'0/65'
p2944
ssssVOpera Mini 4.2.13057
p2945
(dp2946
S'summary_display'
p2947
S'0/149'
p2948
sS'total_runs'
p2949
L1L
sS'summary_score'
p2950
I0
sS'results'
p2951
(dp2952
S'unapply'
p2953
(dp2954
S'score'
p2955
I0
sS'raw_score'
p2956
I0
sS'display'
p2957
S'0/26'
p2958
ssS'apply'
p2959
(dp2960
g2955
I0
sg2956
I0
sg2957
S'0/41'
p2961
ssS'change'
p2962
(dp2963
g2955
I0
sg2956
I0
sg2957
S'0/17'
p2964
ssS'query'
p2965
(dp2966
g2955
I0
sg2956
I0
sg2957
S'0/65'
p2967
ssssVCamino 2.0.1
p2968
(dp2969
S'summary_display'
p2970
S'117/149'
p2971
sS'total_runs'
p2972
L1L
sS'summary_score'
p2973
I79
sS'results'
p2974
(dp2975
S'unapply'
p2976
(dp2977
S'score'
p2978
I65
sS'raw_score'
p2979
I0
sS'display'
p2980
S'17/26'
p2981
ssS'apply'
p2982
(dp2983
g2978
I83
sg2979
I0
sg2980
S'34/41'
p2984
ssS'change'
p2985
(dp2986
g2978
I41
sg2979
I0
sg2980
S'7/17'
p2987
ssS'query'
p2988
(dp2989
g2978
I91
sg2979
I0
sg2980
S'59/65'
p2990
ssssVSeaMonkey 2.0b2pre
p2991
(dp2992
S'summary_display'
p2993
S'117/149'
p2994
sS'total_runs'
p2995
L1L
sS'summary_score'
p2996
I79
sS'results'
p2997
(dp2998
S'unapply'
p2999
(dp3000
S'score'
p3001
I65
sS'raw_score'
p3002
I0
sS'display'
p3003
S'17/26'
p3004
ssS'apply'
p3005
(dp3006
g3001
I83
sg3002
I0
sg3003
S'34/41'
p3007
ssS'change'
p3008
(dp3009
g3001
I41
sg3002
I0
sg3003
S'7/17'
p3010
ssS'query'
p3011
(dp3012
g3001
I91
sg3002
I0
sg3003
S'59/65'
p3013
ssssVChrome 4.0.239
p3014
(dp3015
S'summary_display'
p3016
S'129/149'
p3017
sS'total_runs'
p3018
L2L
sS'summary_score'
p3019
I87
sS'results'
p3020
(dp3021
S'unapply'
p3022
(dp3023
S'score'
p3024
I88
sS'raw_score'
p3025
I0
sS'display'
p3026
S'23/26'
p3027
ssS'apply'
p3028
(dp3029
g3024
I95
sg3025
I0
sg3026
S'39/41'
p3030
ssS'change'
p3031
(dp3032
g3024
I100
sg3025
I0
sg3026
S'17/17'
p3033
ssS'query'
p3034
(dp3035
g3024
I77
sg3025
I0
sg3026
S'50/65'
p3036
ssssVChrome 4.0.237
p3037
(dp3038
S'summary_display'
p3039
S'129/149'
p3040
sS'total_runs'
p3041
L93L
sS'summary_score'
p3042
I87
sS'results'
p3043
(dp3044
S'unapply'
p3045
(dp3046
S'score'
p3047
I88
sS'raw_score'
p3048
I0
sS'display'
p3049
S'23/26'
p3050
ssS'apply'
p3051
(dp3052
g3047
I95
sg3048
I0
sg3049
S'39/41'
p3053
ssS'change'
p3054
(dp3055
g3047
I100
sg3048
I0
sg3049
S'17/17'
p3056
ssS'query'
p3057
(dp3058
g3047
I77
sg3048
I0
sg3049
S'50/65'
p3059
ssssVChrome 4.0.235
p3060
(dp3061
S'summary_display'
p3062
S'129/149'
p3063
sS'total_runs'
p3064
L1L
sS'summary_score'
p3065
I87
sS'results'
p3066
(dp3067
S'unapply'
p3068
(dp3069
S'score'
p3070
I88
sS'raw_score'
p3071
I0
sS'display'
p3072
S'23/26'
p3073
ssS'apply'
p3074
(dp3075
g3070
I95
sg3071
I0
sg3072
S'39/41'
p3076
ssS'change'
p3077
(dp3078
g3070
I100
sg3071
I0
sg3072
S'17/17'
p3079
ssS'query'
p3080
(dp3081
g3070
I77
sg3071
I0
sg3072
S'50/65'
p3082
ssssVChrome 4.0.233
p3083
(dp3084
S'summary_display'
p3085
S'129/149'
p3086
sS'total_runs'
p3087
L1L
sS'summary_score'
p3088
I87
sS'results'
p3089
(dp3090
S'unapply'
p3091
(dp3092
S'score'
p3093
I88
sS'raw_score'
p3094
I0
sS'display'
p3095
S'23/26'
p3096
ssS'apply'
p3097
(dp3098
g3093
I95
sg3094
I0
sg3095
S'39/41'
p3099
ssS'change'
p3100
(dp3101
g3093
I100
sg3094
I0
sg3095
S'17/17'
p3102
ssS'query'
p3103
(dp3104
g3093
I77
sg3094
I0
sg3095
S'50/65'
p3105
ssssVChrome 4.0.232
p3106
(dp3107
S'summary_display'
p3108
S'129/149'
p3109
sS'total_runs'
p3110
L1L
sS'summary_score'
p3111
I87
sS'results'
p3112
(dp3113
S'unapply'
p3114
(dp3115
S'score'
p3116
I88
sS'raw_score'
p3117
I0
sS'display'
p3118
S'23/26'
p3119
ssS'apply'
p3120
(dp3121
g3116
I95
sg3117
I0
sg3118
S'39/41'
p3122
ssS'change'
p3123
(dp3124
g3116
I100
sg3117
I0
sg3118
S'17/17'
p3125
ssS'query'
p3126
(dp3127
g3116
I77
sg3117
I0
sg3118
S'50/65'
p3128
ssssVChrome 4.0.231
p3129
(dp3130
S'summary_display'
p3131
S'129/149'
p3132
sS'total_runs'
p3133
L1L
sS'summary_score'
p3134
I87
sS'results'
p3135
(dp3136
S'unapply'
p3137
(dp3138
S'score'
p3139
I88
sS'raw_score'
p3140
I0
sS'display'
p3141
S'23/26'
p3142
ssS'apply'
p3143
(dp3144
g3139
I95
sg3140
I0
sg3141
S'39/41'
p3145
ssS'change'
p3146
(dp3147
g3139
I100
sg3140
I0
sg3141
S'17/17'
p3148
ssS'query'
p3149
(dp3150
g3139
I77
sg3140
I0
sg3141
S'50/65'
p3151
ssssVMicroB 0.3.7
p3152
(dp3153
S'summary_display'
p3154
S'118/149'
p3155
sS'total_runs'
p3156
L1L
sS'summary_score'
p3157
I79
sS'results'
p3158
(dp3159
S'unapply'
p3160
(dp3161
S'score'
p3162
I65
sS'raw_score'
p3163
I0
sS'display'
p3164
S'17/26'
p3165
ssS'apply'
p3166
(dp3167
g3162
I83
sg3163
I0
sg3164
S'34/41'
p3168
ssS'change'
p3169
(dp3170
g3162
I41
sg3163
I0
sg3164
S'7/17'
p3171
ssS'query'
p3172
(dp3173
g3162
I92
sg3163
I0
sg3164
S'60/65'
p3174
ssssVCamino 1.5.4
p3175
(dp3176
S'summary_display'
p3177
S'117/149'
p3178
sS'total_runs'
p3179
L1L
sS'summary_score'
p3180
I79
sS'results'
p3181
(dp3182
S'unapply'
p3183
(dp3184
S'score'
p3185
I65
sS'raw_score'
p3186
I0
sS'display'
p3187
S'17/26'
p3188
ssS'apply'
p3189
(dp3190
g3185
I83
sg3186
I0
sg3187
S'34/41'
p3191
ssS'change'
p3192
(dp3193
g3185
I41
sg3186
I0
sg3187
S'7/17'
p3194
ssS'query'
p3195
(dp3196
g3185
I91
sg3186
I0
sg3187
S'59/65'
p3197
ssssVMidori 0.1.6
p3198
(dp3199
S'summary_display'
p3200
S'129/149'
p3201
sS'total_runs'
p3202
L1L
sS'summary_score'
p3203
I87
sS'results'
p3204
(dp3205
S'unapply'
p3206
(dp3207
S'score'
p3208
I88
sS'raw_score'
p3209
I0
sS'display'
p3210
S'23/26'
p3211
ssS'apply'
p3212
(dp3213
g3208
I95
sg3209
I0
sg3210
S'39/41'
p3214
ssS'change'
p3215
(dp3216
g3208
I100
sg3209
I0
sg3210
S'17/17'
p3217
ssS'query'
p3218
(dp3219
g3208
I77
sg3209
I0
sg3210
S'50/65'
p3220
ssssVArora 0.6
p3221
(dp3222
S'summary_display'
p3223
S'102/149'
p3224
sS'total_runs'
p3225
L1L
sS'summary_score'
p3226
I68
sS'results'
p3227
(dp3228
S'unapply'
p3229
(dp3230
S'score'
p3231
I31
sS'raw_score'
p3232
I0
sS'display'
p3233
S'8/26'
p3234
ssS'apply'
p3235
(dp3236
g3231
I66
sg3232
I0
sg3233
S'27/41'
p3237
ssS'change'
p3238
(dp3239
g3231
I100
sg3232
I0
sg3233
S'17/17'
p3240
ssS'query'
p3241
(dp3242
g3231
I77
sg3232
I0
sg3233
S'50/65'
p3243
ssssVArora 0.7
p3244
(dp3245
S'summary_display'
p3246
S'111/149'
p3247
sS'total_runs'
p3248
L1L
sS'summary_score'
p3249
I74
sS'results'
p3250
(dp3251
S'unapply'
p3252
(dp3253
S'score'
p3254
I35
sS'raw_score'
p3255
I0
sS'display'
p3256
S'9/26'
p3257
ssS'apply'
p3258
(dp3259
g3254
I85
sg3255
I0
sg3256
S'35/41'
p3260
ssS'change'
p3261
(dp3262
g3254
I100
sg3255
I0
sg3256
S'17/17'
p3263
ssS'query'
p3264
(dp3265
g3254
I77
sg3255
I0
sg3256
S'50/65'
p3266
ssssVKazehakase 0.5.6
p3267
(dp3268
S'summary_display'
p3269
S'117/149'
p3270
sS'total_runs'
p3271
L1L
sS'summary_score'
p3272
I79
sS'results'
p3273
(dp3274
S'unapply'
p3275
(dp3276
S'score'
p3277
I65
sS'raw_score'
p3278
I0
sS'display'
p3279
S'17/26'
p3280
ssS'apply'
p3281
(dp3282
g3277
I83
sg3278
I0
sg3279
S'34/41'
p3283
ssS'change'
p3284
(dp3285
g3277
I41
sg3278
I0
sg3279
S'7/17'
p3286
ssS'query'
p3287
(dp3288
g3277
I91
sg3278
I0
sg3279
S'59/65'
p3289
ssssVFirefox 3.6a1
p3290
(dp3291
S'summary_display'
p3292
S'117/149'
p3293
sS'total_runs'
p3294
L1L
sS'summary_score'
p3295
I79
sS'results'
p3296
(dp3297
S'unapply'
p3298
(dp3299
S'score'
p3300
I65
sS'raw_score'
p3301
I0
sS'display'
p3302
S'17/26'
p3303
ssS'apply'
p3304
(dp3305
g3300
I83
sg3301
I0
sg3302
S'34/41'
p3306
ssS'change'
p3307
(dp3308
g3300
I41
sg3301
I0
sg3302
S'7/17'
p3309
ssS'query'
p3310
(dp3311
g3300
I91
sg3301
I0
sg3302
S'59/65'
p3312
ssssVArora 0.8
p3313
(dp3314
S'summary_display'
p3315
S'111/149'
p3316
sS'total_runs'
p3317
L5L
sS'summary_score'
p3318
I74
sS'results'
p3319
(dp3320
S'unapply'
p3321
(dp3322
S'score'
p3323
I35
sS'raw_score'
p3324
I0
sS'display'
p3325
S'9/26'
p3326
ssS'apply'
p3327
(dp3328
g3323
I85
sg3324
I0
sg3325
S'35/41'
p3329
ssS'change'
p3330
(dp3331
g3323
I100
sg3324
I0
sg3325
S'17/17'
p3332
ssS'query'
p3333
(dp3334
g3323
I77
sg3324
I0
sg3325
S'50/65'
p3335
ssssVArora 0.9
p3336
(dp3337
S'summary_display'
p3338
S'111/149'
p3339
sS'total_runs'
p3340
L11L
sS'summary_score'
p3341
I74
sS'results'
p3342
(dp3343
S'unapply'
p3344
(dp3345
S'score'
p3346
I35
sS'raw_score'
p3347
I0
sS'display'
p3348
S'9/26'
p3349
ssS'apply'
p3350
(dp3351
g3346
I85
sg3347
I0
sg3348
S'35/41'
p3352
ssS'change'
p3353
(dp3354
g3346
I100
sg3347
I0
sg3348
S'17/17'
p3355
ssS'query'
p3356
(dp3357
g3346
I77
sg3347
I0
sg3348
S'50/65'
p3358
ssssVMidori 0.1.9
p3359
(dp3360
S'summary_display'
p3361
S'125/149'
p3362
sS'total_runs'
p3363
L5L
sS'summary_score'
p3364
I84
sS'results'
p3365
(dp3366
S'unapply'
p3367
(dp3368
S'score'
p3369
I73
sS'raw_score'
p3370
I0
sS'display'
p3371
S'19/26'
p3372
ssS'apply'
p3373
(dp3374
g3369
I95
sg3370
I0
sg3371
S'39/41'
p3375
ssS'change'
p3376
(dp3377
g3369
I100
sg3370
I0
sg3371
S'17/17'
p3378
ssS'query'
p3379
(dp3380
g3369
I77
sg3370
I0
sg3371
S'50/65'
p3381
ssssVMidori 0.1.8
p3382
(dp3383
S'summary_display'
p3384
S'122/149'
p3385
sS'total_runs'
p3386
L6L
sS'summary_score'
p3387
I82
sS'results'
p3388
(dp3389
S'unapply'
p3390
(dp3391
S'score'
p3392
I73
sS'raw_score'
p3393
I0
sS'display'
p3394
S'19/26'
p3395
ssS'apply'
p3396
(dp3397
g3392
I95
sg3393
I0
sg3394
S'39/41'
p3398
ssS'change'
p3399
(dp3400
g3392
I100
sg3393
I0
sg3394
S'17/17'
p3401
ssS'query'
p3402
(dp3403
g3392
I72
sg3393
I0
sg3394
S'47/65'
p3404
ssssVOther
p3405
(dp3406
S'summary_display'
p3407
S'123/149'
p3408
sS'total_runs'
p3409
L65L
sS'summary_score'
p3410
I83
sS'results'
p3411
(dp3412
S'unapply'
p3413
(dp3414
S'score'
p3415
I69
sS'raw_score'
p3416
I0
sS'display'
p3417
S'18/26'
p3418
ssS'apply'
p3419
(dp3420
g3415
I95
sg3416
I0
sg3417
S'39/41'
p3421
ssS'change'
p3422
(dp3423
g3415
I100
sg3416
I0
sg3417
S'17/17'
p3424
ssS'query'
p3425
(dp3426
g3415
I75
sg3416
I0
sg3417
S'49/65'
p3427
ssssVFirefox (Namoroka) 3.6b6pre
p3428
(dp3429
S'summary_display'
p3430
S'117/149'
p3431
sS'total_runs'
p3432
L2L
sS'summary_score'
p3433
I79
sS'results'
p3434
(dp3435
S'unapply'
p3436
(dp3437
S'score'
p3438
I65
sS'raw_score'
p3439
I0
sS'display'
p3440
S'17/26'
p3441
ssS'apply'
p3442
(dp3443
g3438
I83
sg3439
I0
sg3440
S'34/41'
p3444
ssS'change'
p3445
(dp3446
g3438
I41
sg3439
I0
sg3440
S'7/17'
p3447
ssS'query'
p3448
(dp3449
g3438
I91
sg3439
I0
sg3440
S'59/65'
p3450
ssssVOpera 9.80
p3451
(dp3452
S'summary_display'
p3453
S'89/149'
p3454
sS'total_runs'
p3455
L2L
sS'summary_score'
p3456
I60
sS'results'
p3457
(dp3458
S'unapply'
p3459
(dp3460
S'score'
p3461
I50
sS'raw_score'
p3462
I0
sS'display'
p3463
S'13/26'
p3464
ssS'apply'
p3465
(dp3466
g3461
I63
sg3462
I0
sg3463
S'26/41'
p3467
ssS'change'
p3468
(dp3469
g3461
I41
sg3462
I0
sg3463
S'7/17'
p3470
ssS'query'
p3471
(dp3472
g3461
I66
sg3462
I0
sg3463
S'43/65'
p3473
ssssVChrome 4.0.253
p3474
(dp3475
S'summary_display'
p3476
S'129/149'
p3477
sS'total_runs'
p3478
L6L
sS'summary_score'
p3479
I87
sS'results'
p3480
(dp3481
S'unapply'
p3482
(dp3483
S'score'
p3484
I88
sS'raw_score'
p3485
I0
sS'display'
p3486
S'23/26'
p3487
ssS'apply'
p3488
(dp3489
g3484
I95
sg3485
I0
sg3486
S'39/41'
p3490
ssS'change'
p3491
(dp3492
g3484
I100
sg3485
I0
sg3486
S'17/17'
p3493
ssS'query'
p3494
(dp3495
g3484
I77
sg3485
I0
sg3486
S'50/65'
p3496
ssssVJasmine 1.0
p3497
(dp3498
S'summary_display'
p3499
S'145/149'
p3500
sS'total_runs'
p3501
L2L
sS'summary_score'
p3502
I97
sS'results'
p3503
(dp3504
S'unapply'
p3505
(dp3506
S'score'
p3507
I88
sS'raw_score'
p3508
I0
sS'display'
p3509
S'23/26'
p3510
ssS'apply'
p3511
(dp3512
g3507
I98
sg3508
I0
sg3509
S'40/41'
p3513
ssS'change'
p3514
(dp3515
g3507
I100
sg3508
I0
sg3509
S'17/17'
p3516
ssS'query'
p3517
(dp3518
g3507
I100
sg3508
I0
sg3509
S'65/65'
p3519
ssssVFirefox (Namoroka) 3.6a2pre
p3520
(dp3521
S'summary_display'
p3522
S'117/149'
p3523
sS'total_runs'
p3524
L20L
sS'summary_score'
p3525
I79
sS'results'
p3526
(dp3527
S'unapply'
p3528
(dp3529
S'score'
p3530
I65
sS'raw_score'
p3531
I0
sS'display'
p3532
S'17/26'
p3533
ssS'apply'
p3534
(dp3535
g3530
I83
sg3531
I0
sg3532
S'34/41'
p3536
ssS'change'
p3537
(dp3538
g3530
I41
sg3531
I0
sg3532
S'7/17'
p3539
ssS'query'
p3540
(dp3541
g3530
I91
sg3531
I0
sg3532
S'59/65'
p3542
ssssVFirefox (Namoroka) 3.6
p3543
(dp3544
S'summary_display'
p3545
S'117/149'
p3546
sS'total_runs'
p3547
L47L
sS'summary_score'
p3548
I79
sS'results'
p3549
(dp3550
S'unapply'
p3551
(dp3552
S'score'
p3553
I65
sS'raw_score'
p3554
I0
sS'display'
p3555
S'17/26'
p3556
ssS'apply'
p3557
(dp3558
g3553
I83
sg3554
I0
sg3555
S'34/41'
p3559
ssS'change'
p3560
(dp3561
g3553
I41
sg3554
I0
sg3555
S'7/17'
p3562
ssS'query'
p3563
(dp3564
g3553
I91
sg3554
I0
sg3555
S'59/65'
p3565
ssssVIron 4.0.275
p3566
(dp3567
S'summary_display'
p3568
S'129/149'
p3569
sS'total_runs'
p3570
L1L
sS'summary_score'
p3571
I87
sS'results'
p3572
(dp3573
S'unapply'
p3574
(dp3575
S'score'
p3576
I88
sS'raw_score'
p3577
I0
sS'display'
p3578
S'23/26'
p3579
ssS'apply'
p3580
(dp3581
g3576
I95
sg3577
I0
sg3578
S'39/41'
p3582
ssS'change'
p3583
(dp3584
g3576
I100
sg3577
I0
sg3578
S'17/17'
p3585
ssS'query'
p3586
(dp3587
g3576
I77
sg3577
I0
sg3578
S'50/65'
p3588
ssssVFennec 1.0b3
p3589
(dp3590
S'summary_display'
p3591
S'117/149'
p3592
sS'total_runs'
p3593
L3L
sS'summary_score'
p3594
I79
sS'results'
p3595
(dp3596
S'unapply'
p3597
(dp3598
S'score'
p3599
I65
sS'raw_score'
p3600
I0
sS'display'
p3601
S'17/26'
p3602
ssS'apply'
p3603
(dp3604
g3599
I83
sg3600
I0
sg3601
S'34/41'
p3605
ssS'change'
p3606
(dp3607
g3599
I41
sg3600
I0
sg3601
S'7/17'
p3608
ssS'query'
p3609
(dp3610
g3599
I91
sg3600
I0
sg3601
S'59/65'
p3611
ssssVChrome Frame (IE 7) 4.0.223
p3612
(dp3613
S'summary_display'
p3614
S'129/149'
p3615
sS'total_runs'
p3616
L1L
sS'summary_score'
p3617
I87
sS'results'
p3618
(dp3619
S'unapply'
p3620
(dp3621
S'score'
p3622
I88
sS'raw_score'
p3623
I0
sS'display'
p3624
S'23/26'
p3625
ssS'apply'
p3626
(dp3627
g3622
I95
sg3623
I0
sg3624
S'39/41'
p3628
ssS'change'
p3629
(dp3630
g3622
I100
sg3623
I0
sg3624
S'17/17'
p3631
ssS'query'
p3632
(dp3633
g3622
I77
sg3623
I0
sg3624
S'50/65'
p3634
ssssVFennec 1.0b4
p3635
(dp3636
S'summary_display'
p3637
S'117/149'
p3638
sS'total_runs'
p3639
L1L
sS'summary_score'
p3640
I79
sS'results'
p3641
(dp3642
S'unapply'
p3643
(dp3644
S'score'
p3645
I65
sS'raw_score'
p3646
I0
sS'display'
p3647
S'17/26'
p3648
ssS'apply'
p3649
(dp3650
g3645
I83
sg3646
I0
sg3647
S'34/41'
p3651
ssS'change'
p3652
(dp3653
g3645
I41
sg3646
I0
sg3647
S'7/17'
p3654
ssS'query'
p3655
(dp3656
g3645
I91
sg3646
I0
sg3647
S'59/65'
p3657
ssssVFennec 1.0b5
p3658
(dp3659
S'summary_display'
p3660
S'117/149'
p3661
sS'total_runs'
p3662
L1L
sS'summary_score'
p3663
I79
sS'results'
p3664
(dp3665
S'unapply'
p3666
(dp3667
S'score'
p3668
I65
sS'raw_score'
p3669
I0
sS'display'
p3670
S'17/26'
p3671
ssS'apply'
p3672
(dp3673
g3668
I83
sg3669
I0
sg3670
S'34/41'
p3674
ssS'change'
p3675
(dp3676
g3668
I41
sg3669
I0
sg3670
S'7/17'
p3677
ssS'query'
p3678
(dp3679
g3668
I91
sg3669
I0
sg3670
S'59/65'
p3680
ssssVSwiftfox 3.5.5
p3681
(dp3682
S'summary_display'
p3683
S'117/149'
p3684
sS'total_runs'
p3685
L2L
sS'summary_score'
p3686
I79
sS'results'
p3687
(dp3688
S'unapply'
p3689
(dp3690
S'score'
p3691
I65
sS'raw_score'
p3692
I0
sS'display'
p3693
S'17/26'
p3694
ssS'apply'
p3695
(dp3696
g3691
I83
sg3692
I0
sg3693
S'34/41'
p3697
ssS'change'
p3698
(dp3699
g3691
I41
sg3692
I0
sg3693
S'7/17'
p3700
ssS'query'
p3701
(dp3702
g3691
I91
sg3692
I0
sg3693
S'59/65'
p3703
ssssVSwiftfox 3.5.2
p3704
(dp3705
S'summary_display'
p3706
S'117/149'
p3707
sS'total_runs'
p3708
L6L
sS'summary_score'
p3709
I79
sS'results'
p3710
(dp3711
S'unapply'
p3712
(dp3713
S'score'
p3714
I65
sS'raw_score'
p3715
I0
sS'display'
p3716
S'17/26'
p3717
ssS'apply'
p3718
(dp3719
g3714
I83
sg3715
I0
sg3716
S'34/41'
p3720
ssS'change'
p3721
(dp3722
g3714
I41
sg3715
I0
sg3716
S'7/17'
p3723
ssS'query'
p3724
(dp3725
g3714
I91
sg3715
I0
sg3716
S'59/65'
p3726
ssssVSwiftfox 3.5.3
p3727
(dp3728
S'summary_display'
p3729
S'111/149'
p3730
sS'total_runs'
p3731
L1L
sS'summary_score'
p3732
I74
sS'results'
p3733
(dp3734
S'unapply'
p3735
(dp3736
S'score'
p3737
I65
sS'raw_score'
p3738
I0
sS'display'
p3739
S'17/26'
p3740
ssS'apply'
p3741
(dp3742
g3737
I83
sg3738
I0
sg3739
S'34/41'
p3743
ssS'change'
p3744
(dp3745
g3737
I41
sg3738
I0
sg3739
S'7/17'
p3746
ssS'query'
p3747
(dp3748
g3737
I82
sg3738
I0
sg3739
S'53/65'
p3749
ssssVPlayStation 3
p3750
(dp3751
S'summary_display'
p3752
S'0/149'
p3753
sS'total_runs'
p3754
L3L
sS'summary_score'
p3755
I0
sS'results'
p3756
(dp3757
S'unapply'
p3758
(dp3759
S'score'
p3760
I0
sS'raw_score'
p3761
I0
sS'display'
p3762
S'0/26'
p3763
ssS'apply'
p3764
(dp3765
g3760
I0
sg3761
I0
sg3762
S'0/41'
p3766
ssS'change'
p3767
(dp3768
g3760
I0
sg3761
I0
sg3762
S'0/17'
p3769
ssS'query'
p3770
(dp3771
g3760
I0
sg3761
I0
sg3762
S'0/65'
p3772
ssssVChrome Frame (IE 7) 4.0.255
p3773
(dp3774
S'summary_display'
p3775
S'129/149'
p3776
sS'total_runs'
p3777
L1L
sS'summary_score'
p3778
I87
sS'results'
p3779
(dp3780
S'unapply'
p3781
(dp3782
S'score'
p3783
I88
sS'raw_score'
p3784
I0
sS'display'
p3785
S'23/26'
p3786
ssS'apply'
p3787
(dp3788
g3783
I95
sg3784
I0
sg3785
S'39/41'
p3789
ssS'change'
p3790
(dp3791
g3783
I100
sg3784
I0
sg3785
S'17/17'
p3792
ssS'query'
p3793
(dp3794
g3783
I77
sg3784
I0
sg3785
S'50/65'
p3795
ssssVFirefox (Namoroka) 3.6.1pre
p3796
(dp3797
S'summary_display'
p3798
S'117/149'
p3799
sS'total_runs'
p3800
L2L
sS'summary_score'
p3801
I79
sS'results'
p3802
(dp3803
S'unapply'
p3804
(dp3805
S'score'
p3806
I65
sS'raw_score'
p3807
I0
sS'display'
p3808
S'17/26'
p3809
ssS'apply'
p3810
(dp3811
g3806
I83
sg3807
I0
sg3808
S'34/41'
p3812
ssS'change'
p3813
(dp3814
g3806
I41
sg3807
I0
sg3808
S'7/17'
p3815
ssS'query'
p3816
(dp3817
g3806
I91
sg3807
I0
sg3808
S'59/65'
p3818
ssssVIron 3.0.189
p3819
(dp3820
S'summary_display'
p3821
S'125/149'
p3822
sS'total_runs'
p3823
L2L
sS'summary_score'
p3824
I84
sS'results'
p3825
(dp3826
S'unapply'
p3827
(dp3828
S'score'
p3829
I73
sS'raw_score'
p3830
I0
sS'display'
p3831
S'19/26'
p3832
ssS'apply'
p3833
(dp3834
g3829
I95
sg3830
I0
sg3831
S'39/41'
p3835
ssS'change'
p3836
(dp3837
g3829
I100
sg3830
I0
sg3831
S'17/17'
p3838
ssS'query'
p3839
(dp3840
g3829
I77
sg3830
I0
sg3831
S'50/65'
p3841
ssssVOpera Mini 5.0.15650
p3842
(dp3843
S'summary_display'
p3844
S'0/149'
p3845
sS'total_runs'
p3846
L3L
sS'summary_score'
p3847
I0
sS'results'
p3848
(dp3849
S'unapply'
p3850
(dp3851
S'score'
p3852
I0
sS'raw_score'
p3853
I0
sS'display'
p3854
S'0/26'
p3855
ssS'apply'
p3856
(dp3857
g3852
I0
sg3853
I0
sg3854
S'0/41'
p3858
ssS'change'
p3859
(dp3860
g3852
I0
sg3853
I0
sg3854
S'0/17'
p3861
ssS'query'
p3862
(dp3863
g3852
I0
sg3853
I0
sg3854
S'0/65'
p3864
ssssVNetscape 7.1
p3865
(dp3866
S'summary_display'
p3867
S'117/149'
p3868
sS'total_runs'
p3869
L1L
sS'summary_score'
p3870
I79
sS'results'
p3871
(dp3872
S'unapply'
p3873
(dp3874
S'score'
p3875
I65
sS'raw_score'
p3876
I0
sS'display'
p3877
S'17/26'
p3878
ssS'apply'
p3879
(dp3880
g3875
I83
sg3876
I0
sg3877
S'34/41'
p3881
ssS'change'
p3882
(dp3883
g3875
I41
sg3876
I0
sg3877
S'7/17'
p3884
ssS'query'
p3885
(dp3886
g3875
I91
sg3876
I0
sg3877
S'59/65'
p3887
ssssVFluid 0.9.6
p3888
(dp3889
S'summary_display'
p3890
S'125/149'
p3891
sS'total_runs'
p3892
L1L
sS'summary_score'
p3893
I84
sS'results'
p3894
(dp3895
S'unapply'
p3896
(dp3897
S'score'
p3898
I73
sS'raw_score'
p3899
I0
sS'display'
p3900
S'19/26'
p3901
ssS'apply'
p3902
(dp3903
g3898
I95
sg3899
I0
sg3900
S'39/41'
p3904
ssS'change'
p3905
(dp3906
g3898
I100
sg3899
I0
sg3900
S'17/17'
p3907
ssS'query'
p3908
(dp3909
g3898
I77
sg3899
I0
sg3900
S'50/65'
p3910
ssssVFirefox (Namoroka) 3.6a1
p3911
(dp3912
S'summary_display'
p3913
S'117/149'
p3914
sS'total_runs'
p3915
L4L
sS'summary_score'
p3916
I79
sS'results'
p3917
(dp3918
S'unapply'
p3919
(dp3920
S'score'
p3921
I65
sS'raw_score'
p3922
I0
sS'display'
p3923
S'17/26'
p3924
ssS'apply'
p3925
(dp3926
g3921
I83
sg3922
I0
sg3923
S'34/41'
p3927
ssS'change'
p3928
(dp3929
g3921
I41
sg3922
I0
sg3923
S'7/17'
p3930
ssS'query'
p3931
(dp3932
g3921
I91
sg3922
I0
sg3923
S'59/65'
p3933
ssssVMaxthon 2.0
p3934
(dp3935
S'summary_display'
p3936
S'99/149'
p3937
sS'total_runs'
p3938
L12L
sS'summary_score'
p3939
I66
sS'results'
p3940
(dp3941
S'unapply'
p3942
(dp3943
S'score'
p3944
I54
sS'raw_score'
p3945
I0
sS'display'
p3946
S'14/26'
p3947
ssS'apply'
p3948
(dp3949
g3944
I59
sg3945
I0
sg3946
S'24/41'
p3950
ssS'change'
p3951
(dp3952
g3944
I29
sg3945
I0
sg3946
S'5/17'
p3953
ssS'query'
p3954
(dp3955
g3944
I86
sg3945
I0
sg3946
S'56/65'
p3956
ssssVSeaMonkey 1.1.8
p3957
(dp3958
S'summary_display'
p3959
S'117/149'
p3960
sS'total_runs'
p3961
L1L
sS'summary_score'
p3962
I79
sS'results'
p3963
(dp3964
S'unapply'
p3965
(dp3966
S'score'
p3967
I65
sS'raw_score'
p3968
I0
sS'display'
p3969
S'17/26'
p3970
ssS'apply'
p3971
(dp3972
g3967
I83
sg3968
I0
sg3969
S'34/41'
p3973
ssS'change'
p3974
(dp3975
g3967
I41
sg3968
I0
sg3969
S'7/17'
p3976
ssS'query'
p3977
(dp3978
g3967
I91
sg3968
I0
sg3969
S'59/65'
p3979
ssssVAvant 1
p3980
(dp3981
S'summary_display'
p3982
S'96/149'
p3983
sS'total_runs'
p3984
L13L
sS'summary_score'
p3985
I64
sS'results'
p3986
(dp3987
S'unapply'
p3988
(dp3989
S'score'
p3990
I42
sS'raw_score'
p3991
I0
sS'display'
p3992
S'11/26'
p3993
ssS'apply'
p3994
(dp3995
g3990
I59
sg3991
I0
sg3992
S'24/41'
p3996
ssS'change'
p3997
(dp3998
g3990
I29
sg3991
I0
sg3992
S'5/17'
p3999
ssS'query'
p4000
(dp4001
g3990
I86
sg3991
I0
sg3992
S'56/65'
p4002
ssssVChrome 4.0.273
p4003
(dp4004
S'summary_display'
p4005
S'129/149'
p4006
sS'total_runs'
p4007
L1L
sS'summary_score'
p4008
I87
sS'results'
p4009
(dp4010
S'unapply'
p4011
(dp4012
S'score'
p4013
I88
sS'raw_score'
p4014
I0
sS'display'
p4015
S'23/26'
p4016
ssS'apply'
p4017
(dp4018
g4013
I95
sg4014
I0
sg4015
S'39/41'
p4019
ssS'change'
p4020
(dp4021
g4013
I100
sg4014
I0
sg4015
S'17/17'
p4022
ssS'query'
p4023
(dp4024
g4013
I77
sg4014
I0
sg4015
S'50/65'
p4025
ssssVChrome 4.0.272
p4026
(dp4027
S'summary_display'
p4028
S'129/149'
p4029
sS'total_runs'
p4030
L2L
sS'summary_score'
p4031
I87
sS'results'
p4032
(dp4033
S'unapply'
p4034
(dp4035
S'score'
p4036
I88
sS'raw_score'
p4037
I0
sS'display'
p4038
S'23/26'
p4039
ssS'apply'
p4040
(dp4041
g4036
I95
sg4037
I0
sg4038
S'39/41'
p4042
ssS'change'
p4043
(dp4044
g4036
I100
sg4037
I0
sg4038
S'17/17'
p4045
ssS'query'
p4046
(dp4047
g4036
I77
sg4037
I0
sg4038
S'50/65'
p4048
ssssVChrome 4.0.270
p4049
(dp4050
S'summary_display'
p4051
S'129/149'
p4052
sS'total_runs'
p4053
L1L
sS'summary_score'
p4054
I87
sS'results'
p4055
(dp4056
S'unapply'
p4057
(dp4058
S'score'
p4059
I88
sS'raw_score'
p4060
I0
sS'display'
p4061
S'23/26'
p4062
ssS'apply'
p4063
(dp4064
g4059
I95
sg4060
I0
sg4061
S'39/41'
p4065
ssS'change'
p4066
(dp4067
g4059
I100
sg4060
I0
sg4061
S'17/17'
p4068
ssS'query'
p4069
(dp4070
g4059
I77
sg4060
I0
sg4061
S'50/65'
p4071
ssssVChrome 4.0.277
p4072
(dp4073
S'summary_display'
p4074
S'129/149'
p4075
sS'total_runs'
p4076
L2L
sS'summary_score'
p4077
I87
sS'results'
p4078
(dp4079
S'unapply'
p4080
(dp4081
S'score'
p4082
I88
sS'raw_score'
p4083
I0
sS'display'
p4084
S'23/26'
p4085
ssS'apply'
p4086
(dp4087
g4082
I95
sg4083
I0
sg4084
S'39/41'
p4088
ssS'change'
p4089
(dp4090
g4082
I100
sg4083
I0
sg4084
S'17/17'
p4091
ssS'query'
p4092
(dp4093
g4082
I77
sg4083
I0
sg4084
S'50/65'
p4094
ssssVChrome 4.0.276
p4095
(dp4096
S'summary_display'
p4097
S'129/149'
p4098
sS'total_runs'
p4099
L4L
sS'summary_score'
p4100
I87
sS'results'
p4101
(dp4102
S'unapply'
p4103
(dp4104
S'score'
p4105
I88
sS'raw_score'
p4106
I0
sS'display'
p4107
S'23/26'
p4108
ssS'apply'
p4109
(dp4110
g4105
I95
sg4106
I0
sg4107
S'39/41'
p4111
ssS'change'
p4112
(dp4113
g4105
I100
sg4106
I0
sg4107
S'17/17'
p4114
ssS'query'
p4115
(dp4116
g4105
I77
sg4106
I0
sg4107
S'50/65'
p4117
ssssVChrome 2.0.172
p4118
(dp4119
S'summary_display'
p4120
S'125/149'
p4121
sS'total_runs'
p4122
L215L
sS'summary_score'
p4123
I84
sS'results'
p4124
(dp4125
S'unapply'
p4126
(dp4127
S'score'
p4128
I73
sS'raw_score'
p4129
I0
sS'display'
p4130
S'19/26'
p4131
ssS'apply'
p4132
(dp4133
g4128
I95
sg4129
I0
sg4130
S'39/41'
p4134
ssS'change'
p4135
(dp4136
g4128
I100
sg4129
I0
sg4130
S'17/17'
p4137
ssS'query'
p4138
(dp4139
g4128
I77
sg4129
I0
sg4130
S'50/65'
p4140
ssssVNetNewsWire 3.2.3
p4141
(dp4142
S'summary_display'
p4143
S'125/149'
p4144
sS'total_runs'
p4145
L1L
sS'summary_score'
p4146
I84
sS'results'
p4147
(dp4148
S'unapply'
p4149
(dp4150
S'score'
p4151
I73
sS'raw_score'
p4152
I0
sS'display'
p4153
S'19/26'
p4154
ssS'apply'
p4155
(dp4156
g4151
I95
sg4152
I0
sg4153
S'39/41'
p4157
ssS'change'
p4158
(dp4159
g4151
I100
sg4152
I0
sg4153
S'17/17'
p4160
ssS'query'
p4161
(dp4162
g4151
I77
sg4152
I0
sg4153
S'50/65'
p4163
ssssViPhone 2.2.1
p4164
(dp4165
S'summary_display'
p4166
S'104/149'
p4167
sS'total_runs'
p4168
L7L
sS'summary_score'
p4169
I70
sS'results'
p4170
(dp4171
S'unapply'
p4172
(dp4173
S'score'
p4174
I35
sS'raw_score'
p4175
I0
sS'display'
p4176
S'9/26'
p4177
ssS'apply'
p4178
(dp4179
g4174
I68
sg4175
I0
sg4176
S'28/41'
p4180
ssS'change'
p4181
(dp4182
g4174
I100
sg4175
I0
sg4176
S'17/17'
p4183
ssS'query'
p4184
(dp4185
g4174
I77
sg4175
I0
sg4176
S'50/65'
p4186
ssssVSeaMonkey 2.0
p4187
(dp4188
S'summary_display'
p4189
S'117/149'
p4190
sS'total_runs'
p4191
L26L
sS'summary_score'
p4192
I79
sS'results'
p4193
(dp4194
S'unapply'
p4195
(dp4196
S'score'
p4197
I65
sS'raw_score'
p4198
I0
sS'display'
p4199
S'17/26'
p4200
ssS'apply'
p4201
(dp4202
g4197
I83
sg4198
I0
sg4199
S'34/41'
p4203
ssS'change'
p4204
(dp4205
g4197
I41
sg4198
I0
sg4199
S'7/17'
p4206
ssS'query'
p4207
(dp4208
g4197
I91
sg4198
I0
sg4199
S'59/65'
p4209
ssssVChrome 4.0.209
p4210
(dp4211
S'summary_display'
p4212
S'129/149'
p4213
sS'total_runs'
p4214
L27L
sS'summary_score'
p4215
I87
sS'results'
p4216
(dp4217
S'unapply'
p4218
(dp4219
S'score'
p4220
I88
sS'raw_score'
p4221
I0
sS'display'
p4222
S'23/26'
p4223
ssS'apply'
p4224
(dp4225
g4220
I95
sg4221
I0
sg4222
S'39/41'
p4226
ssS'change'
p4227
(dp4228
g4220
I100
sg4221
I0
sg4222
S'17/17'
p4229
ssS'query'
p4230
(dp4231
g4220
I77
sg4221
I0
sg4222
S'50/65'
p4232
ssssVChrome 4.0.299
p4233
(dp4234
S'summary_display'
p4235
S'129/149'
p4236
sS'total_runs'
p4237
L3L
sS'summary_score'
p4238
I87
sS'results'
p4239
(dp4240
S'unapply'
p4241
(dp4242
S'score'
p4243
I88
sS'raw_score'
p4244
I0
sS'display'
p4245
S'23/26'
p4246
ssS'apply'
p4247
(dp4248
g4243
I95
sg4244
I0
sg4245
S'39/41'
p4249
ssS'change'
p4250
(dp4251
g4243
I100
sg4244
I0
sg4245
S'17/17'
p4252
ssS'query'
p4253
(dp4254
g4243
I77
sg4244
I0
sg4245
S'50/65'
p4255
ssssVChrome 4.0.298
p4256
(dp4257
S'summary_display'
p4258
S'129/149'
p4259
sS'total_runs'
p4260
L2L
sS'summary_score'
p4261
I87
sS'results'
p4262
(dp4263
S'unapply'
p4264
(dp4265
S'score'
p4266
I88
sS'raw_score'
p4267
I0
sS'display'
p4268
S'23/26'
p4269
ssS'apply'
p4270
(dp4271
g4266
I95
sg4267
I0
sg4268
S'39/41'
p4272
ssS'change'
p4273
(dp4274
g4266
I100
sg4267
I0
sg4268
S'17/17'
p4275
ssS'query'
p4276
(dp4277
g4266
I77
sg4267
I0
sg4268
S'50/65'
p4278
ssssVChrome 4.0.295
p4279
(dp4280
S'summary_display'
p4281
S'129/149'
p4282
sS'total_runs'
p4283
L12L
sS'summary_score'
p4284
I87
sS'results'
p4285
(dp4286
S'unapply'
p4287
(dp4288
S'score'
p4289
I88
sS'raw_score'
p4290
I0
sS'display'
p4291
S'23/26'
p4292
ssS'apply'
p4293
(dp4294
g4289
I95
sg4290
I0
sg4291
S'39/41'
p4295
ssS'change'
p4296
(dp4297
g4289
I100
sg4290
I0
sg4291
S'17/17'
p4298
ssS'query'
p4299
(dp4300
g4289
I77
sg4290
I0
sg4291
S'50/65'
p4301
ssssVChrome 4.0.297
p4302
(dp4303
S'summary_display'
p4304
S'129/149'
p4305
sS'total_runs'
p4306
L1L
sS'summary_score'
p4307
I87
sS'results'
p4308
(dp4309
S'unapply'
p4310
(dp4311
S'score'
p4312
I88
sS'raw_score'
p4313
I0
sS'display'
p4314
S'23/26'
p4315
ssS'apply'
p4316
(dp4317
g4312
I95
sg4313
I0
sg4314
S'39/41'
p4318
ssS'change'
p4319
(dp4320
g4312
I100
sg4313
I0
sg4314
S'17/17'
p4321
ssS'query'
p4322
(dp4323
g4312
I77
sg4313
I0
sg4314
S'50/65'
p4324
ssssVChrome 4.0.296
p4325
(dp4326
S'summary_display'
p4327
S'129/149'
p4328
sS'total_runs'
p4329
L1L
sS'summary_score'
p4330
I87
sS'results'
p4331
(dp4332
S'unapply'
p4333
(dp4334
S'score'
p4335
I88
sS'raw_score'
p4336
I0
sS'display'
p4337
S'23/26'
p4338
ssS'apply'
p4339
(dp4340
g4335
I95
sg4336
I0
sg4337
S'39/41'
p4341
ssS'change'
p4342
(dp4343
g4335
I100
sg4336
I0
sg4337
S'17/17'
p4344
ssS'query'
p4345
(dp4346
g4335
I77
sg4336
I0
sg4337
S'50/65'
p4347
ssssVChrome 4.0.291
p4348
(dp4349
S'summary_display'
p4350
S'129/149'
p4351
sS'total_runs'
p4352
L1L
sS'summary_score'
p4353
I87
sS'results'
p4354
(dp4355
S'unapply'
p4356
(dp4357
S'score'
p4358
I88
sS'raw_score'
p4359
I0
sS'display'
p4360
S'23/26'
p4361
ssS'apply'
p4362
(dp4363
g4358
I95
sg4359
I0
sg4360
S'39/41'
p4364
ssS'change'
p4365
(dp4366
g4358
I100
sg4359
I0
sg4360
S'17/17'
p4367
ssS'query'
p4368
(dp4369
g4358
I77
sg4359
I0
sg4360
S'50/65'
p4370
ssssVChrome Frame (IE 8) 4.0.211
p4371
(dp4372
S'summary_display'
p4373
S'129/149'
p4374
sS'total_runs'
p4375
L9L
sS'summary_score'
p4376
I87
sS'results'
p4377
(dp4378
S'unapply'
p4379
(dp4380
S'score'
p4381
I88
sS'raw_score'
p4382
I0
sS'display'
p4383
S'23/26'
p4384
ssS'apply'
p4385
(dp4386
g4381
I95
sg4382
I0
sg4383
S'39/41'
p4387
ssS'change'
p4388
(dp4389
g4381
I100
sg4382
I0
sg4383
S'17/17'
p4390
ssS'query'
p4391
(dp4392
g4381
I77
sg4382
I0
sg4383
S'50/65'
p4393
ssssVChrome 4.0.206
p4394
(dp4395
S'summary_display'
p4396
S'129/149'
p4397
sS'total_runs'
p4398
L168L
sS'summary_score'
p4399
I87
sS'results'
p4400
(dp4401
S'unapply'
p4402
(dp4403
S'score'
p4404
I88
sS'raw_score'
p4405
I0
sS'display'
p4406
S'23/26'
p4407
ssS'apply'
p4408
(dp4409
g4404
I95
sg4405
I0
sg4406
S'39/41'
p4410
ssS'change'
p4411
(dp4412
g4404
I100
sg4405
I0
sg4406
S'17/17'
p4413
ssS'query'
p4414
(dp4415
g4404
I77
sg4405
I0
sg4406
S'50/65'
p4416
ssssVChrome 4.0.207
p4417
(dp4418
S'summary_display'
p4419
S'129/149'
p4420
sS'total_runs'
p4421
L102L
sS'summary_score'
p4422
I87
sS'results'
p4423
(dp4424
S'unapply'
p4425
(dp4426
S'score'
p4427
I88
sS'raw_score'
p4428
I0
sS'display'
p4429
S'23/26'
p4430
ssS'apply'
p4431
(dp4432
g4427
I95
sg4428
I0
sg4429
S'39/41'
p4433
ssS'change'
p4434
(dp4435
g4427
I100
sg4428
I0
sg4429
S'17/17'
p4436
ssS'query'
p4437
(dp4438
g4427
I77
sg4428
I0
sg4429
S'50/65'
p4439
ssssVChrome 4.0.204
p4440
(dp4441
S'summary_display'
p4442
S'129/149'
p4443
sS'total_runs'
p4444
L4L
sS'summary_score'
p4445
I87
sS'results'
p4446
(dp4447
S'unapply'
p4448
(dp4449
S'score'
p4450
I88
sS'raw_score'
p4451
I0
sS'display'
p4452
S'23/26'
p4453
ssS'apply'
p4454
(dp4455
g4450
I95
sg4451
I0
sg4452
S'39/41'
p4456
ssS'change'
p4457
(dp4458
g4450
I100
sg4451
I0
sg4452
S'17/17'
p4459
ssS'query'
p4460
(dp4461
g4450
I77
sg4451
I0
sg4452
S'50/65'
p4462
ssssVChrome 4.0.205
p4463
(dp4464
S'summary_display'
p4465
S'129/149'
p4466
sS'total_runs'
p4467
L1L
sS'summary_score'
p4468
I87
sS'results'
p4469
(dp4470
S'unapply'
p4471
(dp4472
S'score'
p4473
I88
sS'raw_score'
p4474
I0
sS'display'
p4475
S'23/26'
p4476
ssS'apply'
p4477
(dp4478
g4473
I95
sg4474
I0
sg4475
S'39/41'
p4479
ssS'change'
p4480
(dp4481
g4473
I100
sg4474
I0
sg4475
S'17/17'
p4482
ssS'query'
p4483
(dp4484
g4473
I77
sg4474
I0
sg4475
S'50/65'
p4485
ssssVChrome 4.0.202
p4486
(dp4487
S'summary_display'
p4488
S'129/149'
p4489
sS'total_runs'
p4490
L8L
sS'summary_score'
p4491
I87
sS'results'
p4492
(dp4493
S'unapply'
p4494
(dp4495
S'score'
p4496
I88
sS'raw_score'
p4497
I0
sS'display'
p4498
S'23/26'
p4499
ssS'apply'
p4500
(dp4501
g4496
I95
sg4497
I0
sg4498
S'39/41'
p4502
ssS'change'
p4503
(dp4504
g4496
I100
sg4497
I0
sg4498
S'17/17'
p4505
ssS'query'
p4506
(dp4507
g4496
I77
sg4497
I0
sg4498
S'50/65'
p4508
ssssVChrome 4.0.203
p4509
(dp4510
S'summary_display'
p4511
S'129/149'
p4512
sS'total_runs'
p4513
L8L
sS'summary_score'
p4514
I87
sS'results'
p4515
(dp4516
S'unapply'
p4517
(dp4518
S'score'
p4519
I88
sS'raw_score'
p4520
I0
sS'display'
p4521
S'23/26'
p4522
ssS'apply'
p4523
(dp4524
g4519
I95
sg4520
I0
sg4521
S'39/41'
p4525
ssS'change'
p4526
(dp4527
g4519
I100
sg4520
I0
sg4521
S'17/17'
p4528
ssS'query'
p4529
(dp4530
g4519
I77
sg4520
I0
sg4521
S'50/65'
p4531
ssssVChrome 4.0.201
p4532
(dp4533
S'summary_display'
p4534
S'129/149'
p4535
sS'total_runs'
p4536
L4L
sS'summary_score'
p4537
I87
sS'results'
p4538
(dp4539
S'unapply'
p4540
(dp4541
S'score'
p4542
I88
sS'raw_score'
p4543
I0
sS'display'
p4544
S'23/26'
p4545
ssS'apply'
p4546
(dp4547
g4542
I95
sg4543
I0
sg4544
S'39/41'
p4548
ssS'change'
p4549
(dp4550
g4542
I100
sg4543
I0
sg4544
S'17/17'
p4551
ssS'query'
p4552
(dp4553
g4542
I77
sg4543
I0
sg4544
S'50/65'
p4554
ssssVFirefox 3.0
p4555
(dp4556
S'summary_display'
p4557
S'117/149'
p4558
sS'total_runs'
p4559
L582L
sS'summary_score'
p4560
I79
sS'results'
p4561
(dp4562
S'unapply'
p4563
(dp4564
S'score'
p4565
I65
sS'raw_score'
p4566
I0
sS'display'
p4567
S'17/26'
p4568
ssS'apply'
p4569
(dp4570
g4565
I83
sg4566
I0
sg4567
S'34/41'
p4571
ssS'change'
p4572
(dp4573
g4565
I41
sg4566
I0
sg4567
S'7/17'
p4574
ssS'query'
p4575
(dp4576
g4565
I91
sg4566
I0
sg4567
S'59/65'
p4577
ssssVFirefox 3.5
p4578
(dp4579
S'summary_display'
p4580
S'117/149'
p4581
sS'total_runs'
p4582
L3799L
sS'summary_score'
p4583
I79
sS'results'
p4584
(dp4585
S'unapply'
p4586
(dp4587
S'score'
p4588
I65
sS'raw_score'
p4589
I0
sS'display'
p4590
S'17/26'
p4591
ssS'apply'
p4592
(dp4593
g4588
I83
sg4589
I0
sg4590
S'34/41'
p4594
ssS'change'
p4595
(dp4596
g4588
I41
sg4589
I0
sg4590
S'7/17'
p4597
ssS'query'
p4598
(dp4599
g4588
I91
sg4589
I0
sg4590
S'59/65'
p4600
ssssVChrome 4.0.208
p4601
(dp4602
S'summary_display'
p4603
S'129/149'
p4604
sS'total_runs'
p4605
L4L
sS'summary_score'
p4606
I87
sS'results'
p4607
(dp4608
S'unapply'
p4609
(dp4610
S'score'
p4611
I88
sS'raw_score'
p4612
I0
sS'display'
p4613
S'23/26'
p4614
ssS'apply'
p4615
(dp4616
g4611
I95
sg4612
I0
sg4613
S'39/41'
p4617
ssS'change'
p4618
(dp4619
g4611
I100
sg4612
I0
sg4613
S'17/17'
p4620
ssS'query'
p4621
(dp4622
g4611
I77
sg4612
I0
sg4613
S'50/65'
p4623
ssssVFirefox 3.6
p4624
(dp4625
S'summary_display'
p4626
S'117/149'
p4627
sS'total_runs'
p4628
L225L
sS'summary_score'
p4629
I79
sS'results'
p4630
(dp4631
S'unapply'
p4632
(dp4633
S'score'
p4634
I65
sS'raw_score'
p4635
I0
sS'display'
p4636
S'17/26'
p4637
ssS'apply'
p4638
(dp4639
g4634
I83
sg4635
I0
sg4636
S'34/41'
p4640
ssS'change'
p4641
(dp4642
g4634
I41
sg4635
I0
sg4636
S'7/17'
p4643
ssS'query'
p4644
(dp4645
g4634
I91
sg4635
I0
sg4636
S'59/65'
p4646
ssssVOpera Mini 4.0.8462
p4647
(dp4648
S'summary_display'
p4649
S'0/149'
p4650
sS'total_runs'
p4651
L2L
sS'summary_score'
p4652
I0
sS'results'
p4653
(dp4654
S'unapply'
p4655
(dp4656
S'score'
p4657
I0
sS'raw_score'
p4658
I0
sS'display'
p4659
S'0/26'
p4660
ssS'apply'
p4661
(dp4662
g4657
I0
sg4658
I0
sg4659
S'0/41'
p4663
ssS'change'
p4664
(dp4665
g4657
I0
sg4658
I0
sg4659
S'0/17'
p4666
ssS'query'
p4667
(dp4668
g4657
I0
sg4658
I0
sg4659
S'0/65'
p4669
ssssVOpera Mini 5.0.16875
p4670
(dp4671
S'summary_display'
p4672
S'26/149'
p4673
sS'total_runs'
p4674
L1L
sS'summary_score'
p4675
I17
sS'results'
p4676
(dp4677
S'unapply'
p4678
(dp4679
S'score'
p4680
I100
sS'raw_score'
p4681
I0
sS'display'
p4682
S'26/26'
p4683
ssS'apply'
p4684
(dp4685
g4680
I0
sg4681
I0
sg4682
S'0/41'
p4686
ssS'change'
p4687
(dp4688
g4680
I0
sg4681
I0
sg4682
S'0/17'
p4689
ssS'query'
p4690
(dp4691
g4680
I0
sg4681
I0
sg4682
S'0/65'
p4692
ssssVChrome 0.2.152
p4693
(dp4694
S'summary_display'
p4695
S'104/149'
p4696
sS'total_runs'
p4697
L1L
sS'summary_score'
p4698
I70
sS'results'
p4699
(dp4700
S'unapply'
p4701
(dp4702
S'score'
p4703
I35
sS'raw_score'
p4704
I0
sS'display'
p4705
S'9/26'
p4706
ssS'apply'
p4707
(dp4708
g4703
I68
sg4704
I0
sg4705
S'28/41'
p4709
ssS'change'
p4710
(dp4711
g4703
I100
sg4704
I0
sg4705
S'17/17'
p4712
ssS'query'
p4713
(dp4714
g4703
I77
sg4704
I0
sg4705
S'50/65'
p4715
ssssVSeaMonkey 2.1a1pre
p4716
(dp4717
S'summary_display'
p4718
S'117/149'
p4719
sS'total_runs'
p4720
L1L
sS'summary_score'
p4721
I79
sS'results'
p4722
(dp4723
S'unapply'
p4724
(dp4725
S'score'
p4726
I65
sS'raw_score'
p4727
I0
sS'display'
p4728
S'17/26'
p4729
ssS'apply'
p4730
(dp4731
g4726
I83
sg4727
I0
sg4728
S'34/41'
p4732
ssS'change'
p4733
(dp4734
g4726
I41
sg4727
I0
sg4728
S'7/17'
p4735
ssS'query'
p4736
(dp4737
g4726
I91
sg4727
I0
sg4728
S'59/65'
p4738
ssssVNetNewsWire 3.2
p4739
(dp4740
S'summary_display'
p4741
S'125/149'
p4742
sS'total_runs'
p4743
L9L
sS'summary_score'
p4744
I84
sS'results'
p4745
(dp4746
S'unapply'
p4747
(dp4748
S'score'
p4749
I73
sS'raw_score'
p4750
I0
sS'display'
p4751
S'19/26'
p4752
ssS'apply'
p4753
(dp4754
g4749
I95
sg4750
I0
sg4751
S'39/41'
p4755
ssS'change'
p4756
(dp4757
g4749
I100
sg4750
I0
sg4751
S'17/17'
p4758
ssS'query'
p4759
(dp4760
g4749
I77
sg4750
I0
sg4751
S'50/65'
p4761
ssssVIceweasel 2.0.0
p4762
(dp4763
S'summary_display'
p4764
S'117/149'
p4765
sS'total_runs'
p4766
L1L
sS'summary_score'
p4767
I79
sS'results'
p4768
(dp4769
S'unapply'
p4770
(dp4771
S'score'
p4772
I65
sS'raw_score'
p4773
I0
sS'display'
p4774
S'17/26'
p4775
ssS'apply'
p4776
(dp4777
g4772
I83
sg4773
I0
sg4774
S'34/41'
p4778
ssS'change'
p4779
(dp4780
g4772
I41
sg4773
I0
sg4774
S'7/17'
p4781
ssS'query'
p4782
(dp4783
g4772
I91
sg4773
I0
sg4774
S'59/65'
p4784
ssssVArora 0.5
p4785
(dp4786
S'summary_display'
p4787
S'111/149'
p4788
sS'total_runs'
p4789
L1L
sS'summary_score'
p4790
I74
sS'results'
p4791
(dp4792
S'unapply'
p4793
(dp4794
S'score'
p4795
I35
sS'raw_score'
p4796
I0
sS'display'
p4797
S'9/26'
p4798
ssS'apply'
p4799
(dp4800
g4795
I85
sg4796
I0
sg4797
S'35/41'
p4801
ssS'change'
p4802
(dp4803
g4795
I100
sg4796
I0
sg4797
S'17/17'
p4804
ssS'query'
p4805
(dp4806
g4795
I77
sg4796
I0
sg4797
S'50/65'
p4807
ssssVIron 2.0.178
p4808
(dp4809
S'summary_display'
p4810
S'125/149'
p4811
sS'total_runs'
p4812
L7L
sS'summary_score'
p4813
I84
sS'results'
p4814
(dp4815
S'unapply'
p4816
(dp4817
S'score'
p4818
I73
sS'raw_score'
p4819
I0
sS'display'
p4820
S'19/26'
p4821
ssS'apply'
p4822
(dp4823
g4818
I95
sg4819
I0
sg4820
S'39/41'
p4824
ssS'change'
p4825
(dp4826
g4818
I100
sg4819
I0
sg4820
S'17/17'
p4827
ssS'query'
p4828
(dp4829
g4818
I77
sg4819
I0
sg4820
S'50/65'
p4830
ssssVFlock 1.1
p4831
(dp4832
S'summary_display'
p4833
S'117/149'
p4834
sS'total_runs'
p4835
L1L
sS'summary_score'
p4836
I79
sS'results'
p4837
(dp4838
S'unapply'
p4839
(dp4840
S'score'
p4841
I65
sS'raw_score'
p4842
I0
sS'display'
p4843
S'17/26'
p4844
ssS'apply'
p4845
(dp4846
g4841
I83
sg4842
I0
sg4843
S'34/41'
p4847
ssS'change'
p4848
(dp4849
g4841
I41
sg4842
I0
sg4843
S'7/17'
p4850
ssS'query'
p4851
(dp4852
g4841
I91
sg4842
I0
sg4843
S'59/65'
p4853
ssssVCamino 2.0
p4854
(dp4855
S'summary_display'
p4856
S'117/149'
p4857
sS'total_runs'
p4858
L5L
sS'summary_score'
p4859
I79
sS'results'
p4860
(dp4861
S'unapply'
p4862
(dp4863
S'score'
p4864
I65
sS'raw_score'
p4865
I0
sS'display'
p4866
S'17/26'
p4867
ssS'apply'
p4868
(dp4869
g4864
I83
sg4865
I0
sg4866
S'34/41'
p4870
ssS'change'
p4871
(dp4872
g4864
I41
sg4865
I0
sg4866
S'7/17'
p4873
ssS'query'
p4874
(dp4875
g4864
I91
sg4865
I0
sg4866
S'59/65'
p4876
ssssVFirefox 3.6a2pre
p4877
(dp4878
S'summary_display'
p4879
S'117/149'
p4880
sS'total_runs'
p4881
L2L
sS'summary_score'
p4882
I79
sS'results'
p4883
(dp4884
S'unapply'
p4885
(dp4886
S'score'
p4887
I65
sS'raw_score'
p4888
I0
sS'display'
p4889
S'17/26'
p4890
ssS'apply'
p4891
(dp4892
g4887
I83
sg4888
I0
sg4889
S'34/41'
p4893
ssS'change'
p4894
(dp4895
g4887
I41
sg4888
I0
sg4889
S'7/17'
p4896
ssS'query'
p4897
(dp4898
g4887
I91
sg4888
I0
sg4889
S'59/65'
p4899
ssssVPalm Pre 1.0
p4900
(dp4901
S'summary_display'
p4902
S'129/149'
p4903
sS'total_runs'
p4904
L7L
sS'summary_score'
p4905
I87
sS'results'
p4906
(dp4907
S'unapply'
p4908
(dp4909
S'score'
p4910
I88
sS'raw_score'
p4911
I0
sS'display'
p4912
S'23/26'
p4913
ssS'apply'
p4914
(dp4915
g4910
I95
sg4911
I0
sg4912
S'39/41'
p4916
ssS'change'
p4917
(dp4918
g4910
I100
sg4911
I0
sg4912
S'17/17'
p4919
ssS'query'
p4920
(dp4921
g4910
I77
sg4911
I0
sg4912
S'50/65'
p4922
ssssVChrome Frame (IE 7) 4.0.211
p4923
(dp4924
S'summary_display'
p4925
S'129/149'
p4926
sS'total_runs'
p4927
L2L
sS'summary_score'
p4928
I87
sS'results'
p4929
(dp4930
S'unapply'
p4931
(dp4932
S'score'
p4933
I88
sS'raw_score'
p4934
I0
sS'display'
p4935
S'23/26'
p4936
ssS'apply'
p4937
(dp4938
g4933
I95
sg4934
I0
sg4935
S'39/41'
p4939
ssS'change'
p4940
(dp4941
g4933
I100
sg4934
I0
sg4935
S'17/17'
p4942
ssS'query'
p4943
(dp4944
g4933
I77
sg4934
I0
sg4935
S'50/65'
p4945
ssssVStainless 0.7
p4946
(dp4947
S'summary_display'
p4948
S'125/149'
p4949
sS'total_runs'
p4950
L4L
sS'summary_score'
p4951
I84
sS'results'
p4952
(dp4953
S'unapply'
p4954
(dp4955
S'score'
p4956
I73
sS'raw_score'
p4957
I0
sS'display'
p4958
S'19/26'
p4959
ssS'apply'
p4960
(dp4961
g4956
I95
sg4957
I0
sg4958
S'39/41'
p4962
ssS'change'
p4963
(dp4964
g4956
I100
sg4957
I0
sg4958
S'17/17'
p4965
ssS'query'
p4966
(dp4967
g4956
I77
sg4957
I0
sg4958
S'50/65'
p4968
ssssVStainless 0.6
p4969
(dp4970
S'summary_display'
p4971
S'125/149'
p4972
sS'total_runs'
p4973
L1L
sS'summary_score'
p4974
I84
sS'results'
p4975
(dp4976
S'unapply'
p4977
(dp4978
S'score'
p4979
I73
sS'raw_score'
p4980
I0
sS'display'
p4981
S'19/26'
p4982
ssS'apply'
p4983
(dp4984
g4979
I95
sg4980
I0
sg4981
S'39/41'
p4985
ssS'change'
p4986
(dp4987
g4979
I100
sg4980
I0
sg4981
S'17/17'
p4988
ssS'query'
p4989
(dp4990
g4979
I77
sg4980
I0
sg4981
S'50/65'
p4991
ssssVOpera Mini 4.2.13216
p4992
(dp4993
S'summary_display'
p4994
S'26/149'
p4995
sS'total_runs'
p4996
L2L
sS'summary_score'
p4997
I17
sS'results'
p4998
(dp4999
S'unapply'
p5000
(dp5001
S'score'
p5002
I100
sS'raw_score'
p5003
I0
sS'display'
p5004
S'26/26'
p5005
ssS'apply'
p5006
(dp5007
g5002
I0
sg5003
I0
sg5004
S'0/41'
p5008
ssS'change'
p5009
(dp5010
g5002
I0
sg5003
I0
sg5004
S'0/17'
p5011
ssS'query'
p5012
(dp5013
g5002
I0
sg5003
I0
sg5004
S'0/65'
p5014
ssssVIE 11.0
p5015
(dp5016
S'summary_display'
p5017
S'101/149'
p5018
sS'total_runs'
p5019
L1L
sS'summary_score'
p5020
I68
sS'results'
p5021
(dp5022
S'unapply'
p5023
(dp5024
S'score'
p5025
I54
sS'raw_score'
p5026
I0
sS'display'
p5027
S'14/26'
p5028
ssS'apply'
p5029
(dp5030
g5025
I59
sg5026
I0
sg5027
S'24/41'
p5031
ssS'change'
p5032
(dp5033
g5025
I29
sg5026
I0
sg5027
S'5/17'
p5034
ssS'query'
p5035
(dp5036
g5025
I89
sg5026
I0
sg5027
S'58/65'
p5037
ssssViCab 4.7
p5038
(dp5039
S'summary_display'
p5040
S'125/149'
p5041
sS'total_runs'
p5042
L1L
sS'summary_score'
p5043
I84
sS'results'
p5044
(dp5045
S'unapply'
p5046
(dp5047
S'score'
p5048
I73
sS'raw_score'
p5049
I0
sS'display'
p5050
S'19/26'
p5051
ssS'apply'
p5052
(dp5053
g5048
I95
sg5049
I0
sg5050
S'39/41'
p5054
ssS'change'
p5055
(dp5056
g5048
I100
sg5049
I0
sg5050
S'17/17'
p5057
ssS'query'
p5058
(dp5059
g5048
I77
sg5049
I0
sg5050
S'50/65'
p5060
ssssVK-Meleon 1.5.2
p5061
(dp5062
S'summary_display'
p5063
S'117/149'
p5064
sS'total_runs'
p5065
L2L
sS'summary_score'
p5066
I79
sS'results'
p5067
(dp5068
S'unapply'
p5069
(dp5070
S'score'
p5071
I65
sS'raw_score'
p5072
I0
sS'display'
p5073
S'17/26'
p5074
ssS'apply'
p5075
(dp5076
g5071
I83
sg5072
I0
sg5073
S'34/41'
p5077
ssS'change'
p5078
(dp5079
g5071
I41
sg5072
I0
sg5073
S'7/17'
p5080
ssS'query'
p5081
(dp5082
g5071
I91
sg5072
I0
sg5073
S'59/65'
p5083
ssssVK-Meleon 1.5.3
p5084
(dp5085
S'summary_display'
p5086
S'117/149'
p5087
sS'total_runs'
p5088
L7L
sS'summary_score'
p5089
I79
sS'results'
p5090
(dp5091
S'unapply'
p5092
(dp5093
S'score'
p5094
I65
sS'raw_score'
p5095
I0
sS'display'
p5096
S'17/26'
p5097
ssS'apply'
p5098
(dp5099
g5094
I83
sg5095
I0
sg5096
S'34/41'
p5100
ssS'change'
p5101
(dp5102
g5094
I41
sg5095
I0
sg5096
S'7/17'
p5103
ssS'query'
p5104
(dp5105
g5094
I91
sg5095
I0
sg5096
S'59/65'
p5106
ssssVOpera Mini 4.2.14320
p5107
(dp5108
S'summary_display'
p5109
S'26/149'
p5110
sS'total_runs'
p5111
L1L
sS'summary_score'
p5112
I17
sS'results'
p5113
(dp5114
S'unapply'
p5115
(dp5116
S'score'
p5117
I100
sS'raw_score'
p5118
I0
sS'display'
p5119
S'26/26'
p5120
ssS'apply'
p5121
(dp5122
g5117
I0
sg5118
I0
sg5119
S'0/41'
p5123
ssS'change'
p5124
(dp5125
g5117
I0
sg5118
I0
sg5119
S'0/17'
p5126
ssS'query'
p5127
(dp5128
g5117
I0
sg5118
I0
sg5119
S'0/65'
p5129
ssssVVodafone 1.0
p5130
(dp5131
S'summary_display'
p5132
S'117/149'
p5133
sS'total_runs'
p5134
L1L
sS'summary_score'
p5135
I79
sS'results'
p5136
(dp5137
S'unapply'
p5138
(dp5139
S'score'
p5140
I65
sS'raw_score'
p5141
I0
sS'display'
p5142
S'17/26'
p5143
ssS'apply'
p5144
(dp5145
g5140
I83
sg5141
I0
sg5142
S'34/41'
p5146
ssS'change'
p5147
(dp5148
g5140
I41
sg5141
I0
sg5142
S'7/17'
p5149
ssS'query'
p5150
(dp5151
g5140
I91
sg5141
I0
sg5142
S'59/65'
p5152
ssssVOpera 9.02
p5153
(dp5154
S'summary_display'
p5155
S'0/149'
p5156
sS'total_runs'
p5157
L1L
sS'summary_score'
p5158
I0
sS'results'
p5159
(dp5160
S'unapply'
p5161
(dp5162
S'score'
p5163
I0
sS'raw_score'
p5164
I0
sS'display'
p5165
S'0/26'
p5166
ssS'apply'
p5167
(dp5168
g5163
I0
sg5164
I0
sg5165
S'0/41'
p5169
ssS'change'
p5170
(dp5171
g5163
I0
sg5164
I0
sg5165
S'0/17'
p5172
ssS'query'
p5173
(dp5174
g5163
I0
sg5164
I0
sg5165
S'0/65'
p5175
ssssVUzbl 0
p5176
(dp5177
S'summary_display'
p5178
S'129/149'
p5179
sS'total_runs'
p5180
L24L
sS'summary_score'
p5181
I87
sS'results'
p5182
(dp5183
S'unapply'
p5184
(dp5185
S'score'
p5186
I88
sS'raw_score'
p5187
I0
sS'display'
p5188
S'23/26'
p5189
ssS'apply'
p5190
(dp5191
g5186
I95
sg5187
I0
sg5188
S'39/41'
p5192
ssS'change'
p5193
(dp5194
g5186
I100
sg5187
I0
sg5188
S'17/17'
p5195
ssS'query'
p5196
(dp5197
g5186
I77
sg5187
I0
sg5188
S'50/65'
p5198
ssssVArora 0.10
p5199
(dp5200
S'summary_display'
p5201
S'111/149'
p5202
sS'total_runs'
p5203
L7L
sS'summary_score'
p5204
I74
sS'results'
p5205
(dp5206
S'unapply'
p5207
(dp5208
S'score'
p5209
I35
sS'raw_score'
p5210
I0
sS'display'
p5211
S'9/26'
p5212
ssS'apply'
p5213
(dp5214
g5209
I85
sg5210
I0
sg5211
S'35/41'
p5215
ssS'change'
p5216
(dp5217
g5209
I100
sg5210
I0
sg5211
S'17/17'
p5218
ssS'query'
p5219
(dp5220
g5209
I77
sg5210
I0
sg5211
S'50/65'
p5221
ssssVOpera Mini 4.2.14912
p5222
(dp5223
S'summary_display'
p5224
S'26/149'
p5225
sS'total_runs'
p5226
L11L
sS'summary_score'
p5227
I17
sS'results'
p5228
(dp5229
S'unapply'
p5230
(dp5231
S'score'
p5232
I100
sS'raw_score'
p5233
I0
sS'display'
p5234
S'26/26'
p5235
ssS'apply'
p5236
(dp5237
g5232
I0
sg5233
I0
sg5234
S'0/41'
p5238
ssS'change'
p5239
(dp5240
g5232
I0
sg5233
I0
sg5234
S'0/17'
p5241
ssS'query'
p5242
(dp5243
g5232
I0
sg5233
I0
sg5234
S'0/65'
p5244
ssssVFirefox (Namoroka) 3.7a1pre
p5245
(dp5246
S'summary_display'
p5247
S'117/149'
p5248
sS'total_runs'
p5249
L1L
sS'summary_score'
p5250
I79
sS'results'
p5251
(dp5252
S'unapply'
p5253
(dp5254
S'score'
p5255
I65
sS'raw_score'
p5256
I0
sS'display'
p5257
S'17/26'
p5258
ssS'apply'
p5259
(dp5260
g5255
I83
sg5256
I0
sg5257
S'34/41'
p5261
ssS'change'
p5262
(dp5263
g5255
I41
sg5256
I0
sg5257
S'7/17'
p5264
ssS'query'
p5265
(dp5266
g5255
I91
sg5256
I0
sg5257
S'59/65'
p5267
ssssVChrome 4.0.249
p5268
(dp5269
S'summary_display'
p5270
S'129/149'
p5271
sS'total_runs'
p5272
L166L
sS'summary_score'
p5273
I87
sS'results'
p5274
(dp5275
S'unapply'
p5276
(dp5277
S'score'
p5278
I88
sS'raw_score'
p5279
I0
sS'display'
p5280
S'23/26'
p5281
ssS'apply'
p5282
(dp5283
g5278
I95
sg5279
I0
sg5280
S'39/41'
p5284
ssS'change'
p5285
(dp5286
g5278
I100
sg5279
I0
sg5280
S'17/17'
p5287
ssS'query'
p5288
(dp5289
g5278
I77
sg5279
I0
sg5280
S'50/65'
p5290
ssssVChrome 4.0.242
p5291
(dp5292
S'summary_display'
p5293
S'129/149'
p5294
sS'total_runs'
p5295
L1L
sS'summary_score'
p5296
I87
sS'results'
p5297
(dp5298
S'unapply'
p5299
(dp5300
S'score'
p5301
I88
sS'raw_score'
p5302
I0
sS'display'
p5303
S'23/26'
p5304
ssS'apply'
p5305
(dp5306
g5301
I95
sg5302
I0
sg5303
S'39/41'
p5307
ssS'change'
p5308
(dp5309
g5301
I100
sg5302
I0
sg5303
S'17/17'
p5310
ssS'query'
p5311
(dp5312
g5301
I77
sg5302
I0
sg5303
S'50/65'
p5313
ssssVChrome 4.0.240
p5314
(dp5315
S'summary_display'
p5316
S'129/149'
p5317
sS'total_runs'
p5318
L2L
sS'summary_score'
p5319
I87
sS'results'
p5320
(dp5321
S'unapply'
p5322
(dp5323
S'score'
p5324
I88
sS'raw_score'
p5325
I0
sS'display'
p5326
S'23/26'
p5327
ssS'apply'
p5328
(dp5329
g5324
I95
sg5325
I0
sg5326
S'39/41'
p5330
ssS'change'
p5331
(dp5332
g5324
I100
sg5325
I0
sg5326
S'17/17'
p5333
ssS'query'
p5334
(dp5335
g5324
I77
sg5325
I0
sg5326
S'50/65'
p5336
ssssVChrome 4.0.241
p5337
(dp5338
S'summary_display'
p5339
S'129/149'
p5340
sS'total_runs'
p5341
L3L
sS'summary_score'
p5342
I87
sS'results'
p5343
(dp5344
S'unapply'
p5345
(dp5346
S'score'
p5347
I88
sS'raw_score'
p5348
I0
sS'display'
p5349
S'23/26'
p5350
ssS'apply'
p5351
(dp5352
g5347
I95
sg5348
I0
sg5349
S'39/41'
p5353
ssS'change'
p5354
(dp5355
g5347
I100
sg5348
I0
sg5349
S'17/17'
p5356
ssS'query'
p5357
(dp5358
g5347
I77
sg5348
I0
sg5349
S'50/65'
p5359
ssssVChrome 4.0.246
p5360
(dp5361
S'summary_display'
p5362
S'129/149'
p5363
sS'total_runs'
p5364
L5L
sS'summary_score'
p5365
I87
sS'results'
p5366
(dp5367
S'unapply'
p5368
(dp5369
S'score'
p5370
I88
sS'raw_score'
p5371
I0
sS'display'
p5372
S'23/26'
p5373
ssS'apply'
p5374
(dp5375
g5370
I95
sg5371
I0
sg5372
S'39/41'
p5376
ssS'change'
p5377
(dp5378
g5370
I100
sg5371
I0
sg5372
S'17/17'
p5379
ssS'query'
p5380
(dp5381
g5370
I77
sg5371
I0
sg5372
S'50/65'
p5382
ssssVChrome 4.0.244
p5383
(dp5384
S'summary_display'
p5385
S'129/149'
p5386
sS'total_runs'
p5387
L3L
sS'summary_score'
p5388
I87
sS'results'
p5389
(dp5390
S'unapply'
p5391
(dp5392
S'score'
p5393
I88
sS'raw_score'
p5394
I0
sS'display'
p5395
S'23/26'
p5396
ssS'apply'
p5397
(dp5398
g5393
I95
sg5394
I0
sg5395
S'39/41'
p5399
ssS'change'
p5400
(dp5401
g5393
I100
sg5394
I0
sg5395
S'17/17'
p5402
ssS'query'
p5403
(dp5404
g5393
I77
sg5394
I0
sg5395
S'50/65'
p5405
ssssVChrome 4.0.245
p5406
(dp5407
S'summary_display'
p5408
S'129/149'
p5409
sS'total_runs'
p5410
L23L
sS'summary_score'
p5411
I87
sS'results'
p5412
(dp5413
S'unapply'
p5414
(dp5415
S'score'
p5416
I88
sS'raw_score'
p5417
I0
sS'display'
p5418
S'23/26'
p5419
ssS'apply'
p5420
(dp5421
g5416
I95
sg5417
I0
sg5418
S'39/41'
p5422
ssS'change'
p5423
(dp5424
g5416
I100
sg5417
I0
sg5418
S'17/17'
p5425
ssS'query'
p5426
(dp5427
g5416
I77
sg5417
I0
sg5418
S'50/65'
p5428
ssssVChrome 3.0.182
p5429
(dp5430
S'summary_display'
p5431
S'125/149'
p5432
sS'total_runs'
p5433
L2L
sS'summary_score'
p5434
I84
sS'results'
p5435
(dp5436
S'unapply'
p5437
(dp5438
S'score'
p5439
I73
sS'raw_score'
p5440
I0
sS'display'
p5441
S'19/26'
p5442
ssS'apply'
p5443
(dp5444
g5439
I95
sg5440
I0
sg5441
S'39/41'
p5445
ssS'change'
p5446
(dp5447
g5439
I100
sg5440
I0
sg5441
S'17/17'
p5448
ssS'query'
p5449
(dp5450
g5439
I77
sg5440
I0
sg5441
S'50/65'
p5451
ssssS'total_runs'
p5452
L16548L
sVFirefox 3.6b5
p5453
(dp5454
S'summary_display'
p5455
S'117/149'
p5456
sS'total_runs'
p5457
L25L
sS'summary_score'
p5458
I79
sS'results'
p5459
(dp5460
S'unapply'
p5461
(dp5462
S'score'
p5463
I65
sS'raw_score'
p5464
I0
sS'display'
p5465
S'17/26'
p5466
ssS'apply'
p5467
(dp5468
g5463
I83
sg5464
I0
sg5465
S'34/41'
p5469
ssS'change'
p5470
(dp5471
g5463
I41
sg5464
I0
sg5465
S'7/17'
p5472
ssS'query'
p5473
(dp5474
g5463
I91
sg5464
I0
sg5465
S'59/65'
p5475
ssssVFirefox 3.6b4
p5476
(dp5477
S'summary_display'
p5478
S'117/149'
p5479
sS'total_runs'
p5480
L47L
sS'summary_score'
p5481
I79
sS'results'
p5482
(dp5483
S'unapply'
p5484
(dp5485
S'score'
p5486
I65
sS'raw_score'
p5487
I0
sS'display'
p5488
S'17/26'
p5489
ssS'apply'
p5490
(dp5491
g5486
I83
sg5487
I0
sg5488
S'34/41'
p5492
ssS'change'
p5493
(dp5494
g5486
I41
sg5487
I0
sg5488
S'7/17'
p5495
ssS'query'
p5496
(dp5497
g5486
I91
sg5487
I0
sg5488
S'59/65'
p5498
ssssVFirefox 3.6b3
p5499
(dp5500
S'summary_display'
p5501
S'117/149'
p5502
sS'total_runs'
p5503
L15L
sS'summary_score'
p5504
I79
sS'results'
p5505
(dp5506
S'unapply'
p5507
(dp5508
S'score'
p5509
I65
sS'raw_score'
p5510
I0
sS'display'
p5511
S'17/26'
p5512
ssS'apply'
p5513
(dp5514
g5509
I83
sg5510
I0
sg5511
S'34/41'
p5515
ssS'change'
p5516
(dp5517
g5509
I41
sg5510
I0
sg5511
S'7/17'
p5518
ssS'query'
p5519
(dp5520
g5509
I91
sg5510
I0
sg5511
S'59/65'
p5521
ssssVFirefox 3.6b2
p5522
(dp5523
S'summary_display'
p5524
S'117/149'
p5525
sS'total_runs'
p5526
L22L
sS'summary_score'
p5527
I79
sS'results'
p5528
(dp5529
S'unapply'
p5530
(dp5531
S'score'
p5532
I65
sS'raw_score'
p5533
I0
sS'display'
p5534
S'17/26'
p5535
ssS'apply'
p5536
(dp5537
g5532
I83
sg5533
I0
sg5534
S'34/41'
p5538
ssS'change'
p5539
(dp5540
g5532
I41
sg5533
I0
sg5534
S'7/17'
p5541
ssS'query'
p5542
(dp5543
g5532
I91
sg5533
I0
sg5534
S'59/65'
p5544
ssssVFirefox 3.6b1
p5545
(dp5546
S'summary_display'
p5547
S'117/149'
p5548
sS'total_runs'
p5549
L13L
sS'summary_score'
p5550
I79
sS'results'
p5551
(dp5552
S'unapply'
p5553
(dp5554
S'score'
p5555
I65
sS'raw_score'
p5556
I0
sS'display'
p5557
S'17/26'
p5558
ssS'apply'
p5559
(dp5560
g5555
I83
sg5556
I0
sg5557
S'34/41'
p5561
ssS'change'
p5562
(dp5563
g5555
I41
sg5556
I0
sg5557
S'7/17'
p5564
ssS'query'
p5565
(dp5566
g5555
I91
sg5556
I0
sg5557
S'59/65'
p5567
ssssVNokia 5800
p5568
(dp5569
S'summary_display'
p5570
S'100/149'
p5571
sS'total_runs'
p5572
L3L
sS'summary_score'
p5573
I67
sS'results'
p5574
(dp5575
S'unapply'
p5576
(dp5577
S'score'
p5578
I31
sS'raw_score'
p5579
I0
sS'display'
p5580
S'8/26'
p5581
ssS'apply'
p5582
(dp5583
g5578
I68
sg5579
I0
sg5580
S'28/41'
p5584
ssS'change'
p5585
(dp5586
g5578
I100
sg5579
I0
sg5580
S'17/17'
p5587
ssS'query'
p5588
(dp5589
g5578
I72
sg5579
I0
sg5580
S'47/65'
p5590
ssssVMaxthon 3.0.6
p5591
(dp5592
S'summary_display'
p5593
S'129/149'
p5594
sS'total_runs'
p5595
L3L
sS'summary_score'
p5596
I87
sS'results'
p5597
(dp5598
S'unapply'
p5599
(dp5600
S'score'
p5601
I88
sS'raw_score'
p5602
I0
sS'display'
p5603
S'23/26'
p5604
ssS'apply'
p5605
(dp5606
g5601
I95
sg5602
I0
sg5603
S'39/41'
p5607
ssS'change'
p5608
(dp5609
g5601
I100
sg5602
I0
sg5603
S'17/17'
p5610
ssS'query'
p5611
(dp5612
g5601
I77
sg5602
I0
sg5603
S'50/65'
p5613
ssssVEpiphany 2.22
p5614
(dp5615
S'summary_display'
p5616
S'117/149'
p5617
sS'total_runs'
p5618
L7L
sS'summary_score'
p5619
I79
sS'results'
p5620
(dp5621
S'unapply'
p5622
(dp5623
S'score'
p5624
I65
sS'raw_score'
p5625
I0
sS'display'
p5626
S'17/26'
p5627
ssS'apply'
p5628
(dp5629
g5624
I83
sg5625
I0
sg5626
S'34/41'
p5630
ssS'change'
p5631
(dp5632
g5624
I41
sg5625
I0
sg5626
S'7/17'
p5633
ssS'query'
p5634
(dp5635
g5624
I91
sg5625
I0
sg5626
S'59/65'
p5636
ssssVChrome Frame (IE 8) 4.0.223
p5637
(dp5638
S'summary_display'
p5639
S'129/149'
p5640
sS'total_runs'
p5641
L2L
sS'summary_score'
p5642
I87
sS'results'
p5643
(dp5644
S'unapply'
p5645
(dp5646
S'score'
p5647
I88
sS'raw_score'
p5648
I0
sS'display'
p5649
S'23/26'
p5650
ssS'apply'
p5651
(dp5652
g5647
I95
sg5648
I0
sg5649
S'39/41'
p5653
ssS'change'
p5654
(dp5655
g5647
I100
sg5648
I0
sg5649
S'17/17'
p5656
ssS'query'
p5657
(dp5658
g5647
I77
sg5648
I0
sg5649
S'50/65'
p5659
ssssVFennec 1.0b4pre
p5660
(dp5661
S'summary_display'
p5662
S'117/149'
p5663
sS'total_runs'
p5664
L1L
sS'summary_score'
p5665
I79
sS'results'
p5666
(dp5667
S'unapply'
p5668
(dp5669
S'score'
p5670
I65
sS'raw_score'
p5671
I0
sS'display'
p5672
S'17/26'
p5673
ssS'apply'
p5674
(dp5675
g5670
I83
sg5671
I0
sg5672
S'34/41'
p5676
ssS'change'
p5677
(dp5678
g5670
I41
sg5671
I0
sg5672
S'7/17'
p5679
ssS'query'
p5680
(dp5681
g5670
I91
sg5671
I0
sg5672
S'59/65'
p5682
ssssVFirefox 3.6a1pre
p5683
(dp5684
S'summary_display'
p5685
S'117/149'
p5686
sS'total_runs'
p5687
L1L
sS'summary_score'
p5688
I79
sS'results'
p5689
(dp5690
S'unapply'
p5691
(dp5692
S'score'
p5693
I65
sS'raw_score'
p5694
I0
sS'display'
p5695
S'17/26'
p5696
ssS'apply'
p5697
(dp5698
g5693
I83
sg5694
I0
sg5695
S'34/41'
p5699
ssS'change'
p5700
(dp5701
g5693
I41
sg5694
I0
sg5695
S'7/17'
p5702
ssS'query'
p5703
(dp5704
g5693
I91
sg5694
I0
sg5695
S'59/65'
p5705
ssssVFirefox 3.5.4
p5706
(dp5707
S'summary_display'
p5708
S'117/149'
p5709
sS'total_runs'
p5710
L166L
sS'summary_score'
p5711
I79
sS'results'
p5712
(dp5713
S'unapply'
p5714
(dp5715
S'score'
p5716
I65
sS'raw_score'
p5717
I0
sS'display'
p5718
S'17/26'
p5719
ssS'apply'
p5720
(dp5721
g5716
I83
sg5717
I0
sg5718
S'34/41'
p5722
ssS'change'
p5723
(dp5724
g5716
I41
sg5717
I0
sg5718
S'7/17'
p5725
ssS'query'
p5726
(dp5727
g5716
I91
sg5717
I0
sg5718
S'59/65'
p5728
ssssVFirefox 3.5.5
p5729
(dp5730
S'summary_display'
p5731
S'117/149'
p5732
sS'total_runs'
p5733
L767L
sS'summary_score'
p5734
I79
sS'results'
p5735
(dp5736
S'unapply'
p5737
(dp5738
S'score'
p5739
I65
sS'raw_score'
p5740
I0
sS'display'
p5741
S'17/26'
p5742
ssS'apply'
p5743
(dp5744
g5739
I83
sg5740
I0
sg5741
S'34/41'
p5745
ssS'change'
p5746
(dp5747
g5739
I41
sg5740
I0
sg5741
S'7/17'
p5748
ssS'query'
p5749
(dp5750
g5739
I91
sg5740
I0
sg5741
S'59/65'
p5751
ssssVFirefox 3.5.6
p5752
(dp5753
S'summary_display'
p5754
S'117/149'
p5755
sS'total_runs'
p5756
L166L
sS'summary_score'
p5757
I79
sS'results'
p5758
(dp5759
S'unapply'
p5760
(dp5761
S'score'
p5762
I65
sS'raw_score'
p5763
I0
sS'display'
p5764
S'17/26'
p5765
ssS'apply'
p5766
(dp5767
g5762
I83
sg5763
I0
sg5764
S'34/41'
p5768
ssS'change'
p5769
(dp5770
g5762
I41
sg5763
I0
sg5764
S'7/17'
p5771
ssS'query'
p5772
(dp5773
g5762
I91
sg5763
I0
sg5764
S'59/65'
p5774
ssssVFirefox 3.5.7
p5775
(dp5776
S'summary_display'
p5777
S'117/149'
p5778
sS'total_runs'
p5779
L126L
sS'summary_score'
p5780
I79
sS'results'
p5781
(dp5782
S'unapply'
p5783
(dp5784
S'score'
p5785
I65
sS'raw_score'
p5786
I0
sS'display'
p5787
S'17/26'
p5788
ssS'apply'
p5789
(dp5790
g5785
I83
sg5786
I0
sg5787
S'34/41'
p5791
ssS'change'
p5792
(dp5793
g5785
I41
sg5786
I0
sg5787
S'7/17'
p5794
ssS'query'
p5795
(dp5796
g5785
I91
sg5786
I0
sg5787
S'59/65'
p5797
ssssVFirefox 3.5.1
p5798
(dp5799
S'summary_display'
p5800
S'117/149'
p5801
sS'total_runs'
p5802
L55L
sS'summary_score'
p5803
I79
sS'results'
p5804
(dp5805
S'unapply'
p5806
(dp5807
S'score'
p5808
I65
sS'raw_score'
p5809
I0
sS'display'
p5810
S'17/26'
p5811
ssS'apply'
p5812
(dp5813
g5808
I83
sg5809
I0
sg5810
S'34/41'
p5814
ssS'change'
p5815
(dp5816
g5808
I41
sg5809
I0
sg5810
S'7/17'
p5817
ssS'query'
p5818
(dp5819
g5808
I91
sg5809
I0
sg5810
S'59/65'
p5820
ssssVFirefox 3.5.2
p5821
(dp5822
S'summary_display'
p5823
S'117/149'
p5824
sS'total_runs'
p5825
L276L
sS'summary_score'
p5826
I79
sS'results'
p5827
(dp5828
S'unapply'
p5829
(dp5830
S'score'
p5831
I65
sS'raw_score'
p5832
I0
sS'display'
p5833
S'17/26'
p5834
ssS'apply'
p5835
(dp5836
g5831
I83
sg5832
I0
sg5833
S'34/41'
p5837
ssS'change'
p5838
(dp5839
g5831
I41
sg5832
I0
sg5833
S'7/17'
p5840
ssS'query'
p5841
(dp5842
g5831
I91
sg5832
I0
sg5833
S'59/65'
p5843
ssssVFirefox 3.5.3
p5844
(dp5845
S'summary_display'
p5846
S'117/149'
p5847
sS'total_runs'
p5848
L2175L
sS'summary_score'
p5849
I79
sS'results'
p5850
(dp5851
S'unapply'
p5852
(dp5853
S'score'
p5854
I65
sS'raw_score'
p5855
I0
sS'display'
p5856
S'17/26'
p5857
ssS'apply'
p5858
(dp5859
g5854
I83
sg5855
I0
sg5856
S'34/41'
p5860
ssS'change'
p5861
(dp5862
g5854
I41
sg5855
I0
sg5856
S'7/17'
p5863
ssS'query'
p5864
(dp5865
g5854
I91
sg5855
I0
sg5856
S'59/65'
p5866
ssssViPhone 3.0
p5867
(dp5868
S'summary_display'
p5869
S'118/149'
p5870
sS'total_runs'
p5871
L28L
sS'summary_score'
p5872
I79
sS'results'
p5873
(dp5874
S'unapply'
p5875
(dp5876
S'score'
p5877
I65
sS'raw_score'
p5878
I0
sS'display'
p5879
S'17/26'
p5880
ssS'apply'
p5881
(dp5882
g5877
I83
sg5878
I0
sg5879
S'34/41'
p5883
ssS'change'
p5884
(dp5885
g5877
I100
sg5878
I0
sg5879
S'17/17'
p5886
ssS'query'
p5887
(dp5888
g5877
I77
sg5878
I0
sg5879
S'50/65'
p5889
ssssViPhone 3.1
p5890
(dp5891
S'summary_display'
p5892
S'118/149'
p5893
sS'total_runs'
p5894
L80L
sS'summary_score'
p5895
I79
sS'results'
p5896
(dp5897
S'unapply'
p5898
(dp5899
S'score'
p5900
I65
sS'raw_score'
p5901
I0
sS'display'
p5902
S'17/26'
p5903
ssS'apply'
p5904
(dp5905
g5900
I83
sg5901
I0
sg5902
S'34/41'
p5906
ssS'change'
p5907
(dp5908
g5900
I100
sg5901
I0
sg5902
S'17/17'
p5909
ssS'query'
p5910
(dp5911
g5900
I77
sg5901
I0
sg5902
S'50/65'
p5912
ssssVNokia 97
p5913
(dp5914
S'summary_display'
p5915
S'100/149'
p5916
sS'total_runs'
p5917
L2L
sS'summary_score'
p5918
I67
sS'results'
p5919
(dp5920
S'unapply'
p5921
(dp5922
S'score'
p5923
I31
sS'raw_score'
p5924
I0
sS'display'
p5925
S'8/26'
p5926
ssS'apply'
p5927
(dp5928
g5923
I68
sg5924
I0
sg5925
S'28/41'
p5929
ssS'change'
p5930
(dp5931
g5923
I100
sg5924
I0
sg5925
S'17/17'
p5932
ssS'query'
p5933
(dp5934
g5923
I72
sg5924
I0
sg5925
S'47/65'
p5935
ssssVIceweasel 3.5
p5936
(dp5937
S'summary_display'
p5938
S'117/149'
p5939
sS'total_runs'
p5940
L17L
sS'summary_score'
p5941
I79
sS'results'
p5942
(dp5943
S'unapply'
p5944
(dp5945
S'score'
p5946
I65
sS'raw_score'
p5947
I0
sS'display'
p5948
S'17/26'
p5949
ssS'apply'
p5950
(dp5951
g5946
I83
sg5947
I0
sg5948
S'34/41'
p5952
ssS'change'
p5953
(dp5954
g5946
I41
sg5947
I0
sg5948
S'7/17'
p5955
ssS'query'
p5956
(dp5957
g5946
I91
sg5947
I0
sg5948
S'59/65'
p5958
ssssVChrome Frame (IE 6) 4.0.211
p5959
(dp5960
S'summary_display'
p5961
S'129/149'
p5962
sS'total_runs'
p5963
L2L
sS'summary_score'
p5964
I87
sS'results'
p5965
(dp5966
S'unapply'
p5967
(dp5968
S'score'
p5969
I88
sS'raw_score'
p5970
I0
sS'display'
p5971
S'23/26'
p5972
ssS'apply'
p5973
(dp5974
g5969
I95
sg5970
I0
sg5971
S'39/41'
p5975
ssS'change'
p5976
(dp5977
g5969
I100
sg5970
I0
sg5971
S'17/17'
p5978
ssS'query'
p5979
(dp5980
g5969
I77
sg5970
I0
sg5971
S'50/65'
p5981
ssssVSafari 3.0.4
p5982
(dp5983
S'summary_display'
p5984
S'103/149'
p5985
sS'total_runs'
p5986
L1L
sS'summary_score'
p5987
I69
sS'results'
p5988
(dp5989
S'unapply'
p5990
(dp5991
S'score'
p5992
I31
sS'raw_score'
p5993
I0
sS'display'
p5994
S'8/26'
p5995
ssS'apply'
p5996
(dp5997
g5992
I68
sg5993
I0
sg5994
S'28/41'
p5998
ssS'change'
p5999
(dp6000
g5992
I100
sg5993
I0
sg5994
S'17/17'
p6001
ssS'query'
p6002
(dp6003
g5992
I77
sg5993
I0
sg5994
S'50/65'
p6004
ssssVFirefox (Shiretoko) 3.5.8pre
p6005
(dp6006
S'summary_display'
p6007
S'117/149'
p6008
sS'total_runs'
p6009
L3L
sS'summary_score'
p6010
I79
sS'results'
p6011
(dp6012
S'unapply'
p6013
(dp6014
S'score'
p6015
I65
sS'raw_score'
p6016
I0
sS'display'
p6017
S'17/26'
p6018
ssS'apply'
p6019
(dp6020
g6015
I83
sg6016
I0
sg6017
S'34/41'
p6021
ssS'change'
p6022
(dp6023
g6015
I41
sg6016
I0
sg6017
S'7/17'
p6024
ssS'query'
p6025
(dp6026
g6015
I91
sg6016
I0
sg6017
S'59/65'
p6027
ssssVIron 3.0.197
p6028
(dp6029
S'summary_display'
p6030
S'129/149'
p6031
sS'total_runs'
p6032
L53L
sS'summary_score'
p6033
I87
sS'results'
p6034
(dp6035
S'unapply'
p6036
(dp6037
S'score'
p6038
I88
sS'raw_score'
p6039
I0
sS'display'
p6040
S'23/26'
p6041
ssS'apply'
p6042
(dp6043
g6038
I95
sg6039
I0
sg6040
S'39/41'
p6044
ssS'change'
p6045
(dp6046
g6038
I100
sg6039
I0
sg6040
S'17/17'
p6047
ssS'query'
p6048
(dp6049
g6038
I77
sg6039
I0
sg6040
S'50/65'
p6050
ssssVFlock 2.0.3
p6051
(dp6052
S'summary_display'
p6053
S'117/149'
p6054
sS'total_runs'
p6055
L3L
sS'summary_score'
p6056
I79
sS'results'
p6057
(dp6058
S'unapply'
p6059
(dp6060
S'score'
p6061
I65
sS'raw_score'
p6062
I0
sS'display'
p6063
S'17/26'
p6064
ssS'apply'
p6065
(dp6066
g6061
I83
sg6062
I0
sg6063
S'34/41'
p6067
ssS'change'
p6068
(dp6069
g6061
I41
sg6062
I0
sg6063
S'7/17'
p6070
ssS'query'
p6071
(dp6072
g6061
I91
sg6062
I0
sg6063
S'59/65'
p6073
ssssViPhone 3.0.1
p6074
(dp6075
S'summary_display'
p6076
S'118/149'
p6077
sS'total_runs'
p6078
L14L
sS'summary_score'
p6079
I79
sS'results'
p6080
(dp6081
S'unapply'
p6082
(dp6083
S'score'
p6084
I65
sS'raw_score'
p6085
I0
sS'display'
p6086
S'17/26'
p6087
ssS'apply'
p6088
(dp6089
g6084
I83
sg6085
I0
sg6086
S'34/41'
p6090
ssS'change'
p6091
(dp6092
g6084
I100
sg6085
I0
sg6086
S'17/17'
p6093
ssS'query'
p6094
(dp6095
g6084
I77
sg6085
I0
sg6086
S'50/65'
p6096
ssssVFirefox 3.2a1pre
p6097
(dp6098
S'summary_display'
p6099
S'117/149'
p6100
sS'total_runs'
p6101
L1L
sS'summary_score'
p6102
I79
sS'results'
p6103
(dp6104
S'unapply'
p6105
(dp6106
S'score'
p6107
I65
sS'raw_score'
p6108
I0
sS'display'
p6109
S'17/26'
p6110
ssS'apply'
p6111
(dp6112
g6107
I83
sg6108
I0
sg6109
S'34/41'
p6113
ssS'change'
p6114
(dp6115
g6107
I41
sg6108
I0
sg6109
S'7/17'
p6116
ssS'query'
p6117
(dp6118
g6107
I91
sg6108
I0
sg6109
S'59/65'
p6119
ssssVSafari 3.2.1
p6120
(dp6121
S'summary_display'
p6122
S'104/149'
p6123
sS'total_runs'
p6124
L9L
sS'summary_score'
p6125
I70
sS'results'
p6126
(dp6127
S'unapply'
p6128
(dp6129
S'score'
p6130
I35
sS'raw_score'
p6131
I0
sS'display'
p6132
S'9/26'
p6133
ssS'apply'
p6134
(dp6135
g6130
I68
sg6131
I0
sg6132
S'28/41'
p6136
ssS'change'
p6137
(dp6138
g6130
I100
sg6131
I0
sg6132
S'17/17'
p6139
ssS'query'
p6140
(dp6141
g6130
I77
sg6131
I0
sg6132
S'50/65'
p6142
ssssVSafari 3.2.3
p6143
(dp6144
S'summary_display'
p6145
S'104/149'
p6146
sS'total_runs'
p6147
L10L
sS'summary_score'
p6148
I70
sS'results'
p6149
(dp6150
S'unapply'
p6151
(dp6152
S'score'
p6153
I35
sS'raw_score'
p6154
I0
sS'display'
p6155
S'9/26'
p6156
ssS'apply'
p6157
(dp6158
g6153
I68
sg6154
I0
sg6155
S'28/41'
p6159
ssS'change'
p6160
(dp6161
g6153
I100
sg6154
I0
sg6155
S'17/17'
p6162
ssS'query'
p6163
(dp6164
g6153
I77
sg6154
I0
sg6155
S'50/65'
p6165
ssssVSafari 3.2.2
p6166
(dp6167
S'summary_display'
p6168
S'104/149'
p6169
sS'total_runs'
p6170
L1L
sS'summary_score'
p6171
I70
sS'results'
p6172
(dp6173
S'unapply'
p6174
(dp6175
S'score'
p6176
I35
sS'raw_score'
p6177
I0
sS'display'
p6178
S'9/26'
p6179
ssS'apply'
p6180
(dp6181
g6176
I68
sg6177
I0
sg6178
S'28/41'
p6182
ssS'change'
p6183
(dp6184
g6176
I100
sg6177
I0
sg6178
S'17/17'
p6185
ssS'query'
p6186
(dp6187
g6176
I77
sg6177
I0
sg6178
S'50/65'
p6188
ssssVCamino 2.1a1pre
p6189
(dp6190
S'summary_display'
p6191
S'112/149'
p6192
sS'total_runs'
p6193
L1L
sS'summary_score'
p6194
I75
sS'results'
p6195
(dp6196
S'unapply'
p6197
(dp6198
S'score'
p6199
I65
sS'raw_score'
p6200
I0
sS'display'
p6201
S'17/26'
p6202
ssS'apply'
p6203
(dp6204
g6199
I83
sg6200
I0
sg6201
S'34/41'
p6205
ssS'change'
p6206
(dp6207
g6199
I41
sg6200
I0
sg6201
S'7/17'
p6208
ssS'query'
p6209
(dp6210
g6199
I83
sg6200
I0
sg6201
S'54/65'
p6211
ssssVSleipnir 2.8.5
p6212
(dp6213
S'summary_display'
p6214
S'99/149'
p6215
sS'total_runs'
p6216
L10L
sS'summary_score'
p6217
I66
sS'results'
p6218
(dp6219
S'unapply'
p6220
(dp6221
S'score'
p6222
I54
sS'raw_score'
p6223
I0
sS'display'
p6224
S'14/26'
p6225
ssS'apply'
p6226
(dp6227
g6222
I59
sg6223
I0
sg6224
S'24/41'
p6228
ssS'change'
p6229
(dp6230
g6222
I29
sg6223
I0
sg6224
S'5/17'
p6231
ssS'query'
p6232
(dp6233
g6222
I86
sg6223
I0
sg6224
S'56/65'
p6234
ssssVFirefox (Shiretoko) 3.5.5pre
p6235
(dp6236
S'summary_display'
p6237
S'117/149'
p6238
sS'total_runs'
p6239
L3L
sS'summary_score'
p6240
I79
sS'results'
p6241
(dp6242
S'unapply'
p6243
(dp6244
S'score'
p6245
I65
sS'raw_score'
p6246
I0
sS'display'
p6247
S'17/26'
p6248
ssS'apply'
p6249
(dp6250
g6245
I83
sg6246
I0
sg6247
S'34/41'
p6251
ssS'change'
p6252
(dp6253
g6245
I41
sg6246
I0
sg6247
S'7/17'
p6254
ssS'query'
p6255
(dp6256
g6245
I91
sg6246
I0
sg6247
S'59/65'
p6257
ssssVCamino 1.6.7
p6258
(dp6259
S'summary_display'
p6260
S'117/149'
p6261
sS'total_runs'
p6262
L1L
sS'summary_score'
p6263
I79
sS'results'
p6264
(dp6265
S'unapply'
p6266
(dp6267
S'score'
p6268
I65
sS'raw_score'
p6269
I0
sS'display'
p6270
S'17/26'
p6271
ssS'apply'
p6272
(dp6273
g6268
I83
sg6269
I0
sg6270
S'34/41'
p6274
ssS'change'
p6275
(dp6276
g6268
I41
sg6269
I0
sg6270
S'7/17'
p6277
ssS'query'
p6278
(dp6279
g6268
I91
sg6269
I0
sg6270
S'59/65'
p6280
ssssVCamino 1.6.8
p6281
(dp6282
S'summary_display'
p6283
S'117/149'
p6284
sS'total_runs'
p6285
L1L
sS'summary_score'
p6286
I79
sS'results'
p6287
(dp6288
S'unapply'
p6289
(dp6290
S'score'
p6291
I65
sS'raw_score'
p6292
I0
sS'display'
p6293
S'17/26'
p6294
ssS'apply'
p6295
(dp6296
g6291
I83
sg6292
I0
sg6293
S'34/41'
p6297
ssS'change'
p6298
(dp6299
g6291
I41
sg6292
I0
sg6293
S'7/17'
p6300
ssS'query'
p6301
(dp6302
g6291
I91
sg6292
I0
sg6293
S'59/65'
p6303
ssssVCamino 1.6.9
p6304
(dp6305
S'summary_display'
p6306
S'117/149'
p6307
sS'total_runs'
p6308
L11L
sS'summary_score'
p6309
I79
sS'results'
p6310
(dp6311
S'unapply'
p6312
(dp6313
S'score'
p6314
I65
sS'raw_score'
p6315
I0
sS'display'
p6316
S'17/26'
p6317
ssS'apply'
p6318
(dp6319
g6314
I83
sg6315
I0
sg6316
S'34/41'
p6320
ssS'change'
p6321
(dp6322
g6314
I41
sg6315
I0
sg6316
S'7/17'
p6323
ssS'query'
p6324
(dp6325
g6314
I91
sg6315
I0
sg6316
S'59/65'
p6326
ssssVKonqueror 4.3
p6327
(dp6328
S'summary_display'
p6329
S'0/149'
p6330
sS'total_runs'
p6331
L25L
sS'summary_score'
p6332
I0
sS'results'
p6333
(dp6334
S'unapply'
p6335
(dp6336
S'score'
p6337
I0
sS'raw_score'
p6338
I0
sS'display'
p6339
S'0/26'
p6340
ssS'apply'
p6341
(dp6342
g6337
I0
sg6338
I0
sg6339
S'0/41'
p6343
ssS'change'
p6344
(dp6345
g6337
I0
sg6338
I0
sg6339
S'0/17'
p6346
ssS'query'
p6347
(dp6348
g6337
I0
sg6338
I0
sg6339
S'0/65'
p6349
ssssVKonqueror 4.2
p6350
(dp6351
S'summary_display'
p6352
S'0/149'
p6353
sS'total_runs'
p6354
L2L
sS'summary_score'
p6355
I0
sS'results'
p6356
(dp6357
S'unapply'
p6358
(dp6359
S'score'
p6360
I0
sS'raw_score'
p6361
I0
sS'display'
p6362
S'0/26'
p6363
ssS'apply'
p6364
(dp6365
g6360
I0
sg6361
I0
sg6362
S'0/41'
p6366
ssS'change'
p6367
(dp6368
g6360
I0
sg6361
I0
sg6362
S'0/17'
p6369
ssS'query'
p6370
(dp6371
g6360
I0
sg6361
I0
sg6362
S'0/65'
p6372
ssssVLunascape 4.9.9
p6373
(dp6374
S'summary_display'
p6375
S'111/149'
p6376
sS'total_runs'
p6377
L1L
sS'summary_score'
p6378
I74
sS'results'
p6379
(dp6380
S'unapply'
p6381
(dp6382
S'score'
p6383
I35
sS'raw_score'
p6384
I0
sS'display'
p6385
S'9/26'
p6386
ssS'apply'
p6387
(dp6388
g6383
I85
sg6384
I0
sg6385
S'35/41'
p6389
ssS'change'
p6390
(dp6391
g6383
I100
sg6384
I0
sg6385
S'17/17'
p6392
ssS'query'
p6393
(dp6394
g6383
I77
sg6384
I0
sg6385
S'50/65'
p6395
ssssVOpera 10.01
p6396
(dp6397
S'summary_display'
p6398
S'89/149'
p6399
sS'total_runs'
p6400
L112L
sS'summary_score'
p6401
I60
sS'results'
p6402
(dp6403
S'unapply'
p6404
(dp6405
S'score'
p6406
I50
sS'raw_score'
p6407
I0
sS'display'
p6408
S'13/26'
p6409
ssS'apply'
p6410
(dp6411
g6406
I63
sg6407
I0
sg6408
S'26/41'
p6412
ssS'change'
p6413
(dp6414
g6406
I41
sg6407
I0
sg6408
S'7/17'
p6415
ssS'query'
p6416
(dp6417
g6406
I66
sg6407
I0
sg6408
S'43/65'
p6418
ssssVOpera 10.00
p6419
(dp6420
S'summary_display'
p6421
S'89/149'
p6422
sS'total_runs'
p6423
L565L
sS'summary_score'
p6424
I60
sS'results'
p6425
(dp6426
S'unapply'
p6427
(dp6428
S'score'
p6429
I50
sS'raw_score'
p6430
I0
sS'display'
p6431
S'13/26'
p6432
ssS'apply'
p6433
(dp6434
g6429
I63
sg6430
I0
sg6431
S'26/41'
p6435
ssS'change'
p6436
(dp6437
g6429
I41
sg6430
I0
sg6431
S'7/17'
p6438
ssS'query'
p6439
(dp6440
g6429
I66
sg6430
I0
sg6431
S'43/65'
p6441
ssssVIceweasel 3.5.3
p6442
(dp6443
S'summary_display'
p6444
S'117/149'
p6445
sS'total_runs'
p6446
L3L
sS'summary_score'
p6447
I79
sS'results'
p6448
(dp6449
S'unapply'
p6450
(dp6451
S'score'
p6452
I65
sS'raw_score'
p6453
I0
sS'display'
p6454
S'17/26'
p6455
ssS'apply'
p6456
(dp6457
g6452
I83
sg6453
I0
sg6454
S'34/41'
p6458
ssS'change'
p6459
(dp6460
g6452
I41
sg6453
I0
sg6454
S'7/17'
p6461
ssS'query'
p6462
(dp6463
g6452
I91
sg6453
I0
sg6454
S'59/65'
p6464
ssssVIceweasel 3.5.2
p6465
(dp6466
S'summary_display'
p6467
S'117/149'
p6468
sS'total_runs'
p6469
L2L
sS'summary_score'
p6470
I79
sS'results'
p6471
(dp6472
S'unapply'
p6473
(dp6474
S'score'
p6475
I65
sS'raw_score'
p6476
I0
sS'display'
p6477
S'17/26'
p6478
ssS'apply'
p6479
(dp6480
g6475
I83
sg6476
I0
sg6477
S'34/41'
p6481
ssS'change'
p6482
(dp6483
g6475
I41
sg6476
I0
sg6477
S'7/17'
p6484
ssS'query'
p6485
(dp6486
g6475
I91
sg6476
I0
sg6477
S'59/65'
p6487
ssssVIceweasel 3.5.1
p6488
(dp6489
S'summary_display'
p6490
S'117/149'
p6491
sS'total_runs'
p6492
L1L
sS'summary_score'
p6493
I79
sS'results'
p6494
(dp6495
S'unapply'
p6496
(dp6497
S'score'
p6498
I65
sS'raw_score'
p6499
I0
sS'display'
p6500
S'17/26'
p6501
ssS'apply'
p6502
(dp6503
g6498
I83
sg6499
I0
sg6500
S'34/41'
p6504
ssS'change'
p6505
(dp6506
g6498
I41
sg6499
I0
sg6500
S'7/17'
p6507
ssS'query'
p6508
(dp6509
g6498
I91
sg6499
I0
sg6500
S'59/65'
p6510
ssssVIceweasel 3.5.6
p6511
(dp6512
S'summary_display'
p6513
S'114/145'
p6514
sS'total_runs'
p6515
L1L
sS'summary_score'
p6516
I79
sS'results'
p6517
(dp6518
S'unapply'
p6519
(dp6520
S'score'
p6521
I65
sS'raw_score'
p6522
I0
sS'display'
p6523
S'17/26'
p6524
ssS'apply'
p6525
(dp6526
g6521
I83
sg6522
I0
sg6523
S'33/40'
p6527
ssS'change'
p6528
(dp6529
g6521
I44
sg6522
I0
sg6523
S'7/16'
p6530
ssS'query'
p6531
(dp6532
g6521
I90
sg6522
I0
sg6523
S'57/63'
p6533
ssssVFirefox (Namoroka) 3.6b5pre
p6534
(dp6535
S'summary_display'
p6536
S'117/149'
p6537
sS'total_runs'
p6538
L5L
sS'summary_score'
p6539
I79
sS'results'
p6540
(dp6541
S'unapply'
p6542
(dp6543
S'score'
p6544
I65
sS'raw_score'
p6545
I0
sS'display'
p6546
S'17/26'
p6547
ssS'apply'
p6548
(dp6549
g6544
I83
sg6545
I0
sg6546
S'34/41'
p6550
ssS'change'
p6551
(dp6552
g6544
I41
sg6545
I0
sg6546
S'7/17'
p6553
ssS'query'
p6554
(dp6555
g6544
I91
sg6545
I0
sg6546
S'59/65'
p6556
ssssVIceweasel 3.5.4
p6557
(dp6558
S'summary_display'
p6559
S'117/149'
p6560
sS'total_runs'
p6561
L3L
sS'summary_score'
p6562
I79
sS'results'
p6563
(dp6564
S'unapply'
p6565
(dp6566
S'score'
p6567
I65
sS'raw_score'
p6568
I0
sS'display'
p6569
S'17/26'
p6570
ssS'apply'
p6571
(dp6572
g6567
I83
sg6568
I0
sg6569
S'34/41'
p6573
ssS'change'
p6574
(dp6575
g6567
I41
sg6568
I0
sg6569
S'7/17'
p6576
ssS'query'
p6577
(dp6578
g6567
I91
sg6568
I0
sg6569
S'59/65'
p6579
ssssVFirefox 3.0.15
p6580
(dp6581
S'summary_display'
p6582
S'117/149'
p6583
sS'total_runs'
p6584
L67L
sS'summary_score'
p6585
I79
sS'results'
p6586
(dp6587
S'unapply'
p6588
(dp6589
S'score'
p6590
I65
sS'raw_score'
p6591
I0
sS'display'
p6592
S'17/26'
p6593
ssS'apply'
p6594
(dp6595
g6590
I83
sg6591
I0
sg6592
S'34/41'
p6596
ssS'change'
p6597
(dp6598
g6590
I41
sg6591
I0
sg6592
S'7/17'
p6599
ssS'query'
p6600
(dp6601
g6590
I91
sg6591
I0
sg6592
S'59/65'
p6602
ssssVFirefox 3.0.14
p6603
(dp6604
S'summary_display'
p6605
S'117/149'
p6606
sS'total_runs'
p6607
L282L
sS'summary_score'
p6608
I79
sS'results'
p6609
(dp6610
S'unapply'
p6611
(dp6612
S'score'
p6613
I65
sS'raw_score'
p6614
I0
sS'display'
p6615
S'17/26'
p6616
ssS'apply'
p6617
(dp6618
g6613
I83
sg6614
I0
sg6615
S'34/41'
p6619
ssS'change'
p6620
(dp6621
g6613
I41
sg6614
I0
sg6615
S'7/17'
p6622
ssS'query'
p6623
(dp6624
g6613
I91
sg6614
I0
sg6615
S'59/65'
p6625
ssssVFirefox 3.0.17
p6626
(dp6627
S'summary_display'
p6628
S'117/149'
p6629
sS'total_runs'
p6630
L4L
sS'summary_score'
p6631
I79
sS'results'
p6632
(dp6633
S'unapply'
p6634
(dp6635
S'score'
p6636
I65
sS'raw_score'
p6637
I0
sS'display'
p6638
S'17/26'
p6639
ssS'apply'
p6640
(dp6641
g6636
I83
sg6637
I0
sg6638
S'34/41'
p6642
ssS'change'
p6643
(dp6644
g6636
I41
sg6637
I0
sg6638
S'7/17'
p6645
ssS'query'
p6646
(dp6647
g6636
I91
sg6637
I0
sg6638
S'59/65'
p6648
ssssVFirefox 3.0.16
p6649
(dp6650
S'summary_display'
p6651
S'117/149'
p6652
sS'total_runs'
p6653
L4L
sS'summary_score'
p6654
I79
sS'results'
p6655
(dp6656
S'unapply'
p6657
(dp6658
S'score'
p6659
I65
sS'raw_score'
p6660
I0
sS'display'
p6661
S'17/26'
p6662
ssS'apply'
p6663
(dp6664
g6659
I83
sg6660
I0
sg6661
S'34/41'
p6665
ssS'change'
p6666
(dp6667
g6659
I41
sg6660
I0
sg6661
S'7/17'
p6668
ssS'query'
p6669
(dp6670
g6659
I91
sg6660
I0
sg6661
S'59/65'
p6671
ssssVFirefox 3.0.11
p6672
(dp6673
S'summary_display'
p6674
S'117/149'
p6675
sS'total_runs'
p6676
L24L
sS'summary_score'
p6677
I79
sS'results'
p6678
(dp6679
S'unapply'
p6680
(dp6681
S'score'
p6682
I65
sS'raw_score'
p6683
I0
sS'display'
p6684
S'17/26'
p6685
ssS'apply'
p6686
(dp6687
g6682
I83
sg6683
I0
sg6684
S'34/41'
p6688
ssS'change'
p6689
(dp6690
g6682
I41
sg6683
I0
sg6684
S'7/17'
p6691
ssS'query'
p6692
(dp6693
g6682
I91
sg6683
I0
sg6684
S'59/65'
p6694
ssssVFirefox 3.0.10
p6695
(dp6696
S'summary_display'
p6697
S'117/149'
p6698
sS'total_runs'
p6699
L26L
sS'summary_score'
p6700
I79
sS'results'
p6701
(dp6702
S'unapply'
p6703
(dp6704
S'score'
p6705
I65
sS'raw_score'
p6706
I0
sS'display'
p6707
S'17/26'
p6708
ssS'apply'
p6709
(dp6710
g6705
I83
sg6706
I0
sg6707
S'34/41'
p6711
ssS'change'
p6712
(dp6713
g6705
I41
sg6706
I0
sg6707
S'7/17'
p6714
ssS'query'
p6715
(dp6716
g6705
I91
sg6706
I0
sg6707
S'59/65'
p6717
ssssVFirefox 3.0.13
p6718
(dp6719
S'summary_display'
p6720
S'117/149'
p6721
sS'total_runs'
p6722
L77L
sS'summary_score'
p6723
I79
sS'results'
p6724
(dp6725
S'unapply'
p6726
(dp6727
S'score'
p6728
I65
sS'raw_score'
p6729
I0
sS'display'
p6730
S'17/26'
p6731
ssS'apply'
p6732
(dp6733
g6728
I83
sg6729
I0
sg6730
S'34/41'
p6734
ssS'change'
p6735
(dp6736
g6728
I41
sg6729
I0
sg6730
S'7/17'
p6737
ssS'query'
p6738
(dp6739
g6728
I91
sg6729
I0
sg6730
S'59/65'
p6740
ssssVFirefox 3.0.12
p6741
(dp6742
S'summary_display'
p6743
S'117/149'
p6744
sS'total_runs'
p6745
L14L
sS'summary_score'
p6746
I79
sS'results'
p6747
(dp6748
S'unapply'
p6749
(dp6750
S'score'
p6751
I65
sS'raw_score'
p6752
I0
sS'display'
p6753
S'17/26'
p6754
ssS'apply'
p6755
(dp6756
g6751
I83
sg6752
I0
sg6753
S'34/41'
p6757
ssS'change'
p6758
(dp6759
g6751
I41
sg6752
I0
sg6753
S'7/17'
p6760
ssS'query'
p6761
(dp6762
g6751
I91
sg6752
I0
sg6753
S'59/65'
p6763
ssssVFirefox 3.1b3
p6764
(dp6765
S'summary_display'
p6766
S'117/149'
p6767
sS'total_runs'
p6768
L1L
sS'summary_score'
p6769
I79
sS'results'
p6770
(dp6771
S'unapply'
p6772
(dp6773
S'score'
p6774
I65
sS'raw_score'
p6775
I0
sS'display'
p6776
S'17/26'
p6777
ssS'apply'
p6778
(dp6779
g6774
I83
sg6775
I0
sg6776
S'34/41'
p6780
ssS'change'
p6781
(dp6782
g6774
I41
sg6775
I0
sg6776
S'7/17'
p6783
ssS'query'
p6784
(dp6785
g6774
I91
sg6775
I0
sg6776
S'59/65'
p6786
ssssVGranParadiso 3.0.12
p6787
(dp6788
S'summary_display'
p6789
S'117/149'
p6790
sS'total_runs'
p6791
L1L
sS'summary_score'
p6792
I79
sS'results'
p6793
(dp6794
S'unapply'
p6795
(dp6796
S'score'
p6797
I65
sS'raw_score'
p6798
I0
sS'display'
p6799
S'17/26'
p6800
ssS'apply'
p6801
(dp6802
g6797
I83
sg6798
I0
sg6799
S'34/41'
p6803
ssS'change'
p6804
(dp6805
g6797
I41
sg6798
I0
sg6799
S'7/17'
p6806
ssS'query'
p6807
(dp6808
g6797
I91
sg6798
I0
sg6799
S'59/65'
p6809
ssssVOpera 9.52
p6810
(dp6811
S'summary_display'
p6812
S'88/149'
p6813
sS'total_runs'
p6814
L1L
sS'summary_score'
p6815
I59
sS'results'
p6816
(dp6817
S'unapply'
p6818
(dp6819
S'score'
p6820
I50
sS'raw_score'
p6821
I0
sS'display'
p6822
S'13/26'
p6823
ssS'apply'
p6824
(dp6825
g6820
I63
sg6821
I0
sg6822
S'26/41'
p6826
ssS'change'
p6827
(dp6828
g6820
I41
sg6821
I0
sg6822
S'7/17'
p6829
ssS'query'
p6830
(dp6831
g6820
I65
sg6821
I0
sg6822
S'42/65'
p6832
ssssVOpera 9.51
p6833
(dp6834
S'summary_display'
p6835
S'88/149'
p6836
sS'total_runs'
p6837
L3L
sS'summary_score'
p6838
I59
sS'results'
p6839
(dp6840
S'unapply'
p6841
(dp6842
S'score'
p6843
I50
sS'raw_score'
p6844
I0
sS'display'
p6845
S'13/26'
p6846
ssS'apply'
p6847
(dp6848
g6843
I63
sg6844
I0
sg6845
S'26/41'
p6849
ssS'change'
p6850
(dp6851
g6843
I41
sg6844
I0
sg6845
S'7/17'
p6852
ssS'query'
p6853
(dp6854
g6843
I65
sg6844
I0
sg6845
S'42/65'
p6855
ssssVOpera 9.50
p6856
(dp6857
S'summary_display'
p6858
S'0/149'
p6859
sS'total_runs'
p6860
L1L
sS'summary_score'
p6861
I0
sS'results'
p6862
(dp6863
S'unapply'
p6864
(dp6865
S'score'
p6866
I0
sS'raw_score'
p6867
I0
sS'display'
p6868
S'0/26'
p6869
ssS'apply'
p6870
(dp6871
g6866
I0
sg6867
I0
sg6868
S'0/41'
p6872
ssS'change'
p6873
(dp6874
g6866
I0
sg6867
I0
sg6868
S'0/17'
p6875
ssS'query'
p6876
(dp6877
g6866
I0
sg6867
I0
sg6868
S'0/65'
p6878
ssssVChrome 4.0.211
p6879
(dp6880
S'summary_display'
p6881
S'129/149'
p6882
sS'total_runs'
p6883
L42L
sS'summary_score'
p6884
I87
sS'results'
p6885
(dp6886
S'unapply'
p6887
(dp6888
S'score'
p6889
I88
sS'raw_score'
p6890
I0
sS'display'
p6891
S'23/26'
p6892
ssS'apply'
p6893
(dp6894
g6889
I95
sg6890
I0
sg6891
S'39/41'
p6895
ssS'change'
p6896
(dp6897
g6889
I100
sg6890
I0
sg6891
S'17/17'
p6898
ssS'query'
p6899
(dp6900
g6889
I77
sg6890
I0
sg6891
S'50/65'
p6901
ssssVChrome 4.0.210
p6902
(dp6903
S'summary_display'
p6904
S'129/149'
p6905
sS'total_runs'
p6906
L3L
sS'summary_score'
p6907
I87
sS'results'
p6908
(dp6909
S'unapply'
p6910
(dp6911
S'score'
p6912
I88
sS'raw_score'
p6913
I0
sS'display'
p6914
S'23/26'
p6915
ssS'apply'
p6916
(dp6917
g6912
I95
sg6913
I0
sg6914
S'39/41'
p6918
ssS'change'
p6919
(dp6920
g6912
I100
sg6913
I0
sg6914
S'17/17'
p6921
ssS'query'
p6922
(dp6923
g6912
I77
sg6913
I0
sg6914
S'50/65'
p6924
ssssVChrome 4.0.213
p6925
(dp6926
S'summary_display'
p6927
S'129/149'
p6928
sS'total_runs'
p6929
L26L
sS'summary_score'
p6930
I87
sS'results'
p6931
(dp6932
S'unapply'
p6933
(dp6934
S'score'
p6935
I88
sS'raw_score'
p6936
I0
sS'display'
p6937
S'23/26'
p6938
ssS'apply'
p6939
(dp6940
g6935
I95
sg6936
I0
sg6937
S'39/41'
p6941
ssS'change'
p6942
(dp6943
g6935
I100
sg6936
I0
sg6937
S'17/17'
p6944
ssS'query'
p6945
(dp6946
g6935
I77
sg6936
I0
sg6937
S'50/65'
p6947
ssssVChrome 4.0.212
p6948
(dp6949
S'summary_display'
p6950
S'129/149'
p6951
sS'total_runs'
p6952
L20L
sS'summary_score'
p6953
I87
sS'results'
p6954
(dp6955
S'unapply'
p6956
(dp6957
S'score'
p6958
I88
sS'raw_score'
p6959
I0
sS'display'
p6960
S'23/26'
p6961
ssS'apply'
p6962
(dp6963
g6958
I95
sg6959
I0
sg6960
S'39/41'
p6964
ssS'change'
p6965
(dp6966
g6958
I100
sg6959
I0
sg6960
S'17/17'
p6967
ssS'query'
p6968
(dp6969
g6958
I77
sg6959
I0
sg6960
S'50/65'
p6970
ssssVChrome 2.0.164
p6971
(dp6972
S'summary_display'
p6973
S'125/149'
p6974
sS'total_runs'
p6975
L1L
sS'summary_score'
p6976
I84
sS'results'
p6977
(dp6978
S'unapply'
p6979
(dp6980
S'score'
p6981
I73
sS'raw_score'
p6982
I0
sS'display'
p6983
S'19/26'
p6984
ssS'apply'
p6985
(dp6986
g6981
I95
sg6982
I0
sg6983
S'39/41'
p6987
ssS'change'
p6988
(dp6989
g6981
I100
sg6982
I0
sg6983
S'17/17'
p6990
ssS'query'
p6991
(dp6992
g6981
I77
sg6982
I0
sg6983
S'50/65'
p6993
ssssVChrome 4.0.219
p6994
(dp6995
S'summary_display'
p6996
S'129/149'
p6997
sS'total_runs'
p6998
L10L
sS'summary_score'
p6999
I87
sS'results'
p7000
(dp7001
S'unapply'
p7002
(dp7003
S'score'
p7004
I88
sS'raw_score'
p7005
I0
sS'display'
p7006
S'23/26'
p7007
ssS'apply'
p7008
(dp7009
g7004
I95
sg7005
I0
sg7006
S'39/41'
p7010
ssS'change'
p7011
(dp7012
g7004
I100
sg7005
I0
sg7006
S'17/17'
p7013
ssS'query'
p7014
(dp7015
g7004
I77
sg7005
I0
sg7006
S'50/65'
p7016
ssssVMidori 0.2.0
p7017
(dp7018
S'summary_display'
p7019
S'125/149'
p7020
sS'total_runs'
p7021
L1L
sS'summary_score'
p7022
I84
sS'results'
p7023
(dp7024
S'unapply'
p7025
(dp7026
S'score'
p7027
I73
sS'raw_score'
p7028
I0
sS'display'
p7029
S'19/26'
p7030
ssS'apply'
p7031
(dp7032
g7027
I95
sg7028
I0
sg7029
S'39/41'
p7033
ssS'change'
p7034
(dp7035
g7027
I100
sg7028
I0
sg7029
S'17/17'
p7036
ssS'query'
p7037
(dp7038
g7027
I77
sg7028
I0
sg7029
S'50/65'
p7039
ssssVMidori 0.2.1
p7040
(dp7041
S'summary_display'
p7042
S'129/149'
p7043
sS'total_runs'
p7044
L4L
sS'summary_score'
p7045
I87
sS'results'
p7046
(dp7047
S'unapply'
p7048
(dp7049
S'score'
p7050
I88
sS'raw_score'
p7051
I0
sS'display'
p7052
S'23/26'
p7053
ssS'apply'
p7054
(dp7055
g7050
I95
sg7051
I0
sg7052
S'39/41'
p7056
ssS'change'
p7057
(dp7058
g7050
I100
sg7051
I0
sg7052
S'17/17'
p7059
ssS'query'
p7060
(dp7061
g7050
I77
sg7051
I0
sg7052
S'50/65'
p7062
ssssVMidori 0.2.2
p7063
(dp7064
S'summary_display'
p7065
S'129/149'
p7066
sS'total_runs'
p7067
L1L
sS'summary_score'
p7068
I87
sS'results'
p7069
(dp7070
S'unapply'
p7071
(dp7072
S'score'
p7073
I88
sS'raw_score'
p7074
I0
sS'display'
p7075
S'23/26'
p7076
ssS'apply'
p7077
(dp7078
g7073
I95
sg7074
I0
sg7075
S'39/41'
p7079
ssS'change'
p7080
(dp7081
g7073
I100
sg7074
I0
sg7075
S'17/17'
p7082
ssS'query'
p7083
(dp7084
g7073
I77
sg7074
I0
sg7075
S'50/65'
p7085
ssssVIE 7.0
p7086
(dp7087
S'summary_display'
p7088
S'99/149'
p7089
sS'total_runs'
p7090
L207L
sS'summary_score'
p7091
I66
sS'results'
p7092
(dp7093
S'unapply'
p7094
(dp7095
S'score'
p7096
I54
sS'raw_score'
p7097
I0
sS'display'
p7098
S'14/26'
p7099
ssS'apply'
p7100
(dp7101
g7096
I59
sg7097
I0
sg7098
S'24/41'
p7102
ssS'change'
p7103
(dp7104
g7096
I29
sg7097
I0
sg7098
S'5/17'
p7105
ssS'query'
p7106
(dp7107
g7096
I86
sg7097
I0
sg7098
S'56/65'
p7108
ssssVFirefox (Shiretoko) 3.5.4pre
p7109
(dp7110
S'summary_display'
p7111
S'117/149'
p7112
sS'total_runs'
p7113
L30L
sS'summary_score'
p7114
I79
sS'results'
p7115
(dp7116
S'unapply'
p7117
(dp7118
S'score'
p7119
I65
sS'raw_score'
p7120
I0
sS'display'
p7121
S'17/26'
p7122
ssS'apply'
p7123
(dp7124
g7119
I83
sg7120
I0
sg7121
S'34/41'
p7125
ssS'change'
p7126
(dp7127
g7119
I41
sg7120
I0
sg7121
S'7/17'
p7128
ssS'query'
p7129
(dp7130
g7119
I91
sg7120
I0
sg7121
S'59/65'
p7131
ssssVChrome 0.2.149
p7132
(dp7133
S'summary_display'
p7134
S'104/149'
p7135
sS'total_runs'
p7136
L2L
sS'summary_score'
p7137
I70
sS'results'
p7138
(dp7139
S'unapply'
p7140
(dp7141
S'score'
p7142
I35
sS'raw_score'
p7143
I0
sS'display'
p7144
S'9/26'
p7145
ssS'apply'
p7146
(dp7147
g7142
I68
sg7143
I0
sg7144
S'28/41'
p7148
ssS'change'
p7149
(dp7150
g7142
I100
sg7143
I0
sg7144
S'17/17'
p7151
ssS'query'
p7152
(dp7153
g7142
I77
sg7143
I0
sg7144
S'50/65'
p7154
ssssVFirefox (Shiretoko) 3.5.6pre
p7155
(dp7156
S'summary_display'
p7157
S'117/149'
p7158
sS'total_runs'
p7159
L8L
sS'summary_score'
p7160
I79
sS'results'
p7161
(dp7162
S'unapply'
p7163
(dp7164
S'score'
p7165
I65
sS'raw_score'
p7166
I0
sS'display'
p7167
S'17/26'
p7168
ssS'apply'
p7169
(dp7170
g7165
I83
sg7166
I0
sg7167
S'34/41'
p7171
ssS'change'
p7172
(dp7173
g7165
I41
sg7166
I0
sg7167
S'7/17'
p7174
ssS'query'
p7175
(dp7176
g7165
I91
sg7166
I0
sg7167
S'59/65'
p7177
ssssVQtWeb 3.1
p7178
(dp7179
S'summary_display'
p7180
S'111/149'
p7181
sS'total_runs'
p7182
L1L
sS'summary_score'
p7183
I74
sS'results'
p7184
(dp7185
S'unapply'
p7186
(dp7187
S'score'
p7188
I35
sS'raw_score'
p7189
I0
sS'display'
p7190
S'9/26'
p7191
ssS'apply'
p7192
(dp7193
g7188
I85
sg7189
I0
sg7190
S'35/41'
p7194
ssS'change'
p7195
(dp7196
g7188
I100
sg7189
I0
sg7190
S'17/17'
p7197
ssS'query'
p7198
(dp7199
g7188
I77
sg7189
I0
sg7190
S'50/65'
p7200
ssssVLunascape 5.1.2
p7201
(dp7202
S'summary_display'
p7203
S'123/149'
p7204
sS'total_runs'
p7205
L1L
sS'summary_score'
p7206
I83
sS'results'
p7207
(dp7208
S'unapply'
p7209
(dp7210
S'score'
p7211
I73
sS'raw_score'
p7212
I0
sS'display'
p7213
S'19/26'
p7214
ssS'apply'
p7215
(dp7216
g7211
I90
sg7212
I0
sg7213
S'37/41'
p7217
ssS'change'
p7218
(dp7219
g7211
I100
sg7212
I0
sg7213
S'17/17'
p7220
ssS'query'
p7221
(dp7222
g7211
I77
sg7212
I0
sg7213
S'50/65'
p7223
ssssVIron 2.0.168
p7224
(dp7225
S'summary_display'
p7226
S'125/149'
p7227
sS'total_runs'
p7228
L1L
sS'summary_score'
p7229
I84
sS'results'
p7230
(dp7231
S'unapply'
p7232
(dp7233
S'score'
p7234
I73
sS'raw_score'
p7235
I0
sS'display'
p7236
S'19/26'
p7237
ssS'apply'
p7238
(dp7239
g7234
I95
sg7235
I0
sg7236
S'39/41'
p7240
ssS'change'
p7241
(dp7242
g7234
I100
sg7235
I0
sg7236
S'17/17'
p7243
ssS'query'
p7244
(dp7245
g7234
I77
sg7235
I0
sg7236
S'50/65'
p7246
ssssVFirefox (Namoroka) 3.6b1pre
p7247
(dp7248
S'summary_display'
p7249
S'117/149'
p7250
sS'total_runs'
p7251
L3L
sS'summary_score'
p7252
I79
sS'results'
p7253
(dp7254
S'unapply'
p7255
(dp7256
S'score'
p7257
I65
sS'raw_score'
p7258
I0
sS'display'
p7259
S'17/26'
p7260
ssS'apply'
p7261
(dp7262
g7257
I83
sg7258
I0
sg7259
S'34/41'
p7263
ssS'change'
p7264
(dp7265
g7257
I41
sg7258
I0
sg7259
S'7/17'
p7266
ssS'query'
p7267
(dp7268
g7257
I91
sg7258
I0
sg7259
S'59/65'
p7269
ssssVFirefox (Namoroka) 3.6b4pre
p7270
(dp7271
S'summary_display'
p7272
S'117/149'
p7273
sS'total_runs'
p7274
L3L
sS'summary_score'
p7275
I79
sS'results'
p7276
(dp7277
S'unapply'
p7278
(dp7279
S'score'
p7280
I65
sS'raw_score'
p7281
I0
sS'display'
p7282
S'17/26'
p7283
ssS'apply'
p7284
(dp7285
g7280
I83
sg7281
I0
sg7282
S'34/41'
p7286
ssS'change'
p7287
(dp7288
g7280
I41
sg7281
I0
sg7282
S'7/17'
p7289
ssS'query'
p7290
(dp7291
g7280
I91
sg7281
I0
sg7282
S'59/65'
p7292
ssssVSafari 1.0
p7293
(dp7294
S'summary_display'
p7295
S'129/149'
p7296
sS'total_runs'
p7297
L2L
sS'summary_score'
p7298
I87
sS'results'
p7299
(dp7300
S'unapply'
p7301
(dp7302
S'score'
p7303
I88
sS'raw_score'
p7304
I0
sS'display'
p7305
S'23/26'
p7306
ssS'apply'
p7307
(dp7308
g7303
I95
sg7304
I0
sg7305
S'39/41'
p7309
ssS'change'
p7310
(dp7311
g7303
I100
sg7304
I0
sg7305
S'17/17'
p7312
ssS'query'
p7313
(dp7314
g7303
I77
sg7304
I0
sg7305
S'50/65'
p7315
ssssVLunascape 5.1.5
p7316
(dp7317
S'summary_display'
p7318
S'117/149'
p7319
sS'total_runs'
p7320
L9L
sS'summary_score'
p7321
I79
sS'results'
p7322
(dp7323
S'unapply'
p7324
(dp7325
S'score'
p7326
I65
sS'raw_score'
p7327
I0
sS'display'
p7328
S'17/26'
p7329
ssS'apply'
p7330
(dp7331
g7326
I83
sg7327
I0
sg7328
S'34/41'
p7332
ssS'change'
p7333
(dp7334
g7326
I41
sg7327
I0
sg7328
S'7/17'
p7335
ssS'query'
p7336
(dp7337
g7326
I91
sg7327
I0
sg7328
S'59/65'
p7338
ssssVSafari 3.2
p7339
(dp7340
S'summary_display'
p7341
S'104/149'
p7342
sS'total_runs'
p7343
L21L
sS'summary_score'
p7344
I70
sS'results'
p7345
(dp7346
S'unapply'
p7347
(dp7348
S'score'
p7349
I35
sS'raw_score'
p7350
I0
sS'display'
p7351
S'9/26'
p7352
ssS'apply'
p7353
(dp7354
g7349
I68
sg7350
I0
sg7351
S'28/41'
p7355
ssS'change'
p7356
(dp7357
g7349
I100
sg7350
I0
sg7351
S'17/17'
p7358
ssS'query'
p7359
(dp7360
g7349
I77
sg7350
I0
sg7351
S'50/65'
p7361
ssssVSafari 3.1
p7362
(dp7363
S'summary_display'
p7364
S'125/149'
p7365
sS'total_runs'
p7366
L13L
sS'summary_score'
p7367
I84
sS'results'
p7368
(dp7369
S'unapply'
p7370
(dp7371
S'score'
p7372
I73
sS'raw_score'
p7373
I0
sS'display'
p7374
S'19/26'
p7375
ssS'apply'
p7376
(dp7377
g7372
I95
sg7373
I0
sg7374
S'39/41'
p7378
ssS'change'
p7379
(dp7380
g7372
I100
sg7373
I0
sg7374
S'17/17'
p7381
ssS'query'
p7382
(dp7383
g7372
I77
sg7373
I0
sg7374
S'50/65'
p7384
ssssVSafari 3.0
p7385
(dp7386
S'summary_display'
p7387
S'103/149'
p7388
sS'total_runs'
p7389
L4L
sS'summary_score'
p7390
I69
sS'results'
p7391
(dp7392
S'unapply'
p7393
(dp7394
S'score'
p7395
I31
sS'raw_score'
p7396
I0
sS'display'
p7397
S'8/26'
p7398
ssS'apply'
p7399
(dp7400
g7395
I68
sg7396
I0
sg7397
S'28/41'
p7401
ssS'change'
p7402
(dp7403
g7395
I100
sg7396
I0
sg7397
S'17/17'
p7404
ssS'query'
p7405
(dp7406
g7395
I77
sg7396
I0
sg7397
S'50/65'
p7407
ssssVSeaMonkey 2.0.2
p7408
(dp7409
S'summary_display'
p7410
S'117/149'
p7411
sS'total_runs'
p7412
L2L
sS'summary_score'
p7413
I79
sS'results'
p7414
(dp7415
S'unapply'
p7416
(dp7417
S'score'
p7418
I65
sS'raw_score'
p7419
I0
sS'display'
p7420
S'17/26'
p7421
ssS'apply'
p7422
(dp7423
g7418
I83
sg7419
I0
sg7420
S'34/41'
p7424
ssS'change'
p7425
(dp7426
g7418
I41
sg7419
I0
sg7420
S'7/17'
p7427
ssS'query'
p7428
(dp7429
g7418
I91
sg7419
I0
sg7420
S'59/65'
p7430
ssssVSeaMonkey 2.0.1
p7431
(dp7432
S'summary_display'
p7433
S'117/149'
p7434
sS'total_runs'
p7435
L4L
sS'summary_score'
p7436
I79
sS'results'
p7437
(dp7438
S'unapply'
p7439
(dp7440
S'score'
p7441
I65
sS'raw_score'
p7442
I0
sS'display'
p7443
S'17/26'
p7444
ssS'apply'
p7445
(dp7446
g7441
I83
sg7442
I0
sg7443
S'34/41'
p7447
ssS'change'
p7448
(dp7449
g7441
I41
sg7442
I0
sg7443
S'7/17'
p7450
ssS'query'
p7451
(dp7452
g7441
I91
sg7442
I0
sg7443
S'59/65'
p7453
ssssVMaxthon 3.0
p7454
(dp7455
S'summary_display'
p7456
S'129/149'
p7457
sS'total_runs'
p7458
L6L
sS'summary_score'
p7459
I87
sS'results'
p7460
(dp7461
S'unapply'
p7462
(dp7463
S'score'
p7464
I88
sS'raw_score'
p7465
I0
sS'display'
p7466
S'23/26'
p7467
ssS'apply'
p7468
(dp7469
g7464
I95
sg7465
I0
sg7466
S'39/41'
p7470
ssS'change'
p7471
(dp7472
g7464
I100
sg7465
I0
sg7466
S'17/17'
p7473
ssS'query'
p7474
(dp7475
g7464
I77
sg7465
I0
sg7466
S'50/65'
p7476
ssssVKonqueror 4.3.1
p7477
(dp7478
S'summary_display'
p7479
S'109/149'
p7480
sS'total_runs'
p7481
L3L
sS'summary_score'
p7482
I73
sS'results'
p7483
(dp7484
S'unapply'
p7485
(dp7486
S'score'
p7487
I35
sS'raw_score'
p7488
I0
sS'display'
p7489
S'9/26'
p7490
ssS'apply'
p7491
(dp7492
g7487
I88
sg7488
I0
sg7489
S'36/41'
p7493
ssS'change'
p7494
(dp7495
g7487
I100
sg7488
I0
sg7489
S'17/17'
p7496
ssS'query'
p7497
(dp7498
g7487
I72
sg7488
I0
sg7489
S'47/65'
p7499
ssssVNetFront 3.5
p7500
(dp7501
S'summary_display'
p7502
S'0/149'
p7503
sS'total_runs'
p7504
L1L
sS'summary_score'
p7505
I0
sS'results'
p7506
(dp7507
S'unapply'
p7508
(dp7509
S'score'
p7510
I0
sS'raw_score'
p7511
I0
sS'display'
p7512
S'0/26'
p7513
ssS'apply'
p7514
(dp7515
g7510
I0
sg7511
I0
sg7512
S'0/41'
p7516
ssS'change'
p7517
(dp7518
g7510
I0
sg7511
I0
sg7512
S'0/17'
p7519
ssS'query'
p7520
(dp7521
g7510
I0
sg7511
I0
sg7512
S'0/65'
p7522
ssssVNetFront 3.4
p7523
(dp7524
S'summary_display'
p7525
S'117/149'
p7526
sS'total_runs'
p7527
L1L
sS'summary_score'
p7528
I79
sS'results'
p7529
(dp7530
S'unapply'
p7531
(dp7532
S'score'
p7533
I65
sS'raw_score'
p7534
I0
sS'display'
p7535
S'17/26'
p7536
ssS'apply'
p7537
(dp7538
g7533
I83
sg7534
I0
sg7535
S'34/41'
p7539
ssS'change'
p7540
(dp7541
g7533
I41
sg7534
I0
sg7535
S'7/17'
p7542
ssS'query'
p7543
(dp7544
g7533
I91
sg7534
I0
sg7535
S'59/65'
p7545
ssssVChrome 4.0.251
p7546
(dp7547
S'summary_display'
p7548
S'129/149'
p7549
sS'total_runs'
p7550
L4L
sS'summary_score'
p7551
I87
sS'results'
p7552
(dp7553
S'unapply'
p7554
(dp7555
S'score'
p7556
I88
sS'raw_score'
p7557
I0
sS'display'
p7558
S'23/26'
p7559
ssS'apply'
p7560
(dp7561
g7556
I95
sg7557
I0
sg7558
S'39/41'
p7562
ssS'change'
p7563
(dp7564
g7556
I100
sg7557
I0
sg7558
S'17/17'
p7565
ssS'query'
p7566
(dp7567
g7556
I77
sg7557
I0
sg7558
S'50/65'
p7568
ssssVChrome 4.0.250
p7569
(dp7570
S'summary_display'
p7571
S'129/149'
p7572
sS'total_runs'
p7573
L1L
sS'summary_score'
p7574
I87
sS'results'
p7575
(dp7576
S'unapply'
p7577
(dp7578
S'score'
p7579
I88
sS'raw_score'
p7580
I0
sS'display'
p7581
S'23/26'
p7582
ssS'apply'
p7583
(dp7584
g7579
I95
sg7580
I0
sg7581
S'39/41'
p7585
ssS'change'
p7586
(dp7587
g7579
I100
sg7580
I0
sg7581
S'17/17'
p7588
ssS'query'
p7589
(dp7590
g7579
I77
sg7580
I0
sg7581
S'50/65'
p7591
ssssVOpera 10.50
p7592
(dp7593
S'summary_display'
p7594
S'88/149'
p7595
sS'total_runs'
p7596
L143L
sS'summary_score'
p7597
I59
sS'results'
p7598
(dp7599
S'unapply'
p7600
(dp7601
S'score'
p7602
I50
sS'raw_score'
p7603
I0
sS'display'
p7604
S'13/26'
p7605
ssS'apply'
p7606
(dp7607
g7602
I63
sg7603
I0
sg7604
S'26/41'
p7608
ssS'change'
p7609
(dp7610
g7602
I41
sg7603
I0
sg7604
S'7/17'
p7611
ssS'query'
p7612
(dp7613
g7602
I65
sg7603
I0
sg7604
S'42/65'
p7614
ssssVChrome 4.0.252
p7615
(dp7616
S'summary_display'
p7617
S'129/149'
p7618
sS'total_runs'
p7619
L1L
sS'summary_score'
p7620
I87
sS'results'
p7621
(dp7622
S'unapply'
p7623
(dp7624
S'score'
p7625
I88
sS'raw_score'
p7626
I0
sS'display'
p7627
S'23/26'
p7628
ssS'apply'
p7629
(dp7630
g7625
I95
sg7626
I0
sg7627
S'39/41'
p7631
ssS'change'
p7632
(dp7633
g7625
I100
sg7626
I0
sg7627
S'17/17'
p7634
ssS'query'
p7635
(dp7636
g7625
I77
sg7626
I0
sg7627
S'50/65'
p7637
ssssVChrome 4.0.255
p7638
(dp7639
S'summary_display'
p7640
S'129/149'
p7641
sS'total_runs'
p7642
L1L
sS'summary_score'
p7643
I87
sS'results'
p7644
(dp7645
S'unapply'
p7646
(dp7647
S'score'
p7648
I88
sS'raw_score'
p7649
I0
sS'display'
p7650
S'23/26'
p7651
ssS'apply'
p7652
(dp7653
g7648
I95
sg7649
I0
sg7650
S'39/41'
p7654
ssS'change'
p7655
(dp7656
g7648
I100
sg7649
I0
sg7650
S'17/17'
p7657
ssS'query'
p7658
(dp7659
g7648
I77
sg7649
I0
sg7650
S'50/65'
p7660
ssssVChrome 4.0.254
p7661
(dp7662
S'summary_display'
p7663
S'129/149'
p7664
sS'total_runs'
p7665
L1L
sS'summary_score'
p7666
I87
sS'results'
p7667
(dp7668
S'unapply'
p7669
(dp7670
S'score'
p7671
I88
sS'raw_score'
p7672
I0
sS'display'
p7673
S'23/26'
p7674
ssS'apply'
p7675
(dp7676
g7671
I95
sg7672
I0
sg7673
S'39/41'
p7677
ssS'change'
p7678
(dp7679
g7671
I100
sg7672
I0
sg7673
S'17/17'
p7680
ssS'query'
p7681
(dp7682
g7671
I77
sg7672
I0
sg7673
S'50/65'
p7683
ssssVChrome 4.0.257
p7684
(dp7685
S'summary_display'
p7686
S'129/149'
p7687
sS'total_runs'
p7688
L2L
sS'summary_score'
p7689
I87
sS'results'
p7690
(dp7691
S'unapply'
p7692
(dp7693
S'score'
p7694
I88
sS'raw_score'
p7695
I0
sS'display'
p7696
S'23/26'
p7697
ssS'apply'
p7698
(dp7699
g7694
I95
sg7695
I0
sg7696
S'39/41'
p7700
ssS'change'
p7701
(dp7702
g7694
I100
sg7695
I0
sg7696
S'17/17'
p7703
ssS'query'
p7704
(dp7705
g7694
I77
sg7695
I0
sg7696
S'50/65'
p7706
ssssVChrome 4.0.256
p7707
(dp7708
S'summary_display'
p7709
S'129/149'
p7710
sS'total_runs'
p7711
L4L
sS'summary_score'
p7712
I87
sS'results'
p7713
(dp7714
S'unapply'
p7715
(dp7716
S'score'
p7717
I88
sS'raw_score'
p7718
I0
sS'display'
p7719
S'23/26'
p7720
ssS'apply'
p7721
(dp7722
g7717
I95
sg7718
I0
sg7719
S'39/41'
p7723
ssS'change'
p7724
(dp7725
g7717
I100
sg7718
I0
sg7719
S'17/17'
p7726
ssS'query'
p7727
(dp7728
g7717
I77
sg7718
I0
sg7719
S'50/65'
p7729
ssssVChrome 3.0.198
p7730
(dp7731
S'summary_display'
p7732
S'129/149'
p7733
sS'total_runs'
p7734
L2L
sS'summary_score'
p7735
I87
sS'results'
p7736
(dp7737
S'unapply'
p7738
(dp7739
S'score'
p7740
I88
sS'raw_score'
p7741
I0
sS'display'
p7742
S'23/26'
p7743
ssS'apply'
p7744
(dp7745
g7740
I95
sg7741
I0
sg7742
S'39/41'
p7746
ssS'change'
p7747
(dp7748
g7740
I100
sg7741
I0
sg7742
S'17/17'
p7749
ssS'query'
p7750
(dp7751
g7740
I77
sg7741
I0
sg7742
S'50/65'
p7752
ssssVChrome 3.0.191
p7753
(dp7754
S'summary_display'
p7755
S'125/149'
p7756
sS'total_runs'
p7757
L1L
sS'summary_score'
p7758
I84
sS'results'
p7759
(dp7760
S'unapply'
p7761
(dp7762
S'score'
p7763
I73
sS'raw_score'
p7764
I0
sS'display'
p7765
S'19/26'
p7766
ssS'apply'
p7767
(dp7768
g7763
I95
sg7764
I0
sg7765
S'39/41'
p7769
ssS'change'
p7770
(dp7771
g7763
I100
sg7764
I0
sg7765
S'17/17'
p7772
ssS'query'
p7773
(dp7774
g7763
I77
sg7764
I0
sg7765
S'50/65'
p7775
ssssVChrome 3.0.193
p7776
(dp7777
S'summary_display'
p7778
S'125/149'
p7779
sS'total_runs'
p7780
L1L
sS'summary_score'
p7781
I84
sS'results'
p7782
(dp7783
S'unapply'
p7784
(dp7785
S'score'
p7786
I73
sS'raw_score'
p7787
I0
sS'display'
p7788
S'19/26'
p7789
ssS'apply'
p7790
(dp7791
g7786
I95
sg7787
I0
sg7788
S'39/41'
p7792
ssS'change'
p7793
(dp7794
g7786
I100
sg7787
I0
sg7788
S'17/17'
p7795
ssS'query'
p7796
(dp7797
g7786
I77
sg7787
I0
sg7788
S'50/65'
p7798
ssssVChrome 3.0.195
p7799
(dp7800
S'summary_display'
p7801
S'126/149'
p7802
sS'total_runs'
p7803
L542L
sS'summary_score'
p7804
I85
sS'results'
p7805
(dp7806
S'unapply'
p7807
(dp7808
S'score'
p7809
I77
sS'raw_score'
p7810
I0
sS'display'
p7811
S'20/26'
p7812
ssS'apply'
p7813
(dp7814
g7809
I95
sg7810
I0
sg7811
S'39/41'
p7815
ssS'change'
p7816
(dp7817
g7809
I100
sg7810
I0
sg7811
S'17/17'
p7818
ssS'query'
p7819
(dp7820
g7809
I77
sg7810
I0
sg7811
S'50/65'
p7821
ssssVChrome 3.0.194
p7822
(dp7823
S'summary_display'
p7824
S'125/149'
p7825
sS'total_runs'
p7826
L1L
sS'summary_score'
p7827
I84
sS'results'
p7828
(dp7829
S'unapply'
p7830
(dp7831
S'score'
p7832
I73
sS'raw_score'
p7833
I0
sS'display'
p7834
S'19/26'
p7835
ssS'apply'
p7836
(dp7837
g7832
I95
sg7833
I0
sg7834
S'39/41'
p7838
ssS'change'
p7839
(dp7840
g7832
I100
sg7833
I0
sg7834
S'17/17'
p7841
ssS'query'
p7842
(dp7843
g7832
I77
sg7833
I0
sg7834
S'50/65'
p7844
ssssVChrome 3.0.196
p7845
(dp7846
S'summary_display'
p7847
S'129/149'
p7848
sS'total_runs'
p7849
L6L
sS'summary_score'
p7850
I87
sS'results'
p7851
(dp7852
S'unapply'
p7853
(dp7854
S'score'
p7855
I88
sS'raw_score'
p7856
I0
sS'display'
p7857
S'23/26'
p7858
ssS'apply'
p7859
(dp7860
g7855
I95
sg7856
I0
sg7857
S'39/41'
p7861
ssS'change'
p7862
(dp7863
g7855
I100
sg7856
I0
sg7857
S'17/17'
p7864
ssS'query'
p7865
(dp7866
g7855
I77
sg7856
I0
sg7857
S'50/65'
p7867
ssss.