(dp0
S'Konqueror'
p1
(dp2
S'total_runs'
p3
L1L
sS'score'
p4
I0
sS'results'
p5
(dp6
S'unapply'
p7
(dp8
g4
I0
sS'median'
p9
I0
sS'display'
p10
S'0/26'
p11
ssS'apply'
p12
(dp13
g4
I0
sg9
I0
sg10
S'0/41'
p14
ssS'change'
p15
(dp16
g4
I0
sg9
I0
sg10
S'0/17'
p17
ssS'query'
p18
(dp19
g4
I0
sg9
I0
sg10
S'0/65'
p20
sssg10
S'0/149'
p21
ssS'Firefox'
p22
(dp23
S'total_runs'
p24
L47L
sS'score'
p25
I8
sS'results'
p26
(dp27
S'unapply'
p28
(dp29
g25
I7
sS'median'
p30
L0L
sS'display'
p31
S'17/26'
p32
ssS'apply'
p33
(dp34
g25
I8
sg30
L0L
sg31
S'34/41'
p35
ssS'change'
p36
(dp37
g25
I4
sg30
L0L
sg31
S'7/17'
p38
ssS'query'
p39
(dp40
g25
I9
sg30
L0L
sg31
S'59/65'
p41
sssg31
S'117/149'
p42
ssS'Chrome'
p43
(dp44
S'total_runs'
p45
L34L
sS'score'
p46
I9
sS'results'
p47
(dp48
S'unapply'
p49
(dp50
g46
I9
sS'median'
p51
L0L
sS'display'
p52
S'23/26'
p53
ssS'apply'
p54
(dp55
g46
I10
sg51
L0L
sg52
S'39/41'
p56
ssS'change'
p57
(dp58
g46
I10
sg51
L0L
sg52
S'17/17'
p59
ssS'query'
p60
(dp61
g46
I8
sg51
L0L
sg52
S'50/65'
p62
sssg52
S'129/149'
p63
ssS'Camino'
p64
(dp65
S'total_runs'
p66
L2L
sS'score'
p67
I8
sS'results'
p68
(dp69
S'unapply'
p70
(dp71
g67
I7
sS'median'
p72
I0
sS'display'
p73
S'17/26'
p74
ssS'apply'
p75
(dp76
g67
I8
sg72
I0
sg73
S'34/41'
p77
ssS'change'
p78
(dp79
g67
I4
sg72
I0
sg73
S'7/17'
p80
ssS'query'
p81
(dp82
g67
I9
sg72
I0
sg73
S'59/65'
p83
sssg73
S'117/149'
p84
ssS'Opera'
p85
(dp86
S'total_runs'
p87
L14L
sS'score'
p88
I6
sS'results'
p89
(dp90
S'unapply'
p91
(dp92
g88
I5
sS'median'
p93
L0L
sS'display'
p94
S'13/26'
p95
ssS'apply'
p96
(dp97
g88
I6
sg93
L0L
sg94
S'26/41'
p98
ssS'change'
p99
(dp100
g88
I4
sg93
L0L
sg94
S'7/17'
p101
ssS'query'
p102
(dp103
g88
I7
sg93
L0L
sg94
S'45/65'
p104
sssg94
S'91/149'
p105
ssS'NetNewsWire'
p106
(dp107
S'total_runs'
p108
L1L
sS'score'
p109
I8
sS'results'
p110
(dp111
S'unapply'
p112
(dp113
g109
I7
sS'median'
p114
I0
sS'display'
p115
S'19/26'
p116
ssS'apply'
p117
(dp118
g109
I10
sg114
I0
sg115
S'39/41'
p119
ssS'change'
p120
(dp121
g109
I10
sg114
I0
sg115
S'17/17'
p122
ssS'query'
p123
(dp124
g109
I8
sg114
I0
sg115
S'50/65'
p125
sssg115
S'125/149'
p126
ssS'iPhone'
p127
(dp128
S'total_runs'
p129
L9L
sS'score'
p130
I8
sS'results'
p131
(dp132
S'unapply'
p133
(dp134
g130
I7
sS'median'
p135
I0
sS'display'
p136
S'17/26'
p137
ssS'apply'
p138
(dp139
g130
I8
sg135
I0
sg136
S'34/41'
p140
ssS'change'
p141
(dp142
g130
I10
sg135
I0
sg136
S'17/17'
p143
ssS'query'
p144
(dp145
g130
I8
sg135
I0
sg136
S'50/65'
p146
sssg136
S'118/149'
p147
ssS'Safari'
p148
(dp149
S'total_runs'
p150
L28L
sS'score'
p151
I8
sS'results'
p152
(dp153
S'unapply'
p154
(dp155
g151
I7
sS'median'
p156
L0L
sS'display'
p157
S'19/26'
p158
ssS'apply'
p159
(dp160
g151
I10
sg156
L0L
sg157
S'39/41'
p161
ssS'change'
p162
(dp163
g151
I10
sg156
L0L
sg157
S'17/17'
p164
ssS'query'
p165
(dp166
g151
I8
sg156
L0L
sg157
S'50/65'
p167
sssg157
S'125/149'
p168
ssS'Midori'
p169
(dp170
S'total_runs'
p171
L1L
sS'score'
p172
I8
sS'results'
p173
(dp174
S'unapply'
p175
(dp176
g172
I7
sS'median'
p177
I0
sS'display'
p178
S'19/26'
p179
ssS'apply'
p180
(dp181
g172
I10
sg177
I0
sg178
S'39/41'
p182
ssS'change'
p183
(dp184
g172
I10
sg177
I0
sg178
S'17/17'
p185
ssS'query'
p186
(dp187
g172
I8
sg177
I0
sg178
S'50/65'
p188
sssg178
S'125/149'
p189
ssS'Android'
p190
(dp191
S'total_runs'
p192
L2L
sS'score'
p193
I8
sS'results'
p194
(dp195
S'unapply'
p196
(dp197
g193
I7
sS'median'
p198
L0L
sS'display'
p199
S'17/26'
p200
ssS'apply'
p201
(dp202
g193
I8
sg198
L0L
sg199
S'34/41'
p203
ssS'change'
p204
(dp205
g193
I10
sg198
L0L
sg199
S'17/17'
p206
ssS'query'
p207
(dp208
g193
I8
sg198
L0L
sg199
S'50/65'
p209
sssg199
S'118/149'
p210
ssS'IE'
p211
(dp212
S'total_runs'
p213
L16L
sS'score'
p214
I7
sS'results'
p215
(dp216
S'unapply'
p217
(dp218
g214
I5
sS'median'
p219
L0L
sS'display'
p220
S'14/26'
p221
ssS'apply'
p222
(dp223
g214
I6
sg219
L0L
sg220
S'24/41'
p224
ssS'change'
p225
(dp226
g214
I3
sg219
L0L
sg220
S'5/17'
p227
ssS'query'
p228
(dp229
g214
I9
sg219
L0L
sg220
S'56/65'
p230
sssg220
S'99/149'
p231
ss.