(dp0
S'total_runs'
p1
L9152L
sS'Chrome 4'
p2
(dp3
S'summary_display'
p4
S'129/149'
p5
sS'total_runs'
p6
L1045L
sS'summary_score'
p7
I87
sS'results'
p8
(dp9
S'unapply'
p10
(dp11
S'score'
p12
I88
sS'raw_score'
p13
I0
sS'display'
p14
S'23/26'
p15
ssS'apply'
p16
(dp17
g12
I95
sg13
I0
sg14
S'39/41'
p18
ssS'change'
p19
(dp20
g12
I100
sg13
I0
sg14
S'17/17'
p21
ssS'query'
p22
(dp23
g12
I77
sg13
I0
sg14
S'50/65'
p24
ssssS'iPhone 3.1'
p25
(dp26
S'summary_display'
p27
S'118/149'
p28
sS'total_runs'
p29
L80L
sS'summary_score'
p30
I79
sS'results'
p31
(dp32
S'unapply'
p33
(dp34
S'score'
p35
I65
sS'raw_score'
p36
I0
sS'display'
p37
S'17/26'
p38
ssS'apply'
p39
(dp40
g35
I83
sg36
I0
sg37
S'34/41'
p41
ssS'change'
p42
(dp43
g35
I100
sg36
I0
sg37
S'17/17'
p44
ssS'query'
p45
(dp46
g35
I77
sg36
I0
sg37
S'50/65'
p47
ssssS'Chrome 3'
p48
(dp49
S'summary_display'
p50
S'126/149'
p51
sS'total_runs'
p52
L555L
sS'summary_score'
p53
I85
sS'results'
p54
(dp55
S'unapply'
p56
(dp57
S'score'
p58
I77
sS'raw_score'
p59
I0
sS'display'
p60
S'20/26'
p61
ssS'apply'
p62
(dp63
g58
I95
sg59
I0
sg60
S'39/41'
p64
ssS'change'
p65
(dp66
g58
I100
sg59
I0
sg60
S'17/17'
p67
ssS'query'
p68
(dp69
g58
I77
sg59
I0
sg60
S'50/65'
p70
ssssS'Opera 9.64'
p71
(dp72
S'summary_display'
p73
S'88/149'
p74
sS'total_runs'
p75
L30L
sS'summary_score'
p76
I59
sS'results'
p77
(dp78
S'unapply'
p79
(dp80
S'score'
p81
I50
sS'raw_score'
p82
I0
sS'display'
p83
S'13/26'
p84
ssS'apply'
p85
(dp86
g81
I63
sg82
I0
sg83
S'26/41'
p87
ssS'change'
p88
(dp89
g81
I41
sg82
I0
sg83
S'7/17'
p90
ssS'query'
p91
(dp92
g81
I65
sg82
I0
sg83
S'42/65'
p93
ssssS'IE 6'
p94
(dp95
S'summary_display'
p96
S'99/149'
p97
sS'total_runs'
p98
L104L
sS'summary_score'
p99
I66
sS'results'
p100
(dp101
S'unapply'
p102
(dp103
S'score'
p104
I54
sS'raw_score'
p105
I0
sS'display'
p106
S'14/26'
p107
ssS'apply'
p108
(dp109
g104
I59
sg105
I0
sg106
S'24/41'
p110
ssS'change'
p111
(dp112
g104
I29
sg105
I0
sg106
S'5/17'
p113
ssS'query'
p114
(dp115
g104
I86
sg105
I0
sg106
S'56/65'
p116
ssssS'Safari 3.2'
p117
(dp118
S'summary_display'
p119
S'104/149'
p120
sS'total_runs'
p121
L21L
sS'summary_score'
p122
I70
sS'results'
p123
(dp124
S'unapply'
p125
(dp126
S'score'
p127
I35
sS'raw_score'
p128
I0
sS'display'
p129
S'9/26'
p130
ssS'apply'
p131
(dp132
g127
I68
sg128
I0
sg129
S'28/41'
p133
ssS'change'
p134
(dp135
g127
I100
sg128
I0
sg129
S'17/17'
p136
ssS'query'
p137
(dp138
g127
I77
sg128
I0
sg129
S'50/65'
p139
ssssS'Safari 4.0'
p140
(dp141
S'summary_display'
p142
S'125/149'
p143
sS'total_runs'
p144
L984L
sS'summary_score'
p145
I84
sS'results'
p146
(dp147
S'unapply'
p148
(dp149
S'score'
p150
I73
sS'raw_score'
p151
I0
sS'display'
p152
S'19/26'
p153
ssS'apply'
p154
(dp155
g150
I95
sg151
I0
sg152
S'39/41'
p156
ssS'change'
p157
(dp158
g150
I100
sg151
I0
sg152
S'17/17'
p159
ssS'query'
p160
(dp161
g150
I77
sg151
I0
sg152
S'50/65'
p162
ssssS'IE 8'
p163
(dp164
S'summary_display'
p165
S'99/149'
p166
sS'total_runs'
p167
L474L
sS'summary_score'
p168
I66
sS'results'
p169
(dp170
S'unapply'
p171
(dp172
S'score'
p173
I54
sS'raw_score'
p174
I0
sS'display'
p175
S'14/26'
p176
ssS'apply'
p177
(dp178
g173
I59
sg174
I0
sg175
S'24/41'
p179
ssS'change'
p180
(dp181
g173
I29
sg174
I0
sg175
S'5/17'
p182
ssS'query'
p183
(dp184
g173
I86
sg174
I0
sg175
S'56/65'
p185
ssssS'Opera 10'
p186
(dp187
S'summary_display'
p188
S'89/149'
p189
sS'total_runs'
p190
L1263L
sS'summary_score'
p191
I60
sS'results'
p192
(dp193
S'unapply'
p194
(dp195
S'score'
p196
I50
sS'raw_score'
p197
I0
sS'display'
p198
S'13/26'
p199
ssS'apply'
p200
(dp201
g196
I63
sg197
I0
sg198
S'26/41'
p202
ssS'change'
p203
(dp204
g196
I41
sg197
I0
sg198
S'7/17'
p205
ssS'query'
p206
(dp207
g196
I66
sg197
I0
sg198
S'43/65'
p208
ssssS'iPhone 2.2'
p209
(dp210
S'summary_display'
p211
S'104/149'
p212
sS'total_runs'
p213
L8L
sS'summary_score'
p214
I70
sS'results'
p215
(dp216
S'unapply'
p217
(dp218
S'score'
p219
I35
sS'raw_score'
p220
I0
sS'display'
p221
S'9/26'
p222
ssS'apply'
p223
(dp224
g219
I68
sg220
I0
sg221
S'28/41'
p225
ssS'change'
p226
(dp227
g219
I100
sg220
I0
sg221
S'17/17'
p228
ssS'query'
p229
(dp230
g219
I77
sg220
I0
sg221
S'50/65'
p231
ssssS'Firefox 3.0'
p232
(dp233
S'summary_display'
p234
S'117/149'
p235
sS'total_runs'
p236
L582L
sS'summary_score'
p237
I79
sS'results'
p238
(dp239
S'unapply'
p240
(dp241
S'score'
p242
I65
sS'raw_score'
p243
I0
sS'display'
p244
S'17/26'
p245
ssS'apply'
p246
(dp247
g242
I83
sg243
I0
sg244
S'34/41'
p248
ssS'change'
p249
(dp250
g242
I41
sg243
I0
sg244
S'7/17'
p251
ssS'query'
p252
(dp253
g242
I91
sg243
I0
sg244
S'59/65'
p254
ssssS'Firefox 3.5'
p255
(dp256
S'summary_display'
p257
S'117/149'
p258
sS'total_runs'
p259
L3799L
sS'summary_score'
p260
I79
sS'results'
p261
(dp262
S'unapply'
p263
(dp264
S'score'
p265
I65
sS'raw_score'
p266
I0
sS'display'
p267
S'17/26'
p268
ssS'apply'
p269
(dp270
g265
I83
sg266
I0
sg267
S'34/41'
p271
ssS'change'
p272
(dp273
g265
I41
sg266
I0
sg267
S'7/17'
p274
ssS'query'
p275
(dp276
g265
I91
sg266
I0
sg267
S'59/65'
p277
ssssS'IE 7'
p278
(dp279
S'summary_display'
p280
S'99/149'
p281
sS'total_runs'
p282
L207L
sS'summary_score'
p283
I66
sS'results'
p284
(dp285
S'unapply'
p286
(dp287
S'score'
p288
I54
sS'raw_score'
p289
I0
sS'display'
p290
S'14/26'
p291
ssS'apply'
p292
(dp293
g288
I59
sg289
I0
sg290
S'24/41'
p294
ssS'change'
p295
(dp296
g288
I29
sg289
I0
sg290
S'5/17'
p297
ssS'query'
p298
(dp299
g288
I86
sg289
I0
sg290
S'56/65'
p300
ssss.