(dp0
S'total_runs'
p1
L6726L
sVFirefox
p2
(dp3
S'total_runs'
p4
L3221L
sS'score'
p5
I8
sS'results'
p6
(dp7
S'unapply'
p8
(dp9
g5
I7
sS'median'
p10
L0L
sS'display'
p11
S'17/26'
p12
ssS'apply'
p13
(dp14
g5
I8
sg10
L0L
sg11
S'34/41'
p15
ssS'change'
p16
(dp17
g5
I4
sg10
L0L
sg11
S'7/17'
p18
ssS'query'
p19
(dp20
g5
I9
sg10
L0L
sg11
S'59/65'
p21
sssg11
S'117/149'
p22
ssVChrome
p23
(dp24
S'total_runs'
p25
L1240L
sS'score'
p26
I9
sS'results'
p27
(dp28
S'unapply'
p29
(dp30
g26
I9
sS'median'
p31
L0L
sS'display'
p32
S'23/26'
p33
ssS'apply'
p34
(dp35
g26
I10
sg31
L0L
sg32
S'39/41'
p36
ssS'change'
p37
(dp38
g26
I10
sg31
L0L
sg32
S'17/17'
p39
ssS'query'
p40
(dp41
g26
I8
sg31
L0L
sg32
S'50/65'
p42
sssg32
S'129/149'
p43
ssVNokia
p44
(dp45
S'total_runs'
p46
L3L
sS'score'
p47
I7
sS'results'
p48
(dp49
S'unapply'
p50
(dp51
g47
I3
sS'median'
p52
L0L
sS'display'
p53
S'8/26'
p54
ssS'apply'
p55
(dp56
g47
I7
sg52
L0L
sg53
S'28/41'
p57
ssS'change'
p58
(dp59
g47
I10
sg52
L0L
sg53
S'17/17'
p60
ssS'query'
p61
(dp62
g47
I7
sg52
L0L
sg53
S'47/65'
p63
sssg53
S'100/149'
p64
ssVFirefox (Minefield)
p65
(dp66
S'total_runs'
p67
L96L
sS'score'
p68
I8
sS'results'
p69
(dp70
S'unapply'
p71
(dp72
g68
I7
sS'median'
p73
L0L
sS'display'
p74
S'17/26'
p75
ssS'apply'
p76
(dp77
g68
I8
sg73
L0L
sg74
S'34/41'
p78
ssS'change'
p79
(dp80
g68
I4
sg73
L0L
sg74
S'7/17'
p81
ssS'query'
p82
(dp83
g68
I9
sg73
L0L
sg74
S'59/65'
p84
sssg74
S'117/149'
p85
ssVFirefox (Shiretoko)
p86
(dp87
S'total_runs'
p88
L129L
sS'score'
p89
I8
sS'results'
p90
(dp91
S'unapply'
p92
(dp93
g89
I7
sS'median'
p94
L0L
sS'display'
p95
S'17/26'
p96
ssS'apply'
p97
(dp98
g89
I8
sg94
L0L
sg95
S'34/41'
p99
ssS'change'
p100
(dp101
g89
I4
sg94
L0L
sg95
S'7/17'
p102
ssS'query'
p103
(dp104
g89
I9
sg94
L0L
sg95
S'59/65'
p105
sssg95
S'117/149'
p106
ssVMaxthon
p107
(dp108
S'total_runs'
p109
L8L
sS'score'
p110
I7
sS'results'
p111
(dp112
S'unapply'
p113
(dp114
g110
I5
sS'median'
p115
L0L
sS'display'
p116
S'14/26'
p117
ssS'apply'
p118
(dp119
g110
I6
sg115
L0L
sg116
S'24/41'
p120
ssS'change'
p121
(dp122
g110
I3
sg115
L0L
sg116
S'5/17'
p123
ssS'query'
p124
(dp125
g110
I9
sg115
L0L
sg116
S'56/65'
p126
sssg116
S'99/149'
p127
ssVOpera
p128
(dp129
S'total_runs'
p130
L736L
sS'score'
p131
I6
sS'results'
p132
(dp133
S'unapply'
p134
(dp135
g131
I5
sS'median'
p136
L0L
sS'display'
p137
S'13/26'
p138
ssS'apply'
p139
(dp140
g131
I6
sg136
L0L
sg137
S'26/41'
p141
ssS'change'
p142
(dp143
g131
I4
sg136
L0L
sg137
S'7/17'
p144
ssS'query'
p145
(dp146
g131
I7
sg136
L0L
sg137
S'43/65'
p147
sssg137
S'89/149'
p148
ssVOther
p149
(dp150
S'total_runs'
p151
L33L
sS'score'
p152
I8
sS'results'
p153
(dp154
S'unapply'
p155
(dp156
g152
I7
sS'median'
p157
L0L
sS'display'
p158
S'18/26'
p159
ssS'apply'
p160
(dp161
g152
I10
sg157
L0L
sg158
S'39/41'
p162
ssS'change'
p163
(dp164
g152
I10
sg157
L0L
sg158
S'17/17'
p165
ssS'query'
p166
(dp167
g152
I8
sg157
L0L
sg158
S'49/65'
p168
sssg158
S'123/149'
p169
ssVSafari
p170
(dp171
g1
L714L
sS'score'
p172
I8
sS'results'
p173
(dp174
S'unapply'
p175
(dp176
g172
I7
sS'median'
p177
L0L
sS'display'
p178
S'19/26'
p179
ssS'apply'
p180
(dp181
g172
I10
sg177
L0L
sg178
S'39/41'
p182
ssS'change'
p183
(dp184
g172
I10
sg177
L0L
sg178
S'17/17'
p185
ssS'query'
p186
(dp187
g172
I8
sg177
L0L
sg178
S'50/65'
p188
sssg178
S'125/149'
p189
ssVOpera Mini
p190
(dp191
S'total_runs'
p192
L12L
sS'score'
p193
I2
sS'results'
p194
(dp195
S'unapply'
p196
(dp197
g193
I10
sS'median'
p198
L0L
sS'display'
p199
S'26/26'
p200
ssS'apply'
p201
(dp202
g193
I0
sg198
L0L
sg199
S'0/41'
p203
ssS'change'
p204
(dp205
g193
I0
sg198
L0L
sg199
S'0/17'
p206
ssS'query'
p207
(dp208
g193
I0
sg198
L0L
sg199
S'0/65'
p209
sssg199
S'26/149'
p210
ssVMaemo Browser
p211
(dp212
S'total_runs'
p213
L1L
sS'score'
p214
I8
sS'results'
p215
(dp216
S'unapply'
p217
(dp218
g214
I7
sS'median'
p219
I0
sS'display'
p220
S'17/26'
p221
ssS'apply'
p222
(dp223
g214
I8
sg219
I0
sg220
S'34/41'
p224
ssS'change'
p225
(dp226
g214
I4
sg219
I0
sg220
S'7/17'
p227
ssS'query'
p228
(dp229
g214
I9
sg219
I0
sg220
S'60/65'
p230
sssg220
S'118/149'
p231
ssVIE
p232
(dp233
S'total_runs'
p234
L533L
sS'score'
p235
I7
sS'results'
p236
(dp237
S'unapply'
p238
(dp239
g235
I5
sS'median'
p240
L0L
sS'display'
p241
S'14/26'
p242
ssS'apply'
p243
(dp244
g235
I6
sg240
L0L
sg241
S'24/41'
p245
ssS'change'
p246
(dp247
g235
I3
sg240
L0L
sg241
S'5/17'
p248
ssS'query'
p249
(dp250
g235
I9
sg240
L0L
sg241
S'56/65'
p251
sssg241
S'99/149'
p252
ss.