(dp0
VFirefox
p1
(dp2
S'total_runs'
p3
L11L
sS'score'
p4
I8
sS'results'
p5
(dp6
S'unapply'
p7
(dp8
g4
I7
sS'median'
p9
L0L
sS'display'
p10
S'17/26'
p11
ssS'apply'
p12
(dp13
g4
I8
sg9
L0L
sg10
S'34/41'
p14
ssS'change'
p15
(dp16
g4
I4
sg9
L0L
sg10
S'7/17'
p17
ssS'query'
p18
(dp19
g4
I9
sg9
L0L
sg10
S'61/65'
p20
sssg10
S'119/149'
p21
ssVChrome
p22
(dp23
S'total_runs'
p24
L13L
sS'score'
p25
I8
sS'results'
p26
(dp27
S'unapply'
p28
(dp29
g25
I8
sS'median'
p30
L0L
sS'display'
p31
S'20/26'
p32
ssS'apply'
p33
(dp34
g25
I10
sg30
L0L
sg31
S'39/41'
p35
ssS'change'
p36
(dp37
g25
I10
sg30
L0L
sg31
S'17/17'
p38
ssS'query'
p39
(dp40
g25
I8
sg30
L0L
sg31
S'50/65'
p41
sssg31
S'126/149'
p42
ssVOpera
p43
(dp44
S'total_runs'
p45
L7L
sS'score'
p46
I6
sS'results'
p47
(dp48
S'unapply'
p49
(dp50
g46
I5
sS'median'
p51
L0L
sS'display'
p52
S'13/26'
p53
ssS'apply'
p54
(dp55
g46
I6
sg51
L0L
sg52
S'26/41'
p56
ssS'change'
p57
(dp58
g46
I4
sg51
L0L
sg52
S'7/17'
p59
ssS'query'
p60
(dp61
g46
I7
sg51
L0L
sg52
S'44/65'
p62
sssg52
S'90/149'
p63
ssVSafari
p64
(dp65
S'total_runs'
p66
L6L
sS'score'
p67
I8
sS'results'
p68
(dp69
S'unapply'
p70
(dp71
g67
I7
sS'median'
p72
L0L
sS'display'
p73
S'17/26'
p74
ssS'apply'
p75
(dp76
g67
I9
sg72
L0L
sg73
S'36/41'
p77
ssS'change'
p78
(dp79
g67
I10
sg72
L0L
sg73
S'17/17'
p80
ssS'query'
p81
(dp82
g67
I8
sg72
L0L
sg73
S'50/65'
p83
sssg73
S'120/149'
p84
ssVAndroid
p85
(dp86
S'total_runs'
p87
L1L
sS'score'
p88
I8
sS'results'
p89
(dp90
S'unapply'
p91
(dp92
g88
I7
sS'median'
p93
L0L
sS'display'
p94
S'17/26'
p95
ssS'apply'
p96
(dp97
g88
I8
sg93
L0L
sg94
S'34/41'
p98
ssS'change'
p99
(dp100
g88
I10
sg93
L0L
sg94
S'17/17'
p101
ssS'query'
p102
(dp103
g88
I8
sg93
L0L
sg94
S'50/65'
p104
sssg94
S'118/149'
p105
ssVIE
p106
(dp107
S'total_runs'
p108
L8L
sS'score'
p109
I7
sS'results'
p110
(dp111
S'unapply'
p112
(dp113
g109
I5
sS'median'
p114
L0L
sS'display'
p115
S'14/26'
p116
ssS'apply'
p117
(dp118
g109
I6
sg114
L0L
sg115
S'24/41'
p119
ssS'change'
p120
(dp121
g109
I3
sg114
L0L
sg115
S'5/17'
p122
ssS'query'
p123
(dp124
g109
I9
sg114
L0L
sg115
S'56/65'
p125
sssg115
S'99/149'
p126
ss.