(dp0
S'SeaMonkey 1'
p1
(dp2
S'total_runs'
p3
L1L
sS'score'
p4
I8
sS'results'
p5
(dp6
S'unapply'
p7
(dp8
g4
I7
sS'median'
p9
I0
sS'display'
p10
S'17/26'
p11
ssS'apply'
p12
(dp13
g4
I8
sg9
I0
sg10
S'34/41'
p14
ssS'change'
p15
(dp16
g4
I4
sg9
I0
sg10
S'7/17'
p17
ssS'query'
p18
(dp19
g4
I9
sg9
I0
sg10
S'59/65'
p20
sssg10
S'117/149'
p21
ssS'Maxthon 3'
p22
(dp23
S'total_runs'
p24
L1L
sS'score'
p25
I8
sS'results'
p26
(dp27
S'unapply'
p28
(dp29
g25
I7
sS'median'
p30
L0L
sS'display'
p31
S'19/26'
p32
ssS'apply'
p33
(dp34
g25
I10
sg30
L0L
sg31
S'39/41'
p35
ssS'change'
p36
(dp37
g25
I10
sg30
L0L
sg31
S'17/17'
p38
ssS'query'
p39
(dp40
g25
I8
sg30
L0L
sg31
S'50/65'
p41
sssg31
S'125/149'
p42
ssS'Firefox (Namoroka) 3'
p43
(dp44
S'total_runs'
p45
L2L
sS'score'
p46
I8
sS'results'
p47
(dp48
S'unapply'
p49
(dp50
g46
I7
sS'median'
p51
L0L
sS'display'
p52
S'17/26'
p53
ssS'apply'
p54
(dp55
g46
I8
sg51
L0L
sg52
S'34/41'
p56
ssS'change'
p57
(dp58
g46
I4
sg51
L0L
sg52
S'7/17'
p59
ssS'query'
p60
(dp61
g46
I9
sg51
L0L
sg52
S'59/65'
p62
sssg52
S'117/149'
p63
ssS'IE 8'
p64
(dp65
S'total_runs'
p66
L26L
sS'score'
p67
I7
sS'results'
p68
(dp69
S'unapply'
p70
(dp71
g67
I5
sS'median'
p72
L0L
sS'display'
p73
S'14/26'
p74
ssS'apply'
p75
(dp76
g67
I6
sg72
L0L
sg73
S'24/41'
p77
ssS'change'
p78
(dp79
g67
I3
sg72
L0L
sg73
S'5/17'
p80
ssS'query'
p81
(dp82
g67
I9
sg72
L0L
sg73
S'56/65'
p83
sssg73
S'99/149'
p84
ssS'Opera 10'
p85
(dp86
S'total_runs'
p87
L30L
sS'score'
p88
I6
sS'results'
p89
(dp90
S'unapply'
p91
(dp92
g88
I5
sS'median'
p93
L0L
sS'display'
p94
S'13/26'
p95
ssS'apply'
p96
(dp97
g88
I6
sg93
L0L
sg94
S'26/41'
p98
ssS'change'
p99
(dp100
g88
I4
sg93
L0L
sg94
S'7/17'
p101
ssS'query'
p102
(dp103
g88
I7
sg93
L0L
sg94
S'43/65'
p104
sssg94
S'89/149'
p105
ssS'Midori 0'
p106
(dp107
S'total_runs'
p108
L1L
sS'score'
p109
I8
sS'results'
p110
(dp111
S'unapply'
p112
(dp113
g109
I7
sS'median'
p114
I0
sS'display'
p115
S'19/26'
p116
ssS'apply'
p117
(dp118
g109
I10
sg114
I0
sg115
S'39/41'
p119
ssS'change'
p120
(dp121
g109
I10
sg114
I0
sg115
S'17/17'
p122
ssS'query'
p123
(dp124
g109
I8
sg114
I0
sg115
S'50/65'
p125
sssg115
S'125/149'
p126
ssS'IE 6'
p127
(dp128
S'total_runs'
p129
L5L
sS'score'
p130
I7
sS'results'
p131
(dp132
S'unapply'
p133
(dp134
g130
I5
sS'median'
p135
L0L
sS'display'
p136
S'14/26'
p137
ssS'apply'
p138
(dp139
g130
I6
sg135
L0L
sg136
S'24/41'
p140
ssS'change'
p141
(dp142
g130
I3
sg135
L0L
sg136
S'5/17'
p143
ssS'query'
p144
(dp145
g130
I9
sg135
L0L
sg136
S'56/65'
p146
sssg136
S'99/149'
p147
ssS'IE 7'
p148
(dp149
S'total_runs'
p150
L8L
sS'score'
p151
I7
sS'results'
p152
(dp153
S'unapply'
p154
(dp155
g151
I5
sS'median'
p156
L0L
sS'display'
p157
S'14/26'
p158
ssS'apply'
p159
(dp160
g151
I6
sg156
L0L
sg157
S'24/41'
p161
ssS'change'
p162
(dp163
g151
I3
sg156
L0L
sg157
S'5/17'
p164
ssS'query'
p165
(dp166
g151
I9
sg156
L0L
sg157
S'56/65'
p167
sssg157
S'99/149'
p168
ssS'Firefox 2'
p169
(dp170
S'total_runs'
p171
L4L
sS'score'
p172
I8
sS'results'
p173
(dp174
S'unapply'
p175
(dp176
g172
I7
sS'median'
p177
L0L
sS'display'
p178
S'17/26'
p179
ssS'apply'
p180
(dp181
g172
I8
sg177
L0L
sg178
S'34/41'
p182
ssS'change'
p183
(dp184
g172
I4
sg177
L0L
sg178
S'7/17'
p185
ssS'query'
p186
(dp187
g172
I9
sg177
L0L
sg178
S'59/65'
p188
sssg178
S'117/149'
p189
ssS'Firefox 3'
p190
(dp191
S'total_runs'
p192
L256L
sS'score'
p193
I8
sS'results'
p194
(dp195
S'unapply'
p196
(dp197
g193
I7
sS'median'
p198
L0L
sS'display'
p199
S'17/26'
p200
ssS'apply'
p201
(dp202
g193
I8
sg198
L0L
sg199
S'34/41'
p203
ssS'change'
p204
(dp205
g193
I4
sg198
L0L
sg199
S'7/17'
p206
ssS'query'
p207
(dp208
g193
I9
sg198
L0L
sg199
S'59/65'
p209
sssg199
S'117/149'
p210
ssS'Chrome 4'
p211
(dp212
S'total_runs'
p213
L53L
sS'score'
p214
I9
sS'results'
p215
(dp216
S'unapply'
p217
(dp218
g214
I9
sS'median'
p219
L0L
sS'display'
p220
S'23/26'
p221
ssS'apply'
p222
(dp223
g214
I10
sg219
L0L
sg220
S'39/41'
p224
ssS'change'
p225
(dp226
g214
I10
sg219
L0L
sg220
S'17/17'
p227
ssS'query'
p228
(dp229
g214
I8
sg219
L0L
sg220
S'50/65'
p230
sssg220
S'129/149'
p231
ssS'Chrome 2'
p232
(dp233
S'total_runs'
p234
L26L
sS'score'
p235
I8
sS'results'
p236
(dp237
S'unapply'
p238
(dp239
g235
I7
sS'median'
p240
L0L
sS'display'
p241
S'19/26'
p242
ssS'apply'
p243
(dp244
g235
I10
sg240
L0L
sg241
S'39/41'
p245
ssS'change'
p246
(dp247
g235
I10
sg240
L0L
sg241
S'17/17'
p248
ssS'query'
p249
(dp250
g235
I8
sg240
L0L
sg241
S'50/65'
p251
sssg241
S'125/149'
p252
ssS'Chrome 3'
p253
(dp254
S'total_runs'
p255
L15L
sS'score'
p256
I8
sS'results'
p257
(dp258
S'unapply'
p259
(dp260
g256
I8
sS'median'
p261
L0L
sS'display'
p262
S'20/26'
p263
ssS'apply'
p264
(dp265
g256
I10
sg261
L0L
sg262
S'39/41'
p266
ssS'change'
p267
(dp268
g256
I10
sg261
L0L
sg262
S'17/17'
p269
ssS'query'
p270
(dp271
g256
I8
sg261
L0L
sg262
S'50/65'
p272
sssg262
S'126/149'
p273
ssS'Chrome 1'
p274
(dp275
S'total_runs'
p276
L5L
sS'score'
p277
I7
sS'results'
p278
(dp279
S'unapply'
p280
(dp281
g277
I3
sS'median'
p282
L0L
sS'display'
p283
S'8/26'
p284
ssS'apply'
p285
(dp286
g277
I7
sg282
L0L
sg283
S'28/41'
p287
ssS'change'
p288
(dp289
g277
I10
sg282
L0L
sg283
S'17/17'
p290
ssS'query'
p291
(dp292
g277
I8
sg282
L0L
sg283
S'50/65'
p293
sssg283
S'103/149'
p294
ssS'NetNewsWire 3'
p295
(dp296
S'total_runs'
p297
L2L
sS'score'
p298
I8
sS'results'
p299
(dp300
S'unapply'
p301
(dp302
g298
I7
sS'median'
p303
L0L
sS'display'
p304
S'19/26'
p305
ssS'apply'
p306
(dp307
g298
I10
sg303
L0L
sg304
S'39/41'
p308
ssS'change'
p309
(dp310
g298
I10
sg303
L0L
sg304
S'17/17'
p311
ssS'query'
p312
(dp313
g298
I8
sg303
L0L
sg304
S'50/65'
p314
sssg304
S'125/149'
p315
ssS'Safari 3'
p316
(dp317
S'total_runs'
p318
L3L
sS'score'
p319
I7
sS'results'
p320
(dp321
S'unapply'
p322
(dp323
g319
I3
sS'median'
p324
L0L
sS'display'
p325
S'8/26'
p326
ssS'apply'
p327
(dp328
g319
I7
sg324
L0L
sg325
S'28/41'
p329
ssS'change'
p330
(dp331
g319
I10
sg324
L0L
sg325
S'17/17'
p332
ssS'query'
p333
(dp334
g319
I8
sg324
L0L
sg325
S'50/65'
p335
sssg325
S'103/149'
p336
ssS'Safari 4'
p337
(dp338
g192
L90L
sg193
I8
sg194
(dp339
g196
(dp340
g193
I7
sg198
L0L
sg199
S'19/26'
p341
ssg201
(dp342
g193
I10
sg198
L0L
sg199
S'39/41'
p343
ssg204
(dp344
g193
I10
sg198
L0L
sg199
S'17/17'
p345
ssg207
(dp346
g193
I8
sg198
L0L
sg199
S'50/65'
p347
sssg199
S'125/149'
p348
ssS'iPhone 3'
p349
(dp350
S'total_runs'
p351
L15L
sS'score'
p352
I8
sS'results'
p353
(dp354
S'unapply'
p355
(dp356
g352
I7
sS'median'
p357
I0
sS'display'
p358
S'17/26'
p359
ssS'apply'
p360
(dp361
g352
I8
sg357
I0
sg358
S'34/41'
p362
ssS'change'
p363
(dp364
g352
I10
sg357
I0
sg358
S'17/17'
p365
ssS'query'
p366
(dp367
g352
I8
sg357
I0
sg358
S'50/65'
p368
sssg358
S'118/149'
p369
ssS'iPhone 2'
p370
(dp371
S'total_runs'
p372
L3L
sS'score'
p373
I7
sS'results'
p374
(dp375
S'unapply'
p376
(dp377
g373
I3
sS'median'
p378
L0L
sS'display'
p379
S'9/26'
p380
ssS'apply'
p381
(dp382
g373
I7
sg378
L0L
sg379
S'28/41'
p383
ssS'change'
p384
(dp385
g373
I10
sg378
L0L
sg379
S'17/17'
p386
ssS'query'
p387
(dp388
g373
I8
sg378
L0L
sg379
S'50/65'
p389
sssg379
S'104/149'
p390
ssS'Iron 2'
p391
(dp392
S'total_runs'
p393
L1L
sS'score'
p394
I8
sS'results'
p395
(dp396
S'unapply'
p397
(dp398
g394
I7
sS'median'
p399
L0L
sS'display'
p400
S'19/26'
p401
ssS'apply'
p402
(dp403
g394
I10
sg399
L0L
sg400
S'39/41'
p404
ssS'change'
p405
(dp406
g394
I10
sg399
L0L
sg400
S'17/17'
p407
ssS'query'
p408
(dp409
g394
I8
sg399
L0L
sg400
S'50/65'
p410
sssg400
S'125/149'
p411
ssS'Iceweasel 3'
p412
(dp413
S'total_runs'
p414
L2L
sS'score'
p415
I8
sS'results'
p416
(dp417
S'unapply'
p418
(dp419
g415
I7
sS'median'
p420
L0L
sS'display'
p421
S'17/26'
p422
ssS'apply'
p423
(dp424
g415
I8
sg420
L0L
sg421
S'34/41'
p425
ssS'change'
p426
(dp427
g415
I4
sg420
L0L
sg421
S'7/17'
p428
ssS'query'
p429
(dp430
g415
I9
sg420
L0L
sg421
S'59/65'
p431
sssg421
S'117/149'
p432
ssS'Firefox (Shiretoko) 3'
p433
(dp434
S'total_runs'
p435
L15L
sS'score'
p436
I8
sS'results'
p437
(dp438
S'unapply'
p439
(dp440
g436
I7
sS'median'
p441
L0L
sS'display'
p442
S'17/26'
p443
ssS'apply'
p444
(dp445
g436
I8
sg441
L0L
sg442
S'34/41'
p446
ssS'change'
p447
(dp448
g436
I4
sg441
L0L
sg442
S'7/17'
p449
ssS'query'
p450
(dp451
g436
I9
sg441
L0L
sg442
S'59/65'
p452
sssg442
S'117/149'
p453
ssS'Fennec 1'
p454
(dp455
S'total_runs'
p456
L1L
sS'score'
p457
I8
sS'results'
p458
(dp459
S'unapply'
p460
(dp461
g457
I7
sS'median'
p462
I0
sS'display'
p463
S'17/26'
p464
ssS'apply'
p465
(dp466
g457
I8
sg462
I0
sg463
S'34/41'
p467
ssS'change'
p468
(dp469
g457
I4
sg462
I0
sg463
S'7/17'
p470
ssS'query'
p471
(dp472
g457
I9
sg462
I0
sg463
S'59/65'
p473
sssg463
S'117/149'
p474
ssS'SeaMonkey 2'
p475
(dp476
S'total_runs'
p477
L1L
sS'score'
p478
I8
sS'results'
p479
(dp480
S'unapply'
p481
(dp482
g478
I7
sS'median'
p483
I0
sS'display'
p484
S'19/26'
p485
ssS'apply'
p486
(dp487
g478
I8
sg483
I0
sg484
S'34/41'
p488
ssS'change'
p489
(dp490
g478
I4
sg483
I0
sg484
S'7/17'
p491
ssS'query'
p492
(dp493
g478
I9
sg483
I0
sg484
S'59/65'
p494
sssg484
S'119/149'
p495
ssS'Konqueror 3'
p496
(dp497
S'total_runs'
p498
L2L
sS'score'
p499
I0
sS'results'
p500
(dp501
S'unapply'
p502
(dp503
g499
I0
sS'median'
p504
L0L
sS'display'
p505
S'0/26'
p506
ssS'apply'
p507
(dp508
g499
I0
sg504
L0L
sg505
S'0/41'
p509
ssS'change'
p510
(dp511
g499
I0
sg504
L0L
sg505
S'0/17'
p512
ssS'query'
p513
(dp514
g499
I0
sg504
L0L
sg505
S'0/65'
p515
sssg505
S'0/149'
p516
ssS'Firefox (Minefield) 3'
p517
(dp518
S'total_runs'
p519
L3L
sS'score'
p520
I8
sS'results'
p521
(dp522
S'unapply'
p523
(dp524
g520
I7
sS'median'
p525
L0L
sS'display'
p526
S'17/26'
p527
ssS'apply'
p528
(dp529
g520
I8
sg525
L0L
sg526
S'34/41'
p530
ssS'change'
p531
(dp532
g520
I4
sg525
L0L
sg526
S'7/17'
p533
ssS'query'
p534
(dp535
g520
I9
sg525
L0L
sg526
S'59/65'
p536
sssg526
S'117/149'
p537
ssS'Konqueror 4'
p538
(dp539
g192
L3L
sg193
I0
sg194
(dp540
g196
(dp541
g193
I0
sg198
L0L
sg199
S'0/26'
p542
ssg201
(dp543
g193
I0
sg198
L0L
sg199
S'0/41'
p544
ssg204
(dp545
g193
I0
sg198
L0L
sg199
S'0/17'
p546
ssg207
(dp547
g193
I0
sg198
L0L
sg199
S'0/65'
p548
sssg199
S'0/149'
p549
ssS'Camino 1'
p550
(dp551
S'total_runs'
p552
L3L
sS'score'
p553
I8
sS'results'
p554
(dp555
S'unapply'
p556
(dp557
g553
I7
sS'median'
p558
L0L
sS'display'
p559
S'17/26'
p560
ssS'apply'
p561
(dp562
g553
I8
sg558
L0L
sg559
S'34/41'
p563
ssS'change'
p564
(dp565
g553
I4
sg558
L0L
sg559
S'7/17'
p566
ssS'query'
p567
(dp568
g553
I9
sg558
L0L
sg559
S'59/65'
p569
sssg559
S'117/149'
p570
ssS'Arora 0'
p571
(dp572
S'total_runs'
p573
L4L
sS'score'
p574
I7
sS'results'
p575
(dp576
S'unapply'
p577
(dp578
g574
I3
sS'median'
p579
L0L
sS'display'
p580
S'9/26'
p581
ssS'apply'
p582
(dp583
g574
I9
sg579
L0L
sg580
S'35/41'
p584
ssS'change'
p585
(dp586
g574
I10
sg579
L0L
sg580
S'17/17'
p587
ssS'query'
p588
(dp589
g574
I8
sg579
L0L
sg580
S'50/65'
p590
sssg580
S'111/149'
p591
ssS'Android 1'
p592
(dp593
S'total_runs'
p594
L4L
sS'score'
p595
I8
sS'results'
p596
(dp597
S'unapply'
p598
(dp599
g595
I7
sS'median'
p600
L0L
sS'display'
p601
S'17/26'
p602
ssS'apply'
p603
(dp604
g595
I8
sg600
L0L
sg601
S'34/41'
p605
ssS'change'
p606
(dp607
g595
I10
sg600
L0L
sg601
S'17/17'
p608
ssS'query'
p609
(dp610
g595
I8
sg600
L0L
sg601
S'50/65'
p611
sssg601
S'118/149'
p612
ssS'Opera 9'
p613
(dp614
S'total_runs'
p615
L7L
sS'score'
p616
I6
sS'results'
p617
(dp618
S'unapply'
p619
(dp620
g616
I5
sS'median'
p621
L0L
sS'display'
p622
S'13/26'
p623
ssS'apply'
p624
(dp625
g616
I6
sg621
L0L
sg622
S'26/41'
p626
ssS'change'
p627
(dp628
g616
I4
sg621
L0L
sg622
S'7/17'
p629
ssS'query'
p630
(dp631
g616
I7
sg621
L0L
sg622
S'44/65'
p632
sssg622
S'90/149'
p633
ss.