(dp0
S'Safari'
p1
(dp2
S'total_runs'
p3
L101L
sS'score'
p4
I8
sS'results'
p5
(dp6
S'unapply'
p7
(dp8
g4
I7
sS'median'
p9
L0L
sS'display'
p10
S'19/26'
p11
ssS'apply'
p12
(dp13
g4
I10
sg9
L0L
sg10
S'39/41'
p14
ssS'change'
p15
(dp16
g4
I10
sg9
L0L
sg10
S'17/17'
p17
ssS'query'
p18
(dp19
g4
I8
sg9
L0L
sg10
S'50/65'
p20
sssg10
S'125/149'
p21
ssS'Konqueror'
p22
(dp23
S'total_runs'
p24
L5L
sS'score'
p25
I0
sS'results'
p26
(dp27
S'unapply'
p28
(dp29
g25
I0
sS'median'
p30
L0L
sS'display'
p31
S'0/26'
p32
ssS'apply'
p33
(dp34
g25
I0
sg30
L0L
sg31
S'0/41'
p35
ssS'change'
p36
(dp37
g25
I0
sg30
L0L
sg31
S'0/17'
p38
ssS'query'
p39
(dp40
g25
I0
sg30
L0L
sg31
S'0/65'
p41
sssg31
S'0/149'
p42
ssS'Firefox'
p43
(dp44
S'total_runs'
p45
L310L
sS'score'
p46
I8
sS'results'
p47
(dp48
S'unapply'
p49
(dp50
g46
I7
sS'median'
p51
L0L
sS'display'
p52
S'17/26'
p53
ssS'apply'
p54
(dp55
g46
I8
sg51
L0L
sg52
S'34/41'
p56
ssS'change'
p57
(dp58
g46
I4
sg51
L0L
sg52
S'7/17'
p59
ssS'query'
p60
(dp61
g46
I9
sg51
L0L
sg52
S'59/65'
p62
sssg52
S'117/149'
p63
ssS'Iron'
p64
(dp65
S'total_runs'
p66
L1L
sS'score'
p67
I8
sS'results'
p68
(dp69
S'unapply'
p70
(dp71
g67
I7
sS'median'
p72
L0L
sS'display'
p73
S'19/26'
p74
ssS'apply'
p75
(dp76
g67
I10
sg72
L0L
sg73
S'39/41'
p77
ssS'change'
p78
(dp79
g67
I10
sg72
L0L
sg73
S'17/17'
p80
ssS'query'
p81
(dp82
g67
I8
sg72
L0L
sg73
S'50/65'
p83
sssg73
S'125/149'
p84
ssS'Chrome'
p85
(dp86
S'total_runs'
p87
L114L
sS'score'
p88
I9
sS'results'
p89
(dp90
S'unapply'
p91
(dp92
g88
I9
sS'median'
p93
L0L
sS'display'
p94
S'23/26'
p95
ssS'apply'
p96
(dp97
g88
I10
sg93
L0L
sg94
S'39/41'
p98
ssS'change'
p99
(dp100
g88
I10
sg93
L0L
sg94
S'17/17'
p101
ssS'query'
p102
(dp103
g88
I8
sg93
L0L
sg94
S'50/65'
p104
sssg94
S'129/149'
p105
ssS'SeaMonkey'
p106
(dp107
S'total_runs'
p108
L2L
sS'score'
p109
I8
sS'results'
p110
(dp111
S'unapply'
p112
(dp113
g109
I7
sS'median'
p114
I0
sS'display'
p115
S'18/26'
p116
ssS'apply'
p117
(dp118
g109
I8
sg114
I0
sg115
S'34/41'
p119
ssS'change'
p120
(dp121
g109
I4
sg114
I0
sg115
S'7/17'
p122
ssS'query'
p123
(dp124
g109
I9
sg114
I0
sg115
S'59/65'
p125
sssg115
S'118/149'
p126
ssS'Camino'
p127
(dp128
S'total_runs'
p129
L3L
sS'score'
p130
I8
sS'results'
p131
(dp132
S'unapply'
p133
(dp134
g130
I7
sS'median'
p135
L0L
sS'display'
p136
S'17/26'
p137
ssS'apply'
p138
(dp139
g130
I8
sg135
L0L
sg136
S'34/41'
p140
ssS'change'
p141
(dp142
g130
I4
sg135
L0L
sg136
S'7/17'
p143
ssS'query'
p144
(dp145
g130
I9
sg135
L0L
sg136
S'59/65'
p146
sssg136
S'117/149'
p147
ssS'Maxthon'
p148
(dp149
S'total_runs'
p150
L1L
sS'score'
p151
I8
sS'results'
p152
(dp153
S'unapply'
p154
(dp155
g151
I7
sS'median'
p156
L0L
sS'display'
p157
S'19/26'
p158
ssS'apply'
p159
(dp160
g151
I10
sg156
L0L
sg157
S'39/41'
p161
ssS'change'
p162
(dp163
g151
I10
sg156
L0L
sg157
S'17/17'
p164
ssS'query'
p165
(dp166
g151
I8
sg156
L0L
sg157
S'50/65'
p167
sssg157
S'125/149'
p168
ssS'Fluid'
p169
(dp170
S'total_runs'
p171
L1L
sS'score'
p172
I8
sS'results'
p173
(dp174
S'unapply'
p175
(dp176
g172
I7
sS'median'
p177
I0
sS'display'
p178
S'19/26'
p179
ssS'apply'
p180
(dp181
g172
I10
sg177
I0
sg178
S'39/41'
p182
ssS'change'
p183
(dp184
g172
I10
sg177
I0
sg178
S'17/17'
p185
ssS'query'
p186
(dp187
g172
I8
sg177
I0
sg178
S'50/65'
p188
sssg178
S'125/149'
p189
ssS'Opera'
p190
(dp191
g3
L39L
sg4
I6
sg5
(dp192
g7
(dp193
g4
I5
sg9
L0L
sg10
S'13/26'
p194
ssg12
(dp195
g4
I6
sg9
L0L
sg10
S'26/41'
p196
ssg15
(dp197
g4
I4
sg9
L0L
sg10
S'7/17'
p198
ssg18
(dp199
g4
I7
sg9
L0L
sg10
S'43/65'
p200
sssg10
S'89/149'
p201
ssS'NetNewsWire'
p202
(dp203
S'total_runs'
p204
L2L
sS'score'
p205
I8
sS'results'
p206
(dp207
S'unapply'
p208
(dp209
g205
I7
sS'median'
p210
L0L
sS'display'
p211
S'19/26'
p212
ssS'apply'
p213
(dp214
g205
I10
sg210
L0L
sg211
S'39/41'
p215
ssS'change'
p216
(dp217
g205
I10
sg210
L0L
sg211
S'17/17'
p218
ssS'query'
p219
(dp220
g205
I8
sg210
L0L
sg211
S'50/65'
p221
sssg211
S'125/149'
p222
ssS'iPhone'
p223
(dp224
g3
L19L
sg4
I8
sg5
(dp225
g7
(dp226
g4
I7
sg9
L0L
sg10
S'17/26'
p227
ssg12
(dp228
g4
I8
sg9
L0L
sg10
S'34/41'
p229
ssg15
(dp230
g4
I10
sg9
L0L
sg10
S'17/17'
p231
ssg18
(dp232
g4
I8
sg9
L0L
sg10
S'50/65'
p233
sssg10
S'118/149'
p234
ssS'Arora'
p235
(dp236
S'total_runs'
p237
L4L
sS'score'
p238
I7
sS'results'
p239
(dp240
S'unapply'
p241
(dp242
g238
I3
sS'median'
p243
L0L
sS'display'
p244
S'9/26'
p245
ssS'apply'
p246
(dp247
g238
I9
sg243
L0L
sg244
S'35/41'
p248
ssS'change'
p249
(dp250
g238
I10
sg243
L0L
sg244
S'17/17'
p251
ssS'query'
p252
(dp253
g238
I8
sg243
L0L
sg244
S'50/65'
p254
sssg244
S'111/149'
p255
ssS'Midori'
p256
(dp257
S'total_runs'
p258
L1L
sS'score'
p259
I8
sS'results'
p260
(dp261
S'unapply'
p262
(dp263
g259
I7
sS'median'
p264
I0
sS'display'
p265
S'19/26'
p266
ssS'apply'
p267
(dp268
g259
I10
sg264
I0
sg265
S'39/41'
p269
ssS'change'
p270
(dp271
g259
I10
sg264
I0
sg265
S'17/17'
p272
ssS'query'
p273
(dp274
g259
I8
sg264
I0
sg265
S'50/65'
p275
sssg265
S'125/149'
p276
ssS'Android'
p277
(dp278
S'total_runs'
p279
L4L
sS'score'
p280
I8
sS'results'
p281
(dp282
S'unapply'
p283
(dp284
g280
I7
sS'median'
p285
L0L
sS'display'
p286
S'17/26'
p287
ssS'apply'
p288
(dp289
g280
I8
sg285
L0L
sg286
S'34/41'
p290
ssS'change'
p291
(dp292
g280
I10
sg285
L0L
sg286
S'17/17'
p293
ssS'query'
p294
(dp295
g280
I8
sg285
L0L
sg286
S'50/65'
p296
sssg286
S'118/149'
p297
ssS'IE'
p298
(dp299
S'total_runs'
p300
L45L
sS'score'
p301
I7
sS'results'
p302
(dp303
S'unapply'
p304
(dp305
g301
I5
sS'median'
p306
L0L
sS'display'
p307
S'14/26'
p308
ssS'apply'
p309
(dp310
g301
I6
sg306
L0L
sg307
S'24/41'
p311
ssS'change'
p312
(dp313
g301
I3
sg306
L0L
sg307
S'5/17'
p314
ssS'query'
p315
(dp316
g301
I9
sg306
L0L
sg307
S'56/65'
p317
sssg307
S'99/149'
p318
ssS'Fennec'
p319
(dp320
S'total_runs'
p321
L1L
sS'score'
p322
I8
sS'results'
p323
(dp324
S'unapply'
p325
(dp326
g322
I7
sS'median'
p327
I0
sS'display'
p328
S'17/26'
p329
ssS'apply'
p330
(dp331
g322
I8
sg327
I0
sg328
S'34/41'
p332
ssS'change'
p333
(dp334
g322
I4
sg327
I0
sg328
S'7/17'
p335
ssS'query'
p336
(dp337
g322
I9
sg327
I0
sg328
S'59/65'
p338
sssg328
S'117/149'
p339
ssS'Iceweasel'
p340
(dp341
S'total_runs'
p342
L2L
sS'score'
p343
I8
sS'results'
p344
(dp345
S'unapply'
p346
(dp347
g343
I7
sS'median'
p348
L0L
sS'display'
p349
S'17/26'
p350
ssS'apply'
p351
(dp352
g343
I8
sg348
L0L
sg349
S'34/41'
p353
ssS'change'
p354
(dp355
g343
I4
sg348
L0L
sg349
S'7/17'
p356
ssS'query'
p357
(dp358
g343
I9
sg348
L0L
sg349
S'59/65'
p359
sssg349
S'117/149'
p360
ss.