(dp0
VCrazy Browser 3
p1
(dp2
S'summary_display'
p3
S'0%'
p4
sS'total_runs'
p5
L1L
sS'summary_score'
p6
I100
sS'results'
p7
(dp8
S'failed'
p9
(dp10
S'score'
p11
I50
sS'raw_score'
p12
L1816L
sS'display'
p13
S'1816'
p14
ssS'passed'
p15
(dp16
g11
I50
sg12
L0L
sg13
S'0'
p17
ssssVK-Meleon 1
p18
(dp19
S'summary_display'
p20
S'0%'
p21
sS'total_runs'
p22
L8L
sS'summary_score'
p23
I100
sS'results'
p24
(dp25
S'failed'
p26
(dp27
S'score'
p28
I50
sS'raw_score'
p29
L2164L
sS'display'
p30
S'2164'
p31
ssS'passed'
p32
(dp33
g28
I50
sg29
L0L
sg30
g17
ssssVMaxthon 0
p34
(dp35
S'summary_display'
p36
S'0%'
p37
sS'total_runs'
p38
L1L
sS'summary_score'
p39
I100
sS'results'
p40
(dp41
S'failed'
p42
(dp43
S'score'
p44
I50
sS'raw_score'
p45
L1816L
sS'display'
p46
S'1816'
p47
ssS'passed'
p48
(dp49
g44
I50
sg45
L0L
sg46
g17
ssssVSafari 1
p50
(dp51
S'summary_display'
p52
S'80.6%'
p53
sS'total_runs'
p54
L1L
sS'summary_score'
p55
F80.637707948244
sS'results'
p56
(dp57
S'failed'
p58
(dp59
S'score'
p60
I50
sS'raw_score'
p61
L419L
sS'display'
p62
S'419'
p63
ssS'passed'
p64
(dp65
g60
I50
sg61
L1745L
sg62
S'1745'
p66
ssssVMaxthon 2
p67
(dp68
S'summary_display'
p69
S'0%'
p70
sS'total_runs'
p71
I12
sS'summary_score'
p72
I100
sS'results'
p73
(dp74
S'failed'
p75
(dp76
S'score'
p77
I50
sS'raw_score'
p78
I1816
sS'display'
p79
S'1816'
p80
ssS'passed'
p81
(dp82
g77
I50
sg78
I0
sg79
g17
ssssVMaxthon 3
p83
(dp84
S'summary_display'
p85
S'99.3%'
p86
sS'total_runs'
p87
L6L
sS'summary_score'
p88
F99.260628465804061
sS'results'
p89
(dp90
S'failed'
p91
(dp92
S'score'
p93
I75
sS'raw_score'
p94
L16L
sS'display'
p95
S'16'
p96
ssS'passed'
p97
(dp98
g93
I95
sg94
L2148L
sg95
S'2148'
p99
ssssVShiira 0
p100
(dp101
S'summary_display'
p102
S'99.3%'
p103
sS'total_runs'
p104
L1L
sS'summary_score'
p105
F99.260628465804061
sS'results'
p106
(dp107
S'failed'
p108
(dp109
S'score'
p110
I75
sS'raw_score'
p111
L16L
sS'display'
p112
S'16'
p113
ssS'passed'
p114
(dp115
g110
I95
sg111
L2148L
sg112
S'2148'
p116
ssssVChrome Frame (IE 8) 4
p117
(dp118
S'summary_display'
p119
S'99.3%'
p120
sS'total_runs'
p121
L12L
sS'summary_score'
p122
F99.260628465804061
sS'results'
p123
(dp124
S'failed'
p125
(dp126
S'score'
p127
I75
sS'raw_score'
p128
L16L
sS'display'
p129
S'16'
p130
ssS'passed'
p131
(dp132
g127
I95
sg128
L2148L
sg129
S'2148'
p133
ssssVNetscape 9
p134
(dp135
S'summary_display'
p136
S'0%'
p137
sS'total_runs'
p138
L1L
sS'summary_score'
p139
I100
sS'results'
p140
(dp141
S'failed'
p142
(dp143
S'score'
p144
I50
sS'raw_score'
p145
L2164L
sS'display'
p146
S'2164'
p147
ssS'passed'
p148
(dp149
g144
I50
sg145
L0L
sg146
g17
ssssVOpera Mini 5
p150
(dp151
S'summary_display'
p152
S'97.5%'
p153
sS'total_runs'
p154
L4L
sS'summary_score'
p155
F97.504621072088725
sS'results'
p156
(dp157
S'failed'
p158
(dp159
S'score'
p160
I50
sS'raw_score'
p161
L54L
sS'display'
p162
S'54'
p163
ssS'passed'
p164
(dp165
g160
I95
sg161
L2110L
sg162
S'2110'
p166
ssssVFirefox (Namoroka) 3
p167
(dp168
S'summary_display'
p169
S'99.3%'
p170
sS'total_runs'
p171
L47L
sS'summary_score'
p172
F99.260628465804061
sS'results'
p173
(dp174
S'failed'
p175
(dp176
S'score'
p177
I75
sS'raw_score'
p178
L16L
sS'display'
p179
S'16'
p180
ssS'passed'
p181
(dp182
g177
I95
sg178
L2148L
sg179
S'2148'
p183
ssssVIE 8
p184
(dp185
S'summary_display'
p186
S'58.5%'
p187
sS'total_runs'
p188
I424
sS'summary_score'
p189
F58.456561922365992
sS'results'
p190
(dp191
S'failed'
p192
(dp193
S'score'
p194
I50
sS'raw_score'
p195
I899
sS'display'
p196
S'899'
p197
ssS'passed'
p198
(dp199
g194
I50
sg195
I1265
sg196
S'1265'
p200
ssssVLunascape 4
p201
(dp202
S'summary_display'
p203
S'97.8%'
p204
sS'total_runs'
p205
L1L
sS'summary_score'
p206
F97.781885397412196
sS'results'
p207
(dp208
S'failed'
p209
(dp210
S'score'
p211
I50
sS'raw_score'
p212
L48L
sS'display'
p213
S'48'
p214
ssS'passed'
p215
(dp216
g211
I95
sg212
L2116L
sg213
S'2116'
p217
ssssVOpera 10
p218
(dp219
S'summary_display'
p220
S'99.8%'
p221
sS'total_runs'
p222
I1230
sS'summary_score'
p223
F99.815157116451019
sS'results'
p224
(dp225
S'failed'
p226
(dp227
S'score'
p228
I85
sS'raw_score'
p229
I4
sS'display'
p230
S'4'
p231
ssS'passed'
p232
(dp233
g228
I95
sg229
I2160
sg230
S'2160'
p234
ssssVMaemo Browser 1
p235
(dp236
S'summary_display'
p237
S'99.3%'
p238
sS'total_runs'
p239
L1L
sS'summary_score'
p240
F99.260628465804061
sS'results'
p241
(dp242
S'failed'
p243
(dp244
S'score'
p245
I75
sS'raw_score'
p246
L16L
sS'display'
p247
S'16'
p248
ssS'passed'
p249
(dp250
g245
I95
sg246
L2148L
sg247
S'2148'
p251
ssssVMidori 0
p252
(dp253
S'summary_display'
p254
S'99.3%'
p255
sS'total_runs'
p256
L18L
sS'summary_score'
p257
F99.260628465804061
sS'results'
p258
(dp259
S'failed'
p260
(dp261
S'score'
p262
I75
sS'raw_score'
p263
L16L
sS'display'
p264
S'16'
p265
ssS'passed'
p266
(dp267
g262
I95
sg263
L2148L
sg264
S'2148'
p268
ssssVIE 6
p269
(dp270
S'summary_display'
p271
S'0%'
p272
sS'total_runs'
p273
I102
sS'summary_score'
p274
I100
sS'results'
p275
(dp276
S'failed'
p277
(dp278
S'score'
p279
I50
sS'raw_score'
p280
I1816
sS'display'
p281
S'1816'
p282
ssS'passed'
p283
(dp284
g279
I50
sg280
I0
sg281
g17
ssssVIE 7
p285
(dp286
S'summary_display'
p287
S'0%'
p288
sS'total_runs'
p289
I191
sS'summary_score'
p290
I100
sS'results'
p291
(dp292
S'failed'
p293
(dp294
S'score'
p295
I50
sS'raw_score'
p296
I1816
sS'display'
p297
S'1816'
p298
ssS'passed'
p299
(dp300
g295
I50
sg296
I0
sg297
g17
ssssVIE 4
p301
(dp302
S'summary_display'
p303
S'0%'
p304
sS'total_runs'
p305
L1L
sS'summary_score'
p306
I100
sS'results'
p307
(dp308
S'failed'
p309
(dp310
S'score'
p311
I50
sS'raw_score'
p312
L2164L
sS'display'
p313
S'2164'
p314
ssS'passed'
p315
(dp316
g311
I50
sg312
L0L
sg313
g17
ssssVIE 5
p317
(dp318
S'summary_display'
p319
S'0%'
p320
sS'total_runs'
p321
L1L
sS'summary_score'
p322
I100
sS'results'
p323
(dp324
S'failed'
p325
(dp326
S'score'
p327
I50
sS'raw_score'
p328
L1816L
sS'display'
p329
S'1816'
p330
ssS'passed'
p331
(dp332
g327
I50
sg328
L0L
sg329
g17
ssssVFirefox 2
p333
(dp334
S'summary_display'
p335
S'0%'
p336
sS'total_runs'
p337
L42L
sS'summary_score'
p338
I100
sS'results'
p339
(dp340
S'failed'
p341
(dp342
S'score'
p343
I50
sS'raw_score'
p344
L2164L
sS'display'
p345
S'2164'
p346
ssS'passed'
p347
(dp348
g343
I50
sg344
L0L
sg345
g17
ssssVFirefox 3
p349
(dp350
S'summary_display'
p351
S'99.3%'
p352
sS'total_runs'
p353
I4564
sS'summary_score'
p354
F99.260628465804061
sS'results'
p355
(dp356
S'failed'
p357
(dp358
S'score'
p359
I75
sS'raw_score'
p360
I16
sS'display'
p361
S'16'
p362
ssS'passed'
p363
(dp364
g359
I95
sg360
I2148
sg361
S'2148'
p365
ssssVChrome 4
p366
(dp367
S'summary_display'
p368
S'99.3%'
p369
sS'total_runs'
p370
I989
sS'summary_score'
p371
F99.260628465804061
sS'results'
p372
(dp373
S'failed'
p374
(dp375
S'score'
p376
I75
sS'raw_score'
p377
I16
sS'display'
p378
S'16'
p379
ssS'passed'
p380
(dp381
g376
I95
sg377
I2148
sg378
S'2148'
p382
ssssVFirefox 1
p383
(dp384
S'summary_display'
p385
S'0%'
p386
sS'total_runs'
p387
L6L
sS'summary_score'
p388
I100
sS'results'
p389
(dp390
S'failed'
p391
(dp392
S'score'
p393
I50
sS'raw_score'
p394
L2164L
sS'display'
p395
S'2164'
p396
ssS'passed'
p397
(dp398
g393
I50
sg394
L0L
sg395
g17
ssssVChrome 2
p399
(dp400
S'summary_display'
p401
S'99.3%'
p402
sS'total_runs'
p403
L204L
sS'summary_score'
p404
F99.260628465804061
sS'results'
p405
(dp406
S'failed'
p407
(dp408
S'score'
p409
I75
sS'raw_score'
p410
L16L
sS'display'
p411
S'16'
p412
ssS'passed'
p413
(dp414
g409
I95
sg410
L2148L
sg411
S'2148'
p415
ssssVChrome 3
p416
(dp417
S'summary_display'
p418
S'99.3%'
p419
sS'total_runs'
p420
I560
sS'summary_score'
p421
F99.260628465804061
sS'results'
p422
(dp423
S'failed'
p424
(dp425
S'score'
p426
I75
sS'raw_score'
p427
I16
sS'display'
p428
S'16'
p429
ssS'passed'
p430
(dp431
g426
I95
sg427
I2148
sg428
S'2148'
p432
ssssVChrome 0
p433
(dp434
S'summary_display'
p435
S'80.6%'
p436
sS'total_runs'
p437
L2L
sS'summary_score'
p438
F80.637707948244
sS'results'
p439
(dp440
S'failed'
p441
(dp442
S'score'
p443
I50
sS'raw_score'
p444
L419L
sS'display'
p445
S'419'
p446
ssS'passed'
p447
(dp448
g443
I50
sg444
L1745L
sg445
S'1745'
p449
ssssVChrome 1
p450
(dp451
S'summary_display'
p452
S'80.6%'
p453
sS'total_runs'
p454
L8L
sS'summary_score'
p455
F80.637707948244
sS'results'
p456
(dp457
S'failed'
p458
(dp459
S'score'
p460
I50
sS'raw_score'
p461
L419L
sS'display'
p462
S'419'
p463
ssS'passed'
p464
(dp465
g460
I50
sg461
L1745L
sg462
S'1745'
p466
ssssVNetNewsWire 3
p467
(dp468
S'summary_display'
p469
S'99.3%'
p470
sS'total_runs'
p471
L10L
sS'summary_score'
p472
F99.260628465804061
sS'results'
p473
(dp474
S'failed'
p475
(dp476
S'score'
p477
I75
sS'raw_score'
p478
L16L
sS'display'
p479
S'16'
p480
ssS'passed'
p481
(dp482
g477
I95
sg478
L2148L
sg479
S'2148'
p483
ssssVNokia 97
p484
(dp485
S'summary_display'
p486
S'0%'
p487
sS'total_runs'
p488
L2L
sS'summary_score'
p489
I100
sS'results'
p490
(dp491
S'failed'
p492
(dp493
S'score'
p494
I50
sS'raw_score'
p495
L2164L
sS'display'
p496
S'2164'
p497
ssS'passed'
p498
(dp499
g494
I50
sg495
L0L
sg496
g17
ssssVNetFront 3
p500
(dp501
S'summary_display'
p502
S'49.8%'
p503
sS'total_runs'
p504
L2L
sS'summary_score'
p505
F49.814471243042675
sS'results'
p506
(dp507
S'failed'
p508
(dp509
S'score'
p510
I50
sS'raw_score'
p511
L2164L
sS'display'
p512
S'2164'
p513
ssS'passed'
p514
(dp515
g510
I95
sg511
L2148L
sg512
S'2148'
p516
ssssVSafari 4
p517
(dp518
S'summary_display'
p519
S'99.3%'
p520
sS'total_runs'
p521
I960
sS'summary_score'
p522
F99.260628465804061
sS'results'
p523
(dp524
S'failed'
p525
(dp526
S'score'
p527
I75
sS'raw_score'
p528
I16
sS'display'
p529
S'16'
p530
ssS'passed'
p531
(dp532
g527
I95
sg528
I2148
sg529
S'2148'
p533
ssssVVodafone 1
p534
(dp535
S'summary_display'
p536
S'99.3%'
p537
sS'total_runs'
p538
L1L
sS'summary_score'
p539
F99.260628465804061
sS'results'
p540
(dp541
S'failed'
p542
(dp543
S'score'
p544
I75
sS'raw_score'
p545
L16L
sS'display'
p546
S'16'
p547
ssS'passed'
p548
(dp549
g544
I95
sg545
L2148L
sg546
S'2148'
p550
ssssViPhone 3
p551
(dp552
S'summary_display'
p553
S'97.8%'
p554
sS'total_runs'
p555
L113L
sS'summary_score'
p556
F97.781885397412196
sS'results'
p557
(dp558
S'failed'
p559
(dp560
S'score'
p561
I50
sS'raw_score'
p562
L48L
sS'display'
p563
S'48'
p564
ssS'passed'
p565
(dp566
g561
I95
sg562
L2116L
sg563
S'2116'
p567
ssssViPhone 2
p568
(dp569
S'summary_display'
p570
S'80.6%'
p571
sS'total_runs'
p572
L8L
sS'summary_score'
p573
F80.637707948244
sS'results'
p574
(dp575
S'failed'
p576
(dp577
S'score'
p578
I50
sS'raw_score'
p579
L419L
sS'display'
p580
S'419'
p581
ssS'passed'
p582
(dp583
g578
I50
sg579
L1745L
sg580
S'1745'
p584
ssssVEpiphany 2
p585
(dp586
S'summary_display'
p587
S'0%'
p588
sS'total_runs'
p589
L7L
sS'summary_score'
p590
I100
sS'results'
p591
(dp592
S'failed'
p593
(dp594
S'score'
p595
I50
sS'raw_score'
p596
L2164L
sS'display'
p597
S'2164'
p598
ssS'passed'
p599
(dp600
g595
I50
sg596
L0L
sg597
g17
ssssVChrome Frame (IE 6) 4
p601
(dp602
S'summary_display'
p603
S'99.3%'
p604
sS'total_runs'
p605
L2L
sS'summary_score'
p606
F99.260628465804061
sS'results'
p607
(dp608
S'failed'
p609
(dp610
S'score'
p611
I75
sS'raw_score'
p612
L16L
sS'display'
p613
S'16'
p614
ssS'passed'
p615
(dp616
g611
I95
sg612
L2148L
sg613
S'2148'
p617
ssssVAvant 1
p618
(dp619
S'summary_display'
p620
S'0%'
p621
sS'total_runs'
p622
L10L
sS'summary_score'
p623
I100
sS'results'
p624
(dp625
S'failed'
p626
(dp627
S'score'
p628
I50
sS'raw_score'
p629
L1816L
sS'display'
p630
S'1816'
p631
ssS'passed'
p632
(dp633
g628
I50
sg629
L0L
sg630
g17
ssssVIron 2
p634
(dp635
S'summary_display'
p636
S'99.3%'
p637
sS'total_runs'
p638
L7L
sS'summary_score'
p639
F99.260628465804061
sS'results'
p640
(dp641
S'failed'
p642
(dp643
S'score'
p644
I75
sS'raw_score'
p645
L16L
sS'display'
p646
S'16'
p647
ssS'passed'
p648
(dp649
g644
I95
sg645
L2148L
sg646
S'2148'
p650
ssssVIron 3
p651
(dp652
S'summary_display'
p653
S'99.3%'
p654
sS'total_runs'
p655
L53L
sS'summary_score'
p656
F99.260628465804061
sS'results'
p657
(dp658
S'failed'
p659
(dp660
S'score'
p661
I75
sS'raw_score'
p662
L16L
sS'display'
p663
S'16'
p664
ssS'passed'
p665
(dp666
g661
I95
sg662
L2148L
sg663
S'2148'
p667
ssssVSwiftfox 3
p668
(dp669
S'summary_display'
p670
S'99.3%'
p671
sS'total_runs'
p672
L10L
sS'summary_score'
p673
F99.260628465804061
sS'results'
p674
(dp675
S'failed'
p676
(dp677
S'score'
p678
I75
sS'raw_score'
p679
L16L
sS'display'
p680
S'16'
p681
ssS'passed'
p682
(dp683
g678
I95
sg679
L2148L
sg680
S'2148'
p684
ssssVOmniWeb 622
p685
(dp686
S'summary_display'
p687
S'99.3%'
p688
sS'total_runs'
p689
L5L
sS'summary_score'
p690
F99.260628465804061
sS'results'
p691
(dp692
S'failed'
p693
(dp694
S'score'
p695
I75
sS'raw_score'
p696
L16L
sS'display'
p697
S'16'
p698
ssS'passed'
p699
(dp700
g695
I95
sg696
L2148L
sg697
S'2148'
p701
ssssVIceweasel 3
p702
(dp703
S'summary_display'
p704
S'0%'
p705
sS'total_runs'
p706
L48L
sS'summary_score'
p707
I100
sS'results'
p708
(dp709
S'failed'
p710
(dp711
S'score'
p712
I50
sS'raw_score'
p713
L2164L
sS'display'
p714
S'2164'
p715
ssS'passed'
p716
(dp717
g712
I50
sg713
L0L
sg714
g17
ssssVFluid 0
p718
(dp719
S'summary_display'
p720
S'99.3%'
p721
sS'total_runs'
p722
L1L
sS'summary_score'
p723
F99.260628465804061
sS'results'
p724
(dp725
S'failed'
p726
(dp727
S'score'
p728
I75
sS'raw_score'
p729
L16L
sS'display'
p730
S'16'
p731
ssS'passed'
p732
(dp733
g728
I95
sg729
L2148L
sg730
S'2148'
p734
ssssS'total_runs'
p735
L10533L
sVSeaMonkey 2
p736
(dp737
S'summary_display'
p738
S'99.3%'
p739
sS'total_runs'
p740
L24L
sS'summary_score'
p741
F99.260628465804061
sS'results'
p742
(dp743
S'failed'
p744
(dp745
S'score'
p746
I75
sS'raw_score'
p747
L16L
sS'display'
p748
S'16'
p749
ssS'passed'
p750
(dp751
g746
I95
sg747
L2148L
sg748
S'2148'
p752
ssssVWii 9
p753
(dp754
S'summary_display'
p755
S'0%'
p756
sS'total_runs'
p757
I2
sS'summary_score'
p758
I100
sS'results'
p759
(dp760
S'failed'
p761
(dp762
S'score'
p763
I50
sS'raw_score'
p764
I2164
sS'display'
p765
S'2164'
p766
ssS'passed'
p767
(dp768
g763
I50
sg764
I0
sg765
g17
ssssVSafari 3
p769
(dp770
S'summary_display'
p771
S'80.6%'
p772
sS'total_runs'
p773
L36L
sS'summary_score'
p774
F80.637707948244
sS'results'
p775
(dp776
S'failed'
p777
(dp778
S'score'
p779
I50
sS'raw_score'
p780
L419L
sS'display'
p781
S'419'
p782
ssS'passed'
p783
(dp784
g779
I50
sg780
L1745L
sg781
S'1745'
p785
ssssVFlock 1
p786
(dp787
S'summary_display'
p788
S'0%'
p789
sS'total_runs'
p790
L2L
sS'summary_score'
p791
I100
sS'results'
p792
(dp793
S'failed'
p794
(dp795
S'score'
p796
I50
sS'raw_score'
p797
L2164L
sS'display'
p798
S'2164'
p799
ssS'passed'
p800
(dp801
g796
I50
sg797
L0L
sg798
g17
ssssVFirefox (Shiretoko) 3
p802
(dp803
S'summary_display'
p804
S'99.3%'
p805
sS'total_runs'
p806
L171L
sS'summary_score'
p807
F99.260628465804061
sS'results'
p808
(dp809
S'failed'
p810
(dp811
S'score'
p812
I75
sS'raw_score'
p813
L16L
sS'display'
p814
S'16'
p815
ssS'passed'
p816
(dp817
g812
I95
sg813
L2148L
sg814
S'2148'
p818
ssssVFennec 1
p819
(dp820
S'summary_display'
p821
S'99.3%'
p822
sS'total_runs'
p823
L6L
sS'summary_score'
p824
F99.260628465804061
sS'results'
p825
(dp826
S'failed'
p827
(dp828
S'score'
p829
I75
sS'raw_score'
p830
L16L
sS'display'
p831
S'16'
p832
ssS'passed'
p833
(dp834
g829
I95
sg830
L2148L
sg831
S'2148'
p835
ssssVNokia 5800
p836
(dp837
S'summary_display'
p838
S'0%'
p839
sS'total_runs'
p840
L5L
sS'summary_score'
p841
I100
sS'results'
p842
(dp843
S'failed'
p844
(dp845
S'score'
p846
I50
sS'raw_score'
p847
L2164L
sS'display'
p848
S'2164'
p849
ssS'passed'
p850
(dp851
g846
I50
sg847
L0L
sg848
g17
ssssVFlock 2
p852
(dp853
S'summary_display'
p854
S'0%'
p855
sS'total_runs'
p856
L6L
sS'summary_score'
p857
I100
sS'results'
p858
(dp859
S'failed'
p860
(dp861
S'score'
p862
I50
sS'raw_score'
p863
L2164L
sS'display'
p864
S'2164'
p865
ssS'passed'
p866
(dp867
g862
I50
sg863
L0L
sg864
g17
ssssVKonqueror 3
p868
(dp869
S'summary_display'
p870
S'0%'
p871
sS'total_runs'
p872
L10L
sS'summary_score'
p873
I100
sS'results'
p874
(dp875
S'failed'
p876
(dp877
S'score'
p878
I50
sS'raw_score'
p879
L2164L
sS'display'
p880
S'2164'
p881
ssS'passed'
p882
(dp883
g878
I50
sg879
L0L
sg880
g17
ssssVFirefox (Minefield) 3
p884
(dp885
S'summary_display'
p886
S'100.0%'
p887
sS'total_runs'
p888
I184
sS'summary_score'
p889
F100.0
sS'results'
p890
(dp891
S'failed'
p892
(dp893
S'score'
p894
I95
sS'raw_score'
p895
I0
sS'display'
p896
g17
ssS'passed'
p897
(dp898
g894
I95
sg895
I2164
sg896
S'2164'
p899
ssssViCab 4
p900
(dp901
S'summary_display'
p902
S'99.3%'
p903
sS'total_runs'
p904
L1L
sS'summary_score'
p905
F99.260628465804061
sS'results'
p906
(dp907
S'failed'
p908
(dp909
S'score'
p910
I75
sS'raw_score'
p911
L16L
sS'display'
p912
S'16'
p913
ssS'passed'
p914
(dp915
g910
I95
sg911
L2148L
sg912
S'2148'
p916
ssssVSleipnir 2
p917
(dp918
S'summary_display'
p919
S'58.5%'
p920
sS'total_runs'
p921
L15L
sS'summary_score'
p922
F58.456561922365992
sS'results'
p923
(dp924
S'failed'
p925
(dp926
S'score'
p927
I50
sS'raw_score'
p928
L899L
sS'display'
p929
S'899'
p930
ssS'passed'
p931
(dp932
g927
I50
sg928
L1265L
sg929
S'1265'
p933
ssssVKonqueror 4
p934
(dp935
S'summary_display'
p936
S'0%'
p937
sS'total_runs'
p938
I52
sS'summary_score'
p939
I100
sS'results'
p940
(dp941
S'failed'
p942
(dp943
S'score'
p944
I50
sS'raw_score'
p945
I2164
sS'display'
p946
S'2164'
p947
ssS'passed'
p948
(dp949
g944
I50
sg945
I0
sg946
g17
ssssVCamino 2
p950
(dp951
S'summary_display'
p952
S'0%'
p953
sS'total_runs'
p954
L6L
sS'summary_score'
p955
I100
sS'results'
p956
(dp957
S'failed'
p958
(dp959
S'score'
p960
I50
sS'raw_score'
p961
L2164L
sS'display'
p962
S'2164'
p963
ssS'passed'
p964
(dp965
g960
I50
sg961
L0L
sg962
g17
ssssVCamino 1
p966
(dp967
S'summary_display'
p968
S'0%'
p969
sS'total_runs'
p970
L17L
sS'summary_score'
p971
I100
sS'results'
p972
(dp973
S'failed'
p974
(dp975
S'score'
p976
I50
sS'raw_score'
p977
L2164L
sS'display'
p978
S'2164'
p979
ssS'passed'
p980
(dp981
g976
I50
sg977
L0L
sg978
g17
ssssVJasmine 1
p982
(dp983
S'summary_display'
p984
S'49.8%'
p985
sS'total_runs'
p986
L2L
sS'summary_score'
p987
F49.814471243042675
sS'results'
p988
(dp989
S'failed'
p990
(dp991
S'score'
p992
I50
sS'raw_score'
p993
L2164L
sS'display'
p994
S'2164'
p995
ssS'passed'
p996
(dp997
g992
I95
sg993
L2148L
sg994
S'2148'
p998
ssssVArora 0
p999
(dp1000
S'summary_display'
p1001
S'97.8%'
p1002
sS'total_runs'
p1003
L24L
sS'summary_score'
p1004
F97.781885397412196
sS'results'
p1005
(dp1006
S'failed'
p1007
(dp1008
S'score'
p1009
I50
sS'raw_score'
p1010
L48L
sS'display'
p1011
S'48'
p1012
ssS'passed'
p1013
(dp1014
g1009
I95
sg1010
L2116L
sg1011
S'2116'
p1015
ssssVAndroid 1
p1016
(dp1017
S'summary_display'
p1018
S'97.8%'
p1019
sS'total_runs'
p1020
I44
sS'summary_score'
p1021
F97.781885397412196
sS'results'
p1022
(dp1023
S'failed'
p1024
(dp1025
S'score'
p1026
I50
sS'raw_score'
p1027
I48
sS'display'
p1028
S'48'
p1029
ssS'passed'
p1030
(dp1031
g1026
I95
sg1027
I2116
sg1028
S'2116'
p1032
ssssVAndroid 2
p1033
(dp1034
S'summary_display'
p1035
S'99.3%'
p1036
sS'total_runs'
p1037
I12
sS'summary_score'
p1038
F99.260628465804061
sS'results'
p1039
(dp1040
S'failed'
p1041
(dp1042
S'score'
p1043
I75
sS'raw_score'
p1044
I16
sS'display'
p1045
S'16'
p1046
ssS'passed'
p1047
(dp1048
g1043
I95
sg1044
I2148
sg1045
S'2148'
p1049
ssssVIron 4
p1050
(dp1051
S'summary_display'
p1052
S'99.3%'
p1053
sS'total_runs'
p1054
I11
sS'summary_score'
p1055
F99.260628465804061
sS'results'
p1056
(dp1057
S'failed'
p1058
(dp1059
S'score'
p1060
I75
sS'raw_score'
p1061
I16
sS'display'
p1062
S'16'
p1063
ssS'passed'
p1064
(dp1065
g1060
I95
sg1061
I2148
sg1062
S'2148'
p1066
ssssVPalm Pre 1
p1067
(dp1068
S'summary_display'
p1069
S'99.3%'
p1070
sS'total_runs'
p1071
I9
sS'summary_score'
p1072
F99.260628465804061
sS'results'
p1073
(dp1074
S'failed'
p1075
(dp1076
S'score'
p1077
I75
sS'raw_score'
p1078
I16
sS'display'
p1079
S'16'
p1080
ssS'passed'
p1081
(dp1082
g1077
I95
sg1078
I2148
sg1079
S'2148'
p1083
ssssVKazehakase 0
p1084
(dp1085
S'summary_display'
p1086
S'0%'
p1087
sS'total_runs'
p1088
L1L
sS'summary_score'
p1089
I100
sS'results'
p1090
(dp1091
S'failed'
p1092
(dp1093
S'score'
p1094
I50
sS'raw_score'
p1095
L2164L
sS'display'
p1096
S'2164'
p1097
ssS'passed'
p1098
(dp1099
g1094
I50
sg1095
L0L
sg1096
g17
ssssVVienna 2
p1100
(dp1101
S'summary_display'
p1102
S'99.3%'
p1103
sS'total_runs'
p1104
L2L
sS'summary_score'
p1105
F99.260628465804061
sS'results'
p1106
(dp1107
S'failed'
p1108
(dp1109
S'score'
p1110
I75
sS'raw_score'
p1111
L16L
sS'display'
p1112
S'16'
p1113
ssS'passed'
p1114
(dp1115
g1110
I95
sg1111
L2148L
sg1112
S'2148'
p1116
ssssVStainless 0
p1117
(dp1118
S'summary_display'
p1119
S'99.3%'
p1120
sS'total_runs'
p1121
L5L
sS'summary_score'
p1122
F99.260628465804061
sS'results'
p1123
(dp1124
S'failed'
p1125
(dp1126
S'score'
p1127
I75
sS'raw_score'
p1128
L16L
sS'display'
p1129
S'16'
p1130
ssS'passed'
p1131
(dp1132
g1127
I95
sg1128
L2148L
sg1129
S'2148'
p1133
ssssVOpera Mini 4
p1134
(dp1135
S'summary_display'
p1136
S'97.5%'
p1137
sS'total_runs'
p1138
L22L
sS'summary_score'
p1139
F97.504621072088725
sS'results'
p1140
(dp1141
S'failed'
p1142
(dp1143
S'score'
p1144
I50
sS'raw_score'
p1145
L54L
sS'display'
p1146
S'54'
p1147
ssS'passed'
p1148
(dp1149
g1144
I95
sg1145
L2110L
sg1146
S'2110'
p1150
ssssVLunascape 6
p1151
(dp1152
S'summary_display'
p1153
S'99.3%'
p1154
sS'total_runs'
p1155
L10L
sS'summary_score'
p1156
F99.260628465804061
sS'results'
p1157
(dp1158
S'failed'
p1159
(dp1160
S'score'
p1161
I75
sS'raw_score'
p1162
L16L
sS'display'
p1163
S'16'
p1164
ssS'passed'
p1165
(dp1166
g1161
I95
sg1162
L2148L
sg1163
S'2148'
p1167
ssssVChrome Frame (IE 7) 4
p1168
(dp1169
S'summary_display'
p1170
S'99.3%'
p1171
sS'total_runs'
p1172
L5L
sS'summary_score'
p1173
F99.260628465804061
sS'results'
p1174
(dp1175
S'failed'
p1176
(dp1177
S'score'
p1178
I75
sS'raw_score'
p1179
L16L
sS'display'
p1180
S'16'
p1181
ssS'passed'
p1182
(dp1183
g1178
I95
sg1179
L2148L
sg1180
S'2148'
p1184
ssssVOpera 8
p1185
(dp1186
S'summary_display'
p1187
S'29.2%'
p1188
sS'total_runs'
p1189
L1L
sS'summary_score'
p1190
F29.166666666666668
sS'results'
p1191
(dp1192
S'failed'
p1193
(dp1194
S'score'
p1195
I50
sS'raw_score'
p1196
L561L
sS'display'
p1197
S'561'
p1198
ssS'passed'
p1199
(dp1200
g1195
I50
sg1196
L231L
sg1197
S'231'
p1201
ssssVOpera 9
p1202
(dp1203
S'summary_display'
p1204
S'0%'
p1205
sS'total_runs'
p1206
L57L
sS'summary_score'
p1207
I100
sS'results'
p1208
(dp1209
S'failed'
p1210
(dp1211
S'score'
p1212
I50
sS'raw_score'
p1213
L2164L
sS'display'
p1214
S'2164'
p1215
ssS'passed'
p1216
(dp1217
g1212
I50
sg1213
L0L
sg1214
g17
ssssVLunascape 5
p1218
(dp1219
S'summary_display'
p1220
S'99.3%'
p1221
sS'total_runs'
p1222
L8L
sS'summary_score'
p1223
F99.260628465804061
sS'results'
p1224
(dp1225
S'failed'
p1226
(dp1227
S'score'
p1228
I75
sS'raw_score'
p1229
L16L
sS'display'
p1230
S'16'
p1231
ssS'passed'
p1232
(dp1233
g1228
I95
sg1229
L2148L
sg1230
S'2148'
p1234
ssssVGranParadiso 3
p1235
(dp1236
S'summary_display'
p1237
S'0%'
p1238
sS'total_runs'
p1239
L1L
sS'summary_score'
p1240
I100
sS'results'
p1241
(dp1242
S'failed'
p1243
(dp1244
S'score'
p1245
I50
sS'raw_score'
p1246
L2164L
sS'display'
p1247
S'2164'
p1248
ssS'passed'
p1249
(dp1250
g1245
I50
sg1246
L0L
sg1247
g17
ssssVOther
p1251
(dp1252
S'summary_display'
p1253
S'99.3%'
p1254
sS'total_runs'
p1255
L65L
sS'summary_score'
p1256
F99.260628465804061
sS'results'
p1257
(dp1258
S'failed'
p1259
(dp1260
S'score'
p1261
I75
sS'raw_score'
p1262
L16L
sS'display'
p1263
S'16'
p1264
ssS'passed'
p1265
(dp1266
g1261
I95
sg1262
L2148L
sg1263
S'2148'
p1267
ssssVGaleon 2
p1268
(dp1269
S'summary_display'
p1270
S'0%'
p1271
sS'total_runs'
p1272
L2L
sS'summary_score'
p1273
I100
sS'results'
p1274
(dp1275
S'failed'
p1276
(dp1277
S'score'
p1278
I50
sS'raw_score'
p1279
L2164L
sS'display'
p1280
S'2164'
p1281
ssS'passed'
p1282
(dp1283
g1278
I50
sg1279
L0L
sg1280
g17
ssssVMicroB 0
p1284
(dp1285
S'summary_display'
p1286
S'0%'
p1287
sS'total_runs'
p1288
L1L
sS'summary_score'
p1289
I100
sS'results'
p1290
(dp1291
S'failed'
p1292
(dp1293
S'score'
p1294
I50
sS'raw_score'
p1295
L2164L
sS'display'
p1296
S'2164'
p1297
ssS'passed'
p1298
(dp1299
g1294
I50
sg1295
L0L
sg1296
g17
ssssVQtWeb 3
p1300
(dp1301
S'summary_display'
p1302
S'97.8%'
p1303
sS'total_runs'
p1304
L1L
sS'summary_score'
p1305
F97.781885397412196
sS'results'
p1306
(dp1307
S'failed'
p1308
(dp1309
S'score'
p1310
I50
sS'raw_score'
p1311
L48L
sS'display'
p1312
S'48'
p1313
ssS'passed'
p1314
(dp1315
g1310
I95
sg1311
L2116L
sg1312
S'2116'
p1316
ssssVSeaMonkey 1
p1317
(dp1318
S'summary_display'
p1319
S'0%'
p1320
sS'total_runs'
p1321
I10
sS'summary_score'
p1322
I100
sS'results'
p1323
(dp1324
S'failed'
p1325
(dp1326
S'score'
p1327
I50
sS'raw_score'
p1328
I2164
sS'display'
p1329
S'2164'
p1330
ssS'passed'
p1331
(dp1332
g1327
I50
sg1328
I0
sg1329
g17
ssssVIceweasel 2
p1333
(dp1334
S'summary_display'
p1335
S'0%'
p1336
sS'total_runs'
p1337
L1L
sS'summary_score'
p1338
I100
sS'results'
p1339
(dp1340
S'failed'
p1341
(dp1342
S'score'
p1343
I50
sS'raw_score'
p1344
L2164L
sS'display'
p1345
S'2164'
p1346
ssS'passed'
p1347
(dp1348
g1343
I50
sg1344
L0L
sg1345
g17
ssssVUzbl 0
p1349
(dp1350
S'summary_display'
p1351
S'99.3%'
p1352
sS'total_runs'
p1353
L25L
sS'summary_score'
p1354
F99.260628465804061
sS'results'
p1355
(dp1356
S'failed'
p1357
(dp1358
S'score'
p1359
I75
sS'raw_score'
p1360
L16L
sS'display'
p1361
S'16'
p1362
ssS'passed'
p1363
(dp1364
g1359
I95
sg1360
L2148L
sg1361
S'2148'
p1365
ssss.