(dp0
VOpera 9.7
p1
(dp2
S'summary_display'
p3
S'97.5%'
p4
sS'total_runs'
p5
L1L
sS'summary_score'
p6
F97.504621072088725
sS'results'
p7
(dp8
S'failed'
p9
(dp10
S'score'
p11
I50
sS'raw_score'
p12
L54L
sS'display'
p13
S'54'
p14
ssS'passed'
p15
(dp16
g11
I95
sg12
L2110L
sg13
S'2110'
p17
ssssVOpera 9.6
p18
(dp19
S'summary_display'
p20
S'97.2%'
p21
sS'total_runs'
p22
L1L
sS'summary_score'
p23
F97.227356746765253
sS'results'
p24
(dp25
S'failed'
p26
(dp27
S'score'
p28
I50
sS'raw_score'
p29
L60L
sS'display'
p30
S'60'
p31
ssS'passed'
p32
(dp33
g28
I95
sg29
L2104L
sg30
S'2104'
p34
ssssVFennec 1.0
p35
(dp36
S'summary_display'
p37
S'99.3%'
p38
sS'total_runs'
p39
L6L
sS'summary_score'
p40
F99.260628465804061
sS'results'
p41
(dp42
S'failed'
p43
(dp44
S'score'
p45
I75
sS'raw_score'
p46
L16L
sS'display'
p47
S'16'
p48
ssS'passed'
p49
(dp50
g45
I95
sg46
L2148L
sg47
S'2148'
p51
ssssVMaxthon 0
p52
(dp53
S'summary_display'
p54
S'0%'
p55
sS'total_runs'
p56
L1L
sS'summary_score'
p57
I100
sS'results'
p58
(dp59
S'failed'
p60
(dp61
S'score'
p62
I50
sS'raw_score'
p63
L1816L
sS'display'
p64
S'1816'
p65
ssS'passed'
p66
(dp67
g62
I50
sg63
L0L
sg64
S'0'
p68
ssssVFirefox (Shiretoko) 3.5
p69
(dp70
S'summary_display'
p71
S'99.3%'
p72
sS'total_runs'
p73
L171L
sS'summary_score'
p74
F99.260628465804061
sS'results'
p75
(dp76
S'failed'
p77
(dp78
S'score'
p79
I75
sS'raw_score'
p80
L16L
sS'display'
p81
S'16'
p82
ssS'passed'
p83
(dp84
g79
I95
sg80
L2148L
sg81
S'2148'
p85
ssssVIron 4.0
p86
(dp87
S'summary_display'
p88
S'99.3%'
p89
sS'total_runs'
p90
L11L
sS'summary_score'
p91
F99.260628465804061
sS'results'
p92
(dp93
S'failed'
p94
(dp95
S'score'
p96
I75
sS'raw_score'
p97
L16L
sS'display'
p98
S'16'
p99
ssS'passed'
p100
(dp101
g96
I95
sg97
L2148L
sg98
S'2148'
p102
ssssVOpera 9.62
p103
(dp104
S'summary_display'
p105
S'0%'
p106
sS'total_runs'
p107
L3L
sS'summary_score'
p108
I100
sS'results'
p109
(dp110
S'failed'
p111
(dp112
S'score'
p113
I50
sS'raw_score'
p114
L2164L
sS'display'
p115
S'2164'
p116
ssS'passed'
p117
(dp118
g113
I50
sg114
L0L
sg115
g68
ssssVOpera 9.63
p119
(dp120
S'summary_display'
p121
S'0%'
p122
sS'total_runs'
p123
L8L
sS'summary_score'
p124
I100
sS'results'
p125
(dp126
S'failed'
p127
(dp128
S'score'
p129
I50
sS'raw_score'
p130
L2164L
sS'display'
p131
S'2164'
p132
ssS'passed'
p133
(dp134
g129
I50
sg130
L0L
sg131
g68
ssssVFluid 0.9
p135
(dp136
S'summary_display'
p137
S'99.3%'
p138
sS'total_runs'
p139
L1L
sS'summary_score'
p140
F99.260628465804061
sS'results'
p141
(dp142
S'failed'
p143
(dp144
S'score'
p145
I75
sS'raw_score'
p146
L16L
sS'display'
p147
S'16'
p148
ssS'passed'
p149
(dp150
g145
I95
sg146
L2148L
sg147
S'2148'
p151
ssssVOpera 9.61
p152
(dp153
S'summary_display'
p154
S'49.8%'
p155
sS'total_runs'
p156
L2L
sS'summary_score'
p157
F49.814471243042675
sS'results'
p158
(dp159
S'failed'
p160
(dp161
S'score'
p162
I50
sS'raw_score'
p163
L2164L
sS'display'
p164
S'2164'
p165
ssS'passed'
p166
(dp167
g162
I95
sg163
L2148L
sg164
S'2148'
p168
ssssVOpera 9.64
p169
(dp170
S'summary_display'
p171
S'0%'
p172
sS'total_runs'
p173
L29L
sS'summary_score'
p174
I100
sS'results'
p175
(dp176
S'failed'
p177
(dp178
S'score'
p179
I50
sS'raw_score'
p180
L2164L
sS'display'
p181
S'2164'
p182
ssS'passed'
p183
(dp184
g179
I50
sg180
L0L
sg181
g68
ssssViPhone 3.0
p185
(dp186
S'summary_display'
p187
S'97.8%'
p188
sS'total_runs'
p189
L28L
sS'summary_score'
p190
F97.781885397412196
sS'results'
p191
(dp192
S'failed'
p193
(dp194
S'score'
p195
I50
sS'raw_score'
p196
L48L
sS'display'
p197
S'48'
p198
ssS'passed'
p199
(dp200
g195
I95
sg196
L2116L
sg197
S'2116'
p201
ssssViPhone 3.1
p202
(dp203
S'summary_display'
p204
S'97.8%'
p205
sS'total_runs'
p206
L85L
sS'summary_score'
p207
F97.781885397412196
sS'results'
p208
(dp209
S'failed'
p210
(dp211
S'score'
p212
I50
sS'raw_score'
p213
L48L
sS'display'
p214
S'48'
p215
ssS'passed'
p216
(dp217
g212
I95
sg213
L2116L
sg214
S'2116'
p218
ssssVNokia 97
p219
(dp220
S'summary_display'
p221
S'0%'
p222
sS'total_runs'
p223
L2L
sS'summary_score'
p224
I100
sS'results'
p225
(dp226
S'failed'
p227
(dp228
S'score'
p229
I50
sS'raw_score'
p230
L2164L
sS'display'
p231
S'2164'
p232
ssS'passed'
p233
(dp234
g229
I50
sg230
L0L
sg231
g68
ssssVIceweasel 3.5
p235
(dp236
S'summary_display'
p237
S'99.3%'
p238
sS'total_runs'
p239
L15L
sS'summary_score'
p240
F99.260628465804061
sS'results'
p241
(dp242
S'failed'
p243
(dp244
S'score'
p245
I75
sS'raw_score'
p246
L16L
sS'display'
p247
S'16'
p248
ssS'passed'
p249
(dp250
g245
I95
sg246
L2148L
sg247
S'2148'
p251
ssssVCamino 2.1
p252
(dp253
S'summary_display'
p254
S'0%'
p255
sS'total_runs'
p256
L1L
sS'summary_score'
p257
I100
sS'results'
p258
(dp259
S'failed'
p260
(dp261
S'score'
p262
I50
sS'raw_score'
p263
L2164L
sS'display'
p264
S'2164'
p265
ssS'passed'
p266
(dp267
g262
I50
sg263
L0L
sg264
g68
ssssVCamino 2.0
p268
(dp269
S'summary_display'
p270
S'0%'
p271
sS'total_runs'
p272
L5L
sS'summary_score'
p273
I100
sS'results'
p274
(dp275
S'failed'
p276
(dp277
S'score'
p278
I50
sS'raw_score'
p279
L2164L
sS'display'
p280
S'2164'
p281
ssS'passed'
p282
(dp283
g278
I50
sg279
L0L
sg280
g68
ssssVIceweasel 3.0
p284
(dp285
S'summary_display'
p286
S'0%'
p287
sS'total_runs'
p288
L33L
sS'summary_score'
p289
I100
sS'results'
p290
(dp291
S'failed'
p292
(dp293
S'score'
p294
I50
sS'raw_score'
p295
L2164L
sS'display'
p296
S'2164'
p297
ssS'passed'
p298
(dp299
g294
I50
sg295
L0L
sg296
g68
ssssVFlock 1.2
p300
(dp301
S'summary_display'
p302
S'0%'
p303
sS'total_runs'
p304
L1L
sS'summary_score'
p305
I100
sS'results'
p306
(dp307
S'failed'
p308
(dp309
S'score'
p310
I50
sS'raw_score'
p311
L2164L
sS'display'
p312
S'2164'
p313
ssS'passed'
p314
(dp315
g310
I50
sg311
L0L
sg312
g68
ssssVJasmine 1.0
p316
(dp317
S'summary_display'
p318
S'49.8%'
p319
sS'total_runs'
p320
L2L
sS'summary_score'
p321
F49.814471243042675
sS'results'
p322
(dp323
S'failed'
p324
(dp325
S'score'
p326
I50
sS'raw_score'
p327
L2164L
sS'display'
p328
S'2164'
p329
ssS'passed'
p330
(dp331
g326
I95
sg327
L2148L
sg328
S'2148'
p332
ssssVChrome 3.0
p333
(dp334
S'summary_display'
p335
S'99.3%'
p336
sS'total_runs'
p337
I560
sS'summary_score'
p338
F99.260628465804061
sS'results'
p339
(dp340
S'failed'
p341
(dp342
S'score'
p343
I75
sS'raw_score'
p344
I16
sS'display'
p345
S'16'
p346
ssS'passed'
p347
(dp348
g343
I95
sg344
I2148
sg345
S'2148'
p349
ssssVMaxthon 2.0
p350
(dp351
S'summary_display'
p352
S'0%'
p353
sS'total_runs'
p354
I12
sS'summary_score'
p355
I100
sS'results'
p356
(dp357
S'failed'
p358
(dp359
S'score'
p360
I50
sS'raw_score'
p361
I1816
sS'display'
p362
S'1816'
p363
ssS'passed'
p364
(dp365
g360
I50
sg361
I0
sg362
g68
ssssVChrome 1.0
p366
(dp367
S'summary_display'
p368
S'80.6%'
p369
sS'total_runs'
p370
L8L
sS'summary_score'
p371
F80.637707948244
sS'results'
p372
(dp373
S'failed'
p374
(dp375
S'score'
p376
I50
sS'raw_score'
p377
L419L
sS'display'
p378
S'419'
p379
ssS'passed'
p380
(dp381
g376
I50
sg377
L1745L
sg378
S'1745'
p382
ssssVAvant 1
p383
(dp384
S'summary_display'
p385
S'0%'
p386
sS'total_runs'
p387
L10L
sS'summary_score'
p388
I100
sS'results'
p389
(dp390
S'failed'
p391
(dp392
S'score'
p393
I50
sS'raw_score'
p394
L1816L
sS'display'
p395
S'1816'
p396
ssS'passed'
p397
(dp398
g393
I50
sg394
L0L
sg395
g68
ssssVOpera 9.70
p399
(dp400
S'summary_display'
p401
S'99.8%'
p402
sS'total_runs'
p403
L2L
sS'summary_score'
p404
F99.815157116451019
sS'results'
p405
(dp406
S'failed'
p407
(dp408
S'score'
p409
I85
sS'raw_score'
p410
L4L
sS'display'
p411
S'4'
p412
ssS'passed'
p413
(dp414
g409
I95
sg410
L2160L
sg411
S'2160'
p415
ssssVFirefox 3.2
p416
(dp417
S'summary_display'
p418
S'99.3%'
p419
sS'total_runs'
p420
L1L
sS'summary_score'
p421
F99.260628465804061
sS'results'
p422
(dp423
S'failed'
p424
(dp425
S'score'
p426
I75
sS'raw_score'
p427
L16L
sS'display'
p428
S'16'
p429
ssS'passed'
p430
(dp431
g426
I95
sg427
L2148L
sg428
S'2148'
p432
ssssVOpera Mini 5.0
p433
(dp434
S'summary_display'
p435
S'97.5%'
p436
sS'total_runs'
p437
L4L
sS'summary_score'
p438
F97.504621072088725
sS'results'
p439
(dp440
S'failed'
p441
(dp442
S'score'
p443
I50
sS'raw_score'
p444
L54L
sS'display'
p445
S'54'
p446
ssS'passed'
p447
(dp448
g443
I95
sg444
L2110L
sg445
S'2110'
p449
ssssVSeaMonkey 2.1
p450
(dp451
S'summary_display'
p452
S'100.0%'
p453
sS'total_runs'
p454
L1L
sS'summary_score'
p455
F100.0
sS'results'
p456
(dp457
S'failed'
p458
(dp459
S'score'
p460
I95
sS'raw_score'
p461
L0L
sS'display'
p462
g68
ssS'passed'
p463
(dp464
g460
I95
sg461
L2164L
sg462
S'2164'
p465
ssssVSeaMonkey 2.0
p466
(dp467
S'summary_display'
p468
S'99.3%'
p469
sS'total_runs'
p470
L23L
sS'summary_score'
p471
F99.260628465804061
sS'results'
p472
(dp473
S'failed'
p474
(dp475
S'score'
p476
I75
sS'raw_score'
p477
L16L
sS'display'
p478
S'16'
p479
ssS'passed'
p480
(dp481
g476
I95
sg477
L2148L
sg478
S'2148'
p482
ssssVFlock 2.0
p483
(dp484
S'summary_display'
p485
S'0%'
p486
sS'total_runs'
p487
L3L
sS'summary_score'
p488
I100
sS'results'
p489
(dp490
S'failed'
p491
(dp492
S'score'
p493
I50
sS'raw_score'
p494
L2164L
sS'display'
p495
S'2164'
p496
ssS'passed'
p497
(dp498
g493
I50
sg494
L0L
sg495
g68
ssssVFlock 2.5
p499
(dp500
S'summary_display'
p501
S'0%'
p502
sS'total_runs'
p503
L3L
sS'summary_score'
p504
I100
sS'results'
p505
(dp506
S'failed'
p507
(dp508
S'score'
p509
I50
sS'raw_score'
p510
L2164L
sS'display'
p511
S'2164'
p512
ssS'passed'
p513
(dp514
g509
I50
sg510
L0L
sg511
g68
ssssVIron 2.0
p515
(dp516
S'summary_display'
p517
S'99.3%'
p518
sS'total_runs'
p519
L7L
sS'summary_score'
p520
F99.260628465804061
sS'results'
p521
(dp522
S'failed'
p523
(dp524
S'score'
p525
I75
sS'raw_score'
p526
L16L
sS'display'
p527
S'16'
p528
ssS'passed'
p529
(dp530
g525
I95
sg526
L2148L
sg527
S'2148'
p531
ssssVIE 6.0
p532
(dp533
S'summary_display'
p534
S'0%'
p535
sS'total_runs'
p536
I102
sS'summary_score'
p537
I100
sS'results'
p538
(dp539
S'failed'
p540
(dp541
S'score'
p542
I50
sS'raw_score'
p543
I1816
sS'display'
p544
S'1816'
p545
ssS'passed'
p546
(dp547
g542
I50
sg543
I0
sg544
g68
ssssVLunascape 4.9
p548
(dp549
S'summary_display'
p550
S'97.8%'
p551
sS'total_runs'
p552
L1L
sS'summary_score'
p553
F97.781885397412196
sS'results'
p554
(dp555
S'failed'
p556
(dp557
S'score'
p558
I50
sS'raw_score'
p559
L48L
sS'display'
p560
S'48'
p561
ssS'passed'
p562
(dp563
g558
I95
sg559
L2116L
sg560
S'2116'
p564
ssssVSeaMonkey 1.1
p565
(dp566
S'summary_display'
p567
S'0%'
p568
sS'total_runs'
p569
L10L
sS'summary_score'
p570
I100
sS'results'
p571
(dp572
S'failed'
p573
(dp574
S'score'
p575
I50
sS'raw_score'
p576
L2164L
sS'display'
p577
S'2164'
p578
ssS'passed'
p579
(dp580
g575
I50
sg576
L0L
sg577
g68
ssssVOpera Mini 4.2
p581
(dp582
S'summary_display'
p583
S'97.5%'
p584
sS'total_runs'
p585
L19L
sS'summary_score'
p586
F97.504621072088725
sS'results'
p587
(dp588
S'failed'
p589
(dp590
S'score'
p591
I50
sS'raw_score'
p592
L54L
sS'display'
p593
S'54'
p594
ssS'passed'
p595
(dp596
g591
I95
sg592
L2110L
sg593
S'2110'
p597
ssssVOpera Mini 4.0
p598
(dp599
S'summary_display'
p600
S'97.5%'
p601
sS'total_runs'
p602
L3L
sS'summary_score'
p603
F97.504621072088725
sS'results'
p604
(dp605
S'failed'
p606
(dp607
S'score'
p608
I50
sS'raw_score'
p609
L54L
sS'display'
p610
S'54'
p611
ssS'passed'
p612
(dp613
g608
I95
sg609
L2110L
sg610
S'2110'
p614
ssssVKonqueror 4.3
p615
(dp616
S'summary_display'
p617
S'0%'
p618
sS'total_runs'
p619
L47L
sS'summary_score'
p620
I100
sS'results'
p621
(dp622
S'failed'
p623
(dp624
S'score'
p625
I50
sS'raw_score'
p626
L2164L
sS'display'
p627
S'2164'
p628
ssS'passed'
p629
(dp630
g625
I50
sg626
L0L
sg627
g68
ssssVKonqueror 4.2
p631
(dp632
S'summary_display'
p633
S'0%'
p634
sS'total_runs'
p635
L5L
sS'summary_score'
p636
I100
sS'results'
p637
(dp638
S'failed'
p639
(dp640
S'score'
p641
I50
sS'raw_score'
p642
L2164L
sS'display'
p643
S'2164'
p644
ssS'passed'
p645
(dp646
g641
I50
sg642
L0L
sg643
g68
ssssVFirefox (Namoroka) 3.6
p647
(dp648
S'summary_display'
p649
S'99.3%'
p650
sS'total_runs'
p651
L46L
sS'summary_score'
p652
F99.260628465804061
sS'results'
p653
(dp654
S'failed'
p655
(dp656
S'score'
p657
I75
sS'raw_score'
p658
L16L
sS'display'
p659
S'16'
p660
ssS'passed'
p661
(dp662
g657
I95
sg658
L2148L
sg659
S'2148'
p663
ssssVIE 4.0
p664
(dp665
S'summary_display'
p666
S'0%'
p667
sS'total_runs'
p668
L1L
sS'summary_score'
p669
I100
sS'results'
p670
(dp671
S'failed'
p672
(dp673
S'score'
p674
I50
sS'raw_score'
p675
L2164L
sS'display'
p676
S'2164'
p677
ssS'passed'
p678
(dp679
g674
I50
sg675
L0L
sg676
g68
ssssVKazehakase 0.5
p680
(dp681
S'summary_display'
p682
S'0%'
p683
sS'total_runs'
p684
L1L
sS'summary_score'
p685
I100
sS'results'
p686
(dp687
S'failed'
p688
(dp689
S'score'
p690
I50
sS'raw_score'
p691
L2164L
sS'display'
p692
S'2164'
p693
ssS'passed'
p694
(dp695
g690
I50
sg691
L0L
sg692
g68
ssssVLunascape 6.0
p696
(dp697
S'summary_display'
p698
S'99.3%'
p699
sS'total_runs'
p700
L10L
sS'summary_score'
p701
F99.260628465804061
sS'results'
p702
(dp703
S'failed'
p704
(dp705
S'score'
p706
I75
sS'raw_score'
p707
L16L
sS'display'
p708
S'16'
p709
ssS'passed'
p710
(dp711
g706
I95
sg707
L2148L
sg708
S'2148'
p712
ssssVOpera 10.01
p713
(dp714
S'summary_display'
p715
S'97.5%'
p716
sS'total_runs'
p717
L105L
sS'summary_score'
p718
F97.504621072088725
sS'results'
p719
(dp720
S'failed'
p721
(dp722
S'score'
p723
I50
sS'raw_score'
p724
L54L
sS'display'
p725
S'54'
p726
ssS'passed'
p727
(dp728
g723
I95
sg724
L2110L
sg725
S'2110'
p729
ssssVOpera 10.00
p730
(dp731
S'summary_display'
p732
S'97.5%'
p733
sS'total_runs'
p734
I550
sS'summary_score'
p735
F97.504621072088725
sS'results'
p736
(dp737
S'failed'
p738
(dp739
S'score'
p740
I50
sS'raw_score'
p741
I54
sS'display'
p742
S'54'
p743
ssS'passed'
p744
(dp745
g740
I95
sg741
I2110
sg742
S'2110'
p746
ssssVPalm Pre 1.0
p747
(dp748
S'summary_display'
p749
S'99.3%'
p750
sS'total_runs'
p751
L9L
sS'summary_score'
p752
F99.260628465804061
sS'results'
p753
(dp754
S'failed'
p755
(dp756
S'score'
p757
I75
sS'raw_score'
p758
L16L
sS'display'
p759
S'16'
p760
ssS'passed'
p761
(dp762
g757
I95
sg758
L2148L
sg759
S'2148'
p763
ssssViPhone 2.2
p764
(dp765
S'summary_display'
p766
S'80.6%'
p767
sS'total_runs'
p768
L8L
sS'summary_score'
p769
F80.637707948244
sS'results'
p770
(dp771
S'failed'
p772
(dp773
S'score'
p774
I50
sS'raw_score'
p775
L419L
sS'display'
p776
S'419'
p777
ssS'passed'
p778
(dp779
g774
I50
sg775
L1745L
sg776
S'1745'
p780
ssssVFirefox 3.1
p781
(dp782
S'summary_display'
p783
S'99.3%'
p784
sS'total_runs'
p785
L1L
sS'summary_score'
p786
F99.260628465804061
sS'results'
p787
(dp788
S'failed'
p789
(dp790
S'score'
p791
I75
sS'raw_score'
p792
L16L
sS'display'
p793
S'16'
p794
ssS'passed'
p795
(dp796
g791
I95
sg792
L2148L
sg793
S'2148'
p797
ssssVFirefox 3.0
p798
(dp799
S'summary_display'
p800
S'0%'
p801
sS'total_runs'
p802
I581
sS'summary_score'
p803
I100
sS'results'
p804
(dp805
S'failed'
p806
(dp807
S'score'
p808
I50
sS'raw_score'
p809
I2164
sS'display'
p810
S'2164'
p811
ssS'passed'
p812
(dp813
g808
I50
sg809
I0
sg810
g68
ssssVAndroid 2.0
p814
(dp815
S'summary_display'
p816
S'99.3%'
p817
sS'total_runs'
p818
L11L
sS'summary_score'
p819
F99.260628465804061
sS'results'
p820
(dp821
S'failed'
p822
(dp823
S'score'
p824
I75
sS'raw_score'
p825
L16L
sS'display'
p826
S'16'
p827
ssS'passed'
p828
(dp829
g824
I95
sg825
L2148L
sg826
S'2148'
p830
ssssVAndroid 2.1
p831
(dp832
S'summary_display'
p833
S'99.3%'
p834
sS'total_runs'
p835
L1L
sS'summary_score'
p836
F99.260628465804061
sS'results'
p837
(dp838
S'failed'
p839
(dp840
S'score'
p841
I75
sS'raw_score'
p842
L16L
sS'display'
p843
S'16'
p844
ssS'passed'
p845
(dp846
g841
I95
sg842
L2148L
sg843
S'2148'
p847
ssssVFirefox 3.5
p848
(dp849
S'summary_display'
p850
S'99.3%'
p851
sS'total_runs'
p852
I3752
sS'summary_score'
p853
F99.260628465804061
sS'results'
p854
(dp855
S'failed'
p856
(dp857
S'score'
p858
I75
sS'raw_score'
p859
I16
sS'display'
p860
S'16'
p861
ssS'passed'
p862
(dp863
g858
I95
sg859
I2148
sg860
S'2148'
p864
ssssVFirefox 3.7
p865
(dp866
S'summary_display'
p867
S'99.3%'
p868
sS'total_runs'
p869
L2L
sS'summary_score'
p870
F99.266055045871553
sS'results'
p871
(dp872
S'failed'
p873
(dp874
S'score'
p875
I75
sS'raw_score'
p876
L16L
sS'display'
p877
S'16'
p878
ssS'passed'
p879
(dp880
g875
I95
sg876
L2164L
sg877
S'2164'
p881
ssssVFirefox 3.6
p882
(dp883
S'summary_display'
p884
S'99.3%'
p885
sS'total_runs'
p886
I227
sS'summary_score'
p887
F99.260628465804061
sS'results'
p888
(dp889
S'failed'
p890
(dp891
S'score'
p892
I75
sS'raw_score'
p893
I16
sS'display'
p894
S'16'
p895
ssS'passed'
p896
(dp897
g892
I95
sg893
I2148
sg894
S'2148'
p898
ssssVFirefox 2.0
p899
(dp900
S'summary_display'
p901
S'0%'
p902
sS'total_runs'
p903
L42L
sS'summary_score'
p904
I100
sS'results'
p905
(dp906
S'failed'
p907
(dp908
S'score'
p909
I50
sS'raw_score'
p910
L2164L
sS'display'
p911
S'2164'
p912
ssS'passed'
p913
(dp914
g909
I50
sg910
L0L
sg911
g68
ssssVSwiftfox 3.5
p915
(dp916
S'summary_display'
p917
S'99.3%'
p918
sS'total_runs'
p919
L10L
sS'summary_score'
p920
F99.260628465804061
sS'results'
p921
(dp922
S'failed'
p923
(dp924
S'score'
p925
I75
sS'raw_score'
p926
L16L
sS'display'
p927
S'16'
p928
ssS'passed'
p929
(dp930
g925
I95
sg926
L2148L
sg927
S'2148'
p931
ssssVAndroid 1.5
p932
(dp933
S'summary_display'
p934
S'97.8%'
p935
sS'total_runs'
p936
L29L
sS'summary_score'
p937
F97.781885397412196
sS'results'
p938
(dp939
S'failed'
p940
(dp941
S'score'
p942
I50
sS'raw_score'
p943
L48L
sS'display'
p944
S'48'
p945
ssS'passed'
p946
(dp947
g942
I95
sg943
L2116L
sg944
S'2116'
p948
ssssVChrome 4.0
p949
(dp950
S'summary_display'
p951
S'99.3%'
p952
sS'total_runs'
p953
I989
sS'summary_score'
p954
F99.260628465804061
sS'results'
p955
(dp956
S'failed'
p957
(dp958
S'score'
p959
I75
sS'raw_score'
p960
I16
sS'display'
p961
S'16'
p962
ssS'passed'
p963
(dp964
g959
I95
sg960
I2148
sg961
S'2148'
p965
ssssVAndroid 1.6
p966
(dp967
S'summary_display'
p968
S'97.8%'
p969
sS'total_runs'
p970
L15L
sS'summary_score'
p971
F97.781885397412196
sS'results'
p972
(dp973
S'failed'
p974
(dp975
S'score'
p976
I50
sS'raw_score'
p977
L48L
sS'display'
p978
S'48'
p979
ssS'passed'
p980
(dp981
g976
I95
sg977
L2116L
sg978
S'2116'
p982
ssssVOpera 9.60
p983
(dp984
S'summary_display'
p985
S'0%'
p986
sS'total_runs'
p987
L1L
sS'summary_score'
p988
I100
sS'results'
p989
(dp990
S'failed'
p991
(dp992
S'score'
p993
I50
sS'raw_score'
p994
L2164L
sS'display'
p995
S'2164'
p996
ssS'passed'
p997
(dp998
g993
I50
sg994
L0L
sg995
g68
ssssVOpera 9.52
p999
(dp1000
S'summary_display'
p1001
S'0%'
p1002
sS'total_runs'
p1003
L1L
sS'summary_score'
p1004
I100
sS'results'
p1005
(dp1006
S'failed'
p1007
(dp1008
S'score'
p1009
I50
sS'raw_score'
p1010
L2164L
sS'display'
p1011
S'2164'
p1012
ssS'passed'
p1013
(dp1014
g1009
I50
sg1010
L0L
sg1011
g68
ssssVOpera 9.51
p1015
(dp1016
S'summary_display'
p1017
S'0%'
p1018
sS'total_runs'
p1019
L4L
sS'summary_score'
p1020
I100
sS'results'
p1021
(dp1022
S'failed'
p1023
(dp1024
S'score'
p1025
I50
sS'raw_score'
p1026
L2164L
sS'display'
p1027
S'2164'
p1028
ssS'passed'
p1029
(dp1030
g1025
I50
sg1026
L0L
sg1027
g68
ssssVOpera 9.50
p1031
(dp1032
S'summary_display'
p1033
S'0%'
p1034
sS'total_runs'
p1035
L2L
sS'summary_score'
p1036
I100
sS'results'
p1037
(dp1038
S'failed'
p1039
(dp1040
S'score'
p1041
I50
sS'raw_score'
p1042
L2164L
sS'display'
p1043
S'2164'
p1044
ssS'passed'
p1045
(dp1046
g1041
I50
sg1042
L0L
sg1043
g68
ssssVOpera 10.10
p1047
(dp1048
S'summary_display'
p1049
S'97.5%'
p1050
sS'total_runs'
p1051
I396
sS'summary_score'
p1052
F97.504621072088725
sS'results'
p1053
(dp1054
S'failed'
p1055
(dp1056
S'score'
p1057
I50
sS'raw_score'
p1058
I54
sS'display'
p1059
S'54'
p1060
ssS'passed'
p1061
(dp1062
g1057
I95
sg1058
I2110
sg1059
S'2110'
p1063
ssssVSleipnir 2.8
p1064
(dp1065
S'summary_display'
p1066
S'0%'
p1067
sS'total_runs'
p1068
L10L
sS'summary_score'
p1069
I100
sS'results'
p1070
(dp1071
S'failed'
p1072
(dp1073
S'score'
p1074
I50
sS'raw_score'
p1075
L1816L
sS'display'
p1076
S'1816'
p1077
ssS'passed'
p1078
(dp1079
g1074
I50
sg1075
L0L
sg1076
g68
ssssVIE 8.0
p1080
(dp1081
S'summary_display'
p1082
S'58.5%'
p1083
sS'total_runs'
p1084
I424
sS'summary_score'
p1085
F58.456561922365992
sS'results'
p1086
(dp1087
S'failed'
p1088
(dp1089
S'score'
p1090
I50
sS'raw_score'
p1091
I899
sS'display'
p1092
S'899'
p1093
ssS'passed'
p1094
(dp1095
g1090
I50
sg1091
I1265
sg1092
S'1265'
p1096
ssssVSleipnir 2.9
p1097
(dp1098
S'summary_display'
p1099
S'58.5%'
p1100
sS'total_runs'
p1101
L5L
sS'summary_score'
p1102
F58.456561922365992
sS'results'
p1103
(dp1104
S'failed'
p1105
(dp1106
S'score'
p1107
I50
sS'raw_score'
p1108
L899L
sS'display'
p1109
S'899'
p1110
ssS'passed'
p1111
(dp1112
g1107
I50
sg1108
L1265L
sg1109
S'1265'
p1113
ssssVNetNewsWire 3.1
p1114
(dp1115
S'summary_display'
p1116
S'99.3%'
p1117
sS'total_runs'
p1118
L1L
sS'summary_score'
p1119
F99.260628465804061
sS'results'
p1120
(dp1121
S'failed'
p1122
(dp1123
S'score'
p1124
I75
sS'raw_score'
p1125
L16L
sS'display'
p1126
S'16'
p1127
ssS'passed'
p1128
(dp1129
g1124
I95
sg1125
L2148L
sg1126
S'2148'
p1130
ssssVNetNewsWire 3.2
p1131
(dp1132
S'summary_display'
p1133
S'99.3%'
p1134
sS'total_runs'
p1135
L9L
sS'summary_score'
p1136
F99.260628465804061
sS'results'
p1137
(dp1138
S'failed'
p1139
(dp1140
S'score'
p1141
I75
sS'raw_score'
p1142
L16L
sS'display'
p1143
S'16'
p1144
ssS'passed'
p1145
(dp1146
g1141
I95
sg1142
L2148L
sg1143
S'2148'
p1147
ssssVSafari 4.0
p1148
(dp1149
S'summary_display'
p1150
S'99.3%'
p1151
sS'total_runs'
p1152
I960
sS'summary_score'
p1153
F99.260628465804061
sS'results'
p1154
(dp1155
S'failed'
p1156
(dp1157
S'score'
p1158
I75
sS'raw_score'
p1159
I16
sS'display'
p1160
S'16'
p1161
ssS'passed'
p1162
(dp1163
g1158
I95
sg1159
I2148
sg1160
S'2148'
p1164
ssssVKonqueror 3.5
p1165
(dp1166
S'summary_display'
p1167
S'0%'
p1168
sS'total_runs'
p1169
L10L
sS'summary_score'
p1170
I100
sS'results'
p1171
(dp1172
S'failed'
p1173
(dp1174
S'score'
p1175
I50
sS'raw_score'
p1176
L2164L
sS'display'
p1177
S'2164'
p1178
ssS'passed'
p1179
(dp1180
g1175
I50
sg1176
L0L
sg1177
g68
ssssVFirefox (Minefield) 3.7
p1181
(dp1182
S'summary_display'
p1183
S'100.0%'
p1184
sS'total_runs'
p1185
I177
sS'summary_score'
p1186
F100.0
sS'results'
p1187
(dp1188
S'failed'
p1189
(dp1190
S'score'
p1191
I95
sS'raw_score'
p1192
I0
sS'display'
p1193
g68
ssS'passed'
p1194
(dp1195
g1191
I95
sg1192
I2164
sg1193
S'2164'
p1196
ssssVFirefox (Minefield) 3.6
p1197
(dp1198
S'summary_display'
p1199
S'99.3%'
p1200
sS'total_runs'
p1201
L7L
sS'summary_score'
p1202
F99.260628465804061
sS'results'
p1203
(dp1204
S'failed'
p1205
(dp1206
S'score'
p1207
I75
sS'raw_score'
p1208
L16L
sS'display'
p1209
S'16'
p1210
ssS'passed'
p1211
(dp1212
g1207
I95
sg1208
L2148L
sg1209
S'2148'
p1213
ssssVFlock 1.1
p1214
(dp1215
S'summary_display'
p1216
S'0%'
p1217
sS'total_runs'
p1218
L1L
sS'summary_score'
p1219
I100
sS'results'
p1220
(dp1221
S'failed'
p1222
(dp1223
S'score'
p1224
I50
sS'raw_score'
p1225
L2164L
sS'display'
p1226
S'2164'
p1227
ssS'passed'
p1228
(dp1229
g1224
I50
sg1225
L0L
sg1226
g68
ssssVGranParadiso 3.0
p1230
(dp1231
S'summary_display'
p1232
S'0%'
p1233
sS'total_runs'
p1234
L1L
sS'summary_score'
p1235
I100
sS'results'
p1236
(dp1237
S'failed'
p1238
(dp1239
S'score'
p1240
I50
sS'raw_score'
p1241
L2164L
sS'display'
p1242
S'2164'
p1243
ssS'passed'
p1244
(dp1245
g1240
I50
sg1241
L0L
sg1242
g68
ssssVIron 3.0
p1246
(dp1247
S'summary_display'
p1248
S'99.3%'
p1249
sS'total_runs'
p1250
L53L
sS'summary_score'
p1251
F99.260628465804061
sS'results'
p1252
(dp1253
S'failed'
p1254
(dp1255
S'score'
p1256
I75
sS'raw_score'
p1257
L16L
sS'display'
p1258
S'16'
p1259
ssS'passed'
p1260
(dp1261
g1256
I95
sg1257
L2148L
sg1258
S'2148'
p1262
ssssVLunascape 5.1
p1263
(dp1264
S'summary_display'
p1265
S'99.3%'
p1266
sS'total_runs'
p1267
L8L
sS'summary_score'
p1268
F99.260628465804061
sS'results'
p1269
(dp1270
S'failed'
p1271
(dp1272
S'score'
p1273
I75
sS'raw_score'
p1274
L16L
sS'display'
p1275
S'16'
p1276
ssS'passed'
p1277
(dp1278
g1273
I95
sg1274
L2148L
sg1275
S'2148'
p1279
ssssVOpera 8.54
p1280
(dp1281
S'summary_display'
p1282
S'29.2%'
p1283
sS'total_runs'
p1284
L1L
sS'summary_score'
p1285
F29.166666666666668
sS'results'
p1286
(dp1287
S'failed'
p1288
(dp1289
S'score'
p1290
I50
sS'raw_score'
p1291
L561L
sS'display'
p1292
S'561'
p1293
ssS'passed'
p1294
(dp1295
g1290
I50
sg1291
L231L
sg1292
S'231'
p1296
ssssVChrome Frame (IE 8) 4.0
p1297
(dp1298
S'summary_display'
p1299
S'99.3%'
p1300
sS'total_runs'
p1301
L12L
sS'summary_score'
p1302
F99.260628465804061
sS'results'
p1303
(dp1304
S'failed'
p1305
(dp1306
S'score'
p1307
I75
sS'raw_score'
p1308
L16L
sS'display'
p1309
S'16'
p1310
ssS'passed'
p1311
(dp1312
g1307
I95
sg1308
L2148L
sg1309
S'2148'
p1313
ssssVIE 7.0
p1314
(dp1315
S'summary_display'
p1316
S'0%'
p1317
sS'total_runs'
p1318
I191
sS'summary_score'
p1319
I100
sS'results'
p1320
(dp1321
S'failed'
p1322
(dp1323
S'score'
p1324
I50
sS'raw_score'
p1325
I1816
sS'display'
p1326
S'1816'
p1327
ssS'passed'
p1328
(dp1329
g1324
I50
sg1325
I0
sg1326
g68
ssssVOpera 10.20
p1330
(dp1331
S'summary_display'
p1332
S'97.5%'
p1333
sS'total_runs'
p1334
L31L
sS'summary_score'
p1335
F97.504621072088725
sS'results'
p1336
(dp1337
S'failed'
p1338
(dp1339
S'score'
p1340
I50
sS'raw_score'
p1341
L54L
sS'display'
p1342
S'54'
p1343
ssS'passed'
p1344
(dp1345
g1340
I95
sg1341
L2110L
sg1342
S'2110'
p1346
ssssVOmniWeb 622.10
p1347
(dp1348
S'summary_display'
p1349
S'99.3%'
p1350
sS'total_runs'
p1351
L5L
sS'summary_score'
p1352
F99.260628465804061
sS'results'
p1353
(dp1354
S'failed'
p1355
(dp1356
S'score'
p1357
I75
sS'raw_score'
p1358
L16L
sS'display'
p1359
S'16'
p1360
ssS'passed'
p1361
(dp1362
g1357
I95
sg1358
L2148L
sg1359
S'2148'
p1363
ssssVStainless 0.7
p1364
(dp1365
S'summary_display'
p1366
S'99.3%'
p1367
sS'total_runs'
p1368
L4L
sS'summary_score'
p1369
F99.260628465804061
sS'results'
p1370
(dp1371
S'failed'
p1372
(dp1373
S'score'
p1374
I75
sS'raw_score'
p1375
L16L
sS'display'
p1376
S'16'
p1377
ssS'passed'
p1378
(dp1379
g1374
I95
sg1375
L2148L
sg1376
S'2148'
p1380
ssssVStainless 0.6
p1381
(dp1382
S'summary_display'
p1383
S'99.3%'
p1384
sS'total_runs'
p1385
L1L
sS'summary_score'
p1386
F99.260628465804061
sS'results'
p1387
(dp1388
S'failed'
p1389
(dp1390
S'score'
p1391
I75
sS'raw_score'
p1392
L16L
sS'display'
p1393
S'16'
p1394
ssS'passed'
p1395
(dp1396
g1391
I95
sg1392
L2148L
sg1393
S'2148'
p1397
ssssVChrome Frame (IE 7) 4.0
p1398
(dp1399
S'summary_display'
p1400
S'99.3%'
p1401
sS'total_runs'
p1402
L5L
sS'summary_score'
p1403
F99.260628465804061
sS'results'
p1404
(dp1405
S'failed'
p1406
(dp1407
S'score'
p1408
I75
sS'raw_score'
p1409
L16L
sS'display'
p1410
S'16'
p1411
ssS'passed'
p1412
(dp1413
g1408
I95
sg1409
L2148L
sg1410
S'2148'
p1414
ssssVK-Meleon 1.5
p1415
(dp1416
S'summary_display'
p1417
S'0%'
p1418
sS'total_runs'
p1419
L8L
sS'summary_score'
p1420
I100
sS'results'
p1421
(dp1422
S'failed'
p1423
(dp1424
S'score'
p1425
I50
sS'raw_score'
p1426
L2164L
sS'display'
p1427
S'2164'
p1428
ssS'passed'
p1429
(dp1430
g1425
I50
sg1426
L0L
sg1427
g68
ssssVGaleon 2.0
p1431
(dp1432
S'summary_display'
p1433
S'0%'
p1434
sS'total_runs'
p1435
L2L
sS'summary_score'
p1436
I100
sS'results'
p1437
(dp1438
S'failed'
p1439
(dp1440
S'score'
p1441
I50
sS'raw_score'
p1442
L2164L
sS'display'
p1443
S'2164'
p1444
ssS'passed'
p1445
(dp1446
g1441
I50
sg1442
L0L
sg1443
g68
ssssVCrazy Browser 3.0
p1447
(dp1448
S'summary_display'
p1449
S'0%'
p1450
sS'total_runs'
p1451
L1L
sS'summary_score'
p1452
I100
sS'results'
p1453
(dp1454
S'failed'
p1455
(dp1456
S'score'
p1457
I50
sS'raw_score'
p1458
L1816L
sS'display'
p1459
S'1816'
p1460
ssS'passed'
p1461
(dp1462
g1457
I50
sg1458
L0L
sg1459
g68
ssssVQtWeb 3.1
p1463
(dp1464
S'summary_display'
p1465
S'97.8%'
p1466
sS'total_runs'
p1467
L1L
sS'summary_score'
p1468
F97.781885397412196
sS'results'
p1469
(dp1470
S'failed'
p1471
(dp1472
S'score'
p1473
I50
sS'raw_score'
p1474
L48L
sS'display'
p1475
S'48'
p1476
ssS'passed'
p1477
(dp1478
g1473
I95
sg1474
L2116L
sg1475
S'2116'
p1479
ssssVMicroB 0.3
p1480
(dp1481
S'summary_display'
p1482
S'0%'
p1483
sS'total_runs'
p1484
L1L
sS'summary_score'
p1485
I100
sS'results'
p1486
(dp1487
S'failed'
p1488
(dp1489
S'score'
p1490
I50
sS'raw_score'
p1491
L2164L
sS'display'
p1492
S'2164'
p1493
ssS'passed'
p1494
(dp1495
g1490
I50
sg1491
L0L
sg1492
g68
ssssVShiira 0
p1496
(dp1497
S'summary_display'
p1498
S'99.3%'
p1499
sS'total_runs'
p1500
L1L
sS'summary_score'
p1501
F99.260628465804061
sS'results'
p1502
(dp1503
S'failed'
p1504
(dp1505
S'score'
p1506
I75
sS'raw_score'
p1507
L16L
sS'display'
p1508
S'16'
p1509
ssS'passed'
p1510
(dp1511
g1506
I95
sg1507
L2148L
sg1508
S'2148'
p1512
ssssViCab 4.7
p1513
(dp1514
S'summary_display'
p1515
S'99.3%'
p1516
sS'total_runs'
p1517
L1L
sS'summary_score'
p1518
F99.260628465804061
sS'results'
p1519
(dp1520
S'failed'
p1521
(dp1522
S'score'
p1523
I75
sS'raw_score'
p1524
L16L
sS'display'
p1525
S'16'
p1526
ssS'passed'
p1527
(dp1528
g1523
I95
sg1524
L2148L
sg1525
S'2148'
p1529
ssssVIE 5.5
p1530
(dp1531
S'summary_display'
p1532
S'0%'
p1533
sS'total_runs'
p1534
L1L
sS'summary_score'
p1535
I100
sS'results'
p1536
(dp1537
S'failed'
p1538
(dp1539
S'score'
p1540
I50
sS'raw_score'
p1541
L1816L
sS'display'
p1542
S'1816'
p1543
ssS'passed'
p1544
(dp1545
g1540
I50
sg1541
L0L
sg1542
g68
ssssVVienna 2.3
p1546
(dp1547
S'summary_display'
p1548
S'99.3%'
p1549
sS'total_runs'
p1550
L2L
sS'summary_score'
p1551
F99.260628465804061
sS'results'
p1552
(dp1553
S'failed'
p1554
(dp1555
S'score'
p1556
I75
sS'raw_score'
p1557
L16L
sS'display'
p1558
S'16'
p1559
ssS'passed'
p1560
(dp1561
g1556
I95
sg1557
L2148L
sg1558
S'2148'
p1562
ssssVSafari 1.0
p1563
(dp1564
S'summary_display'
p1565
S'80.6%'
p1566
sS'total_runs'
p1567
L1L
sS'summary_score'
p1568
F80.637707948244
sS'results'
p1569
(dp1570
S'failed'
p1571
(dp1572
S'score'
p1573
I50
sS'raw_score'
p1574
L419L
sS'display'
p1575
S'419'
p1576
ssS'passed'
p1577
(dp1578
g1573
I50
sg1574
L1745L
sg1575
S'1745'
p1579
ssssVSafari 3.2
p1580
(dp1581
S'summary_display'
p1582
S'80.6%'
p1583
sS'total_runs'
p1584
L19L
sS'summary_score'
p1585
F80.637707948244
sS'results'
p1586
(dp1587
S'failed'
p1588
(dp1589
S'score'
p1590
I50
sS'raw_score'
p1591
L419L
sS'display'
p1592
S'419'
p1593
ssS'passed'
p1594
(dp1595
g1590
I50
sg1591
L1745L
sg1592
S'1745'
p1596
ssssVSafari 3.1
p1597
(dp1598
S'summary_display'
p1599
S'99.3%'
p1600
sS'total_runs'
p1601
L13L
sS'summary_score'
p1602
F99.260628465804061
sS'results'
p1603
(dp1604
S'failed'
p1605
(dp1606
S'score'
p1607
I75
sS'raw_score'
p1608
L16L
sS'display'
p1609
S'16'
p1610
ssS'passed'
p1611
(dp1612
g1607
I95
sg1608
L2148L
sg1609
S'2148'
p1613
ssssVSafari 3.0
p1614
(dp1615
S'summary_display'
p1616
S'0%'
p1617
sS'total_runs'
p1618
L4L
sS'summary_score'
p1619
I100
sS'results'
p1620
(dp1621
S'failed'
p1622
(dp1623
S'score'
p1624
I50
sS'raw_score'
p1625
L2164L
sS'display'
p1626
S'2164'
p1627
ssS'passed'
p1628
(dp1629
g1624
I50
sg1625
L0L
sg1626
g68
ssssVVodafone 1.0
p1630
(dp1631
S'summary_display'
p1632
S'99.3%'
p1633
sS'total_runs'
p1634
L1L
sS'summary_score'
p1635
F99.260628465804061
sS'results'
p1636
(dp1637
S'failed'
p1638
(dp1639
S'score'
p1640
I75
sS'raw_score'
p1641
L16L
sS'display'
p1642
S'16'
p1643
ssS'passed'
p1644
(dp1645
g1640
I95
sg1641
L2148L
sg1642
S'2148'
p1646
ssssVWii 9.30
p1647
(dp1648
S'summary_display'
p1649
S'0%'
p1650
sS'total_runs'
p1651
L2L
sS'summary_score'
p1652
I100
sS'results'
p1653
(dp1654
S'failed'
p1655
(dp1656
S'score'
p1657
I50
sS'raw_score'
p1658
L2164L
sS'display'
p1659
S'2164'
p1660
ssS'passed'
p1661
(dp1662
g1657
I50
sg1658
L0L
sg1659
g68
ssssVArora 0.5
p1663
(dp1664
S'summary_display'
p1665
S'97.8%'
p1666
sS'total_runs'
p1667
L1L
sS'summary_score'
p1668
F97.781885397412196
sS'results'
p1669
(dp1670
S'failed'
p1671
(dp1672
S'score'
p1673
I50
sS'raw_score'
p1674
L48L
sS'display'
p1675
S'48'
p1676
ssS'passed'
p1677
(dp1678
g1673
I95
sg1674
L2116L
sg1675
S'2116'
p1679
ssssVArora 0.6
p1680
(dp1681
S'summary_display'
p1682
S'0%'
p1683
sS'total_runs'
p1684
L1L
sS'summary_score'
p1685
I100
sS'results'
p1686
(dp1687
S'failed'
p1688
(dp1689
S'score'
p1690
I50
sS'raw_score'
p1691
L2164L
sS'display'
p1692
S'2164'
p1693
ssS'passed'
p1694
(dp1695
g1690
I50
sg1691
L0L
sg1692
g68
ssssVArora 0.7
p1696
(dp1697
S'summary_display'
p1698
S'97.8%'
p1699
sS'total_runs'
p1700
L1L
sS'summary_score'
p1701
F97.781885397412196
sS'results'
p1702
(dp1703
S'failed'
p1704
(dp1705
S'score'
p1706
I50
sS'raw_score'
p1707
L48L
sS'display'
p1708
S'48'
p1709
ssS'passed'
p1710
(dp1711
g1706
I95
sg1707
L2116L
sg1708
S'2116'
p1712
ssssVArora 0.8
p1713
(dp1714
S'summary_display'
p1715
S'97.8%'
p1716
sS'total_runs'
p1717
L5L
sS'summary_score'
p1718
F97.781885397412196
sS'results'
p1719
(dp1720
S'failed'
p1721
(dp1722
S'score'
p1723
I50
sS'raw_score'
p1724
L48L
sS'display'
p1725
S'48'
p1726
ssS'passed'
p1727
(dp1728
g1723
I95
sg1724
L2116L
sg1725
S'2116'
p1729
ssssVArora 0.9
p1730
(dp1731
S'summary_display'
p1732
S'97.8%'
p1733
sS'total_runs'
p1734
L10L
sS'summary_score'
p1735
F97.781885397412196
sS'results'
p1736
(dp1737
S'failed'
p1738
(dp1739
S'score'
p1740
I50
sS'raw_score'
p1741
L48L
sS'display'
p1742
S'48'
p1743
ssS'passed'
p1744
(dp1745
g1740
I95
sg1741
L2116L
sg1742
S'2116'
p1746
ssssVOther
p1747
(dp1748
S'summary_display'
p1749
S'99.3%'
p1750
sS'total_runs'
p1751
L65L
sS'summary_score'
p1752
F99.260628465804061
sS'results'
p1753
(dp1754
S'failed'
p1755
(dp1756
S'score'
p1757
I75
sS'raw_score'
p1758
L16L
sS'display'
p1759
S'16'
p1760
ssS'passed'
p1761
(dp1762
g1757
I95
sg1758
L2148L
sg1759
S'2148'
p1763
ssssVUzbl 0
p1764
(dp1765
S'summary_display'
p1766
S'99.3%'
p1767
sS'total_runs'
p1768
L25L
sS'summary_score'
p1769
F99.260628465804061
sS'results'
p1770
(dp1771
S'failed'
p1772
(dp1773
S'score'
p1774
I75
sS'raw_score'
p1775
L16L
sS'display'
p1776
S'16'
p1777
ssS'passed'
p1778
(dp1779
g1774
I95
sg1775
L2148L
sg1776
S'2148'
p1780
ssssVArora 0.10
p1781
(dp1782
S'summary_display'
p1783
S'97.8%'
p1784
sS'total_runs'
p1785
L6L
sS'summary_score'
p1786
F97.781885397412196
sS'results'
p1787
(dp1788
S'failed'
p1789
(dp1790
S'score'
p1791
I50
sS'raw_score'
p1792
L48L
sS'display'
p1793
S'48'
p1794
ssS'passed'
p1795
(dp1796
g1791
I95
sg1792
L2116L
sg1793
S'2116'
p1797
ssssVOpera 9.80
p1798
(dp1799
S'summary_display'
p1800
S'97.5%'
p1801
sS'total_runs'
p1802
L3L
sS'summary_score'
p1803
F97.504621072088725
sS'results'
p1804
(dp1805
S'failed'
p1806
(dp1807
S'score'
p1808
I50
sS'raw_score'
p1809
L54L
sS'display'
p1810
S'54'
p1811
ssS'passed'
p1812
(dp1813
g1808
I95
sg1809
L2110L
sg1810
S'2110'
p1814
ssssVIceweasel 2.0
p1815
(dp1816
S'summary_display'
p1817
S'0%'
p1818
sS'total_runs'
p1819
L1L
sS'summary_score'
p1820
I100
sS'results'
p1821
(dp1822
S'failed'
p1823
(dp1824
S'score'
p1825
I50
sS'raw_score'
p1826
L2164L
sS'display'
p1827
S'2164'
p1828
ssS'passed'
p1829
(dp1830
g1825
I50
sg1826
L0L
sg1827
g68
ssssVChrome Frame (IE 6) 4.0
p1831
(dp1832
S'summary_display'
p1833
S'99.3%'
p1834
sS'total_runs'
p1835
L2L
sS'summary_score'
p1836
F99.260628465804061
sS'results'
p1837
(dp1838
S'failed'
p1839
(dp1840
S'score'
p1841
I75
sS'raw_score'
p1842
L16L
sS'display'
p1843
S'16'
p1844
ssS'passed'
p1845
(dp1846
g1841
I95
sg1842
L2148L
sg1843
S'2148'
p1847
ssssVCamino 1.6
p1848
(dp1849
S'summary_display'
p1850
S'0%'
p1851
sS'total_runs'
p1852
L16L
sS'summary_score'
p1853
I100
sS'results'
p1854
(dp1855
S'failed'
p1856
(dp1857
S'score'
p1858
I50
sS'raw_score'
p1859
L2164L
sS'display'
p1860
S'2164'
p1861
ssS'passed'
p1862
(dp1863
g1858
I50
sg1859
L0L
sg1860
g68
ssssVCamino 1.5
p1864
(dp1865
S'summary_display'
p1866
S'0%'
p1867
sS'total_runs'
p1868
L1L
sS'summary_score'
p1869
I100
sS'results'
p1870
(dp1871
S'failed'
p1872
(dp1873
S'score'
p1874
I50
sS'raw_score'
p1875
L2164L
sS'display'
p1876
S'2164'
p1877
ssS'passed'
p1878
(dp1879
g1874
I50
sg1875
L0L
sg1876
g68
ssssS'total_runs'
p1880
L10533L
sVFirefox (Namoroka) 3.7
p1881
(dp1882
S'summary_display'
p1883
S'100.0%'
p1884
sS'total_runs'
p1885
L1L
sS'summary_score'
p1886
F100.0
sS'results'
p1887
(dp1888
S'failed'
p1889
(dp1890
S'score'
p1891
I95
sS'raw_score'
p1892
L0L
sS'display'
p1893
g68
ssS'passed'
p1894
(dp1895
g1891
I95
sg1892
L2164L
sg1893
S'2164'
p1896
ssssVMaxthon 3.0
p1897
(dp1898
S'summary_display'
p1899
S'99.3%'
p1900
sS'total_runs'
p1901
L6L
sS'summary_score'
p1902
F99.260628465804061
sS'results'
p1903
(dp1904
S'failed'
p1905
(dp1906
S'score'
p1907
I75
sS'raw_score'
p1908
L16L
sS'display'
p1909
S'16'
p1910
ssS'passed'
p1911
(dp1912
g1907
I95
sg1908
L2148L
sg1909
S'2148'
p1913
ssssVChrome 2.0
p1914
(dp1915
S'summary_display'
p1916
S'99.3%'
p1917
sS'total_runs'
p1918
L204L
sS'summary_score'
p1919
F99.260628465804061
sS'results'
p1920
(dp1921
S'failed'
p1922
(dp1923
S'score'
p1924
I75
sS'raw_score'
p1925
L16L
sS'display'
p1926
S'16'
p1927
ssS'passed'
p1928
(dp1929
g1924
I95
sg1925
L2148L
sg1926
S'2148'
p1930
ssssVNokia 5800
p1931
(dp1932
S'summary_display'
p1933
S'0%'
p1934
sS'total_runs'
p1935
L5L
sS'summary_score'
p1936
I100
sS'results'
p1937
(dp1938
S'failed'
p1939
(dp1940
S'score'
p1941
I50
sS'raw_score'
p1942
L2164L
sS'display'
p1943
S'2164'
p1944
ssS'passed'
p1945
(dp1946
g1941
I50
sg1942
L0L
sg1943
g68
ssssVMaemo Browser 1.4
p1947
(dp1948
S'summary_display'
p1949
S'99.3%'
p1950
sS'total_runs'
p1951
L1L
sS'summary_score'
p1952
F99.260628465804061
sS'results'
p1953
(dp1954
S'failed'
p1955
(dp1956
S'score'
p1957
I75
sS'raw_score'
p1958
L16L
sS'display'
p1959
S'16'
p1960
ssS'passed'
p1961
(dp1962
g1957
I95
sg1958
L2148L
sg1959
S'2148'
p1963
ssssVChrome 0.2
p1964
(dp1965
S'summary_display'
p1966
S'80.6%'
p1967
sS'total_runs'
p1968
L2L
sS'summary_score'
p1969
F80.637707948244
sS'results'
p1970
(dp1971
S'failed'
p1972
(dp1973
S'score'
p1974
I50
sS'raw_score'
p1975
L419L
sS'display'
p1976
S'419'
p1977
ssS'passed'
p1978
(dp1979
g1974
I50
sg1975
L1745L
sg1976
S'1745'
p1980
ssssVFirefox 1.5
p1981
(dp1982
S'summary_display'
p1983
S'0%'
p1984
sS'total_runs'
p1985
L6L
sS'summary_score'
p1986
I100
sS'results'
p1987
(dp1988
S'failed'
p1989
(dp1990
S'score'
p1991
I50
sS'raw_score'
p1992
L2164L
sS'display'
p1993
S'2164'
p1994
ssS'passed'
p1995
(dp1996
g1991
I50
sg1992
L0L
sg1993
g68
ssssVNetscape 9.0
p1997
(dp1998
S'summary_display'
p1999
S'0%'
p2000
sS'total_runs'
p2001
L1L
sS'summary_score'
p2002
I100
sS'results'
p2003
(dp2004
S'failed'
p2005
(dp2006
S'score'
p2007
I50
sS'raw_score'
p2008
L2164L
sS'display'
p2009
S'2164'
p2010
ssS'passed'
p2011
(dp2012
g2007
I50
sg2008
L0L
sg2009
g68
ssssVEpiphany 2.22
p2013
(dp2014
S'summary_display'
p2015
S'0%'
p2016
sS'total_runs'
p2017
L7L
sS'summary_score'
p2018
I100
sS'results'
p2019
(dp2020
S'failed'
p2021
(dp2022
S'score'
p2023
I50
sS'raw_score'
p2024
L2164L
sS'display'
p2025
S'2164'
p2026
ssS'passed'
p2027
(dp2028
g2023
I50
sg2024
L0L
sg2025
g68
ssssVNetFront 3.4
p2029
(dp2030
S'summary_display'
p2031
S'49.8%'
p2032
sS'total_runs'
p2033
L2L
sS'summary_score'
p2034
F49.814471243042675
sS'results'
p2035
(dp2036
S'failed'
p2037
(dp2038
S'score'
p2039
I50
sS'raw_score'
p2040
L2164L
sS'display'
p2041
S'2164'
p2042
ssS'passed'
p2043
(dp2044
g2039
I95
sg2040
L2148L
sg2041
S'2148'
p2045
ssssVMidori 0.2
p2046
(dp2047
S'summary_display'
p2048
S'99.3%'
p2049
sS'total_runs'
p2050
L6L
sS'summary_score'
p2051
F99.260628465804061
sS'results'
p2052
(dp2053
S'failed'
p2054
(dp2055
S'score'
p2056
I75
sS'raw_score'
p2057
L16L
sS'display'
p2058
S'16'
p2059
ssS'passed'
p2060
(dp2061
g2056
I95
sg2057
L2148L
sg2058
S'2148'
p2062
ssssVMidori 0.1
p2063
(dp2064
S'summary_display'
p2065
S'99.3%'
p2066
sS'total_runs'
p2067
L12L
sS'summary_score'
p2068
F99.260628465804061
sS'results'
p2069
(dp2070
S'failed'
p2071
(dp2072
S'score'
p2073
I75
sS'raw_score'
p2074
L16L
sS'display'
p2075
S'16'
p2076
ssS'passed'
p2077
(dp2078
g2073
I95
sg2074
L2148L
sg2075
S'2148'
p2079
ssssVOpera 10.50
p2080
(dp2081
S'summary_display'
p2082
S'99.8%'
p2083
sS'total_runs'
p2084
I148
sS'summary_score'
p2085
F99.815157116451019
sS'results'
p2086
(dp2087
S'failed'
p2088
(dp2089
S'score'
p2090
I85
sS'raw_score'
p2091
I4
sS'display'
p2092
g412
ssS'passed'
p2093
(dp2094
g2090
I95
sg2091
I2160
sg2092
S'2160'
p2095
ssss.