(dp0
VOpera 10.00
p1
(dp2
S'total_runs'
p3
L3L
sS'score'
p4
I10
sS'results'
p5
(dp6
S'failed'
p7
(dp8
g4
I6
sS'median'
p9
L54L
sS'display'
p10
L54L
ssS'passed'
p11
(dp12
g4
I10
sg9
L2110L
sg10
L2110L
sssg10
S'97.5%'
p13
ssVIE 6.0
p14
(dp15
S'total_runs'
p16
L1L
sS'score'
p17
I0
sS'results'
p18
(dp19
S'failed'
p20
(dp21
g17
I6
sS'median'
p22
L1816L
sS'display'
p23
L1816L
ssS'passed'
p24
(dp25
g17
I7
sg22
L0L
sg23
L0L
sssg23
S'0.0%'
p26
ssVSafari 4.0
p27
(dp28
S'total_runs'
p29
L3L
sS'score'
p30
I10
sS'results'
p31
(dp32
S'failed'
p33
(dp34
g30
I6
sS'median'
p35
L48L
sS'display'
p36
L48L
ssS'passed'
p37
(dp38
g30
I10
sg35
L2116L
sg36
L2116L
sssg36
S'97.8%'
p39
ssVOpera 9.64
p40
(dp41
S'total_runs'
p42
L1L
sS'score'
p43
I0
sS'results'
p44
(dp45
S'failed'
p46
(dp47
g43
I6
sS'median'
p48
L2164L
sS'display'
p49
L2164L
ssS'passed'
p50
(dp51
g43
I7
sg48
L0L
sg49
L0L
sssg49
S'0.0%'
p52
ssVAndroid 1.5
p53
(dp54
S'total_runs'
p55
L1L
sS'score'
p56
I10
sS'results'
p57
(dp58
S'failed'
p59
(dp60
g56
I6
sS'median'
p61
L48L
sS'display'
p62
L48L
ssS'passed'
p63
(dp64
g56
I10
sg61
L2116L
sg62
L2116L
sssg62
S'97.8%'
p65
ssVChrome 2.0.172
p66
(dp67
S'total_runs'
p68
L1L
sS'score'
p69
I10
sS'results'
p70
(dp71
S'failed'
p72
(dp73
g69
I8
sS'median'
p74
L16L
sS'display'
p75
L16L
ssS'passed'
p76
(dp77
g69
I10
sg74
L2148L
sg75
L2148L
sssg75
S'99.3%'
p78
ssVIE 7.0
p79
(dp80
S'total_runs'
p81
L2L
sS'score'
p82
I0
sS'results'
p83
(dp84
S'failed'
p85
(dp86
g82
I6
sS'median'
p87
L1816L
sS'display'
p88
L1816L
ssS'passed'
p89
(dp90
g82
I7
sg87
L0L
sg88
L0L
sssg88
S'0.0%'
p91
ssVSafari 3.2
p92
(dp93
S'total_runs'
p94
L2L
sS'score'
p95
I8
sS'results'
p96
(dp97
S'failed'
p98
(dp99
g95
I6
sS'median'
p100
L419L
sS'display'
p101
L419L
ssS'passed'
p102
(dp103
g95
I7
sg100
L1745L
sg101
L1745L
sssg101
S'80.6%'
p104
ssVSafari 3.2.3
p105
(dp106
S'total_runs'
p107
L2L
sS'score'
p108
I8
sS'results'
p109
(dp110
S'failed'
p111
(dp112
g108
I6
sS'median'
p113
L419L
sS'display'
p114
L419L
ssS'passed'
p115
(dp116
g108
I7
sg113
L1745L
sg114
L1745L
sssg114
S'80.6%'
p117
ssVChrome 4.0.206
p118
(dp119
S'total_runs'
p120
L5L
sS'score'
p121
I10
sS'results'
p122
(dp123
S'failed'
p124
(dp125
g121
I8
sS'median'
p126
L16L
sS'display'
p127
L16L
ssS'passed'
p128
(dp129
g121
I10
sg126
L2148L
sg127
L2148L
sssg127
S'99.3%'
p130
ssVIE 8.0
p131
(dp132
S'total_runs'
p133
L1L
sS'score'
p134
I6
sS'results'
p135
(dp136
S'failed'
p137
(dp138
g134
I6
sS'median'
p139
L899L
sS'display'
p140
L899L
ssS'passed'
p141
(dp142
g134
I7
sg139
L1265L
sg140
L1265L
sssg140
S'58.5%'
p143
ssVFirefox 3.5
p144
(dp145
S'total_runs'
p146
L18L
sS'score'
p147
I10
sS'results'
p148
(dp149
S'failed'
p150
(dp151
g147
I8
sS'median'
p152
L16L
sS'display'
p153
L16L
ssS'passed'
p154
(dp155
g147
I10
sg152
L2148L
sg153
L2148L
sssg153
S'99.3%'
p156
ssVChrome 4.0.203
p157
(dp158
S'total_runs'
p159
L1L
sS'score'
p160
I10
sS'results'
p161
(dp162
S'failed'
p163
(dp164
g160
I8
sS'median'
p165
L16L
sS'display'
p166
L16L
ssS'passed'
p167
(dp168
g160
I10
sg165
L2148L
sg166
L2148L
sssg166
S'99.3%'
p169
ssVFirefox 3.0.13
p170
(dp171
S'total_runs'
p172
L1L
sS'score'
p173
I0
sS'results'
p174
(dp175
S'failed'
p176
(dp177
g173
I6
sS'median'
p178
L2164L
sS'display'
p179
L2164L
ssS'passed'
p180
(dp181
g173
I7
sg178
L0L
sg179
L0L
sssg179
S'0.0%'
p182
ssVChrome 1.0.154
p183
(dp184
S'total_runs'
p185
L3L
sS'score'
p186
I8
sS'results'
p187
(dp188
S'failed'
p189
(dp190
g186
I6
sS'median'
p191
L419L
sS'display'
p192
L419L
ssS'passed'
p193
(dp194
g186
I7
sg191
L1745L
sg192
L1745L
sssg192
S'80.6%'
p195
ssVFirefox 3.0
p196
(dp197
S'total_runs'
p198
L4L
sS'score'
p199
I0
sS'results'
p200
(dp201
S'failed'
p202
(dp203
g199
I6
sS'median'
p204
L2164L
sS'display'
p205
L2164L
ssS'passed'
p206
(dp207
g199
I7
sg204
L0L
sg205
L0L
sssg205
S'0.0%'
p208
ssVFirefox 3.5.2
p209
(dp210
S'total_runs'
p211
L1L
sS'score'
p212
I10
sS'results'
p213
(dp214
S'failed'
p215
(dp216
g212
I8
sS'median'
p217
L16L
sS'display'
p218
L16L
ssS'passed'
p219
(dp220
g212
I10
sg217
L2148L
sg218
L2148L
sssg218
S'99.3%'
p221
ssVChrome 3.0.195
p222
(dp223
S'total_runs'
p224
L3L
sS'score'
p225
I10
sS'results'
p226
(dp227
S'failed'
p228
(dp229
g225
I8
sS'median'
p230
L16L
sS'display'
p231
L16L
ssS'passed'
p232
(dp233
g225
I10
sg230
L2148L
sg231
L2148L
sssg231
S'99.3%'
p234
ssVSafari 4.0.2
p235
(dp236
S'total_runs'
p237
L1L
sS'score'
p238
I10
sS'results'
p239
(dp240
S'failed'
p241
(dp242
g238
I8
sS'median'
p243
L16L
sS'display'
p244
L16L
ssS'passed'
p245
(dp246
g238
I10
sg243
L2148L
sg244
L2148L
sssg244
S'99.3%'
p247
ssVFirefox 3.0.9
p248
(dp249
S'total_runs'
p250
L1L
sS'score'
p251
I10
sS'results'
p252
(dp253
S'failed'
p254
(dp255
g251
I8
sS'median'
p256
L16L
sS'display'
p257
L16L
ssS'passed'
p258
(dp259
g251
I10
sg256
L2148L
sg257
L2148L
sssg257
S'99.3%'
p260
ssVFirefox 3.0.10
p261
(dp262
S'total_runs'
p263
L2L
sS'score'
p264
I0
sS'results'
p265
(dp266
S'failed'
p267
(dp268
g264
I6
sS'median'
p269
L2164L
sS'display'
p270
L2164L
ssS'passed'
p271
(dp272
g264
I7
sg269
L0L
sg270
L0L
sssg270
S'0.0%'
p273
ss.