(dp0
VIE 6.0
p1
(dp2
S'total_runs'
p3
L1L
sS'score'
p4
I0
sS'results'
p5
(dp6
S'failed'
p7
(dp8
g4
I6
sS'median'
p9
L1816L
sS'display'
p10
L1816L
ssS'passed'
p11
(dp12
g4
I7
sg9
L0L
sg10
L0L
sssg10
S'0.0%'
p13
ssVKonqueror 3.5
p14
(dp15
S'total_runs'
p16
L1L
sS'score'
p17
I1
sS'results'
p18
(dp19
S'failed'
p20
(dp21
g17
I5
sS'median'
p22
I2164
sS'display'
p23
I2164
ssS'passed'
p24
(dp25
g17
I5
sg22
I0
sg23
I0
sssg23
S'0%'
p26
ssVIE 7.0
p27
(dp28
S'total_runs'
p29
L2L
sS'score'
p30
I0
sS'results'
p31
(dp32
S'failed'
p33
(dp34
g30
I6
sS'median'
p35
L1816L
sS'display'
p36
L1816L
ssS'passed'
p37
(dp38
g30
I7
sg35
L0L
sg36
L0L
sssg36
S'0.0%'
p39
ssVFirefox 3.0.9
p40
(dp41
S'total_runs'
p42
L1L
sS'score'
p43
I10
sS'results'
p44
(dp45
S'failed'
p46
(dp47
g43
I8
sS'median'
p48
L16L
sS'display'
p49
L16L
ssS'passed'
p50
(dp51
g43
I10
sg48
L2148L
sg49
L2148L
sssg49
S'99.3%'
p52
ssVFirefox 3.5.2
p53
(dp54
S'total_runs'
p55
L2L
sS'score'
p56
I10
sS'results'
p57
(dp58
S'failed'
p59
(dp60
g56
I8
sS'median'
p61
L16L
sS'display'
p62
L16L
ssS'passed'
p63
(dp64
g56
I10
sg61
L2148L
sg62
L2148L
sssg62
S'99.3%'
p65
ssVOpera 10.00
p66
(dp67
S'total_runs'
p68
L3L
sS'score'
p69
I10
sS'results'
p70
(dp71
S'failed'
p72
(dp73
g69
I6
sS'median'
p74
L54L
sS'display'
p75
L54L
ssS'passed'
p76
(dp77
g69
I10
sg74
L2110L
sg75
L2110L
sssg75
S'97.5%'
p78
ssVOpera 9.64
p79
(dp80
S'total_runs'
p81
L1L
sS'score'
p82
I0
sS'results'
p83
(dp84
S'failed'
p85
(dp86
g82
I6
sS'median'
p87
L2164L
sS'display'
p88
L2164L
ssS'passed'
p89
(dp90
g82
I7
sg87
L0L
sg88
L0L
sssg88
S'0.0%'
p91
ssVChrome 4.0.206
p92
(dp93
S'total_runs'
p94
L5L
sS'score'
p95
I10
sS'results'
p96
(dp97
S'failed'
p98
(dp99
g95
I8
sS'median'
p100
L16L
sS'display'
p101
L16L
ssS'passed'
p102
(dp103
g95
I10
sg100
L2148L
sg101
L2148L
sssg101
S'99.3%'
p104
ssVChrome 4.0.203
p105
(dp106
S'total_runs'
p107
L1L
sS'score'
p108
I10
sS'results'
p109
(dp110
S'failed'
p111
(dp112
g108
I8
sS'median'
p113
L16L
sS'display'
p114
L16L
ssS'passed'
p115
(dp116
g108
I10
sg113
L2148L
sg114
L2148L
sssg114
S'99.3%'
p117
ssVFirefox 3.0.13
p118
(dp119
S'total_runs'
p120
L1L
sS'score'
p121
I0
sS'results'
p122
(dp123
S'failed'
p124
(dp125
g121
I6
sS'median'
p126
L2164L
sS'display'
p127
L2164L
ssS'passed'
p128
(dp129
g121
I7
sg126
L0L
sg127
L0L
sssg127
S'0.0%'
p130
ssVFirefox 3.0
p131
(dp132
S'total_runs'
p133
L4L
sS'score'
p134
I0
sS'results'
p135
(dp136
S'failed'
p137
(dp138
g134
I6
sS'median'
p139
L2164L
sS'display'
p140
L2164L
ssS'passed'
p141
(dp142
g134
I7
sg139
L0L
sg140
L0L
sssg140
S'0.0%'
p143
ssVChrome 2.0.172
p144
(dp145
S'total_runs'
p146
L1L
sS'score'
p147
I10
sS'results'
p148
(dp149
S'failed'
p150
(dp151
g147
I8
sS'median'
p152
L16L
sS'display'
p153
L16L
ssS'passed'
p154
(dp155
g147
I10
sg152
L2148L
sg153
L2148L
sssg153
S'99.3%'
p156
ssVFirefox 3.0.10
p157
(dp158
S'total_runs'
p159
L2L
sS'score'
p160
I0
sS'results'
p161
(dp162
S'failed'
p163
(dp164
g160
I6
sS'median'
p165
L2164L
sS'display'
p166
L2164L
ssS'passed'
p167
(dp168
g160
I7
sg165
L0L
sg166
L0L
sssg166
S'0.0%'
p169
ssVAndroid 1.5
p170
(dp171
S'total_runs'
p172
L1L
sS'score'
p173
I10
sS'results'
p174
(dp175
S'failed'
p176
(dp177
g173
I6
sS'median'
p178
L48L
sS'display'
p179
L48L
ssS'passed'
p180
(dp181
g173
I10
sg178
L2116L
sg179
L2116L
sssg179
S'97.8%'
p182
ssVChrome 3.0.195
p183
(dp184
S'total_runs'
p185
L3L
sS'score'
p186
I10
sS'results'
p187
(dp188
S'failed'
p189
(dp190
g186
I8
sS'median'
p191
L16L
sS'display'
p192
L16L
ssS'passed'
p193
(dp194
g186
I10
sg191
L2148L
sg192
L2148L
sssg192
S'99.3%'
p195
ssVSafari 4.0.2
p196
(dp197
S'total_runs'
p198
L1L
sS'score'
p199
I10
sS'results'
p200
(dp201
S'failed'
p202
(dp203
g199
I8
sS'median'
p204
L16L
sS'display'
p205
L16L
ssS'passed'
p206
(dp207
g199
I10
sg204
L2148L
sg205
L2148L
sssg205
S'99.3%'
p208
ssVFirefox 3.5
p209
(dp210
S'total_runs'
p211
L19L
sS'score'
p212
I10
sS'results'
p213
(dp214
S'failed'
p215
(dp216
g212
I8
sS'median'
p217
L16L
sS'display'
p218
L16L
ssS'passed'
p219
(dp220
g212
I10
sg217
L2148L
sg218
L2148L
sssg218
S'99.3%'
p221
ssVSafari 3.2
p222
(dp223
S'total_runs'
p224
L2L
sS'score'
p225
I8
sS'results'
p226
(dp227
S'failed'
p228
(dp229
g225
I6
sS'median'
p230
L419L
sS'display'
p231
L419L
ssS'passed'
p232
(dp233
g225
I7
sg230
L1745L
sg231
L1745L
sssg231
S'80.6%'
p234
ssVSafari 3.2.3
p235
(dp236
S'total_runs'
p237
L2L
sS'score'
p238
I8
sS'results'
p239
(dp240
S'failed'
p241
(dp242
g238
I6
sS'median'
p243
L419L
sS'display'
p244
L419L
ssS'passed'
p245
(dp246
g238
I7
sg243
L1745L
sg244
L1745L
sssg244
S'80.6%'
p247
ssVIE 8.0
p248
(dp249
S'total_runs'
p250
L1L
sS'score'
p251
I6
sS'results'
p252
(dp253
S'failed'
p254
(dp255
g251
I6
sS'median'
p256
L899L
sS'display'
p257
L899L
ssS'passed'
p258
(dp259
g251
I7
sg256
L1265L
sg257
L1265L
sssg257
S'58.5%'
p260
ssVChrome 1.0.154
p261
(dp262
S'total_runs'
p263
L3L
sS'score'
p264
I8
sS'results'
p265
(dp266
S'failed'
p267
(dp268
g264
I6
sS'median'
p269
L419L
sS'display'
p270
L419L
ssS'passed'
p271
(dp272
g264
I7
sg269
L1745L
sg270
L1745L
sssg270
S'80.6%'
p273
ssVSafari 4.0
p274
(dp275
S'total_runs'
p276
L3L
sS'score'
p277
I10
sS'results'
p278
(dp279
S'failed'
p280
(dp281
g277
I6
sS'median'
p282
L48L
sS'display'
p283
L48L
ssS'passed'
p284
(dp285
g277
I10
sg282
L2116L
sg283
L2116L
sssg283
S'97.8%'
p286
ss.