(dp0
S'Konqueror'
p1
(dp2
S'total_runs'
p3
L1L
sS'score'
p4
I1
sS'results'
p5
(dp6
S'failed'
p7
(dp8
g4
I5
sS'median'
p9
I2164
sS'display'
p10
I2164
ssS'passed'
p11
(dp12
g4
I5
sg9
I0
sg10
I0
sssg10
S'0%'
p13
ssS'Firefox'
p14
(dp15
S'total_runs'
p16
L56L
sS'score'
p17
I10
sS'results'
p18
(dp19
S'failed'
p20
(dp21
g17
I8
sS'median'
p22
L16L
sS'display'
p23
L16L
ssS'passed'
p24
(dp25
g17
I10
sg22
L2148L
sg23
L2148L
sssg23
S'99.3%'
p26
ssS'Chrome'
p27
(dp28
S'total_runs'
p29
L31L
sS'score'
p30
I10
sS'results'
p31
(dp32
S'failed'
p33
(dp34
g30
I8
sS'median'
p35
L16L
sS'display'
p36
L16L
ssS'passed'
p37
(dp38
g30
I10
sg35
L2148L
sg36
L2148L
sssg36
S'99.3%'
p39
ssS'Camino'
p40
(dp41
S'total_runs'
p42
L2L
sS'score'
p43
I1
sS'results'
p44
(dp45
S'failed'
p46
(dp47
g43
I5
sS'median'
p48
I2164
sS'display'
p49
I2164
ssS'passed'
p50
(dp51
g43
I5
sg48
I0
sg49
I0
sssg49
S'0%'
p52
ssS'Opera'
p53
(dp54
S'total_runs'
p55
L10L
sS'score'
p56
I10
sS'results'
p57
(dp58
S'failed'
p59
(dp60
g56
I5
sS'median'
p61
L54L
sS'display'
p62
L54L
ssS'passed'
p63
(dp64
g56
I10
sg61
L2110L
sg62
L2110L
sssg62
S'97.5%'
p65
ssS'NetNewsWire'
p66
(dp67
S'total_runs'
p68
L1L
sS'score'
p69
I10
sS'results'
p70
(dp71
S'failed'
p72
(dp73
g69
I8
sS'median'
p74
I16
sS'display'
p75
I16
ssS'passed'
p76
(dp77
g69
I10
sg74
I2148
sg75
I2148
sssg75
S'99.3%'
p78
ssS'iPhone'
p79
(dp80
S'total_runs'
p81
L9L
sS'score'
p82
I10
sS'results'
p83
(dp84
S'failed'
p85
(dp86
g82
I5
sS'median'
p87
I48
sS'display'
p88
I48
ssS'passed'
p89
(dp90
g82
I10
sg87
I2116
sg88
I2116
sssg88
S'97.8%'
p91
ssS'Safari'
p92
(dp93
S'total_runs'
p94
L22L
sS'score'
p95
I10
sS'results'
p96
(dp97
S'failed'
p98
(dp99
g95
I8
sS'median'
p100
L16L
sS'display'
p101
L16L
ssS'passed'
p102
(dp103
g95
I10
sg100
L2148L
sg101
L2148L
sssg101
S'99.3%'
p104
ssS'Midori'
p105
(dp106
S'total_runs'
p107
L1L
sS'score'
p108
I10
sS'results'
p109
(dp110
S'failed'
p111
(dp112
g108
I8
sS'median'
p113
I16
sS'display'
p114
I16
ssS'passed'
p115
(dp116
g108
I10
sg113
I2148
sg114
I2148
sssg114
S'99.3%'
p117
ssS'Android'
p118
(dp119
S'total_runs'
p120
L2L
sS'score'
p121
I10
sS'results'
p122
(dp123
S'failed'
p124
(dp125
g121
I5
sS'median'
p126
L48L
sS'display'
p127
L48L
ssS'passed'
p128
(dp129
g121
I10
sg126
L2116L
sg127
L2116L
sssg127
S'97.8%'
p130
ssS'IE'
p131
(dp132
S'total_runs'
p133
L12L
sS'score'
p134
I6
sS'results'
p135
(dp136
S'failed'
p137
(dp138
g134
I5
sS'median'
p139
L899L
sS'display'
p140
L899L
ssS'passed'
p141
(dp142
g134
I5
sg139
L1265L
sg140
L1265L
sssg140
S'58.5%'
p143
ss.