(dp0
VOpera 9.7
p1
(dp2
S'summary_display'
p3
S'97.5%'
p4
sS'total_runs'
p5
L1L
sS'summary_score'
p6
F97.504621072088725
sS'results'
p7
(dp8
S'failed'
p9
(dp10
S'score'
p11
I50
sS'raw_score'
p12
L54L
sS'display'
p13
S'54'
p14
ssS'passed'
p15
(dp16
g11
I95
sg12
L2110L
sg13
S'2110'
p17
ssssVOpera 9.6
p18
(dp19
S'summary_display'
p20
S'97.2%'
p21
sS'total_runs'
p22
L1L
sS'summary_score'
p23
F97.227356746765253
sS'results'
p24
(dp25
S'failed'
p26
(dp27
S'score'
p28
I50
sS'raw_score'
p29
L60L
sS'display'
p30
S'60'
p31
ssS'passed'
p32
(dp33
g28
I95
sg29
L2104L
sg30
S'2104'
p34
ssssVGaleon 2.0.4
p35
(dp36
S'summary_display'
p37
S'0%'
p38
sS'total_runs'
p39
L1L
sS'summary_score'
p40
I100
sS'results'
p41
(dp42
S'failed'
p43
(dp44
S'score'
p45
I50
sS'raw_score'
p46
L2164L
sS'display'
p47
S'2164'
p48
ssS'passed'
p49
(dp50
g45
I50
sg46
L0L
sg47
S'0'
p51
ssssViPhone 3.1
p52
(dp53
S'summary_display'
p54
S'97.8%'
p55
sS'total_runs'
p56
L85L
sS'summary_score'
p57
F97.781885397412196
sS'results'
p58
(dp59
S'failed'
p60
(dp61
S'score'
p62
I50
sS'raw_score'
p63
L48L
sS'display'
p64
S'48'
p65
ssS'passed'
p66
(dp67
g62
I95
sg63
L2116L
sg64
S'2116'
p68
ssssVChrome Frame (IE 7) 4.0.255
p69
(dp70
S'summary_display'
p71
S'99.3%'
p72
sS'total_runs'
p73
L1L
sS'summary_score'
p74
F99.260628465804061
sS'results'
p75
(dp76
S'failed'
p77
(dp78
S'score'
p79
I75
sS'raw_score'
p80
L16L
sS'display'
p81
S'16'
p82
ssS'passed'
p83
(dp84
g79
I95
sg80
L2148L
sg81
S'2148'
p85
ssssVGaleon 2.0.7
p86
(dp87
S'summary_display'
p88
S'0%'
p89
sS'total_runs'
p90
L1L
sS'summary_score'
p91
I100
sS'results'
p92
(dp93
S'failed'
p94
(dp95
S'score'
p96
I50
sS'raw_score'
p97
L2164L
sS'display'
p98
S'2164'
p99
ssS'passed'
p100
(dp101
g96
I50
sg97
L0L
sg98
g51
ssssVMaxthon 0
p102
(dp103
S'summary_display'
p104
S'0%'
p105
sS'total_runs'
p106
L1L
sS'summary_score'
p107
I100
sS'results'
p108
(dp109
S'failed'
p110
(dp111
S'score'
p112
I50
sS'raw_score'
p113
L1816L
sS'display'
p114
S'1816'
p115
ssS'passed'
p116
(dp117
g112
I50
sg113
L0L
sg114
g51
ssssVFirefox (Shiretoko) 3.5
p118
(dp119
S'summary_display'
p120
S'99.3%'
p121
sS'total_runs'
p122
L171L
sS'summary_score'
p123
F99.260628465804061
sS'results'
p124
(dp125
S'failed'
p126
(dp127
S'score'
p128
I75
sS'raw_score'
p129
L16L
sS'display'
p130
S'16'
p131
ssS'passed'
p132
(dp133
g128
I95
sg129
L2148L
sg130
S'2148'
p134
ssssVFirefox 3.0.5
p135
(dp136
S'summary_display'
p137
S'0%'
p138
sS'total_runs'
p139
L9L
sS'summary_score'
p140
I100
sS'results'
p141
(dp142
S'failed'
p143
(dp144
S'score'
p145
I50
sS'raw_score'
p146
L2164L
sS'display'
p147
S'2164'
p148
ssS'passed'
p149
(dp150
g145
I50
sg146
L0L
sg147
g51
ssssVFirefox 3.0.4
p151
(dp152
S'summary_display'
p153
S'0%'
p154
sS'total_runs'
p155
L2L
sS'summary_score'
p156
I100
sS'results'
p157
(dp158
S'failed'
p159
(dp160
S'score'
p161
I50
sS'raw_score'
p162
L2164L
sS'display'
p163
S'2164'
p164
ssS'passed'
p165
(dp166
g161
I50
sg162
L0L
sg163
g51
ssssVFirefox 3.0.7
p167
(dp168
S'summary_display'
p169
S'49.7%'
p170
sS'total_runs'
p171
I12
sS'summary_score'
p172
F49.744542498838833
sS'results'
p173
(dp174
S'failed'
p175
(dp176
S'score'
p177
I50
sS'raw_score'
p178
I2164
sS'display'
p179
S'2164'
p180
ssS'passed'
p181
(dp182
g177
I95
sg178
I2142
sg179
S'2142'
p183
ssssVFirefox 3.0.6
p184
(dp185
S'summary_display'
p186
S'0%'
p187
sS'total_runs'
p188
L15L
sS'summary_score'
p189
I100
sS'results'
p190
(dp191
S'failed'
p192
(dp193
S'score'
p194
I50
sS'raw_score'
p195
L2164L
sS'display'
p196
S'2164'
p197
ssS'passed'
p198
(dp199
g194
I50
sg195
L0L
sg196
g51
ssssVFirefox 3.0.1
p200
(dp201
S'summary_display'
p202
S'99.3%'
p203
sS'total_runs'
p204
L13L
sS'summary_score'
p205
F99.260628465804061
sS'results'
p206
(dp207
S'failed'
p208
(dp209
S'score'
p210
I75
sS'raw_score'
p211
L16L
sS'display'
p212
S'16'
p213
ssS'passed'
p214
(dp215
g210
I95
sg211
L2148L
sg212
S'2148'
p216
ssssVFirefox (Minefield) 3.7a1pre
p217
(dp218
S'summary_display'
p219
S'100.0%'
p220
sS'total_runs'
p221
I177
sS'summary_score'
p222
F100.0
sS'results'
p223
(dp224
S'failed'
p225
(dp226
S'score'
p227
I95
sS'raw_score'
p228
I0
sS'display'
p229
g51
ssS'passed'
p230
(dp231
g227
I95
sg228
I2164
sg229
S'2164'
p232
ssssVFirefox 3.0.3
p233
(dp234
S'summary_display'
p235
S'0%'
p236
sS'total_runs'
p237
L11L
sS'summary_score'
p238
I100
sS'results'
p239
(dp240
S'failed'
p241
(dp242
S'score'
p243
I50
sS'raw_score'
p244
L2164L
sS'display'
p245
S'2164'
p246
ssS'passed'
p247
(dp248
g243
I50
sg244
L0L
sg245
g51
ssssVFirefox 3.0.2
p249
(dp250
S'summary_display'
p251
S'0%'
p252
sS'total_runs'
p253
L2L
sS'summary_score'
p254
I100
sS'results'
p255
(dp256
S'failed'
p257
(dp258
S'score'
p259
I50
sS'raw_score'
p260
L2164L
sS'display'
p261
S'2164'
p262
ssS'passed'
p263
(dp264
g259
I50
sg260
L0L
sg261
g51
ssssVFirefox 3.5.4
p265
(dp266
S'summary_display'
p267
S'99.3%'
p268
sS'total_runs'
p269
I171
sS'summary_score'
p270
F99.260628465804061
sS'results'
p271
(dp272
S'failed'
p273
(dp274
S'score'
p275
I75
sS'raw_score'
p276
I16
sS'display'
p277
S'16'
p278
ssS'passed'
p279
(dp280
g275
I95
sg276
I2148
sg277
S'2148'
p281
ssssVFirefox 3.5.5
p282
(dp283
S'summary_display'
p284
S'99.3%'
p285
sS'total_runs'
p286
I751
sS'summary_score'
p287
F99.260628465804061
sS'results'
p288
(dp289
S'failed'
p290
(dp291
S'score'
p292
I75
sS'raw_score'
p293
I16
sS'display'
p294
S'16'
p295
ssS'passed'
p296
(dp297
g292
I95
sg293
I2148
sg294
S'2148'
p298
ssssVFirefox 3.5.6
p299
(dp300
S'summary_display'
p301
S'99.3%'
p302
sS'total_runs'
p303
L168L
sS'summary_score'
p304
F99.260628465804061
sS'results'
p305
(dp306
S'failed'
p307
(dp308
S'score'
p309
I75
sS'raw_score'
p310
L16L
sS'display'
p311
S'16'
p312
ssS'passed'
p313
(dp314
g309
I95
sg310
L2148L
sg311
S'2148'
p315
ssssVFirefox 3.5.7
p316
(dp317
S'summary_display'
p318
S'99.3%'
p319
sS'total_runs'
p320
I126
sS'summary_score'
p321
F99.260628465804061
sS'results'
p322
(dp323
S'failed'
p324
(dp325
S'score'
p326
I75
sS'raw_score'
p327
I16
sS'display'
p328
S'16'
p329
ssS'passed'
p330
(dp331
g326
I95
sg327
I2148
sg328
S'2148'
p332
ssssVFirefox 3.0.9
p333
(dp334
S'summary_display'
p335
S'0%'
p336
sS'total_runs'
p337
L4L
sS'summary_score'
p338
I100
sS'results'
p339
(dp340
S'failed'
p341
(dp342
S'score'
p343
I50
sS'raw_score'
p344
L2164L
sS'display'
p345
S'2164'
p346
ssS'passed'
p347
(dp348
g343
I50
sg344
L0L
sg345
g51
ssssVChrome 4.0.302
p349
(dp350
S'summary_display'
p351
S'99.3%'
p352
sS'total_runs'
p353
I11
sS'summary_score'
p354
F99.260628465804061
sS'results'
p355
(dp356
S'failed'
p357
(dp358
S'score'
p359
I75
sS'raw_score'
p360
I16
sS'display'
p361
S'16'
p362
ssS'passed'
p363
(dp364
g359
I95
sg360
I2148
sg361
S'2148'
p365
ssssVFirefox 3.5.2
p366
(dp367
S'summary_display'
p368
S'99.3%'
p369
sS'total_runs'
p370
I274
sS'summary_score'
p371
F99.260628465804061
sS'results'
p372
(dp373
S'failed'
p374
(dp375
S'score'
p376
I75
sS'raw_score'
p377
I16
sS'display'
p378
S'16'
p379
ssS'passed'
p380
(dp381
g376
I95
sg377
I2148
sg378
S'2148'
p382
ssssVFirefox 3.5.3
p383
(dp384
S'summary_display'
p385
S'99.3%'
p386
sS'total_runs'
p387
L2128L
sS'summary_score'
p388
F99.260628465804061
sS'results'
p389
(dp390
S'failed'
p391
(dp392
S'score'
p393
I75
sS'raw_score'
p394
L16L
sS'display'
p395
S'16'
p396
ssS'passed'
p397
(dp398
g393
I95
sg394
L2148L
sg395
S'2148'
p399
ssssVChrome 4.0.264
p400
(dp401
S'summary_display'
p402
S'99.3%'
p403
sS'total_runs'
p404
L1L
sS'summary_score'
p405
F99.260628465804061
sS'results'
p406
(dp407
S'failed'
p408
(dp409
S'score'
p410
I75
sS'raw_score'
p411
L16L
sS'display'
p412
S'16'
p413
ssS'passed'
p414
(dp415
g410
I95
sg411
L2148L
sg412
S'2148'
p416
ssssVFirefox 3.0.15
p417
(dp418
S'summary_display'
p419
S'0%'
p420
sS'total_runs'
p421
L73L
sS'summary_score'
p422
I100
sS'results'
p423
(dp424
S'failed'
p425
(dp426
S'score'
p427
I50
sS'raw_score'
p428
L2164L
sS'display'
p429
S'2164'
p430
ssS'passed'
p431
(dp432
g427
I50
sg428
L0L
sg429
g51
ssssVChrome 4.0.266
p433
(dp434
S'summary_display'
p435
S'99.3%'
p436
sS'total_runs'
p437
L29L
sS'summary_score'
p438
F99.260628465804061
sS'results'
p439
(dp440
S'failed'
p441
(dp442
S'score'
p443
I75
sS'raw_score'
p444
L16L
sS'display'
p445
S'16'
p446
ssS'passed'
p447
(dp448
g443
I95
sg444
L2148L
sg445
S'2148'
p449
ssssVChrome 4.0.267
p450
(dp451
S'summary_display'
p452
S'99.3%'
p453
sS'total_runs'
p454
I9
sS'summary_score'
p455
F99.260628465804061
sS'results'
p456
(dp457
S'failed'
p458
(dp459
S'score'
p460
I75
sS'raw_score'
p461
I16
sS'display'
p462
S'16'
p463
ssS'passed'
p464
(dp465
g460
I95
sg461
I2148
sg462
S'2148'
p466
ssssVChrome 4.0.260
p467
(dp468
S'summary_display'
p469
S'99.3%'
p470
sS'total_runs'
p471
L1L
sS'summary_score'
p472
F99.260628465804061
sS'results'
p473
(dp474
S'failed'
p475
(dp476
S'score'
p477
I75
sS'raw_score'
p478
L16L
sS'display'
p479
S'16'
p480
ssS'passed'
p481
(dp482
g477
I95
sg478
L2148L
sg479
S'2148'
p483
ssssVChrome 4.0.261
p484
(dp485
S'summary_display'
p486
S'99.3%'
p487
sS'total_runs'
p488
L2L
sS'summary_score'
p489
F99.260628465804061
sS'results'
p490
(dp491
S'failed'
p492
(dp493
S'score'
p494
I75
sS'raw_score'
p495
L16L
sS'display'
p496
S'16'
p497
ssS'passed'
p498
(dp499
g494
I95
sg495
L2148L
sg496
S'2148'
p500
ssssVOpera 9.64
p501
(dp502
S'summary_display'
p503
S'0%'
p504
sS'total_runs'
p505
L29L
sS'summary_score'
p506
I100
sS'results'
p507
(dp508
S'failed'
p509
(dp510
S'score'
p511
I50
sS'raw_score'
p512
L2164L
sS'display'
p513
S'2164'
p514
ssS'passed'
p515
(dp516
g511
I50
sg512
L0L
sg513
g51
ssssVFirefox 3.0.14
p517
(dp518
S'summary_display'
p519
S'0%'
p520
sS'total_runs'
p521
L280L
sS'summary_score'
p522
I100
sS'results'
p523
(dp524
S'failed'
p525
(dp526
S'score'
p527
I50
sS'raw_score'
p528
L2164L
sS'display'
p529
S'2164'
p530
ssS'passed'
p531
(dp532
g527
I50
sg528
L0L
sg529
g51
ssssViPhone 3.0
p533
(dp534
S'summary_display'
p535
S'97.8%'
p536
sS'total_runs'
p537
L28L
sS'summary_score'
p538
F97.781885397412196
sS'results'
p539
(dp540
S'failed'
p541
(dp542
S'score'
p543
I50
sS'raw_score'
p544
L48L
sS'display'
p545
S'48'
p546
ssS'passed'
p547
(dp548
g543
I95
sg544
L2116L
sg545
S'2116'
p549
ssssVChrome 4.0.306
p550
(dp551
S'summary_display'
p552
S'99.3%'
p553
sS'total_runs'
p554
L2L
sS'summary_score'
p555
F99.260628465804061
sS'results'
p556
(dp557
S'failed'
p558
(dp559
S'score'
p560
I75
sS'raw_score'
p561
L16L
sS'display'
p562
S'16'
p563
ssS'passed'
p564
(dp565
g560
I95
sg561
L2148L
sg562
S'2148'
p566
ssssVChrome 4.0.305
p567
(dp568
S'summary_display'
p569
S'99.3%'
p570
sS'total_runs'
p571
I1
sS'summary_score'
p572
F99.260628465804061
sS'results'
p573
(dp574
S'failed'
p575
(dp576
S'score'
p577
I75
sS'raw_score'
p578
I16
sS'display'
p579
S'16'
p580
ssS'passed'
p581
(dp582
g577
I95
sg578
I2148
sg579
S'2148'
p583
ssssVChrome 4.0.304
p584
(dp585
S'summary_display'
p586
S'99.3%'
p587
sS'total_runs'
p588
L2L
sS'summary_score'
p589
F99.260628465804061
sS'results'
p590
(dp591
S'failed'
p592
(dp593
S'score'
p594
I75
sS'raw_score'
p595
L16L
sS'display'
p596
S'16'
p597
ssS'passed'
p598
(dp599
g594
I95
sg595
L2148L
sg596
S'2148'
p600
ssssVChrome 4.0.268
p601
(dp602
S'summary_display'
p603
S'99.3%'
p604
sS'total_runs'
p605
L2L
sS'summary_score'
p606
F99.260628465804061
sS'results'
p607
(dp608
S'failed'
p609
(dp610
S'score'
p611
I75
sS'raw_score'
p612
L16L
sS'display'
p613
S'16'
p614
ssS'passed'
p615
(dp616
g611
I95
sg612
L2148L
sg613
S'2148'
p617
ssssVChrome Frame (IE 6) 4.0.211
p618
(dp619
S'summary_display'
p620
S'99.3%'
p621
sS'total_runs'
p622
L2L
sS'summary_score'
p623
F99.260628465804061
sS'results'
p624
(dp625
S'failed'
p626
(dp627
S'score'
p628
I75
sS'raw_score'
p629
L16L
sS'display'
p630
S'16'
p631
ssS'passed'
p632
(dp633
g628
I95
sg629
L2148L
sg630
S'2148'
p634
ssssVChrome 4.0.301
p635
(dp636
S'summary_display'
p637
S'99.3%'
p638
sS'total_runs'
p639
I1
sS'summary_score'
p640
F99.260628465804061
sS'results'
p641
(dp642
S'failed'
p643
(dp644
S'score'
p645
I75
sS'raw_score'
p646
I16
sS'display'
p647
S'16'
p648
ssS'passed'
p649
(dp650
g645
I95
sg646
I2148
sg647
S'2148'
p651
ssssVOpera 10.20
p652
(dp653
S'summary_display'
p654
S'97.5%'
p655
sS'total_runs'
p656
L31L
sS'summary_score'
p657
F97.504621072088725
sS'results'
p658
(dp659
S'failed'
p660
(dp661
S'score'
p662
I50
sS'raw_score'
p663
L54L
sS'display'
p664
S'54'
p665
ssS'passed'
p666
(dp667
g662
I95
sg663
L2110L
sg664
S'2110'
p668
ssssVFluid 0.9.6
p669
(dp670
S'summary_display'
p671
S'99.3%'
p672
sS'total_runs'
p673
L1L
sS'summary_score'
p674
F99.260628465804061
sS'results'
p675
(dp676
S'failed'
p677
(dp678
S'score'
p679
I75
sS'raw_score'
p680
L16L
sS'display'
p681
S'16'
p682
ssS'passed'
p683
(dp684
g679
I95
sg680
L2148L
sg681
S'2148'
p685
ssssS'total_runs'
p686
L16226L
sVFirefox 3.0.16
p687
(dp688
S'summary_display'
p689
S'0%'
p690
sS'total_runs'
p691
L5L
sS'summary_score'
p692
I100
sS'results'
p693
(dp694
S'failed'
p695
(dp696
S'score'
p697
I50
sS'raw_score'
p698
L2164L
sS'display'
p699
S'2164'
p700
ssS'passed'
p701
(dp702
g697
I50
sg698
L0L
sg699
g51
ssssVFirefox 3.6a1pre
p703
(dp704
S'summary_display'
p705
S'99.3%'
p706
sS'total_runs'
p707
L1L
sS'summary_score'
p708
F99.260628465804061
sS'results'
p709
(dp710
S'failed'
p711
(dp712
S'score'
p713
I75
sS'raw_score'
p714
L16L
sS'display'
p715
S'16'
p716
ssS'passed'
p717
(dp718
g713
I95
sg714
L2148L
sg715
S'2148'
p719
ssssVFirefox 3.0.11
p720
(dp721
S'summary_display'
p722
S'0%'
p723
sS'total_runs'
p724
L28L
sS'summary_score'
p725
I100
sS'results'
p726
(dp727
S'failed'
p728
(dp729
S'score'
p730
I50
sS'raw_score'
p731
L2164L
sS'display'
p732
S'2164'
p733
ssS'passed'
p734
(dp735
g730
I50
sg731
L0L
sg732
g51
ssssVSwiftfox 3.5.2
p736
(dp737
S'summary_display'
p738
S'99.3%'
p739
sS'total_runs'
p740
L6L
sS'summary_score'
p741
F99.260628465804061
sS'results'
p742
(dp743
S'failed'
p744
(dp745
S'score'
p746
I75
sS'raw_score'
p747
L16L
sS'display'
p748
S'16'
p749
ssS'passed'
p750
(dp751
g746
I95
sg747
L2148L
sg748
S'2148'
p752
ssssVSafari 3.0.4
p753
(dp754
S'summary_display'
p755
S'0%'
p756
sS'total_runs'
p757
L1L
sS'summary_score'
p758
I100
sS'results'
p759
(dp760
S'failed'
p761
(dp762
S'score'
p763
I50
sS'raw_score'
p764
L2164L
sS'display'
p765
S'2164'
p766
ssS'passed'
p767
(dp768
g763
I50
sg764
L0L
sg765
g51
ssssVVienna 2.3.4
p769
(dp770
S'summary_display'
p771
S'99.3%'
p772
sS'total_runs'
p773
L2L
sS'summary_score'
p774
F99.260628465804061
sS'results'
p775
(dp776
S'failed'
p777
(dp778
S'score'
p779
I75
sS'raw_score'
p780
L16L
sS'display'
p781
S'16'
p782
ssS'passed'
p783
(dp784
g779
I95
sg780
L2148L
sg781
S'2148'
p785
ssssVSeaMonkey 2.0.2
p786
(dp787
S'summary_display'
p788
S'99.3%'
p789
sS'total_runs'
p790
L1L
sS'summary_score'
p791
F99.260628465804061
sS'results'
p792
(dp793
S'failed'
p794
(dp795
S'score'
p796
I75
sS'raw_score'
p797
L16L
sS'display'
p798
S'16'
p799
ssS'passed'
p800
(dp801
g796
I95
sg797
L2148L
sg798
S'2148'
p802
ssssVFirefox 3.0.10
p803
(dp804
S'summary_display'
p805
S'0%'
p806
sS'total_runs'
p807
L22L
sS'summary_score'
p808
I100
sS'results'
p809
(dp810
S'failed'
p811
(dp812
S'score'
p813
I50
sS'raw_score'
p814
L2164L
sS'display'
p815
S'2164'
p816
ssS'passed'
p817
(dp818
g813
I50
sg814
L0L
sg815
g51
ssssVNetNewsWire 3.1.3
p819
(dp820
S'summary_display'
p821
S'99.3%'
p822
sS'total_runs'
p823
L1L
sS'summary_score'
p824
F99.260628465804061
sS'results'
p825
(dp826
S'failed'
p827
(dp828
S'score'
p829
I75
sS'raw_score'
p830
L16L
sS'display'
p831
S'16'
p832
ssS'passed'
p833
(dp834
g829
I95
sg830
L2148L
sg831
S'2148'
p835
ssssVChrome 4.0.288
p836
(dp837
S'summary_display'
p838
S'99.3%'
p839
sS'total_runs'
p840
L13L
sS'summary_score'
p841
F99.260628465804061
sS'results'
p842
(dp843
S'failed'
p844
(dp845
S'score'
p846
I75
sS'raw_score'
p847
L16L
sS'display'
p848
S'16'
p849
ssS'passed'
p850
(dp851
g846
I95
sg847
L2148L
sg848
S'2148'
p852
ssssVChrome 4.0.289
p853
(dp854
S'summary_display'
p855
S'99.3%'
p856
sS'total_runs'
p857
L1L
sS'summary_score'
p858
F99.260628465804061
sS'results'
p859
(dp860
S'failed'
p861
(dp862
S'score'
p863
I75
sS'raw_score'
p864
L16L
sS'display'
p865
S'16'
p866
ssS'passed'
p867
(dp868
g863
I95
sg864
L2148L
sg865
S'2148'
p869
ssssVFirefox (Minefield) 3.6a1pre
p870
(dp871
S'summary_display'
p872
S'99.3%'
p873
sS'total_runs'
p874
L7L
sS'summary_score'
p875
F99.260628465804061
sS'results'
p876
(dp877
S'failed'
p878
(dp879
S'score'
p880
I75
sS'raw_score'
p881
L16L
sS'display'
p882
S'16'
p883
ssS'passed'
p884
(dp885
g880
I95
sg881
L2148L
sg882
S'2148'
p886
ssssVChrome 4.0.285
p887
(dp888
S'summary_display'
p889
S'99.3%'
p890
sS'total_runs'
p891
L1L
sS'summary_score'
p892
F99.260628465804061
sS'results'
p893
(dp894
S'failed'
p895
(dp896
S'score'
p897
I75
sS'raw_score'
p898
L16L
sS'display'
p899
S'16'
p900
ssS'passed'
p901
(dp902
g897
I95
sg898
L2148L
sg899
S'2148'
p903
ssssVChrome 4.0.282
p904
(dp905
S'summary_display'
p906
S'99.3%'
p907
sS'total_runs'
p908
L2L
sS'summary_score'
p909
F99.260628465804061
sS'results'
p910
(dp911
S'failed'
p912
(dp913
S'score'
p914
I75
sS'raw_score'
p915
L16L
sS'display'
p916
S'16'
p917
ssS'passed'
p918
(dp919
g914
I95
sg915
L2148L
sg916
S'2148'
p920
ssssVChrome 4.0.283
p921
(dp922
S'summary_display'
p923
S'99.3%'
p924
sS'total_runs'
p925
L3L
sS'summary_score'
p926
F99.260628465804061
sS'results'
p927
(dp928
S'failed'
p929
(dp930
S'score'
p931
I75
sS'raw_score'
p932
L16L
sS'display'
p933
S'16'
p934
ssS'passed'
p935
(dp936
g931
I95
sg932
L2148L
sg933
S'2148'
p937
ssssVChrome 4.0.280
p938
(dp939
S'summary_display'
p940
S'99.3%'
p941
sS'total_runs'
p942
L1L
sS'summary_score'
p943
F99.260628465804061
sS'results'
p944
(dp945
S'failed'
p946
(dp947
S'score'
p948
I75
sS'raw_score'
p949
L16L
sS'display'
p950
S'16'
p951
ssS'passed'
p952
(dp953
g948
I95
sg949
L2148L
sg950
S'2148'
p954
ssssVChrome 4.0.281
p955
(dp956
S'summary_display'
p957
S'99.3%'
p958
sS'total_runs'
p959
L1L
sS'summary_score'
p960
F99.260628465804061
sS'results'
p961
(dp962
S'failed'
p963
(dp964
S'score'
p965
I75
sS'raw_score'
p966
L16L
sS'display'
p967
S'16'
p968
ssS'passed'
p969
(dp970
g965
I95
sg966
L2148L
sg967
S'2148'
p971
ssssVIron 3.0.197
p972
(dp973
S'summary_display'
p974
S'99.3%'
p975
sS'total_runs'
p976
L51L
sS'summary_score'
p977
F99.260628465804061
sS'results'
p978
(dp979
S'failed'
p980
(dp981
S'score'
p982
I75
sS'raw_score'
p983
L16L
sS'display'
p984
S'16'
p985
ssS'passed'
p986
(dp987
g982
I95
sg983
L2148L
sg984
S'2148'
p988
ssssVSafari 3.1.2
p989
(dp990
S'summary_display'
p991
S'97.8%'
p992
sS'total_runs'
p993
L3L
sS'summary_score'
p994
F97.781885397412196
sS'results'
p995
(dp996
S'failed'
p997
(dp998
S'score'
p999
I50
sS'raw_score'
p1000
L48L
sS'display'
p1001
S'48'
p1002
ssS'passed'
p1003
(dp1004
g999
I95
sg1000
L2116L
sg1001
S'2116'
p1005
ssssVStainless 0.7
p1006
(dp1007
S'summary_display'
p1008
S'99.3%'
p1009
sS'total_runs'
p1010
L4L
sS'summary_score'
p1011
F99.260628465804061
sS'results'
p1012
(dp1013
S'failed'
p1014
(dp1015
S'score'
p1016
I75
sS'raw_score'
p1017
L16L
sS'display'
p1018
S'16'
p1019
ssS'passed'
p1020
(dp1021
g1016
I95
sg1017
L2148L
sg1018
S'2148'
p1022
ssssVLunascape 6.0.1
p1023
(dp1024
S'summary_display'
p1025
S'99.3%'
p1026
sS'total_runs'
p1027
L7L
sS'summary_score'
p1028
F99.260628465804061
sS'results'
p1029
(dp1030
S'failed'
p1031
(dp1032
S'score'
p1033
I75
sS'raw_score'
p1034
L16L
sS'display'
p1035
S'16'
p1036
ssS'passed'
p1037
(dp1038
g1033
I95
sg1034
L2148L
sg1035
S'2148'
p1039
ssssVNetscape 9.0.0
p1040
(dp1041
S'summary_display'
p1042
S'0%'
p1043
sS'total_runs'
p1044
L1L
sS'summary_score'
p1045
I100
sS'results'
p1046
(dp1047
S'failed'
p1048
(dp1049
S'score'
p1050
I50
sS'raw_score'
p1051
L2164L
sS'display'
p1052
S'2164'
p1053
ssS'passed'
p1054
(dp1055
g1050
I50
sg1051
L0L
sg1052
g51
ssssVFlock 2.0.3
p1056
(dp1057
S'summary_display'
p1058
S'0%'
p1059
sS'total_runs'
p1060
L3L
sS'summary_score'
p1061
I100
sS'results'
p1062
(dp1063
S'failed'
p1064
(dp1065
S'score'
p1066
I50
sS'raw_score'
p1067
L2164L
sS'display'
p1068
S'2164'
p1069
ssS'passed'
p1070
(dp1071
g1066
I50
sg1067
L0L
sg1068
g51
ssssVAvant 1
p1072
(dp1073
S'summary_display'
p1074
S'0%'
p1075
sS'total_runs'
p1076
L10L
sS'summary_score'
p1077
I100
sS'results'
p1078
(dp1079
S'failed'
p1080
(dp1081
S'score'
p1082
I50
sS'raw_score'
p1083
L1816L
sS'display'
p1084
S'1816'
p1085
ssS'passed'
p1086
(dp1087
g1082
I50
sg1083
L0L
sg1084
g51
ssssVFirefox 3.2a1pre
p1088
(dp1089
S'summary_display'
p1090
S'99.3%'
p1091
sS'total_runs'
p1092
L1L
sS'summary_score'
p1093
F99.260628465804061
sS'results'
p1094
(dp1095
S'failed'
p1096
(dp1097
S'score'
p1098
I75
sS'raw_score'
p1099
L16L
sS'display'
p1100
S'16'
p1101
ssS'passed'
p1102
(dp1103
g1098
I95
sg1099
L2148L
sg1100
S'2148'
p1104
ssssVChrome 4.0.273
p1105
(dp1106
S'summary_display'
p1107
S'99.3%'
p1108
sS'total_runs'
p1109
L1L
sS'summary_score'
p1110
F99.260628465804061
sS'results'
p1111
(dp1112
S'failed'
p1113
(dp1114
S'score'
p1115
I75
sS'raw_score'
p1116
L16L
sS'display'
p1117
S'16'
p1118
ssS'passed'
p1119
(dp1120
g1115
I95
sg1116
L2148L
sg1117
S'2148'
p1121
ssssVChrome 4.0.272
p1122
(dp1123
S'summary_display'
p1124
S'99.3%'
p1125
sS'total_runs'
p1126
L2L
sS'summary_score'
p1127
F99.260628465804061
sS'results'
p1128
(dp1129
S'failed'
p1130
(dp1131
S'score'
p1132
I75
sS'raw_score'
p1133
L16L
sS'display'
p1134
S'16'
p1135
ssS'passed'
p1136
(dp1137
g1132
I95
sg1133
L2148L
sg1134
S'2148'
p1138
ssssVOpera 9.80
p1139
(dp1140
S'summary_display'
p1141
S'97.5%'
p1142
sS'total_runs'
p1143
L3L
sS'summary_score'
p1144
F97.504621072088725
sS'results'
p1145
(dp1146
S'failed'
p1147
(dp1148
S'score'
p1149
I50
sS'raw_score'
p1150
L54L
sS'display'
p1151
S'54'
p1152
ssS'passed'
p1153
(dp1154
g1149
I95
sg1150
L2110L
sg1151
S'2110'
p1155
ssssVChrome 4.0.270
p1156
(dp1157
S'summary_display'
p1158
S'99.3%'
p1159
sS'total_runs'
p1160
L1L
sS'summary_score'
p1161
F99.260628465804061
sS'results'
p1162
(dp1163
S'failed'
p1164
(dp1165
S'score'
p1166
I75
sS'raw_score'
p1167
L16L
sS'display'
p1168
S'16'
p1169
ssS'passed'
p1170
(dp1171
g1166
I95
sg1167
L2148L
sg1168
S'2148'
p1172
ssssVChrome 4.0.277
p1173
(dp1174
S'summary_display'
p1175
S'99.3%'
p1176
sS'total_runs'
p1177
L2L
sS'summary_score'
p1178
F99.260628465804061
sS'results'
p1179
(dp1180
S'failed'
p1181
(dp1182
S'score'
p1183
I75
sS'raw_score'
p1184
L16L
sS'display'
p1185
S'16'
p1186
ssS'passed'
p1187
(dp1188
g1183
I95
sg1184
L2148L
sg1185
S'2148'
p1189
ssssVChrome 4.0.276
p1190
(dp1191
S'summary_display'
p1192
S'99.3%'
p1193
sS'total_runs'
p1194
L3L
sS'summary_score'
p1195
F99.260628465804061
sS'results'
p1196
(dp1197
S'failed'
p1198
(dp1199
S'score'
p1200
I75
sS'raw_score'
p1201
L16L
sS'display'
p1202
S'16'
p1203
ssS'passed'
p1204
(dp1205
g1200
I95
sg1201
L2148L
sg1202
S'2148'
p1206
ssssVFirefox 3.5
p1207
(dp1208
S'summary_display'
p1209
S'99.3%'
p1210
sS'total_runs'
p1211
I3752
sS'summary_score'
p1212
F99.260628465804061
sS'results'
p1213
(dp1214
S'failed'
p1215
(dp1216
S'score'
p1217
I75
sS'raw_score'
p1218
I16
sS'display'
p1219
S'16'
p1220
ssS'passed'
p1221
(dp1222
g1217
I95
sg1218
I2148
sg1219
S'2148'
p1223
ssssVNetNewsWire 3.2.3
p1224
(dp1225
S'summary_display'
p1226
S'99.3%'
p1227
sS'total_runs'
p1228
L1L
sS'summary_score'
p1229
F99.260628465804061
sS'results'
p1230
(dp1231
S'failed'
p1232
(dp1233
S'score'
p1234
I75
sS'raw_score'
p1235
L16L
sS'display'
p1236
S'16'
p1237
ssS'passed'
p1238
(dp1239
g1234
I95
sg1235
L2148L
sg1236
S'2148'
p1240
ssssVSafari 3.2.1
p1241
(dp1242
S'summary_display'
p1243
S'80.6%'
p1244
sS'total_runs'
p1245
L7L
sS'summary_score'
p1246
F80.637707948244
sS'results'
p1247
(dp1248
S'failed'
p1249
(dp1250
S'score'
p1251
I50
sS'raw_score'
p1252
L419L
sS'display'
p1253
S'419'
p1254
ssS'passed'
p1255
(dp1256
g1251
I50
sg1252
L1745L
sg1253
S'1745'
p1257
ssssVSafari 3.2.3
p1258
(dp1259
S'summary_display'
p1260
S'80.6%'
p1261
sS'total_runs'
p1262
L9L
sS'summary_score'
p1263
F80.637707948244
sS'results'
p1264
(dp1265
S'failed'
p1266
(dp1267
S'score'
p1268
I50
sS'raw_score'
p1269
L419L
sS'display'
p1270
S'419'
p1271
ssS'passed'
p1272
(dp1273
g1268
I50
sg1269
L1745L
sg1270
S'1745'
p1274
ssssVSafari 3.2.2
p1275
(dp1276
S'summary_display'
p1277
S'80.6%'
p1278
sS'total_runs'
p1279
L1L
sS'summary_score'
p1280
F80.637707948244
sS'results'
p1281
(dp1282
S'failed'
p1283
(dp1284
S'score'
p1285
I50
sS'raw_score'
p1286
L419L
sS'display'
p1287
S'419'
p1288
ssS'passed'
p1289
(dp1290
g1285
I50
sg1286
L1745L
sg1287
S'1745'
p1291
ssssVCamino 2.1a1pre
p1292
(dp1293
S'summary_display'
p1294
S'0%'
p1295
sS'total_runs'
p1296
L1L
sS'summary_score'
p1297
I100
sS'results'
p1298
(dp1299
S'failed'
p1300
(dp1301
S'score'
p1302
I50
sS'raw_score'
p1303
L2164L
sS'display'
p1304
S'2164'
p1305
ssS'passed'
p1306
(dp1307
g1302
I50
sg1303
L0L
sg1304
g51
ssssViPhone 2.2.1
p1308
(dp1309
S'summary_display'
p1310
S'80.6%'
p1311
sS'total_runs'
p1312
L7L
sS'summary_score'
p1313
F80.637707948244
sS'results'
p1314
(dp1315
S'failed'
p1316
(dp1317
S'score'
p1318
I50
sS'raw_score'
p1319
L419L
sS'display'
p1320
S'419'
p1321
ssS'passed'
p1322
(dp1323
g1318
I50
sg1319
L1745L
sg1320
S'1745'
p1324
ssssVSeaMonkey 2.0
p1325
(dp1326
S'summary_display'
p1327
S'99.3%'
p1328
sS'total_runs'
p1329
L23L
sS'summary_score'
p1330
F99.260628465804061
sS'results'
p1331
(dp1332
S'failed'
p1333
(dp1334
S'score'
p1335
I75
sS'raw_score'
p1336
L16L
sS'display'
p1337
S'16'
p1338
ssS'passed'
p1339
(dp1340
g1335
I95
sg1336
L2148L
sg1337
S'2148'
p1341
ssssVFirefox 3.6
p1342
(dp1343
S'summary_display'
p1344
S'99.3%'
p1345
sS'total_runs'
p1346
I227
sS'summary_score'
p1347
F99.260628465804061
sS'results'
p1348
(dp1349
S'failed'
p1350
(dp1351
S'score'
p1352
I75
sS'raw_score'
p1353
I16
sS'display'
p1354
S'16'
p1355
ssS'passed'
p1356
(dp1357
g1352
I95
sg1353
I2148
sg1354
S'2148'
p1358
ssssVSleipnir 2.8.5
p1359
(dp1360
S'summary_display'
p1361
S'0%'
p1362
sS'total_runs'
p1363
L10L
sS'summary_score'
p1364
I100
sS'results'
p1365
(dp1366
S'failed'
p1367
(dp1368
S'score'
p1369
I50
sS'raw_score'
p1370
L1816L
sS'display'
p1371
S'1816'
p1372
ssS'passed'
p1373
(dp1374
g1369
I50
sg1370
L0L
sg1371
g51
ssssVOpera Mini 4.2.13337
p1375
(dp1376
S'summary_display'
p1377
S'97.5%'
p1378
sS'total_runs'
p1379
L1L
sS'summary_score'
p1380
F97.504621072088725
sS'results'
p1381
(dp1382
S'failed'
p1383
(dp1384
S'score'
p1385
I50
sS'raw_score'
p1386
L54L
sS'display'
p1387
S'54'
p1388
ssS'passed'
p1389
(dp1390
g1385
I95
sg1386
L2110L
sg1387
S'2110'
p1391
ssssVFirefox (Shiretoko) 3.5.5pre
p1392
(dp1393
S'summary_display'
p1394
S'99.3%'
p1395
sS'total_runs'
p1396
L3L
sS'summary_score'
p1397
F99.260628465804061
sS'results'
p1398
(dp1399
S'failed'
p1400
(dp1401
S'score'
p1402
I75
sS'raw_score'
p1403
L16L
sS'display'
p1404
S'16'
p1405
ssS'passed'
p1406
(dp1407
g1402
I95
sg1403
L2148L
sg1404
S'2148'
p1408
ssssVIron 4.0.227
p1409
(dp1410
S'summary_display'
p1411
S'99.3%'
p1412
sS'total_runs'
p1413
L10L
sS'summary_score'
p1414
F99.260628465804061
sS'results'
p1415
(dp1416
S'failed'
p1417
(dp1418
S'score'
p1419
I75
sS'raw_score'
p1420
L16L
sS'display'
p1421
S'16'
p1422
ssS'passed'
p1423
(dp1424
g1419
I95
sg1420
L2148L
sg1421
S'2148'
p1425
ssssVOpera Mini 4.2.14427
p1426
(dp1427
S'summary_display'
p1428
S'97.5%'
p1429
sS'total_runs'
p1430
L1L
sS'summary_score'
p1431
F97.504621072088725
sS'results'
p1432
(dp1433
S'failed'
p1434
(dp1435
S'score'
p1436
I50
sS'raw_score'
p1437
L54L
sS'display'
p1438
S'54'
p1439
ssS'passed'
p1440
(dp1441
g1436
I95
sg1437
L2110L
sg1438
S'2110'
p1442
ssssVChrome 4.0.299
p1443
(dp1444
S'summary_display'
p1445
S'99.3%'
p1446
sS'total_runs'
p1447
L3L
sS'summary_score'
p1448
F99.260628465804061
sS'results'
p1449
(dp1450
S'failed'
p1451
(dp1452
S'score'
p1453
I75
sS'raw_score'
p1454
L16L
sS'display'
p1455
S'16'
p1456
ssS'passed'
p1457
(dp1458
g1453
I95
sg1454
L2148L
sg1455
S'2148'
p1459
ssssVChrome 4.0.298
p1460
(dp1461
S'summary_display'
p1462
S'99.3%'
p1463
sS'total_runs'
p1464
L2L
sS'summary_score'
p1465
F99.260628465804061
sS'results'
p1466
(dp1467
S'failed'
p1468
(dp1469
S'score'
p1470
I75
sS'raw_score'
p1471
L16L
sS'display'
p1472
S'16'
p1473
ssS'passed'
p1474
(dp1475
g1470
I95
sg1471
L2148L
sg1472
S'2148'
p1476
ssssVCamino 1.6.7
p1477
(dp1478
S'summary_display'
p1479
S'0%'
p1480
sS'total_runs'
p1481
L1L
sS'summary_score'
p1482
I100
sS'results'
p1483
(dp1484
S'failed'
p1485
(dp1486
S'score'
p1487
I50
sS'raw_score'
p1488
L2164L
sS'display'
p1489
S'2164'
p1490
ssS'passed'
p1491
(dp1492
g1487
I50
sg1488
L0L
sg1489
g51
ssssVCamino 1.6.8
p1493
(dp1494
S'summary_display'
p1495
S'0%'
p1496
sS'total_runs'
p1497
L1L
sS'summary_score'
p1498
I100
sS'results'
p1499
(dp1500
S'failed'
p1501
(dp1502
S'score'
p1503
I50
sS'raw_score'
p1504
L2164L
sS'display'
p1505
S'2164'
p1506
ssS'passed'
p1507
(dp1508
g1503
I50
sg1504
L0L
sg1505
g51
ssssVCamino 1.6.9
p1509
(dp1510
S'summary_display'
p1511
S'0%'
p1512
sS'total_runs'
p1513
L13L
sS'summary_score'
p1514
I100
sS'results'
p1515
(dp1516
S'failed'
p1517
(dp1518
S'score'
p1519
I50
sS'raw_score'
p1520
L2164L
sS'display'
p1521
S'2164'
p1522
ssS'passed'
p1523
(dp1524
g1519
I50
sg1520
L0L
sg1521
g51
ssssVChrome 4.0.297
p1525
(dp1526
S'summary_display'
p1527
S'99.3%'
p1528
sS'total_runs'
p1529
L1L
sS'summary_score'
p1530
F99.260628465804061
sS'results'
p1531
(dp1532
S'failed'
p1533
(dp1534
S'score'
p1535
I75
sS'raw_score'
p1536
L16L
sS'display'
p1537
S'16'
p1538
ssS'passed'
p1539
(dp1540
g1535
I95
sg1536
L2148L
sg1537
S'2148'
p1541
ssssVChrome 4.0.296
p1542
(dp1543
S'summary_display'
p1544
S'99.3%'
p1545
sS'total_runs'
p1546
L1L
sS'summary_score'
p1547
F99.260628465804061
sS'results'
p1548
(dp1549
S'failed'
p1550
(dp1551
S'score'
p1552
I75
sS'raw_score'
p1553
L16L
sS'display'
p1554
S'16'
p1555
ssS'passed'
p1556
(dp1557
g1552
I95
sg1553
L2148L
sg1554
S'2148'
p1558
ssssVChrome 4.0.291
p1559
(dp1560
S'summary_display'
p1561
S'99.3%'
p1562
sS'total_runs'
p1563
L1L
sS'summary_score'
p1564
F99.260628465804061
sS'results'
p1565
(dp1566
S'failed'
p1567
(dp1568
S'score'
p1569
I75
sS'raw_score'
p1570
L16L
sS'display'
p1571
S'16'
p1572
ssS'passed'
p1573
(dp1574
g1569
I95
sg1570
L2148L
sg1571
S'2148'
p1575
ssssVOpera Mini 4.2.15227
p1576
(dp1577
S'summary_display'
p1578
S'97.5%'
p1579
sS'total_runs'
p1580
L1L
sS'summary_score'
p1581
F97.504621072088725
sS'results'
p1582
(dp1583
S'failed'
p1584
(dp1585
S'score'
p1586
I50
sS'raw_score'
p1587
L54L
sS'display'
p1588
S'54'
p1589
ssS'passed'
p1590
(dp1591
g1586
I95
sg1587
L2110L
sg1588
S'2110'
p1592
ssssVKonqueror 4.3
p1593
(dp1594
S'summary_display'
p1595
S'0%'
p1596
sS'total_runs'
p1597
L47L
sS'summary_score'
p1598
I100
sS'results'
p1599
(dp1600
S'failed'
p1601
(dp1602
S'score'
p1603
I50
sS'raw_score'
p1604
L2164L
sS'display'
p1605
S'2164'
p1606
ssS'passed'
p1607
(dp1608
g1603
I50
sg1604
L0L
sg1605
g51
ssssVKonqueror 4.2
p1609
(dp1610
S'summary_display'
p1611
S'0%'
p1612
sS'total_runs'
p1613
L5L
sS'summary_score'
p1614
I100
sS'results'
p1615
(dp1616
S'failed'
p1617
(dp1618
S'score'
p1619
I50
sS'raw_score'
p1620
L2164L
sS'display'
p1621
S'2164'
p1622
ssS'passed'
p1623
(dp1624
g1619
I50
sg1620
L0L
sg1621
g51
ssssVFirefox 3.6b4
p1625
(dp1626
S'summary_display'
p1627
S'99.3%'
p1628
sS'total_runs'
p1629
L44L
sS'summary_score'
p1630
F99.260628465804061
sS'results'
p1631
(dp1632
S'failed'
p1633
(dp1634
S'score'
p1635
I75
sS'raw_score'
p1636
L16L
sS'display'
p1637
S'16'
p1638
ssS'passed'
p1639
(dp1640
g1635
I95
sg1636
L2148L
sg1637
S'2148'
p1641
ssssVSafari 3.1
p1642
(dp1643
S'summary_display'
p1644
S'99.3%'
p1645
sS'total_runs'
p1646
L13L
sS'summary_score'
p1647
F99.260628465804061
sS'results'
p1648
(dp1649
S'failed'
p1650
(dp1651
S'score'
p1652
I75
sS'raw_score'
p1653
L16L
sS'display'
p1654
S'16'
p1655
ssS'passed'
p1656
(dp1657
g1652
I95
sg1653
L2148L
sg1654
S'2148'
p1658
ssssVIE 4.0
p1659
(dp1660
S'summary_display'
p1661
S'0%'
p1662
sS'total_runs'
p1663
L1L
sS'summary_score'
p1664
I100
sS'results'
p1665
(dp1666
S'failed'
p1667
(dp1668
S'score'
p1669
I50
sS'raw_score'
p1670
L2164L
sS'display'
p1671
S'2164'
p1672
ssS'passed'
p1673
(dp1674
g1669
I50
sg1670
L0L
sg1671
g51
ssssVFirefox 3.0.17
p1675
(dp1676
S'summary_display'
p1677
S'0%'
p1678
sS'total_runs'
p1679
L3L
sS'summary_score'
p1680
I100
sS'results'
p1681
(dp1682
S'failed'
p1683
(dp1684
S'score'
p1685
I50
sS'raw_score'
p1686
L2164L
sS'display'
p1687
S'2164'
p1688
ssS'passed'
p1689
(dp1690
g1685
I50
sg1686
L0L
sg1687
g51
ssssVLunascape 4.9.9
p1691
(dp1692
S'summary_display'
p1693
S'97.8%'
p1694
sS'total_runs'
p1695
L1L
sS'summary_score'
p1696
F97.781885397412196
sS'results'
p1697
(dp1698
S'failed'
p1699
(dp1700
S'score'
p1701
I50
sS'raw_score'
p1702
L48L
sS'display'
p1703
S'48'
p1704
ssS'passed'
p1705
(dp1706
g1701
I95
sg1702
L2116L
sg1703
S'2116'
p1707
ssssVOpera Mini 4.0.10406
p1708
(dp1709
S'summary_display'
p1710
S'97.5%'
p1711
sS'total_runs'
p1712
L1L
sS'summary_score'
p1713
F97.504621072088725
sS'results'
p1714
(dp1715
S'failed'
p1716
(dp1717
S'score'
p1718
I50
sS'raw_score'
p1719
L54L
sS'display'
p1720
S'54'
p1721
ssS'passed'
p1722
(dp1723
g1718
I95
sg1719
L2110L
sg1720
S'2110'
p1724
ssssVFirefox 1.5.0
p1725
(dp1726
S'summary_display'
p1727
S'0%'
p1728
sS'total_runs'
p1729
L6L
sS'summary_score'
p1730
I100
sS'results'
p1731
(dp1732
S'failed'
p1733
(dp1734
S'score'
p1735
I50
sS'raw_score'
p1736
L2164L
sS'display'
p1737
S'2164'
p1738
ssS'passed'
p1739
(dp1740
g1735
I50
sg1736
L0L
sg1737
g51
ssssVFirefox 3.6b2
p1741
(dp1742
S'summary_display'
p1743
S'99.3%'
p1744
sS'total_runs'
p1745
L28L
sS'summary_score'
p1746
F99.260628465804061
sS'results'
p1747
(dp1748
S'failed'
p1749
(dp1750
S'score'
p1751
I75
sS'raw_score'
p1752
L16L
sS'display'
p1753
S'16'
p1754
ssS'passed'
p1755
(dp1756
g1751
I95
sg1752
L2148L
sg1753
S'2148'
p1757
ssssVOpera 10.01
p1758
(dp1759
S'summary_display'
p1760
S'97.5%'
p1761
sS'total_runs'
p1762
L105L
sS'summary_score'
p1763
F97.504621072088725
sS'results'
p1764
(dp1765
S'failed'
p1766
(dp1767
S'score'
p1768
I50
sS'raw_score'
p1769
L54L
sS'display'
p1770
S'54'
p1771
ssS'passed'
p1772
(dp1773
g1768
I95
sg1769
L2110L
sg1770
S'2110'
p1774
ssssVOpera 10.00
p1775
(dp1776
S'summary_display'
p1777
S'97.5%'
p1778
sS'total_runs'
p1779
I550
sS'summary_score'
p1780
F97.504621072088725
sS'results'
p1781
(dp1782
S'failed'
p1783
(dp1784
S'score'
p1785
I50
sS'raw_score'
p1786
I54
sS'display'
p1787
S'54'
p1788
ssS'passed'
p1789
(dp1790
g1785
I95
sg1786
I2110
sg1787
S'2110'
p1791
ssssVSafari 4.0
p1792
(dp1793
S'summary_display'
p1794
S'99.3%'
p1795
sS'total_runs'
p1796
I960
sS'summary_score'
p1797
F99.260628465804061
sS'results'
p1798
(dp1799
S'failed'
p1800
(dp1801
S'score'
p1802
I75
sS'raw_score'
p1803
I16
sS'display'
p1804
S'16'
p1805
ssS'passed'
p1806
(dp1807
g1802
I95
sg1803
I2148
sg1804
S'2148'
p1808
ssssVChrome Frame (IE 8) 4.0.211
p1809
(dp1810
S'summary_display'
p1811
S'99.3%'
p1812
sS'total_runs'
p1813
L10L
sS'summary_score'
p1814
F99.260628465804061
sS'results'
p1815
(dp1816
S'failed'
p1817
(dp1818
S'score'
p1819
I75
sS'raw_score'
p1820
L16L
sS'display'
p1821
S'16'
p1822
ssS'passed'
p1823
(dp1824
g1819
I95
sg1820
L2148L
sg1821
S'2148'
p1825
ssssVFlock 1.2.7
p1826
(dp1827
S'summary_display'
p1828
S'0%'
p1829
sS'total_runs'
p1830
L1L
sS'summary_score'
p1831
I100
sS'results'
p1832
(dp1833
S'failed'
p1834
(dp1835
S'score'
p1836
I50
sS'raw_score'
p1837
L2164L
sS'display'
p1838
S'2164'
p1839
ssS'passed'
p1840
(dp1841
g1836
I50
sg1837
L0L
sg1838
g51
ssssVIceweasel 3.5.2
p1842
(dp1843
S'summary_display'
p1844
S'99.3%'
p1845
sS'total_runs'
p1846
L2L
sS'summary_score'
p1847
F99.260628465804061
sS'results'
p1848
(dp1849
S'failed'
p1850
(dp1851
S'score'
p1852
I75
sS'raw_score'
p1853
L16L
sS'display'
p1854
S'16'
p1855
ssS'passed'
p1856
(dp1857
g1852
I95
sg1853
L2148L
sg1854
S'2148'
p1858
ssssVIceweasel 3.5.1
p1859
(dp1860
S'summary_display'
p1861
S'99.3%'
p1862
sS'total_runs'
p1863
L1L
sS'summary_score'
p1864
F99.260628465804061
sS'results'
p1865
(dp1866
S'failed'
p1867
(dp1868
S'score'
p1869
I75
sS'raw_score'
p1870
L16L
sS'display'
p1871
S'16'
p1872
ssS'passed'
p1873
(dp1874
g1869
I95
sg1870
L2148L
sg1871
S'2148'
p1875
ssssVIceweasel 3.5.6
p1876
(dp1877
S'summary_display'
p1878
S'99.3%'
p1879
sS'total_runs'
p1880
L1L
sS'summary_score'
p1881
F99.260628465804061
sS'results'
p1882
(dp1883
S'failed'
p1884
(dp1885
S'score'
p1886
I75
sS'raw_score'
p1887
L16L
sS'display'
p1888
S'16'
p1889
ssS'passed'
p1890
(dp1891
g1886
I95
sg1887
L2148L
sg1888
S'2148'
p1892
ssssVFirefox (Namoroka) 3.6b5pre
p1893
(dp1894
S'summary_display'
p1895
S'99.3%'
p1896
sS'total_runs'
p1897
L4L
sS'summary_score'
p1898
F99.260628465804061
sS'results'
p1899
(dp1900
S'failed'
p1901
(dp1902
S'score'
p1903
I75
sS'raw_score'
p1904
L16L
sS'display'
p1905
S'16'
p1906
ssS'passed'
p1907
(dp1908
g1903
I95
sg1904
L2148L
sg1905
S'2148'
p1909
ssssVFirefox 3.0.8
p1910
(dp1911
S'summary_display'
p1912
S'0%'
p1913
sS'total_runs'
p1914
L9L
sS'summary_score'
p1915
I100
sS'results'
p1916
(dp1917
S'failed'
p1918
(dp1919
S'score'
p1920
I50
sS'raw_score'
p1921
L2164L
sS'display'
p1922
S'2164'
p1923
ssS'passed'
p1924
(dp1925
g1920
I50
sg1921
L0L
sg1922
g51
ssssVChrome 4.0.206
p1926
(dp1927
S'summary_display'
p1928
S'99.3%'
p1929
sS'total_runs'
p1930
L153L
sS'summary_score'
p1931
F99.260628465804061
sS'results'
p1932
(dp1933
S'failed'
p1934
(dp1935
S'score'
p1936
I75
sS'raw_score'
p1937
L16L
sS'display'
p1938
S'16'
p1939
ssS'passed'
p1940
(dp1941
g1936
I95
sg1937
L2148L
sg1938
S'2148'
p1942
ssssVChrome 4.0.207
p1943
(dp1944
S'summary_display'
p1945
S'99.3%'
p1946
sS'total_runs'
p1947
L102L
sS'summary_score'
p1948
F99.260628465804061
sS'results'
p1949
(dp1950
S'failed'
p1951
(dp1952
S'score'
p1953
I75
sS'raw_score'
p1954
L16L
sS'display'
p1955
S'16'
p1956
ssS'passed'
p1957
(dp1958
g1953
I95
sg1954
L2148L
sg1955
S'2148'
p1959
ssssVChrome 4.0.204
p1960
(dp1961
S'summary_display'
p1962
S'99.3%'
p1963
sS'total_runs'
p1964
L4L
sS'summary_score'
p1965
F99.260628465804061
sS'results'
p1966
(dp1967
S'failed'
p1968
(dp1969
S'score'
p1970
I75
sS'raw_score'
p1971
L16L
sS'display'
p1972
S'16'
p1973
ssS'passed'
p1974
(dp1975
g1970
I95
sg1971
L2148L
sg1972
S'2148'
p1976
ssssVChrome 4.0.205
p1977
(dp1978
S'summary_display'
p1979
S'99.3%'
p1980
sS'total_runs'
p1981
L1L
sS'summary_score'
p1982
F99.260628465804061
sS'results'
p1983
(dp1984
S'failed'
p1985
(dp1986
S'score'
p1987
I75
sS'raw_score'
p1988
L16L
sS'display'
p1989
S'16'
p1990
ssS'passed'
p1991
(dp1992
g1987
I95
sg1988
L2148L
sg1989
S'2148'
p1993
ssssVChrome 4.0.202
p1994
(dp1995
S'summary_display'
p1996
S'99.3%'
p1997
sS'total_runs'
p1998
L5L
sS'summary_score'
p1999
F99.260628465804061
sS'results'
p2000
(dp2001
S'failed'
p2002
(dp2003
S'score'
p2004
I75
sS'raw_score'
p2005
L16L
sS'display'
p2006
S'16'
p2007
ssS'passed'
p2008
(dp2009
g2004
I95
sg2005
L2148L
sg2006
S'2148'
p2010
ssssVChrome 4.0.203
p2011
(dp2012
S'summary_display'
p2013
S'99.3%'
p2014
sS'total_runs'
p2015
L7L
sS'summary_score'
p2016
F99.260628465804061
sS'results'
p2017
(dp2018
S'failed'
p2019
(dp2020
S'score'
p2021
I75
sS'raw_score'
p2022
L16L
sS'display'
p2023
S'16'
p2024
ssS'passed'
p2025
(dp2026
g2021
I95
sg2022
L2148L
sg2023
S'2148'
p2027
ssssVFirefox 3.0.13
p2028
(dp2029
S'summary_display'
p2030
S'0%'
p2031
sS'total_runs'
p2032
L75L
sS'summary_score'
p2033
I100
sS'results'
p2034
(dp2035
S'failed'
p2036
(dp2037
S'score'
p2038
I50
sS'raw_score'
p2039
L2164L
sS'display'
p2040
S'2164'
p2041
ssS'passed'
p2042
(dp2043
g2038
I50
sg2039
L0L
sg2040
g51
ssssVChrome 4.0.201
p2044
(dp2045
S'summary_display'
p2046
S'99.3%'
p2047
sS'total_runs'
p2048
L6L
sS'summary_score'
p2049
F99.260628465804061
sS'results'
p2050
(dp2051
S'failed'
p2052
(dp2053
S'score'
p2054
I75
sS'raw_score'
p2055
L16L
sS'display'
p2056
S'16'
p2057
ssS'passed'
p2058
(dp2059
g2054
I95
sg2055
L2148L
sg2056
S'2148'
p2060
ssssVFirefox 3.0
p2061
(dp2062
S'summary_display'
p2063
S'0%'
p2064
sS'total_runs'
p2065
I581
sS'summary_score'
p2066
I100
sS'results'
p2067
(dp2068
S'failed'
p2069
(dp2070
S'score'
p2071
I50
sS'raw_score'
p2072
I2164
sS'display'
p2073
S'2164'
p2074
ssS'passed'
p2075
(dp2076
g2071
I50
sg2072
I0
sg2073
g51
ssssVAndroid 2.0
p2077
(dp2078
S'summary_display'
p2079
S'99.3%'
p2080
sS'total_runs'
p2081
L11L
sS'summary_score'
p2082
F99.260628465804061
sS'results'
p2083
(dp2084
S'failed'
p2085
(dp2086
S'score'
p2087
I75
sS'raw_score'
p2088
L16L
sS'display'
p2089
S'16'
p2090
ssS'passed'
p2091
(dp2092
g2087
I95
sg2088
L2148L
sg2089
S'2148'
p2093
ssssVAndroid 2.1
p2094
(dp2095
S'summary_display'
p2096
S'99.3%'
p2097
sS'total_runs'
p2098
L1L
sS'summary_score'
p2099
F99.260628465804061
sS'results'
p2100
(dp2101
S'failed'
p2102
(dp2103
S'score'
p2104
I75
sS'raw_score'
p2105
L16L
sS'display'
p2106
S'16'
p2107
ssS'passed'
p2108
(dp2109
g2104
I95
sg2105
L2148L
sg2106
S'2148'
p2110
ssssVChrome 2.0.172
p2111
(dp2112
S'summary_display'
p2113
S'99.3%'
p2114
sS'total_runs'
p2115
L203L
sS'summary_score'
p2116
F99.260628465804061
sS'results'
p2117
(dp2118
S'failed'
p2119
(dp2120
S'score'
p2121
I75
sS'raw_score'
p2122
L16L
sS'display'
p2123
S'16'
p2124
ssS'passed'
p2125
(dp2126
g2121
I95
sg2122
L2148L
sg2123
S'2148'
p2127
ssssVChrome 4.0.208
p2128
(dp2129
S'summary_display'
p2130
S'99.3%'
p2131
sS'total_runs'
p2132
L5L
sS'summary_score'
p2133
F99.260628465804061
sS'results'
p2134
(dp2135
S'failed'
p2136
(dp2137
S'score'
p2138
I75
sS'raw_score'
p2139
L16L
sS'display'
p2140
S'16'
p2141
ssS'passed'
p2142
(dp2143
g2138
I95
sg2139
L2148L
sg2140
S'2148'
p2144
ssssVChrome 4.0.209
p2145
(dp2146
S'summary_display'
p2147
S'99.3%'
p2148
sS'total_runs'
p2149
L23L
sS'summary_score'
p2150
F99.260628465804061
sS'results'
p2151
(dp2152
S'failed'
p2153
(dp2154
S'score'
p2155
I75
sS'raw_score'
p2156
L16L
sS'display'
p2157
S'16'
p2158
ssS'passed'
p2159
(dp2160
g2155
I95
sg2156
L2148L
sg2157
S'2148'
p2161
ssssVOpera 9.62
p2162
(dp2163
S'summary_display'
p2164
S'0%'
p2165
sS'total_runs'
p2166
L3L
sS'summary_score'
p2167
I100
sS'results'
p2168
(dp2169
S'failed'
p2170
(dp2171
S'score'
p2172
I50
sS'raw_score'
p2173
L2164L
sS'display'
p2174
S'2164'
p2175
ssS'passed'
p2176
(dp2177
g2172
I50
sg2173
L0L
sg2174
g51
ssssVNokia 5800
p2178
(dp2179
S'summary_display'
p2180
S'0%'
p2181
sS'total_runs'
p2182
L5L
sS'summary_score'
p2183
I100
sS'results'
p2184
(dp2185
S'failed'
p2186
(dp2187
S'score'
p2188
I50
sS'raw_score'
p2189
L2164L
sS'display'
p2190
S'2164'
p2191
ssS'passed'
p2192
(dp2193
g2188
I50
sg2189
L0L
sg2190
g51
ssssVFirefox 2.0
p2194
(dp2195
S'summary_display'
p2196
S'0%'
p2197
sS'total_runs'
p2198
L42L
sS'summary_score'
p2199
I100
sS'results'
p2200
(dp2201
S'failed'
p2202
(dp2203
S'score'
p2204
I50
sS'raw_score'
p2205
L2164L
sS'display'
p2206
S'2164'
p2207
ssS'passed'
p2208
(dp2209
g2204
I50
sg2205
L0L
sg2206
g51
ssssVNetNewsWire 3.2.1
p2210
(dp2211
S'summary_display'
p2212
S'99.3%'
p2213
sS'total_runs'
p2214
L1L
sS'summary_score'
p2215
F99.260628465804061
sS'results'
p2216
(dp2217
S'failed'
p2218
(dp2219
S'score'
p2220
I75
sS'raw_score'
p2221
L16L
sS'display'
p2222
S'16'
p2223
ssS'passed'
p2224
(dp2225
g2220
I95
sg2221
L2148L
sg2222
S'2148'
p2226
ssssVMidori 0.1.9
p2227
(dp2228
S'summary_display'
p2229
S'99.3%'
p2230
sS'total_runs'
p2231
L5L
sS'summary_score'
p2232
F99.260628465804061
sS'results'
p2233
(dp2234
S'failed'
p2235
(dp2236
S'score'
p2237
I75
sS'raw_score'
p2238
L16L
sS'display'
p2239
S'16'
p2240
ssS'passed'
p2241
(dp2242
g2237
I95
sg2238
L2148L
sg2239
S'2148'
p2243
ssssVOpera 9.63
p2244
(dp2245
S'summary_display'
p2246
S'0%'
p2247
sS'total_runs'
p2248
L8L
sS'summary_score'
p2249
I100
sS'results'
p2250
(dp2251
S'failed'
p2252
(dp2253
S'score'
p2254
I50
sS'raw_score'
p2255
L2164L
sS'display'
p2256
S'2164'
p2257
ssS'passed'
p2258
(dp2259
g2254
I50
sg2255
L0L
sg2256
g51
ssssVAndroid 1.5
p2260
(dp2261
S'summary_display'
p2262
S'97.8%'
p2263
sS'total_runs'
p2264
L29L
sS'summary_score'
p2265
F97.781885397412196
sS'results'
p2266
(dp2267
S'failed'
p2268
(dp2269
S'score'
p2270
I50
sS'raw_score'
p2271
L48L
sS'display'
p2272
S'48'
p2273
ssS'passed'
p2274
(dp2275
g2270
I95
sg2271
L2116L
sg2272
S'2116'
p2276
ssssVAndroid 1.6
p2277
(dp2278
S'summary_display'
p2279
S'97.8%'
p2280
sS'total_runs'
p2281
L15L
sS'summary_score'
p2282
F97.781885397412196
sS'results'
p2283
(dp2284
S'failed'
p2285
(dp2286
S'score'
p2287
I50
sS'raw_score'
p2288
L48L
sS'display'
p2289
S'48'
p2290
ssS'passed'
p2291
(dp2292
g2287
I95
sg2288
L2116L
sg2289
S'2116'
p2293
ssssVOpera 9.60
p2294
(dp2295
S'summary_display'
p2296
S'0%'
p2297
sS'total_runs'
p2298
L1L
sS'summary_score'
p2299
I100
sS'results'
p2300
(dp2301
S'failed'
p2302
(dp2303
S'score'
p2304
I50
sS'raw_score'
p2305
L2164L
sS'display'
p2306
S'2164'
p2307
ssS'passed'
p2308
(dp2309
g2304
I50
sg2305
L0L
sg2306
g51
ssssVFirefox 3.1b3
p2310
(dp2311
S'summary_display'
p2312
S'99.3%'
p2313
sS'total_runs'
p2314
L1L
sS'summary_score'
p2315
F99.260628465804061
sS'results'
p2316
(dp2317
S'failed'
p2318
(dp2319
S'score'
p2320
I75
sS'raw_score'
p2321
L16L
sS'display'
p2322
S'16'
p2323
ssS'passed'
p2324
(dp2325
g2320
I95
sg2321
L2148L
sg2322
S'2148'
p2326
ssssVOpera Mini 4.0.8462
p2327
(dp2328
S'summary_display'
p2329
S'97.5%'
p2330
sS'total_runs'
p2331
L2L
sS'summary_score'
p2332
F97.504621072088725
sS'results'
p2333
(dp2334
S'failed'
p2335
(dp2336
S'score'
p2337
I50
sS'raw_score'
p2338
L54L
sS'display'
p2339
S'54'
p2340
ssS'passed'
p2341
(dp2342
g2337
I95
sg2338
L2110L
sg2339
S'2110'
p2343
ssssVGranParadiso 3.0.12
p2344
(dp2345
S'summary_display'
p2346
S'0%'
p2347
sS'total_runs'
p2348
L1L
sS'summary_score'
p2349
I100
sS'results'
p2350
(dp2351
S'failed'
p2352
(dp2353
S'score'
p2354
I50
sS'raw_score'
p2355
L2164L
sS'display'
p2356
S'2164'
p2357
ssS'passed'
p2358
(dp2359
g2354
I50
sg2355
L0L
sg2356
g51
ssssVOpera 9.61
p2360
(dp2361
S'summary_display'
p2362
S'49.8%'
p2363
sS'total_runs'
p2364
L2L
sS'summary_score'
p2365
F49.814471243042675
sS'results'
p2366
(dp2367
S'failed'
p2368
(dp2369
S'score'
p2370
I50
sS'raw_score'
p2371
L2164L
sS'display'
p2372
S'2164'
p2373
ssS'passed'
p2374
(dp2375
g2370
I95
sg2371
L2148L
sg2372
S'2148'
p2376
ssssVOpera Mini 5.0.16875
p2377
(dp2378
S'summary_display'
p2379
S'97.5%'
p2380
sS'total_runs'
p2381
L1L
sS'summary_score'
p2382
F97.504621072088725
sS'results'
p2383
(dp2384
S'failed'
p2385
(dp2386
S'score'
p2387
I50
sS'raw_score'
p2388
L54L
sS'display'
p2389
S'54'
p2390
ssS'passed'
p2391
(dp2392
g2387
I95
sg2388
L2110L
sg2389
S'2110'
p2393
ssssVK-Meleon 1.5.3
p2394
(dp2395
S'summary_display'
p2396
S'0%'
p2397
sS'total_runs'
p2398
L6L
sS'summary_score'
p2399
I100
sS'results'
p2400
(dp2401
S'failed'
p2402
(dp2403
S'score'
p2404
I50
sS'raw_score'
p2405
L2164L
sS'display'
p2406
S'2164'
p2407
ssS'passed'
p2408
(dp2409
g2404
I50
sg2405
L0L
sg2406
g51
ssssVKazehakase 0.5.6
p2410
(dp2411
S'summary_display'
p2412
S'0%'
p2413
sS'total_runs'
p2414
L1L
sS'summary_score'
p2415
I100
sS'results'
p2416
(dp2417
S'failed'
p2418
(dp2419
S'score'
p2420
I50
sS'raw_score'
p2421
L2164L
sS'display'
p2422
S'2164'
p2423
ssS'passed'
p2424
(dp2425
g2420
I50
sg2421
L0L
sg2422
g51
ssssVOpera 9.52
p2426
(dp2427
S'summary_display'
p2428
S'0%'
p2429
sS'total_runs'
p2430
L1L
sS'summary_score'
p2431
I100
sS'results'
p2432
(dp2433
S'failed'
p2434
(dp2435
S'score'
p2436
I50
sS'raw_score'
p2437
L2164L
sS'display'
p2438
S'2164'
p2439
ssS'passed'
p2440
(dp2441
g2436
I50
sg2437
L0L
sg2438
g51
ssssVCamino 1.6.10
p2442
(dp2443
S'summary_display'
p2444
S'0%'
p2445
sS'total_runs'
p2446
L1L
sS'summary_score'
p2447
I100
sS'results'
p2448
(dp2449
S'failed'
p2450
(dp2451
S'score'
p2452
I50
sS'raw_score'
p2453
L2164L
sS'display'
p2454
S'2164'
p2455
ssS'passed'
p2456
(dp2457
g2452
I50
sg2453
L0L
sg2454
g51
ssssVOpera 9.50
p2458
(dp2459
S'summary_display'
p2460
S'0%'
p2461
sS'total_runs'
p2462
L2L
sS'summary_score'
p2463
I100
sS'results'
p2464
(dp2465
S'failed'
p2466
(dp2467
S'score'
p2468
I50
sS'raw_score'
p2469
L2164L
sS'display'
p2470
S'2164'
p2471
ssS'passed'
p2472
(dp2473
g2468
I50
sg2469
L0L
sg2470
g51
ssssVSeaMonkey 1.1.15
p2474
(dp2475
S'summary_display'
p2476
S'0%'
p2477
sS'total_runs'
p2478
L1L
sS'summary_score'
p2479
I100
sS'results'
p2480
(dp2481
S'failed'
p2482
(dp2483
S'score'
p2484
I50
sS'raw_score'
p2485
L2164L
sS'display'
p2486
S'2164'
p2487
ssS'passed'
p2488
(dp2489
g2484
I50
sg2485
L0L
sg2486
g51
ssssVSeaMonkey 1.1.17
p2490
(dp2491
S'summary_display'
p2492
S'0%'
p2493
sS'total_runs'
p2494
L2L
sS'summary_score'
p2495
I100
sS'results'
p2496
(dp2497
S'failed'
p2498
(dp2499
S'score'
p2500
I50
sS'raw_score'
p2501
L2164L
sS'display'
p2502
S'2164'
p2503
ssS'passed'
p2504
(dp2505
g2500
I50
sg2501
L0L
sg2502
g51
ssssVSeaMonkey 1.1.16
p2506
(dp2507
S'summary_display'
p2508
S'0%'
p2509
sS'total_runs'
p2510
L2L
sS'summary_score'
p2511
I100
sS'results'
p2512
(dp2513
S'failed'
p2514
(dp2515
S'score'
p2516
I50
sS'raw_score'
p2517
L2164L
sS'display'
p2518
S'2164'
p2519
ssS'passed'
p2520
(dp2521
g2516
I50
sg2517
L0L
sg2518
g51
ssssVOpera 10.10
p2522
(dp2523
S'summary_display'
p2524
S'97.5%'
p2525
sS'total_runs'
p2526
I396
sS'summary_score'
p2527
F97.504621072088725
sS'results'
p2528
(dp2529
S'failed'
p2530
(dp2531
S'score'
p2532
I50
sS'raw_score'
p2533
I54
sS'display'
p2534
S'54'
p2535
ssS'passed'
p2536
(dp2537
g2532
I95
sg2533
I2110
sg2534
S'2110'
p2538
ssssVPalm Pre 1.0
p2539
(dp2540
S'summary_display'
p2541
S'99.3%'
p2542
sS'total_runs'
p2543
L9L
sS'summary_score'
p2544
F99.260628465804061
sS'results'
p2545
(dp2546
S'failed'
p2547
(dp2548
S'score'
p2549
I75
sS'raw_score'
p2550
L16L
sS'display'
p2551
S'16'
p2552
ssS'passed'
p2553
(dp2554
g2549
I95
sg2550
L2148L
sg2551
S'2148'
p2555
ssssViPhone 3.1.1
p2556
(dp2557
S'summary_display'
p2558
S'97.8%'
p2559
sS'total_runs'
p2560
L4L
sS'summary_score'
p2561
F97.781885397412196
sS'results'
p2562
(dp2563
S'failed'
p2564
(dp2565
S'score'
p2566
I50
sS'raw_score'
p2567
L48L
sS'display'
p2568
S'48'
p2569
ssS'passed'
p2570
(dp2571
g2566
I95
sg2567
L2116L
sg2568
S'2116'
p2572
ssssVOpera Mini 4.2.14320
p2573
(dp2574
S'summary_display'
p2575
S'97.5%'
p2576
sS'total_runs'
p2577
L1L
sS'summary_score'
p2578
F97.504621072088725
sS'results'
p2579
(dp2580
S'failed'
p2581
(dp2582
S'score'
p2583
I50
sS'raw_score'
p2584
L54L
sS'display'
p2585
S'54'
p2586
ssS'passed'
p2587
(dp2588
g2583
I95
sg2584
L2110L
sg2585
S'2110'
p2589
ssssVChrome 0.2.152
p2590
(dp2591
S'summary_display'
p2592
S'80.6%'
p2593
sS'total_runs'
p2594
L1L
sS'summary_score'
p2595
F80.637707948244
sS'results'
p2596
(dp2597
S'failed'
p2598
(dp2599
S'score'
p2600
I50
sS'raw_score'
p2601
L419L
sS'display'
p2602
S'419'
p2603
ssS'passed'
p2604
(dp2605
g2600
I50
sg2601
L1745L
sg2602
S'1745'
p2606
ssssViPhone 3.1.2
p2607
(dp2608
S'summary_display'
p2609
S'97.8%'
p2610
sS'total_runs'
p2611
L45L
sS'summary_score'
p2612
F97.781885397412196
sS'results'
p2613
(dp2614
S'failed'
p2615
(dp2616
S'score'
p2617
I50
sS'raw_score'
p2618
L48L
sS'display'
p2619
S'48'
p2620
ssS'passed'
p2621
(dp2622
g2617
I95
sg2618
L2116L
sg2619
S'2116'
p2623
ssssVIceweasel 3.0.6
p2624
(dp2625
S'summary_display'
p2626
S'0%'
p2627
sS'total_runs'
p2628
L14L
sS'summary_score'
p2629
I100
sS'results'
p2630
(dp2631
S'failed'
p2632
(dp2633
S'score'
p2634
I50
sS'raw_score'
p2635
L2164L
sS'display'
p2636
S'2164'
p2637
ssS'passed'
p2638
(dp2639
g2634
I50
sg2635
L0L
sg2636
g51
ssssVSeaMonkey 1.1.18
p2640
(dp2641
S'summary_display'
p2642
S'0%'
p2643
sS'total_runs'
p2644
L4L
sS'summary_score'
p2645
I100
sS'results'
p2646
(dp2647
S'failed'
p2648
(dp2649
S'score'
p2650
I50
sS'raw_score'
p2651
L2164L
sS'display'
p2652
S'2164'
p2653
ssS'passed'
p2654
(dp2655
g2650
I50
sg2651
L0L
sg2652
g51
ssssVIceweasel 3.0.5
p2656
(dp2657
S'summary_display'
p2658
S'0%'
p2659
sS'total_runs'
p2660
L1L
sS'summary_score'
p2661
I100
sS'results'
p2662
(dp2663
S'failed'
p2664
(dp2665
S'score'
p2666
I50
sS'raw_score'
p2667
L2164L
sS'display'
p2668
S'2164'
p2669
ssS'passed'
p2670
(dp2671
g2666
I50
sg2667
L0L
sg2668
g51
ssssVFirefox (Shiretoko) 3.5.5
p2672
(dp2673
S'summary_display'
p2674
S'99.3%'
p2675
sS'total_runs'
p2676
L17L
sS'summary_score'
p2677
F99.260628465804061
sS'results'
p2678
(dp2679
S'failed'
p2680
(dp2681
S'score'
p2682
I75
sS'raw_score'
p2683
L16L
sS'display'
p2684
S'16'
p2685
ssS'passed'
p2686
(dp2687
g2682
I95
sg2683
L2148L
sg2684
S'2148'
p2688
ssssVFirefox (Shiretoko) 3.5.4
p2689
(dp2690
S'summary_display'
p2691
S'99.3%'
p2692
sS'total_runs'
p2693
L3L
sS'summary_score'
p2694
F99.260628465804061
sS'results'
p2695
(dp2696
S'failed'
p2697
(dp2698
S'score'
p2699
I75
sS'raw_score'
p2700
L16L
sS'display'
p2701
S'16'
p2702
ssS'passed'
p2703
(dp2704
g2699
I95
sg2700
L2148L
sg2701
S'2148'
p2705
ssssVFirefox (Shiretoko) 3.5.7
p2706
(dp2707
S'summary_display'
p2708
S'99.3%'
p2709
sS'total_runs'
p2710
L1L
sS'summary_score'
p2711
F99.260628465804061
sS'results'
p2712
(dp2713
S'failed'
p2714
(dp2715
S'score'
p2716
I75
sS'raw_score'
p2717
L16L
sS'display'
p2718
S'16'
p2719
ssS'passed'
p2720
(dp2721
g2716
I95
sg2717
L2148L
sg2718
S'2148'
p2722
ssssVFirefox (Shiretoko) 3.5.6
p2723
(dp2724
S'summary_display'
p2725
S'99.3%'
p2726
sS'total_runs'
p2727
L3L
sS'summary_score'
p2728
F99.260628465804061
sS'results'
p2729
(dp2730
S'failed'
p2731
(dp2732
S'score'
p2733
I75
sS'raw_score'
p2734
L16L
sS'display'
p2735
S'16'
p2736
ssS'passed'
p2737
(dp2738
g2733
I95
sg2734
L2148L
sg2735
S'2148'
p2739
ssssVChrome 4.0.211
p2740
(dp2741
S'summary_display'
p2742
S'99.3%'
p2743
sS'total_runs'
p2744
L41L
sS'summary_score'
p2745
F99.260628465804061
sS'results'
p2746
(dp2747
S'failed'
p2748
(dp2749
S'score'
p2750
I75
sS'raw_score'
p2751
L16L
sS'display'
p2752
S'16'
p2753
ssS'passed'
p2754
(dp2755
g2750
I95
sg2751
L2148L
sg2752
S'2148'
p2756
ssssVChrome 4.0.210
p2757
(dp2758
S'summary_display'
p2759
S'99.3%'
p2760
sS'total_runs'
p2761
L3L
sS'summary_score'
p2762
F99.260628465804061
sS'results'
p2763
(dp2764
S'failed'
p2765
(dp2766
S'score'
p2767
I75
sS'raw_score'
p2768
L16L
sS'display'
p2769
S'16'
p2770
ssS'passed'
p2771
(dp2772
g2767
I95
sg2768
L2148L
sg2769
S'2148'
p2773
ssssVChrome 4.0.213
p2774
(dp2775
S'summary_display'
p2776
S'99.3%'
p2777
sS'total_runs'
p2778
L26L
sS'summary_score'
p2779
F99.260628465804061
sS'results'
p2780
(dp2781
S'failed'
p2782
(dp2783
S'score'
p2784
I75
sS'raw_score'
p2785
L16L
sS'display'
p2786
S'16'
p2787
ssS'passed'
p2788
(dp2789
g2784
I95
sg2785
L2148L
sg2786
S'2148'
p2790
ssssVChrome 4.0.212
p2791
(dp2792
S'summary_display'
p2793
S'99.3%'
p2794
sS'total_runs'
p2795
L22L
sS'summary_score'
p2796
F99.260628465804061
sS'results'
p2797
(dp2798
S'failed'
p2799
(dp2800
S'score'
p2801
I75
sS'raw_score'
p2802
L16L
sS'display'
p2803
S'16'
p2804
ssS'passed'
p2805
(dp2806
g2801
I95
sg2802
L2148L
sg2803
S'2148'
p2807
ssssVChrome 2.0.164
p2808
(dp2809
S'summary_display'
p2810
S'98.5%'
p2811
sS'total_runs'
p2812
L1L
sS'summary_score'
p2813
F98.521256931608136
sS'results'
p2814
(dp2815
S'failed'
p2816
(dp2817
S'score'
p2818
I50
sS'raw_score'
p2819
L32L
sS'display'
p2820
S'32'
p2821
ssS'passed'
p2822
(dp2823
g2818
I95
sg2819
L2132L
sg2820
S'2132'
p2824
ssssVCamino 2.0b3
p2825
(dp2826
S'summary_display'
p2827
S'0%'
p2828
sS'total_runs'
p2829
L1L
sS'summary_score'
p2830
I100
sS'results'
p2831
(dp2832
S'failed'
p2833
(dp2834
S'score'
p2835
I50
sS'raw_score'
p2836
L2164L
sS'display'
p2837
S'2164'
p2838
ssS'passed'
p2839
(dp2840
g2835
I50
sg2836
L0L
sg2837
g51
ssssVNetNewsWire 3.2
p2841
(dp2842
S'summary_display'
p2843
S'99.3%'
p2844
sS'total_runs'
p2845
L9L
sS'summary_score'
p2846
F99.260628465804061
sS'results'
p2847
(dp2848
S'failed'
p2849
(dp2850
S'score'
p2851
I75
sS'raw_score'
p2852
L16L
sS'display'
p2853
S'16'
p2854
ssS'passed'
p2855
(dp2856
g2851
I95
sg2852
L2148L
sg2853
S'2148'
p2857
ssssVChrome 4.0.219
p2858
(dp2859
S'summary_display'
p2860
S'99.3%'
p2861
sS'total_runs'
p2862
L9L
sS'summary_score'
p2863
F99.260628465804061
sS'results'
p2864
(dp2865
S'failed'
p2866
(dp2867
S'score'
p2868
I75
sS'raw_score'
p2869
L16L
sS'display'
p2870
S'16'
p2871
ssS'passed'
p2872
(dp2873
g2868
I95
sg2869
L2148L
sg2870
S'2148'
p2874
ssssVNokia 97
p2875
(dp2876
S'summary_display'
p2877
S'0%'
p2878
sS'total_runs'
p2879
L2L
sS'summary_score'
p2880
I100
sS'results'
p2881
(dp2882
S'failed'
p2883
(dp2884
S'score'
p2885
I50
sS'raw_score'
p2886
L2164L
sS'display'
p2887
S'2164'
p2888
ssS'passed'
p2889
(dp2890
g2885
I50
sg2886
L0L
sg2887
g51
ssssVFirefox (Namoroka) 3.6
p2891
(dp2892
S'summary_display'
p2893
S'99.3%'
p2894
sS'total_runs'
p2895
L46L
sS'summary_score'
p2896
F99.260628465804061
sS'results'
p2897
(dp2898
S'failed'
p2899
(dp2900
S'score'
p2901
I75
sS'raw_score'
p2902
L16L
sS'display'
p2903
S'16'
p2904
ssS'passed'
p2905
(dp2906
g2901
I95
sg2902
L2148L
sg2903
S'2148'
p2907
ssssVKonqueror 4.3.1
p2908
(dp2909
S'summary_display'
p2910
S'97.8%'
p2911
sS'total_runs'
p2912
L3L
sS'summary_score'
p2913
F97.781885397412196
sS'results'
p2914
(dp2915
S'failed'
p2916
(dp2917
S'score'
p2918
I50
sS'raw_score'
p2919
L48L
sS'display'
p2920
S'48'
p2921
ssS'passed'
p2922
(dp2923
g2918
I95
sg2919
L2116L
sg2920
S'2116'
p2924
ssssVMaemo Browser 1.4.1
p2925
(dp2926
S'summary_display'
p2927
S'99.3%'
p2928
sS'total_runs'
p2929
L1L
sS'summary_score'
p2930
F99.260628465804061
sS'results'
p2931
(dp2932
S'failed'
p2933
(dp2934
S'score'
p2935
I75
sS'raw_score'
p2936
L16L
sS'display'
p2937
S'16'
p2938
ssS'passed'
p2939
(dp2940
g2935
I95
sg2936
L2148L
sg2937
S'2148'
p2941
ssssVIceweasel 3.5
p2942
(dp2943
S'summary_display'
p2944
S'99.3%'
p2945
sS'total_runs'
p2946
L15L
sS'summary_score'
p2947
F99.260628465804061
sS'results'
p2948
(dp2949
S'failed'
p2950
(dp2951
S'score'
p2952
I75
sS'raw_score'
p2953
L16L
sS'display'
p2954
S'16'
p2955
ssS'passed'
p2956
(dp2957
g2952
I95
sg2953
L2148L
sg2954
S'2148'
p2958
ssssVIceweasel 2.0.0
p2959
(dp2960
S'summary_display'
p2961
S'0%'
p2962
sS'total_runs'
p2963
L1L
sS'summary_score'
p2964
I100
sS'results'
p2965
(dp2966
S'failed'
p2967
(dp2968
S'score'
p2969
I50
sS'raw_score'
p2970
L2164L
sS'display'
p2971
S'2164'
p2972
ssS'passed'
p2973
(dp2974
g2969
I50
sg2970
L0L
sg2971
g51
ssssVIron 3.0.189
p2975
(dp2976
S'summary_display'
p2977
S'99.3%'
p2978
sS'total_runs'
p2979
L2L
sS'summary_score'
p2980
F99.260628465804061
sS'results'
p2981
(dp2982
S'failed'
p2983
(dp2984
S'score'
p2985
I75
sS'raw_score'
p2986
L16L
sS'display'
p2987
S'16'
p2988
ssS'passed'
p2989
(dp2990
g2985
I95
sg2986
L2148L
sg2987
S'2148'
p2991
ssssVIE 7.0
p2992
(dp2993
S'summary_display'
p2994
S'0%'
p2995
sS'total_runs'
p2996
I191
sS'summary_score'
p2997
I100
sS'results'
p2998
(dp2999
S'failed'
p3000
(dp3001
S'score'
p3002
I50
sS'raw_score'
p3003
I1816
sS'display'
p3004
S'1816'
p3005
ssS'passed'
p3006
(dp3007
g3002
I50
sg3003
I0
sg3004
g51
ssssVMidori 0.1.6
p3008
(dp3009
S'summary_display'
p3010
S'99.3%'
p3011
sS'total_runs'
p3012
L1L
sS'summary_score'
p3013
F99.260628465804061
sS'results'
p3014
(dp3015
S'failed'
p3016
(dp3017
S'score'
p3018
I75
sS'raw_score'
p3019
L16L
sS'display'
p3020
S'16'
p3021
ssS'passed'
p3022
(dp3023
g3018
I95
sg3019
L2148L
sg3020
S'2148'
p3024
ssssVIron 2.0.178
p3025
(dp3026
S'summary_display'
p3027
S'99.3%'
p3028
sS'total_runs'
p3029
L6L
sS'summary_score'
p3030
F99.260628465804061
sS'results'
p3031
(dp3032
S'failed'
p3033
(dp3034
S'score'
p3035
I75
sS'raw_score'
p3036
L16L
sS'display'
p3037
S'16'
p3038
ssS'passed'
p3039
(dp3040
g3035
I95
sg3036
L2148L
sg3037
S'2148'
p3041
ssssVFlock 1.1
p3042
(dp3043
S'summary_display'
p3044
S'0%'
p3045
sS'total_runs'
p3046
L1L
sS'summary_score'
p3047
I100
sS'results'
p3048
(dp3049
S'failed'
p3050
(dp3051
S'score'
p3052
I50
sS'raw_score'
p3053
L2164L
sS'display'
p3054
S'2164'
p3055
ssS'passed'
p3056
(dp3057
g3052
I50
sg3053
L0L
sg3054
g51
ssssVMidori 0.2.0
p3058
(dp3059
S'summary_display'
p3060
S'99.3%'
p3061
sS'total_runs'
p3062
L1L
sS'summary_score'
p3063
F99.260628465804061
sS'results'
p3064
(dp3065
S'failed'
p3066
(dp3067
S'score'
p3068
I75
sS'raw_score'
p3069
L16L
sS'display'
p3070
S'16'
p3071
ssS'passed'
p3072
(dp3073
g3068
I95
sg3069
L2148L
sg3070
S'2148'
p3074
ssssVCamino 2.0
p3075
(dp3076
S'summary_display'
p3077
S'0%'
p3078
sS'total_runs'
p3079
L5L
sS'summary_score'
p3080
I100
sS'results'
p3081
(dp3082
S'failed'
p3083
(dp3084
S'score'
p3085
I50
sS'raw_score'
p3086
L2164L
sS'display'
p3087
S'2164'
p3088
ssS'passed'
p3089
(dp3090
g3085
I50
sg3086
L0L
sg3087
g51
ssssVChrome Frame (IE 8) 4.0.245
p3091
(dp3092
S'summary_display'
p3093
S'99.3%'
p3094
sS'total_runs'
p3095
L1L
sS'summary_score'
p3096
F99.260628465804061
sS'results'
p3097
(dp3098
S'failed'
p3099
(dp3100
S'score'
p3101
I75
sS'raw_score'
p3102
L16L
sS'display'
p3103
S'16'
p3104
ssS'passed'
p3105
(dp3106
g3101
I95
sg3102
L2148L
sg3103
S'2148'
p3107
ssssVMidori 0.2.1
p3108
(dp3109
S'summary_display'
p3110
S'99.3%'
p3111
sS'total_runs'
p3112
L4L
sS'summary_score'
p3113
F99.260628465804061
sS'results'
p3114
(dp3115
S'failed'
p3116
(dp3117
S'score'
p3118
I75
sS'raw_score'
p3119
L16L
sS'display'
p3120
S'16'
p3121
ssS'passed'
p3122
(dp3123
g3118
I95
sg3119
L2148L
sg3120
S'2148'
p3124
ssssVMidori 0.2.2
p3125
(dp3126
S'summary_display'
p3127
S'99.3%'
p3128
sS'total_runs'
p3129
L1L
sS'summary_score'
p3130
F99.260628465804061
sS'results'
p3131
(dp3132
S'failed'
p3133
(dp3134
S'score'
p3135
I75
sS'raw_score'
p3136
L16L
sS'display'
p3137
S'16'
p3138
ssS'passed'
p3139
(dp3140
g3135
I95
sg3136
L2148L
sg3137
S'2148'
p3141
ssssVOpera 8.54
p3142
(dp3143
S'summary_display'
p3144
S'29.2%'
p3145
sS'total_runs'
p3146
L1L
sS'summary_score'
p3147
F29.166666666666668
sS'results'
p3148
(dp3149
S'failed'
p3150
(dp3151
S'score'
p3152
I50
sS'raw_score'
p3153
L561L
sS'display'
p3154
S'561'
p3155
ssS'passed'
p3156
(dp3157
g3152
I50
sg3153
L231L
sg3154
S'231'
p3158
ssssVOpera Mini 5.0.15650
p3159
(dp3160
S'summary_display'
p3161
S'97.5%'
p3162
sS'total_runs'
p3163
L3L
sS'summary_score'
p3164
F97.504621072088725
sS'results'
p3165
(dp3166
S'failed'
p3167
(dp3168
S'score'
p3169
I50
sS'raw_score'
p3170
L54L
sS'display'
p3171
S'54'
p3172
ssS'passed'
p3173
(dp3174
g3169
I95
sg3170
L2110L
sg3171
S'2110'
p3175
ssssVOmniWeb 622.10
p3176
(dp3177
S'summary_display'
p3178
S'99.3%'
p3179
sS'total_runs'
p3180
L5L
sS'summary_score'
p3181
F99.260628465804061
sS'results'
p3182
(dp3183
S'failed'
p3184
(dp3185
S'score'
p3186
I75
sS'raw_score'
p3187
L16L
sS'display'
p3188
S'16'
p3189
ssS'passed'
p3190
(dp3191
g3186
I95
sg3187
L2148L
sg3188
S'2148'
p3192
ssssVSafari 4.0.1
p3193
(dp3194
S'summary_display'
p3195
S'99.3%'
p3196
sS'total_runs'
p3197
L5L
sS'summary_score'
p3198
F99.260628465804061
sS'results'
p3199
(dp3200
S'failed'
p3201
(dp3202
S'score'
p3203
I75
sS'raw_score'
p3204
L16L
sS'display'
p3205
S'16'
p3206
ssS'passed'
p3207
(dp3208
g3203
I95
sg3204
L2148L
sg3205
S'2148'
p3209
ssssVFirefox 3.6a2pre
p3210
(dp3211
S'summary_display'
p3212
S'99.3%'
p3213
sS'total_runs'
p3214
L2L
sS'summary_score'
p3215
F99.260628465804061
sS'results'
p3216
(dp3217
S'failed'
p3218
(dp3219
S'score'
p3220
I75
sS'raw_score'
p3221
L16L
sS'display'
p3222
S'16'
p3223
ssS'passed'
p3224
(dp3225
g3220
I95
sg3221
L2148L
sg3222
S'2148'
p3226
ssssVIE 6.0
p3227
(dp3228
S'summary_display'
p3229
S'0%'
p3230
sS'total_runs'
p3231
I102
sS'summary_score'
p3232
I100
sS'results'
p3233
(dp3234
S'failed'
p3235
(dp3236
S'score'
p3237
I50
sS'raw_score'
p3238
I1816
sS'display'
p3239
S'1816'
p3240
ssS'passed'
p3241
(dp3242
g3237
I50
sg3238
I0
sg3239
g51
ssssVFirefox (Shiretoko) 3.5.7pre
p3243
(dp3244
S'summary_display'
p3245
S'99.3%'
p3246
sS'total_runs'
p3247
L2L
sS'summary_score'
p3248
F99.260628465804061
sS'results'
p3249
(dp3250
S'failed'
p3251
(dp3252
S'score'
p3253
I75
sS'raw_score'
p3254
L16L
sS'display'
p3255
S'16'
p3256
ssS'passed'
p3257
(dp3258
g3253
I95
sg3254
L2148L
sg3255
S'2148'
p3259
ssssVFirefox 3.5.1
p3260
(dp3261
S'summary_display'
p3262
S'99.3%'
p3263
sS'total_runs'
p3264
L58L
sS'summary_score'
p3265
F99.260628465804061
sS'results'
p3266
(dp3267
S'failed'
p3268
(dp3269
S'score'
p3270
I75
sS'raw_score'
p3271
L16L
sS'display'
p3272
S'16'
p3273
ssS'passed'
p3274
(dp3275
g3270
I95
sg3271
L2148L
sg3272
S'2148'
p3276
ssssVOpera 9.51
p3277
(dp3278
S'summary_display'
p3279
S'0%'
p3280
sS'total_runs'
p3281
L4L
sS'summary_score'
p3282
I100
sS'results'
p3283
(dp3284
S'failed'
p3285
(dp3286
S'score'
p3287
I50
sS'raw_score'
p3288
L2164L
sS'display'
p3289
S'2164'
p3290
ssS'passed'
p3291
(dp3292
g3287
I50
sg3288
L0L
sg3289
g51
ssssVChrome Frame (IE 7) 4.0.211
p3293
(dp3294
S'summary_display'
p3295
S'99.3%'
p3296
sS'total_runs'
p3297
L3L
sS'summary_score'
p3298
F99.260628465804061
sS'results'
p3299
(dp3300
S'failed'
p3301
(dp3302
S'score'
p3303
I75
sS'raw_score'
p3304
L16L
sS'display'
p3305
S'16'
p3306
ssS'passed'
p3307
(dp3308
g3303
I95
sg3304
L2148L
sg3305
S'2148'
p3309
ssssVSafari 4.0.3
p3310
(dp3311
S'summary_display'
p3312
S'99.3%'
p3313
sS'total_runs'
p3314
L756L
sS'summary_score'
p3315
F99.260628465804061
sS'results'
p3316
(dp3317
S'failed'
p3318
(dp3319
S'score'
p3320
I75
sS'raw_score'
p3321
L16L
sS'display'
p3322
S'16'
p3323
ssS'passed'
p3324
(dp3325
g3320
I95
sg3321
L2148L
sg3322
S'2148'
p3326
ssssVMaxthon 2.0
p3327
(dp3328
S'summary_display'
p3329
S'0%'
p3330
sS'total_runs'
p3331
I12
sS'summary_score'
p3332
I100
sS'results'
p3333
(dp3334
S'failed'
p3335
(dp3336
S'score'
p3337
I50
sS'raw_score'
p3338
I1816
sS'display'
p3339
S'1816'
p3340
ssS'passed'
p3341
(dp3342
g3337
I50
sg3338
I0
sg3339
g51
ssssVStainless 0.6
p3343
(dp3344
S'summary_display'
p3345
S'99.3%'
p3346
sS'total_runs'
p3347
L1L
sS'summary_score'
p3348
F99.260628465804061
sS'results'
p3349
(dp3350
S'failed'
p3351
(dp3352
S'score'
p3353
I75
sS'raw_score'
p3354
L16L
sS'display'
p3355
S'16'
p3356
ssS'passed'
p3357
(dp3358
g3353
I95
sg3354
L2148L
sg3355
S'2148'
p3359
ssssVMidori 0.1.10
p3360
(dp3361
S'summary_display'
p3362
S'99.3%'
p3363
sS'total_runs'
p3364
L1L
sS'summary_score'
p3365
F99.260628465804061
sS'results'
p3366
(dp3367
S'failed'
p3368
(dp3369
S'score'
p3370
I75
sS'raw_score'
p3371
L16L
sS'display'
p3372
S'16'
p3373
ssS'passed'
p3374
(dp3375
g3370
I95
sg3371
L2148L
sg3372
S'2148'
p3376
ssssVOpera Mini 4.2.13057
p3377
(dp3378
S'summary_display'
p3379
S'97.5%'
p3380
sS'total_runs'
p3381
L1L
sS'summary_score'
p3382
F97.504621072088725
sS'results'
p3383
(dp3384
S'failed'
p3385
(dp3386
S'score'
p3387
I50
sS'raw_score'
p3388
L54L
sS'display'
p3389
S'54'
p3390
ssS'passed'
p3391
(dp3392
g3387
I95
sg3388
L2110L
sg3389
S'2110'
p3393
ssssVFirefox (Shiretoko) 3.5.6pre
p3394
(dp3395
S'summary_display'
p3396
S'99.3%'
p3397
sS'total_runs'
p3398
L7L
sS'summary_score'
p3399
F99.260628465804061
sS'results'
p3400
(dp3401
S'failed'
p3402
(dp3403
S'score'
p3404
I75
sS'raw_score'
p3405
L16L
sS'display'
p3406
S'16'
p3407
ssS'passed'
p3408
(dp3409
g3404
I95
sg3405
L2148L
sg3406
S'2148'
p3410
ssssVSeaMonkey 2.0a2
p3411
(dp3412
S'summary_display'
p3413
S'99.3%'
p3414
sS'total_runs'
p3415
L3L
sS'summary_score'
p3416
F99.260628465804061
sS'results'
p3417
(dp3418
S'failed'
p3419
(dp3420
S'score'
p3421
I75
sS'raw_score'
p3422
L16L
sS'display'
p3423
S'16'
p3424
ssS'passed'
p3425
(dp3426
g3421
I95
sg3422
L2148L
sg3423
S'2148'
p3427
ssssVFirefox (Shiretoko) 3.5.4pre
p3428
(dp3429
S'summary_display'
p3430
S'99.3%'
p3431
sS'total_runs'
p3432
L27L
sS'summary_score'
p3433
F99.260628465804061
sS'results'
p3434
(dp3435
S'failed'
p3436
(dp3437
S'score'
p3438
I75
sS'raw_score'
p3439
L16L
sS'display'
p3440
S'16'
p3441
ssS'passed'
p3442
(dp3443
g3438
I95
sg3439
L2148L
sg3440
S'2148'
p3444
ssssVCamino 2.0.1
p3445
(dp3446
S'summary_display'
p3447
S'0%'
p3448
sS'total_runs'
p3449
L1L
sS'summary_score'
p3450
I100
sS'results'
p3451
(dp3452
S'failed'
p3453
(dp3454
S'score'
p3455
I50
sS'raw_score'
p3456
L2164L
sS'display'
p3457
S'2164'
p3458
ssS'passed'
p3459
(dp3460
g3455
I50
sg3456
L0L
sg3457
g51
ssssVFirefox 3.0.12
p3461
(dp3462
S'summary_display'
p3463
S'0%'
p3464
sS'total_runs'
p3465
L10L
sS'summary_score'
p3466
I100
sS'results'
p3467
(dp3468
S'failed'
p3469
(dp3470
S'score'
p3471
I50
sS'raw_score'
p3472
L2164L
sS'display'
p3473
S'2164'
p3474
ssS'passed'
p3475
(dp3476
g3471
I50
sg3472
L0L
sg3473
g51
ssssVChrome 0.2.149
p3477
(dp3478
S'summary_display'
p3479
S'80.6%'
p3480
sS'total_runs'
p3481
L1L
sS'summary_score'
p3482
F80.637707948244
sS'results'
p3483
(dp3484
S'failed'
p3485
(dp3486
S'score'
p3487
I50
sS'raw_score'
p3488
L419L
sS'display'
p3489
S'419'
p3490
ssS'passed'
p3491
(dp3492
g3487
I50
sg3488
L1745L
sg3489
S'1745'
p3493
ssssVOpera Mini 4.2.13216
p3494
(dp3495
S'summary_display'
p3496
S'97.5%'
p3497
sS'total_runs'
p3498
L2L
sS'summary_score'
p3499
F97.504621072088725
sS'results'
p3500
(dp3501
S'failed'
p3502
(dp3503
S'score'
p3504
I50
sS'raw_score'
p3505
L54L
sS'display'
p3506
S'54'
p3507
ssS'passed'
p3508
(dp3509
g3504
I95
sg3505
L2110L
sg3506
S'2110'
p3510
ssssVChrome 4.0.220
p3511
(dp3512
S'summary_display'
p3513
S'99.3%'
p3514
sS'total_runs'
p3515
L12L
sS'summary_score'
p3516
F99.260628465804061
sS'results'
p3517
(dp3518
S'failed'
p3519
(dp3520
S'score'
p3521
I75
sS'raw_score'
p3522
L16L
sS'display'
p3523
S'16'
p3524
ssS'passed'
p3525
(dp3526
g3521
I95
sg3522
L2148L
sg3523
S'2148'
p3527
ssssVChrome 4.0.221
p3528
(dp3529
S'summary_display'
p3530
S'99.3%'
p3531
sS'total_runs'
p3532
L17L
sS'summary_score'
p3533
F99.260628465804061
sS'results'
p3534
(dp3535
S'failed'
p3536
(dp3537
S'score'
p3538
I75
sS'raw_score'
p3539
L16L
sS'display'
p3540
S'16'
p3541
ssS'passed'
p3542
(dp3543
g3538
I95
sg3539
L2148L
sg3540
S'2148'
p3544
ssssVChrome 4.0.222
p3545
(dp3546
S'summary_display'
p3547
S'99.3%'
p3548
sS'total_runs'
p3549
L19L
sS'summary_score'
p3550
F99.260628465804061
sS'results'
p3551
(dp3552
S'failed'
p3553
(dp3554
S'score'
p3555
I75
sS'raw_score'
p3556
L16L
sS'display'
p3557
S'16'
p3558
ssS'passed'
p3559
(dp3560
g3555
I95
sg3556
L2148L
sg3557
S'2148'
p3561
ssssVChrome 4.0.223
p3562
(dp3563
S'summary_display'
p3564
S'99.3%'
p3565
sS'total_runs'
p3566
L109L
sS'summary_score'
p3567
F99.260628465804061
sS'results'
p3568
(dp3569
S'failed'
p3570
(dp3571
S'score'
p3572
I75
sS'raw_score'
p3573
L16L
sS'display'
p3574
S'16'
p3575
ssS'passed'
p3576
(dp3577
g3572
I95
sg3573
L2148L
sg3574
S'2148'
p3578
ssssVChrome 4.0.224
p3579
(dp3580
S'summary_display'
p3581
S'99.3%'
p3582
sS'total_runs'
p3583
L2L
sS'summary_score'
p3584
F99.260628465804061
sS'results'
p3585
(dp3586
S'failed'
p3587
(dp3588
S'score'
p3589
I75
sS'raw_score'
p3590
L16L
sS'display'
p3591
S'16'
p3592
ssS'passed'
p3593
(dp3594
g3589
I95
sg3590
L2148L
sg3591
S'2148'
p3595
ssssVChrome 4.0.225
p3596
(dp3597
S'summary_display'
p3598
S'99.3%'
p3599
sS'total_runs'
p3600
L1L
sS'summary_score'
p3601
F99.260628465804061
sS'results'
p3602
(dp3603
S'failed'
p3604
(dp3605
S'score'
p3606
I75
sS'raw_score'
p3607
L16L
sS'display'
p3608
S'16'
p3609
ssS'passed'
p3610
(dp3611
g3606
I95
sg3607
L2148L
sg3608
S'2148'
p3612
ssssVChrome 4.0.226
p3613
(dp3614
S'summary_display'
p3615
S'99.3%'
p3616
sS'total_runs'
p3617
L4L
sS'summary_score'
p3618
F99.260628465804061
sS'results'
p3619
(dp3620
S'failed'
p3621
(dp3622
S'score'
p3623
I75
sS'raw_score'
p3624
L16L
sS'display'
p3625
S'16'
p3626
ssS'passed'
p3627
(dp3628
g3623
I95
sg3624
L2148L
sg3625
S'2148'
p3629
ssssVChrome 4.0.227
p3630
(dp3631
S'summary_display'
p3632
S'99.3%'
p3633
sS'total_runs'
p3634
L4L
sS'summary_score'
p3635
F99.260628465804061
sS'results'
p3636
(dp3637
S'failed'
p3638
(dp3639
S'score'
p3640
I75
sS'raw_score'
p3641
L16L
sS'display'
p3642
S'16'
p3643
ssS'passed'
p3644
(dp3645
g3640
I95
sg3641
L2148L
sg3642
S'2148'
p3646
ssssVSwiftfox 3.5.1
p3647
(dp3648
S'summary_display'
p3649
S'99.3%'
p3650
sS'total_runs'
p3651
L1L
sS'summary_score'
p3652
F99.260628465804061
sS'results'
p3653
(dp3654
S'failed'
p3655
(dp3656
S'score'
p3657
I75
sS'raw_score'
p3658
L16L
sS'display'
p3659
S'16'
p3660
ssS'passed'
p3661
(dp3662
g3657
I95
sg3658
L2148L
sg3659
S'2148'
p3663
ssssVQtWeb 3.1
p3664
(dp3665
S'summary_display'
p3666
S'97.8%'
p3667
sS'total_runs'
p3668
L1L
sS'summary_score'
p3669
F97.781885397412196
sS'results'
p3670
(dp3671
S'failed'
p3672
(dp3673
S'score'
p3674
I50
sS'raw_score'
p3675
L48L
sS'display'
p3676
S'48'
p3677
ssS'passed'
p3678
(dp3679
g3674
I95
sg3675
L2116L
sg3676
S'2116'
p3680
ssssVSwiftfox 3.5.5
p3681
(dp3682
S'summary_display'
p3683
S'99.3%'
p3684
sS'total_runs'
p3685
L2L
sS'summary_score'
p3686
F99.260628465804061
sS'results'
p3687
(dp3688
S'failed'
p3689
(dp3690
S'score'
p3691
I75
sS'raw_score'
p3692
L16L
sS'display'
p3693
S'16'
p3694
ssS'passed'
p3695
(dp3696
g3691
I95
sg3692
L2148L
sg3693
S'2148'
p3697
ssssVFirefox 3.0b5pre
p3698
(dp3699
S'summary_display'
p3700
S'0%'
p3701
sS'total_runs'
p3702
L1L
sS'summary_score'
p3703
I100
sS'results'
p3704
(dp3705
S'failed'
p3706
(dp3707
S'score'
p3708
I50
sS'raw_score'
p3709
L2164L
sS'display'
p3710
S'2164'
p3711
ssS'passed'
p3712
(dp3713
g3708
I50
sg3709
L0L
sg3710
g51
ssssVIron 2.0.168
p3714
(dp3715
S'summary_display'
p3716
S'99.3%'
p3717
sS'total_runs'
p3718
L1L
sS'summary_score'
p3719
F99.260628465804061
sS'results'
p3720
(dp3721
S'failed'
p3722
(dp3723
S'score'
p3724
I75
sS'raw_score'
p3725
L16L
sS'display'
p3726
S'16'
p3727
ssS'passed'
p3728
(dp3729
g3724
I95
sg3725
L2148L
sg3726
S'2148'
p3730
ssssVFirefox (Namoroka) 3.6b3pre
p3731
(dp3732
S'summary_display'
p3733
S'99.3%'
p3734
sS'total_runs'
p3735
L3L
sS'summary_score'
p3736
F99.260628465804061
sS'results'
p3737
(dp3738
S'failed'
p3739
(dp3740
S'score'
p3741
I75
sS'raw_score'
p3742
L16L
sS'display'
p3743
S'16'
p3744
ssS'passed'
p3745
(dp3746
g3741
I95
sg3742
L2148L
sg3743
S'2148'
p3747
ssssViPhone 2.2
p3748
(dp3749
S'summary_display'
p3750
S'80.6%'
p3751
sS'total_runs'
p3752
L8L
sS'summary_score'
p3753
F80.637707948244
sS'results'
p3754
(dp3755
S'failed'
p3756
(dp3757
S'score'
p3758
I50
sS'raw_score'
p3759
L419L
sS'display'
p3760
S'419'
p3761
ssS'passed'
p3762
(dp3763
g3758
I50
sg3759
L1745L
sg3760
S'1745'
p3764
ssssVIE 5.5
p3765
(dp3766
S'summary_display'
p3767
S'0%'
p3768
sS'total_runs'
p3769
L1L
sS'summary_score'
p3770
I100
sS'results'
p3771
(dp3772
S'failed'
p3773
(dp3774
S'score'
p3775
I50
sS'raw_score'
p3776
L1816L
sS'display'
p3777
S'1816'
p3778
ssS'passed'
p3779
(dp3780
g3775
I50
sg3776
L0L
sg3777
g51
ssssVIceweasel 3.0.11
p3781
(dp3782
S'summary_display'
p3783
S'0%'
p3784
sS'total_runs'
p3785
L1L
sS'summary_score'
p3786
I100
sS'results'
p3787
(dp3788
S'failed'
p3789
(dp3790
S'score'
p3791
I50
sS'raw_score'
p3792
L2164L
sS'display'
p3793
S'2164'
p3794
ssS'passed'
p3795
(dp3796
g3791
I50
sg3792
L0L
sg3793
g51
ssssVFirefox (Namoroka) 3.6b4pre
p3797
(dp3798
S'summary_display'
p3799
S'99.3%'
p3800
sS'total_runs'
p3801
L2L
sS'summary_score'
p3802
F99.260628465804061
sS'results'
p3803
(dp3804
S'failed'
p3805
(dp3806
S'score'
p3807
I75
sS'raw_score'
p3808
L16L
sS'display'
p3809
S'16'
p3810
ssS'passed'
p3811
(dp3812
g3807
I95
sg3808
L2148L
sg3809
S'2148'
p3813
ssssVVodafone 1.0
p3814
(dp3815
S'summary_display'
p3816
S'99.3%'
p3817
sS'total_runs'
p3818
L1L
sS'summary_score'
p3819
F99.260628465804061
sS'results'
p3820
(dp3821
S'failed'
p3822
(dp3823
S'score'
p3824
I75
sS'raw_score'
p3825
L16L
sS'display'
p3826
S'16'
p3827
ssS'passed'
p3828
(dp3829
g3824
I95
sg3825
L2148L
sg3826
S'2148'
p3830
ssssVFlock 2.5.6
p3831
(dp3832
S'summary_display'
p3833
S'0%'
p3834
sS'total_runs'
p3835
L1L
sS'summary_score'
p3836
I100
sS'results'
p3837
(dp3838
S'failed'
p3839
(dp3840
S'score'
p3841
I50
sS'raw_score'
p3842
L2164L
sS'display'
p3843
S'2164'
p3844
ssS'passed'
p3845
(dp3846
g3841
I50
sg3842
L0L
sg3843
g51
ssssVChrome 4.0.295
p3847
(dp3848
S'summary_display'
p3849
S'99.3%'
p3850
sS'total_runs'
p3851
I11
sS'summary_score'
p3852
F99.260628465804061
sS'results'
p3853
(dp3854
S'failed'
p3855
(dp3856
S'score'
p3857
I75
sS'raw_score'
p3858
I16
sS'display'
p3859
S'16'
p3860
ssS'passed'
p3861
(dp3862
g3857
I95
sg3858
I2148
sg3859
S'2148'
p3863
ssssVSeaMonkey 2.0b2pre
p3864
(dp3865
S'summary_display'
p3866
S'99.3%'
p3867
sS'total_runs'
p3868
L1L
sS'summary_score'
p3869
F99.260628465804061
sS'results'
p3870
(dp3871
S'failed'
p3872
(dp3873
S'score'
p3874
I75
sS'raw_score'
p3875
L16L
sS'display'
p3876
S'16'
p3877
ssS'passed'
p3878
(dp3879
g3874
I95
sg3875
L2148L
sg3876
S'2148'
p3880
ssssVFlock 2.5.5
p3881
(dp3882
S'summary_display'
p3883
S'0%'
p3884
sS'total_runs'
p3885
L2L
sS'summary_score'
p3886
I100
sS'results'
p3887
(dp3888
S'failed'
p3889
(dp3890
S'score'
p3891
I50
sS'raw_score'
p3892
L2164L
sS'display'
p3893
S'2164'
p3894
ssS'passed'
p3895
(dp3896
g3891
I50
sg3892
L0L
sg3893
g51
ssssVSafari 1.0
p3897
(dp3898
S'summary_display'
p3899
S'80.6%'
p3900
sS'total_runs'
p3901
L1L
sS'summary_score'
p3902
F80.637707948244
sS'results'
p3903
(dp3904
S'failed'
p3905
(dp3906
S'score'
p3907
I50
sS'raw_score'
p3908
L419L
sS'display'
p3909
S'419'
p3910
ssS'passed'
p3911
(dp3912
g3907
I50
sg3908
L1745L
sg3909
S'1745'
p3913
ssssVIceweasel 3.5.5
p3914
(dp3915
S'summary_display'
p3916
S'99.3%'
p3917
sS'total_runs'
p3918
L3L
sS'summary_score'
p3919
F99.260628465804061
sS'results'
p3920
(dp3921
S'failed'
p3922
(dp3923
S'score'
p3924
I75
sS'raw_score'
p3925
L16L
sS'display'
p3926
S'16'
p3927
ssS'passed'
p3928
(dp3929
g3924
I95
sg3925
L2148L
sg3926
S'2148'
p3930
ssssVK-Meleon 1.5.2
p3931
(dp3932
S'summary_display'
p3933
S'0%'
p3934
sS'total_runs'
p3935
L2L
sS'summary_score'
p3936
I100
sS'results'
p3937
(dp3938
S'failed'
p3939
(dp3940
S'score'
p3941
I50
sS'raw_score'
p3942
L2164L
sS'display'
p3943
S'2164'
p3944
ssS'passed'
p3945
(dp3946
g3941
I50
sg3942
L0L
sg3943
g51
ssssVFirefox (Shiretoko) 3.5.1
p3947
(dp3948
S'summary_display'
p3949
S'99.3%'
p3950
sS'total_runs'
p3951
L1L
sS'summary_score'
p3952
F99.260628465804061
sS'results'
p3953
(dp3954
S'failed'
p3955
(dp3956
S'score'
p3957
I75
sS'raw_score'
p3958
L16L
sS'display'
p3959
S'16'
p3960
ssS'passed'
p3961
(dp3962
g3957
I95
sg3958
L2148L
sg3959
S'2148'
p3963
ssssVChrome 4.0.239
p3964
(dp3965
S'summary_display'
p3966
S'99.3%'
p3967
sS'total_runs'
p3968
L2L
sS'summary_score'
p3969
F99.260628465804061
sS'results'
p3970
(dp3971
S'failed'
p3972
(dp3973
S'score'
p3974
I75
sS'raw_score'
p3975
L16L
sS'display'
p3976
S'16'
p3977
ssS'passed'
p3978
(dp3979
g3974
I95
sg3975
L2148L
sg3976
S'2148'
p3980
ssssVChrome 4.0.237
p3981
(dp3982
S'summary_display'
p3983
S'99.3%'
p3984
sS'total_runs'
p3985
L79L
sS'summary_score'
p3986
F99.260628465804061
sS'results'
p3987
(dp3988
S'failed'
p3989
(dp3990
S'score'
p3991
I75
sS'raw_score'
p3992
L16L
sS'display'
p3993
S'16'
p3994
ssS'passed'
p3995
(dp3996
g3991
I95
sg3992
L2148L
sg3993
S'2148'
p3997
ssssVKonqueror 3.5
p3998
(dp3999
S'summary_display'
p4000
S'0%'
p4001
sS'total_runs'
p4002
L10L
sS'summary_score'
p4003
I100
sS'results'
p4004
(dp4005
S'failed'
p4006
(dp4007
S'score'
p4008
I50
sS'raw_score'
p4009
L2164L
sS'display'
p4010
S'2164'
p4011
ssS'passed'
p4012
(dp4013
g4008
I50
sg4009
L0L
sg4010
g51
ssssVChrome 4.0.235
p4014
(dp4015
S'summary_display'
p4016
S'99.3%'
p4017
sS'total_runs'
p4018
L1L
sS'summary_score'
p4019
F99.260628465804061
sS'results'
p4020
(dp4021
S'failed'
p4022
(dp4023
S'score'
p4024
I75
sS'raw_score'
p4025
L16L
sS'display'
p4026
S'16'
p4027
ssS'passed'
p4028
(dp4029
g4024
I95
sg4025
L2148L
sg4026
S'2148'
p4030
ssssVSwiftfox 3.5.3
p4031
(dp4032
S'summary_display'
p4033
S'99.3%'
p4034
sS'total_runs'
p4035
L1L
sS'summary_score'
p4036
F99.260628465804061
sS'results'
p4037
(dp4038
S'failed'
p4039
(dp4040
S'score'
p4041
I75
sS'raw_score'
p4042
L16L
sS'display'
p4043
S'16'
p4044
ssS'passed'
p4045
(dp4046
g4041
I95
sg4042
L2148L
sg4043
S'2148'
p4047
ssssVChrome 4.0.232
p4048
(dp4049
S'summary_display'
p4050
S'99.3%'
p4051
sS'total_runs'
p4052
L1L
sS'summary_score'
p4053
F99.260628465804061
sS'results'
p4054
(dp4055
S'failed'
p4056
(dp4057
S'score'
p4058
I75
sS'raw_score'
p4059
L16L
sS'display'
p4060
S'16'
p4061
ssS'passed'
p4062
(dp4063
g4058
I95
sg4059
L2148L
sg4060
S'2148'
p4064
ssssVChrome 4.0.231
p4065
(dp4066
S'summary_display'
p4067
S'99.3%'
p4068
sS'total_runs'
p4069
L1L
sS'summary_score'
p4070
F99.260628465804061
sS'results'
p4071
(dp4072
S'failed'
p4073
(dp4074
S'score'
p4075
I75
sS'raw_score'
p4076
L16L
sS'display'
p4077
S'16'
p4078
ssS'passed'
p4079
(dp4080
g4075
I95
sg4076
L2148L
sg4077
S'2148'
p4081
ssssVSafari 3.0
p4082
(dp4083
S'summary_display'
p4084
S'0%'
p4085
sS'total_runs'
p4086
L4L
sS'summary_score'
p4087
I100
sS'results'
p4088
(dp4089
S'failed'
p4090
(dp4091
S'score'
p4092
I50
sS'raw_score'
p4093
L2164L
sS'display'
p4094
S'2164'
p4095
ssS'passed'
p4096
(dp4097
g4092
I50
sg4093
L0L
sg4094
g51
ssssVMicroB 0.3.7
p4098
(dp4099
S'summary_display'
p4100
S'0%'
p4101
sS'total_runs'
p4102
L1L
sS'summary_score'
p4103
I100
sS'results'
p4104
(dp4105
S'failed'
p4106
(dp4107
S'score'
p4108
I50
sS'raw_score'
p4109
L2164L
sS'display'
p4110
S'2164'
p4111
ssS'passed'
p4112
(dp4113
g4108
I50
sg4109
L0L
sg4110
g51
ssssVCamino 1.5.4
p4114
(dp4115
S'summary_display'
p4116
S'0%'
p4117
sS'total_runs'
p4118
L1L
sS'summary_score'
p4119
I100
sS'results'
p4120
(dp4121
S'failed'
p4122
(dp4123
S'score'
p4124
I50
sS'raw_score'
p4125
L2164L
sS'display'
p4126
S'2164'
p4127
ssS'passed'
p4128
(dp4129
g4124
I50
sg4125
L0L
sg4126
g51
ssssVLunascape 6.0.0
p4130
(dp4131
S'summary_display'
p4132
S'99.3%'
p4133
sS'total_runs'
p4134
L3L
sS'summary_score'
p4135
F99.260628465804061
sS'results'
p4136
(dp4137
S'failed'
p4138
(dp4139
S'score'
p4140
I75
sS'raw_score'
p4141
L16L
sS'display'
p4142
S'16'
p4143
ssS'passed'
p4144
(dp4145
g4140
I95
sg4141
L2148L
sg4142
S'2148'
p4146
ssssVIceweasel 3.5.4
p4147
(dp4148
S'summary_display'
p4149
S'99.3%'
p4150
sS'total_runs'
p4151
L4L
sS'summary_score'
p4152
F99.260628465804061
sS'results'
p4153
(dp4154
S'failed'
p4155
(dp4156
S'score'
p4157
I75
sS'raw_score'
p4158
L16L
sS'display'
p4159
S'16'
p4160
ssS'passed'
p4161
(dp4162
g4157
I95
sg4158
L2148L
sg4159
S'2148'
p4163
ssssVSeaMonkey 2.0.1
p4164
(dp4165
S'summary_display'
p4166
S'99.3%'
p4167
sS'total_runs'
p4168
L4L
sS'summary_score'
p4169
F99.260628465804061
sS'results'
p4170
(dp4171
S'failed'
p4172
(dp4173
S'score'
p4174
I75
sS'raw_score'
p4175
L16L
sS'display'
p4176
S'16'
p4177
ssS'passed'
p4178
(dp4179
g4174
I95
sg4175
L2148L
sg4176
S'2148'
p4180
ssssVWii 9.30
p4181
(dp4182
S'summary_display'
p4183
S'0%'
p4184
sS'total_runs'
p4185
L2L
sS'summary_score'
p4186
I100
sS'results'
p4187
(dp4188
S'failed'
p4189
(dp4190
S'score'
p4191
I50
sS'raw_score'
p4192
L2164L
sS'display'
p4193
S'2164'
p4194
ssS'passed'
p4195
(dp4196
g4191
I50
sg4192
L0L
sg4193
g51
ssssVArora 0.5
p4197
(dp4198
S'summary_display'
p4199
S'97.8%'
p4200
sS'total_runs'
p4201
L1L
sS'summary_score'
p4202
F97.781885397412196
sS'results'
p4203
(dp4204
S'failed'
p4205
(dp4206
S'score'
p4207
I50
sS'raw_score'
p4208
L48L
sS'display'
p4209
S'48'
p4210
ssS'passed'
p4211
(dp4212
g4207
I95
sg4208
L2116L
sg4209
S'2116'
p4213
ssssVArora 0.6
p4214
(dp4215
S'summary_display'
p4216
S'0%'
p4217
sS'total_runs'
p4218
L1L
sS'summary_score'
p4219
I100
sS'results'
p4220
(dp4221
S'failed'
p4222
(dp4223
S'score'
p4224
I50
sS'raw_score'
p4225
L2164L
sS'display'
p4226
S'2164'
p4227
ssS'passed'
p4228
(dp4229
g4224
I50
sg4225
L0L
sg4226
g51
ssssVArora 0.7
p4230
(dp4231
S'summary_display'
p4232
S'97.8%'
p4233
sS'total_runs'
p4234
L1L
sS'summary_score'
p4235
F97.781885397412196
sS'results'
p4236
(dp4237
S'failed'
p4238
(dp4239
S'score'
p4240
I50
sS'raw_score'
p4241
L48L
sS'display'
p4242
S'48'
p4243
ssS'passed'
p4244
(dp4245
g4240
I95
sg4241
L2116L
sg4242
S'2116'
p4246
ssssVSafari 3.2
p4247
(dp4248
S'summary_display'
p4249
S'80.6%'
p4250
sS'total_runs'
p4251
L19L
sS'summary_score'
p4252
F80.637707948244
sS'results'
p4253
(dp4254
S'failed'
p4255
(dp4256
S'score'
p4257
I50
sS'raw_score'
p4258
L419L
sS'display'
p4259
S'419'
p4260
ssS'passed'
p4261
(dp4262
g4257
I50
sg4258
L1745L
sg4259
S'1745'
p4263
ssssVIceweasel 3.0.14
p4264
(dp4265
S'summary_display'
p4266
S'0%'
p4267
sS'total_runs'
p4268
L10L
sS'summary_score'
p4269
I100
sS'results'
p4270
(dp4271
S'failed'
p4272
(dp4273
S'score'
p4274
I50
sS'raw_score'
p4275
L2164L
sS'display'
p4276
S'2164'
p4277
ssS'passed'
p4278
(dp4279
g4274
I50
sg4275
L0L
sg4276
g51
ssssVChrome Frame (IE 8) 4.0.223
p4280
(dp4281
S'summary_display'
p4282
S'99.3%'
p4283
sS'total_runs'
p4284
L1L
sS'summary_score'
p4285
F99.260628465804061
sS'results'
p4286
(dp4287
S'failed'
p4288
(dp4289
S'score'
p4290
I75
sS'raw_score'
p4291
L16L
sS'display'
p4292
S'16'
p4293
ssS'passed'
p4294
(dp4295
g4290
I95
sg4291
L2148L
sg4292
S'2148'
p4296
ssssVFirefox 3.6a1
p4297
(dp4298
S'summary_display'
p4299
S'99.3%'
p4300
sS'total_runs'
p4301
L1L
sS'summary_score'
p4302
F99.260628465804061
sS'results'
p4303
(dp4304
S'failed'
p4305
(dp4306
S'score'
p4307
I75
sS'raw_score'
p4308
L16L
sS'display'
p4309
S'16'
p4310
ssS'passed'
p4311
(dp4312
g4307
I95
sg4308
L2148L
sg4309
S'2148'
p4313
ssssVArora 0.8
p4314
(dp4315
S'summary_display'
p4316
S'97.8%'
p4317
sS'total_runs'
p4318
L5L
sS'summary_score'
p4319
F97.781885397412196
sS'results'
p4320
(dp4321
S'failed'
p4322
(dp4323
S'score'
p4324
I50
sS'raw_score'
p4325
L48L
sS'display'
p4326
S'48'
p4327
ssS'passed'
p4328
(dp4329
g4324
I95
sg4325
L2116L
sg4326
S'2116'
p4330
ssssVArora 0.9
p4331
(dp4332
S'summary_display'
p4333
S'97.8%'
p4334
sS'total_runs'
p4335
L10L
sS'summary_score'
p4336
F97.781885397412196
sS'results'
p4337
(dp4338
S'failed'
p4339
(dp4340
S'score'
p4341
I50
sS'raw_score'
p4342
L48L
sS'display'
p4343
S'48'
p4344
ssS'passed'
p4345
(dp4346
g4341
I95
sg4342
L2116L
sg4343
S'2116'
p4347
ssssVIceweasel 3.0.12
p4348
(dp4349
S'summary_display'
p4350
S'0%'
p4351
sS'total_runs'
p4352
L7L
sS'summary_score'
p4353
I100
sS'results'
p4354
(dp4355
S'failed'
p4356
(dp4357
S'score'
p4358
I50
sS'raw_score'
p4359
L2164L
sS'display'
p4360
S'2164'
p4361
ssS'passed'
p4362
(dp4363
g4358
I50
sg4359
L0L
sg4360
g51
ssssVMidori 0.1.8
p4364
(dp4365
S'summary_display'
p4366
S'98.7%'
p4367
sS'total_runs'
p4368
L5L
sS'summary_score'
p4369
F98.706099815157117
sS'results'
p4370
(dp4371
S'failed'
p4372
(dp4373
S'score'
p4374
I50
sS'raw_score'
p4375
L28L
sS'display'
p4376
S'28'
p4377
ssS'passed'
p4378
(dp4379
g4374
I95
sg4375
L2136L
sg4376
S'2136'
p4380
ssssVOther
p4381
(dp4382
S'summary_display'
p4383
S'99.3%'
p4384
sS'total_runs'
p4385
L65L
sS'summary_score'
p4386
F99.260628465804061
sS'results'
p4387
(dp4388
S'failed'
p4389
(dp4390
S'score'
p4391
I75
sS'raw_score'
p4392
L16L
sS'display'
p4393
S'16'
p4394
ssS'passed'
p4395
(dp4396
g4391
I95
sg4392
L2148L
sg4393
S'2148'
p4397
ssssVMaxthon 3.0
p4398
(dp4399
S'summary_display'
p4400
S'99.3%'
p4401
sS'total_runs'
p4402
L6L
sS'summary_score'
p4403
F99.260628465804061
sS'results'
p4404
(dp4405
S'failed'
p4406
(dp4407
S'score'
p4408
I75
sS'raw_score'
p4409
L16L
sS'display'
p4410
S'16'
p4411
ssS'passed'
p4412
(dp4413
g4408
I95
sg4409
L2148L
sg4410
S'2148'
p4414
ssssVUzbl 0
p4415
(dp4416
S'summary_display'
p4417
S'99.3%'
p4418
sS'total_runs'
p4419
L25L
sS'summary_score'
p4420
F99.260628465804061
sS'results'
p4421
(dp4422
S'failed'
p4423
(dp4424
S'score'
p4425
I75
sS'raw_score'
p4426
L16L
sS'display'
p4427
S'16'
p4428
ssS'passed'
p4429
(dp4430
g4425
I95
sg4426
L2148L
sg4427
S'2148'
p4431
ssssVSeaMonkey 2.0b2
p4432
(dp4433
S'summary_display'
p4434
S'99.3%'
p4435
sS'total_runs'
p4436
L4L
sS'summary_score'
p4437
F99.260628465804061
sS'results'
p4438
(dp4439
S'failed'
p4440
(dp4441
S'score'
p4442
I75
sS'raw_score'
p4443
L16L
sS'display'
p4444
S'16'
p4445
ssS'passed'
p4446
(dp4447
g4442
I95
sg4443
L2148L
sg4444
S'2148'
p4448
ssssVSeaMonkey 2.0b1
p4449
(dp4450
S'summary_display'
p4451
S'99.3%'
p4452
sS'total_runs'
p4453
L1L
sS'summary_score'
p4454
F99.260628465804061
sS'results'
p4455
(dp4456
S'failed'
p4457
(dp4458
S'score'
p4459
I75
sS'raw_score'
p4460
L16L
sS'display'
p4461
S'16'
p4462
ssS'passed'
p4463
(dp4464
g4459
I95
sg4460
L2148L
sg4461
S'2148'
p4465
ssssVSeaMonkey 1.1.8
p4466
(dp4467
S'summary_display'
p4468
S'0%'
p4469
sS'total_runs'
p4470
L1L
sS'summary_score'
p4471
I100
sS'results'
p4472
(dp4473
S'failed'
p4474
(dp4475
S'score'
p4476
I50
sS'raw_score'
p4477
L2164L
sS'display'
p4478
S'2164'
p4479
ssS'passed'
p4480
(dp4481
g4476
I50
sg4477
L0L
sg4478
g51
ssssVChrome 4.0.269
p4482
(dp4483
S'summary_display'
p4484
S'99.3%'
p4485
sS'total_runs'
p4486
L1L
sS'summary_score'
p4487
F99.260628465804061
sS'results'
p4488
(dp4489
S'failed'
p4490
(dp4491
S'score'
p4492
I75
sS'raw_score'
p4493
L16L
sS'display'
p4494
S'16'
p4495
ssS'passed'
p4496
(dp4497
g4492
I95
sg4493
L2148L
sg4494
S'2148'
p4498
ssssVArora 0.10
p4499
(dp4500
S'summary_display'
p4501
S'97.8%'
p4502
sS'total_runs'
p4503
L6L
sS'summary_score'
p4504
F97.781885397412196
sS'results'
p4505
(dp4506
S'failed'
p4507
(dp4508
S'score'
p4509
I50
sS'raw_score'
p4510
L48L
sS'display'
p4511
S'48'
p4512
ssS'passed'
p4513
(dp4514
g4509
I95
sg4510
L2116L
sg4511
S'2116'
p4515
ssssVFirefox (Namoroka) 3.6b6pre
p4516
(dp4517
S'summary_display'
p4518
S'99.3%'
p4519
sS'total_runs'
p4520
L3L
sS'summary_score'
p4521
F99.260628465804061
sS'results'
p4522
(dp4523
S'failed'
p4524
(dp4525
S'score'
p4526
I75
sS'raw_score'
p4527
L16L
sS'display'
p4528
S'16'
p4529
ssS'passed'
p4530
(dp4531
g4526
I95
sg4527
L2148L
sg4528
S'2148'
p4532
ssssVFirefox (Namoroka) 3.6a1
p4533
(dp4534
S'summary_display'
p4535
S'99.3%'
p4536
sS'total_runs'
p4537
L5L
sS'summary_score'
p4538
F99.260628465804061
sS'results'
p4539
(dp4540
S'failed'
p4541
(dp4542
S'score'
p4543
I75
sS'raw_score'
p4544
L16L
sS'display'
p4545
S'16'
p4546
ssS'passed'
p4547
(dp4548
g4543
I95
sg4544
L2148L
sg4545
S'2148'
p4549
ssssVFirefox (Namoroka) 3.7a1pre
p4550
(dp4551
S'summary_display'
p4552
S'100.0%'
p4553
sS'total_runs'
p4554
L1L
sS'summary_score'
p4555
F100.0
sS'results'
p4556
(dp4557
S'failed'
p4558
(dp4559
S'score'
p4560
I95
sS'raw_score'
p4561
L0L
sS'display'
p4562
g51
ssS'passed'
p4563
(dp4564
g4560
I95
sg4561
L2164L
sg4562
S'2164'
p4565
ssssVChrome 4.0.249
p4566
(dp4567
S'summary_display'
p4568
S'99.3%'
p4569
sS'total_runs'
p4570
I164
sS'summary_score'
p4571
F99.260628465804061
sS'results'
p4572
(dp4573
S'failed'
p4574
(dp4575
S'score'
p4576
I75
sS'raw_score'
p4577
I16
sS'display'
p4578
S'16'
p4579
ssS'passed'
p4580
(dp4581
g4576
I95
sg4577
I2148
sg4578
S'2148'
p4582
ssssVChrome 4.0.242
p4583
(dp4584
S'summary_display'
p4585
S'99.3%'
p4586
sS'total_runs'
p4587
L1L
sS'summary_score'
p4588
F99.260628465804061
sS'results'
p4589
(dp4590
S'failed'
p4591
(dp4592
S'score'
p4593
I75
sS'raw_score'
p4594
L16L
sS'display'
p4595
S'16'
p4596
ssS'passed'
p4597
(dp4598
g4593
I95
sg4594
L2148L
sg4595
S'2148'
p4599
ssssVChrome 4.0.240
p4600
(dp4601
S'summary_display'
p4602
S'99.3%'
p4603
sS'total_runs'
p4604
L2L
sS'summary_score'
p4605
F99.260628465804061
sS'results'
p4606
(dp4607
S'failed'
p4608
(dp4609
S'score'
p4610
I75
sS'raw_score'
p4611
L16L
sS'display'
p4612
S'16'
p4613
ssS'passed'
p4614
(dp4615
g4610
I95
sg4611
L2148L
sg4612
S'2148'
p4616
ssssVChrome 4.0.241
p4617
(dp4618
S'summary_display'
p4619
S'99.3%'
p4620
sS'total_runs'
p4621
L4L
sS'summary_score'
p4622
F99.260628465804061
sS'results'
p4623
(dp4624
S'failed'
p4625
(dp4626
S'score'
p4627
I75
sS'raw_score'
p4628
L16L
sS'display'
p4629
S'16'
p4630
ssS'passed'
p4631
(dp4632
g4627
I95
sg4628
L2148L
sg4629
S'2148'
p4633
ssssVChrome 4.0.246
p4634
(dp4635
S'summary_display'
p4636
S'99.3%'
p4637
sS'total_runs'
p4638
L3L
sS'summary_score'
p4639
F99.260628465804061
sS'results'
p4640
(dp4641
S'failed'
p4642
(dp4643
S'score'
p4644
I75
sS'raw_score'
p4645
L16L
sS'display'
p4646
S'16'
p4647
ssS'passed'
p4648
(dp4649
g4644
I95
sg4645
L2148L
sg4646
S'2148'
p4650
ssssVIE 8.0
p4651
(dp4652
S'summary_display'
p4653
S'58.5%'
p4654
sS'total_runs'
p4655
I424
sS'summary_score'
p4656
F58.456561922365992
sS'results'
p4657
(dp4658
S'failed'
p4659
(dp4660
S'score'
p4661
I50
sS'raw_score'
p4662
I899
sS'display'
p4663
S'899'
p4664
ssS'passed'
p4665
(dp4666
g4661
I50
sg4662
I1265
sg4663
S'1265'
p4667
ssssVChrome 4.0.244
p4668
(dp4669
S'summary_display'
p4670
S'99.3%'
p4671
sS'total_runs'
p4672
L3L
sS'summary_score'
p4673
F99.260628465804061
sS'results'
p4674
(dp4675
S'failed'
p4676
(dp4677
S'score'
p4678
I75
sS'raw_score'
p4679
L16L
sS'display'
p4680
S'16'
p4681
ssS'passed'
p4682
(dp4683
g4678
I95
sg4679
L2148L
sg4680
S'2148'
p4684
ssssVChrome 4.0.245
p4685
(dp4686
S'summary_display'
p4687
S'99.3%'
p4688
sS'total_runs'
p4689
L22L
sS'summary_score'
p4690
F99.260628465804061
sS'results'
p4691
(dp4692
S'failed'
p4693
(dp4694
S'score'
p4695
I75
sS'raw_score'
p4696
L16L
sS'display'
p4697
S'16'
p4698
ssS'passed'
p4699
(dp4700
g4695
I95
sg4696
L2148L
sg4697
S'2148'
p4701
ssssVOpera 10.50
p4702
(dp4703
S'summary_display'
p4704
S'99.8%'
p4705
sS'total_runs'
p4706
I148
sS'summary_score'
p4707
F99.815157116451019
sS'results'
p4708
(dp4709
S'failed'
p4710
(dp4711
S'score'
p4712
I85
sS'raw_score'
p4713
I4
sS'display'
p4714
S'4'
p4715
ssS'passed'
p4716
(dp4717
g4712
I95
sg4713
I2160
sg4714
S'2160'
p4718
ssssVJasmine 1.0
p4719
(dp4720
S'summary_display'
p4721
S'49.8%'
p4722
sS'total_runs'
p4723
L2L
sS'summary_score'
p4724
F49.814471243042675
sS'results'
p4725
(dp4726
S'failed'
p4727
(dp4728
S'score'
p4729
I50
sS'raw_score'
p4730
L2164L
sS'display'
p4731
S'2164'
p4732
ssS'passed'
p4733
(dp4734
g4729
I95
sg4730
L2148L
sg4731
S'2148'
p4735
ssssVFirefox 3.7a1pre
p4736
(dp4737
S'summary_display'
p4738
S'99.3%'
p4739
sS'total_runs'
p4740
L2L
sS'summary_score'
p4741
F99.266055045871553
sS'results'
p4742
(dp4743
S'failed'
p4744
(dp4745
S'score'
p4746
I75
sS'raw_score'
p4747
L16L
sS'display'
p4748
S'16'
p4749
ssS'passed'
p4750
(dp4751
g4746
I95
sg4747
L2164L
sg4748
S'2164'
p4752
ssssVChrome 3.0.182
p4753
(dp4754
S'summary_display'
p4755
S'99.3%'
p4756
sS'total_runs'
p4757
L2L
sS'summary_score'
p4758
F99.260628465804061
sS'results'
p4759
(dp4760
S'failed'
p4761
(dp4762
S'score'
p4763
I75
sS'raw_score'
p4764
L16L
sS'display'
p4765
S'16'
p4766
ssS'passed'
p4767
(dp4768
g4763
I95
sg4764
L2148L
sg4765
S'2148'
p4769
ssssVFirefox 2.0.0
p4770
(dp4771
S'summary_display'
p4772
S'0%'
p4773
sS'total_runs'
p4774
L41L
sS'summary_score'
p4775
I100
sS'results'
p4776
(dp4777
S'failed'
p4778
(dp4779
S'score'
p4780
I50
sS'raw_score'
p4781
L2164L
sS'display'
p4782
S'2164'
p4783
ssS'passed'
p4784
(dp4785
g4780
I50
sg4781
L0L
sg4782
g51
ssssVSafari 3.1.1
p4786
(dp4787
S'summary_display'
p4788
S'83.5%'
p4789
sS'total_runs'
p4790
L2L
sS'summary_score'
p4791
F83.471400394477314
sS'results'
p4792
(dp4793
S'failed'
p4794
(dp4795
S'score'
p4796
I50
sS'raw_score'
p4797
L419L
sS'display'
p4798
S'419'
p4799
ssS'passed'
p4800
(dp4801
g4796
I95
sg4797
L2116L
sg4798
S'2116'
p4802
ssssVFirefox (Shiretoko) 3.5.2
p4803
(dp4804
S'summary_display'
p4805
S'99.3%'
p4806
sS'total_runs'
p4807
L68L
sS'summary_score'
p4808
F99.260628465804061
sS'results'
p4809
(dp4810
S'failed'
p4811
(dp4812
S'score'
p4813
I75
sS'raw_score'
p4814
L16L
sS'display'
p4815
S'16'
p4816
ssS'passed'
p4817
(dp4818
g4813
I95
sg4814
L2148L
sg4815
S'2148'
p4819
ssssVFirefox (Namoroka) 3.6a2pre
p4820
(dp4821
S'summary_display'
p4822
S'99.3%'
p4823
sS'total_runs'
p4824
L20L
sS'summary_score'
p4825
F99.260628465804061
sS'results'
p4826
(dp4827
S'failed'
p4828
(dp4829
S'score'
p4830
I75
sS'raw_score'
p4831
L16L
sS'display'
p4832
S'16'
p4833
ssS'passed'
p4834
(dp4835
g4830
I95
sg4831
L2148L
sg4832
S'2148'
p4836
ssssVSeaMonkey 2.1a1pre
p4837
(dp4838
S'summary_display'
p4839
S'100.0%'
p4840
sS'total_runs'
p4841
L1L
sS'summary_score'
p4842
F100.0
sS'results'
p4843
(dp4844
S'failed'
p4845
(dp4846
S'score'
p4847
I95
sS'raw_score'
p4848
L0L
sS'display'
p4849
g51
ssS'passed'
p4850
(dp4851
g4847
I95
sg4848
L2164L
sg4849
S'2164'
p4852
ssssVFirefox 3.6b5
p4853
(dp4854
S'summary_display'
p4855
S'99.3%'
p4856
sS'total_runs'
p4857
L23L
sS'summary_score'
p4858
F99.260628465804061
sS'results'
p4859
(dp4860
S'failed'
p4861
(dp4862
S'score'
p4863
I75
sS'raw_score'
p4864
L16L
sS'display'
p4865
S'16'
p4866
ssS'passed'
p4867
(dp4868
g4863
I95
sg4864
L2148L
sg4865
S'2148'
p4869
ssssVFirefox (Shiretoko) 3.5.8pre
p4870
(dp4871
S'summary_display'
p4872
S'99.3%'
p4873
sS'total_runs'
p4874
L2L
sS'summary_score'
p4875
F99.260628465804061
sS'results'
p4876
(dp4877
S'failed'
p4878
(dp4879
S'score'
p4880
I75
sS'raw_score'
p4881
L16L
sS'display'
p4882
S'16'
p4883
ssS'passed'
p4884
(dp4885
g4880
I95
sg4881
L2148L
sg4882
S'2148'
p4886
ssssVFirefox 3.6b3
p4887
(dp4888
S'summary_display'
p4889
S'99.3%'
p4890
sS'total_runs'
p4891
L15L
sS'summary_score'
p4892
F99.260628465804061
sS'results'
p4893
(dp4894
S'failed'
p4895
(dp4896
S'score'
p4897
I75
sS'raw_score'
p4898
L16L
sS'display'
p4899
S'16'
p4900
ssS'passed'
p4901
(dp4902
g4897
I95
sg4898
L2148L
sg4899
S'2148'
p4903
ssssVFirefox (Shiretoko) 3.5.3
p4904
(dp4905
S'summary_display'
p4906
S'99.3%'
p4907
sS'total_runs'
p4908
L35L
sS'summary_score'
p4909
F99.260628465804061
sS'results'
p4910
(dp4911
S'failed'
p4912
(dp4913
S'score'
p4914
I75
sS'raw_score'
p4915
L16L
sS'display'
p4916
S'16'
p4917
ssS'passed'
p4918
(dp4919
g4914
I95
sg4915
L2148L
sg4916
S'2148'
p4920
ssssVFirefox 3.6b1
p4921
(dp4922
S'summary_display'
p4923
S'99.3%'
p4924
sS'total_runs'
p4925
L15L
sS'summary_score'
p4926
F99.260628465804061
sS'results'
p4927
(dp4928
S'failed'
p4929
(dp4930
S'score'
p4931
I75
sS'raw_score'
p4932
L16L
sS'display'
p4933
S'16'
p4934
ssS'passed'
p4935
(dp4936
g4931
I95
sg4932
L2148L
sg4933
S'2148'
p4937
ssssVOpera Mini 4.2.14912
p4938
(dp4939
S'summary_display'
p4940
S'97.5%'
p4941
sS'total_runs'
p4942
L12L
sS'summary_score'
p4943
F97.504621072088725
sS'results'
p4944
(dp4945
S'failed'
p4946
(dp4947
S'score'
p4948
I50
sS'raw_score'
p4949
L54L
sS'display'
p4950
S'54'
p4951
ssS'passed'
p4952
(dp4953
g4948
I95
sg4949
L2110L
sg4950
S'2110'
p4954
ssssVIron 4.0.275
p4955
(dp4956
S'summary_display'
p4957
S'99.3%'
p4958
sS'total_runs'
p4959
L1L
sS'summary_score'
p4960
F99.260628465804061
sS'results'
p4961
(dp4962
S'failed'
p4963
(dp4964
S'score'
p4965
I75
sS'raw_score'
p4966
L16L
sS'display'
p4967
S'16'
p4968
ssS'passed'
p4969
(dp4970
g4965
I95
sg4966
L2148L
sg4967
S'2148'
p4971
ssssViCab 4.7
p4972
(dp4973
S'summary_display'
p4974
S'99.3%'
p4975
sS'total_runs'
p4976
L1L
sS'summary_score'
p4977
F99.260628465804061
sS'results'
p4978
(dp4979
S'failed'
p4980
(dp4981
S'score'
p4982
I75
sS'raw_score'
p4983
L16L
sS'display'
p4984
S'16'
p4985
ssS'passed'
p4986
(dp4987
g4982
I95
sg4983
L2148L
sg4984
S'2148'
p4988
ssssVChrome 1.0.154
p4989
(dp4990
S'summary_display'
p4991
S'80.6%'
p4992
sS'total_runs'
p4993
L8L
sS'summary_score'
p4994
F80.637707948244
sS'results'
p4995
(dp4996
S'failed'
p4997
(dp4998
S'score'
p4999
I50
sS'raw_score'
p5000
L419L
sS'display'
p5001
S'419'
p5002
ssS'passed'
p5003
(dp5004
g4999
I50
sg5000
L1745L
sg5001
S'1745'
p5005
ssssViPhone 3.0.1
p5006
(dp5007
S'summary_display'
p5008
S'97.8%'
p5009
sS'total_runs'
p5010
L14L
sS'summary_score'
p5011
F97.781885397412196
sS'results'
p5012
(dp5013
S'failed'
p5014
(dp5015
S'score'
p5016
I50
sS'raw_score'
p5017
L48L
sS'display'
p5018
S'48'
p5019
ssS'passed'
p5020
(dp5021
g5016
I95
sg5017
L2116L
sg5018
S'2116'
p5022
ssssVFennec 1.0b3
p5023
(dp5024
S'summary_display'
p5025
S'99.3%'
p5026
sS'total_runs'
p5027
L3L
sS'summary_score'
p5028
F99.260628465804061
sS'results'
p5029
(dp5030
S'failed'
p5031
(dp5032
S'score'
p5033
I75
sS'raw_score'
p5034
L16L
sS'display'
p5035
S'16'
p5036
ssS'passed'
p5037
(dp5038
g5033
I95
sg5034
L2148L
sg5035
S'2148'
p5039
ssssVChrome Frame (IE 7) 4.0.223
p5040
(dp5041
S'summary_display'
p5042
S'99.3%'
p5043
sS'total_runs'
p5044
L1L
sS'summary_score'
p5045
F99.260628465804061
sS'results'
p5046
(dp5047
S'failed'
p5048
(dp5049
S'score'
p5050
I75
sS'raw_score'
p5051
L16L
sS'display'
p5052
S'16'
p5053
ssS'passed'
p5054
(dp5055
g5050
I95
sg5051
L2148L
sg5052
S'2148'
p5056
ssssVFennec 1.0b4
p5057
(dp5058
S'summary_display'
p5059
S'99.3%'
p5060
sS'total_runs'
p5061
L1L
sS'summary_score'
p5062
F99.260628465804061
sS'results'
p5063
(dp5064
S'failed'
p5065
(dp5066
S'score'
p5067
I75
sS'raw_score'
p5068
L16L
sS'display'
p5069
S'16'
p5070
ssS'passed'
p5071
(dp5072
g5067
I95
sg5068
L2148L
sg5069
S'2148'
p5073
ssssVFennec 1.0b5
p5074
(dp5075
S'summary_display'
p5076
S'99.3%'
p5077
sS'total_runs'
p5078
L1L
sS'summary_score'
p5079
F99.260628465804061
sS'results'
p5080
(dp5081
S'failed'
p5082
(dp5083
S'score'
p5084
I75
sS'raw_score'
p5085
L16L
sS'display'
p5086
S'16'
p5087
ssS'passed'
p5088
(dp5089
g5084
I95
sg5085
L2148L
sg5086
S'2148'
p5090
ssssVMaxthon 3.0.6
p5091
(dp5092
S'summary_display'
p5093
S'99.3%'
p5094
sS'total_runs'
p5095
L3L
sS'summary_score'
p5096
F99.260628465804061
sS'results'
p5097
(dp5098
S'failed'
p5099
(dp5100
S'score'
p5101
I75
sS'raw_score'
p5102
L16L
sS'display'
p5103
S'16'
p5104
ssS'passed'
p5105
(dp5106
g5101
I95
sg5102
L2148L
sg5103
S'2148'
p5107
ssssVSafari 4.0.2
p5108
(dp5109
S'summary_display'
p5110
S'99.3%'
p5111
sS'total_runs'
p5112
L26L
sS'summary_score'
p5113
F99.260628465804061
sS'results'
p5114
(dp5115
S'failed'
p5116
(dp5117
S'score'
p5118
I75
sS'raw_score'
p5119
L16L
sS'display'
p5120
S'16'
p5121
ssS'passed'
p5122
(dp5123
g5118
I95
sg5119
L2148L
sg5120
S'2148'
p5124
ssssVCrazy Browser 3.0.0
p5125
(dp5126
S'summary_display'
p5127
S'0%'
p5128
sS'total_runs'
p5129
L1L
sS'summary_score'
p5130
I100
sS'results'
p5131
(dp5132
S'failed'
p5133
(dp5134
S'score'
p5135
I50
sS'raw_score'
p5136
L1816L
sS'display'
p5137
S'1816'
p5138
ssS'passed'
p5139
(dp5140
g5135
I50
sg5136
L0L
sg5137
g51
ssssVSafari 4.0.4
p5141
(dp5142
S'summary_display'
p5143
S'99.3%'
p5144
sS'total_runs'
p5145
I143
sS'summary_score'
p5146
F99.260628465804061
sS'results'
p5147
(dp5148
S'failed'
p5149
(dp5150
S'score'
p5151
I75
sS'raw_score'
p5152
I16
sS'display'
p5153
S'16'
p5154
ssS'passed'
p5155
(dp5156
g5151
I95
sg5152
I2148
sg5153
S'2148'
p5157
ssssVEpiphany 2.22
p5158
(dp5159
S'summary_display'
p5160
S'0%'
p5161
sS'total_runs'
p5162
L7L
sS'summary_score'
p5163
I100
sS'results'
p5164
(dp5165
S'failed'
p5166
(dp5167
S'score'
p5168
I50
sS'raw_score'
p5169
L2164L
sS'display'
p5170
S'2164'
p5171
ssS'passed'
p5172
(dp5173
g5168
I50
sg5169
L0L
sg5170
g51
ssssVLunascape 5.1.2
p5174
(dp5175
S'summary_display'
p5176
S'99.3%'
p5177
sS'total_runs'
p5178
L1L
sS'summary_score'
p5179
F99.260628465804061
sS'results'
p5180
(dp5181
S'failed'
p5182
(dp5183
S'score'
p5184
I75
sS'raw_score'
p5185
L16L
sS'display'
p5186
S'16'
p5187
ssS'passed'
p5188
(dp5189
g5184
I95
sg5185
L2148L
sg5186
S'2148'
p5190
ssssVFirefox (Namoroka) 3.6b1pre
p5191
(dp5192
S'summary_display'
p5193
S'99.3%'
p5194
sS'total_runs'
p5195
L3L
sS'summary_score'
p5196
F99.260628465804061
sS'results'
p5197
(dp5198
S'failed'
p5199
(dp5200
S'score'
p5201
I75
sS'raw_score'
p5202
L16L
sS'display'
p5203
S'16'
p5204
ssS'passed'
p5205
(dp5206
g5201
I95
sg5202
L2148L
sg5203
S'2148'
p5207
ssssVNetFront 3.4
p5208
(dp5209
S'summary_display'
p5210
S'49.8%'
p5211
sS'total_runs'
p5212
L2L
sS'summary_score'
p5213
F49.814471243042675
sS'results'
p5214
(dp5215
S'failed'
p5216
(dp5217
S'score'
p5218
I50
sS'raw_score'
p5219
L2164L
sS'display'
p5220
S'2164'
p5221
ssS'passed'
p5222
(dp5223
g5218
I95
sg5219
L2148L
sg5220
S'2148'
p5224
ssssVShiira 0
p5225
(dp5226
S'summary_display'
p5227
S'99.3%'
p5228
sS'total_runs'
p5229
L1L
sS'summary_score'
p5230
F99.260628465804061
sS'results'
p5231
(dp5232
S'failed'
p5233
(dp5234
S'score'
p5235
I75
sS'raw_score'
p5236
L16L
sS'display'
p5237
S'16'
p5238
ssS'passed'
p5239
(dp5240
g5235
I95
sg5236
L2148L
sg5237
S'2148'
p5241
ssssVSleipnir 2.9.1
p5242
(dp5243
S'summary_display'
p5244
S'58.5%'
p5245
sS'total_runs'
p5246
L4L
sS'summary_score'
p5247
F58.456561922365992
sS'results'
p5248
(dp5249
S'failed'
p5250
(dp5251
S'score'
p5252
I50
sS'raw_score'
p5253
L899L
sS'display'
p5254
S'899'
p5255
ssS'passed'
p5256
(dp5257
g5252
I50
sg5253
L1265L
sg5254
S'1265'
p5258
ssssVLunascape 5.1.5
p5259
(dp5260
S'summary_display'
p5261
S'99.3%'
p5262
sS'total_runs'
p5263
L6L
sS'summary_score'
p5264
F99.260628465804061
sS'results'
p5265
(dp5266
S'failed'
p5267
(dp5268
S'score'
p5269
I75
sS'raw_score'
p5270
L16L
sS'display'
p5271
S'16'
p5272
ssS'passed'
p5273
(dp5274
g5269
I95
sg5270
L2148L
sg5271
S'2148'
p5275
ssssVLunascape 5.1.4
p5276
(dp5277
S'summary_display'
p5278
S'99.3%'
p5279
sS'total_runs'
p5280
L1L
sS'summary_score'
p5281
F99.260628465804061
sS'results'
p5282
(dp5283
S'failed'
p5284
(dp5285
S'score'
p5286
I75
sS'raw_score'
p5287
L16L
sS'display'
p5288
S'16'
p5289
ssS'passed'
p5290
(dp5291
g5286
I95
sg5287
L2148L
sg5288
S'2148'
p5292
ssssVChrome 4.0.251
p5293
(dp5294
S'summary_display'
p5295
S'99.3%'
p5296
sS'total_runs'
p5297
L3L
sS'summary_score'
p5298
F99.260628465804061
sS'results'
p5299
(dp5300
S'failed'
p5301
(dp5302
S'score'
p5303
I75
sS'raw_score'
p5304
L16L
sS'display'
p5305
S'16'
p5306
ssS'passed'
p5307
(dp5308
g5303
I95
sg5304
L2148L
sg5305
S'2148'
p5309
ssssVChrome 4.0.250
p5310
(dp5311
S'summary_display'
p5312
S'99.3%'
p5313
sS'total_runs'
p5314
L1L
sS'summary_score'
p5315
F99.260628465804061
sS'results'
p5316
(dp5317
S'failed'
p5318
(dp5319
S'score'
p5320
I75
sS'raw_score'
p5321
L16L
sS'display'
p5322
S'16'
p5323
ssS'passed'
p5324
(dp5325
g5320
I95
sg5321
L2148L
sg5322
S'2148'
p5326
ssssVChrome 4.0.253
p5327
(dp5328
S'summary_display'
p5329
S'99.3%'
p5330
sS'total_runs'
p5331
L6L
sS'summary_score'
p5332
F99.260628465804061
sS'results'
p5333
(dp5334
S'failed'
p5335
(dp5336
S'score'
p5337
I75
sS'raw_score'
p5338
L16L
sS'display'
p5339
S'16'
p5340
ssS'passed'
p5341
(dp5342
g5337
I95
sg5338
L2148L
sg5339
S'2148'
p5343
ssssVChrome 4.0.252
p5344
(dp5345
S'summary_display'
p5346
S'99.3%'
p5347
sS'total_runs'
p5348
L1L
sS'summary_score'
p5349
F99.260628465804061
sS'results'
p5350
(dp5351
S'failed'
p5352
(dp5353
S'score'
p5354
I75
sS'raw_score'
p5355
L16L
sS'display'
p5356
S'16'
p5357
ssS'passed'
p5358
(dp5359
g5354
I95
sg5355
L2148L
sg5356
S'2148'
p5360
ssssVChrome 4.0.255
p5361
(dp5362
S'summary_display'
p5363
S'99.3%'
p5364
sS'total_runs'
p5365
L1L
sS'summary_score'
p5366
F99.260628465804061
sS'results'
p5367
(dp5368
S'failed'
p5369
(dp5370
S'score'
p5371
I75
sS'raw_score'
p5372
L16L
sS'display'
p5373
S'16'
p5374
ssS'passed'
p5375
(dp5376
g5371
I95
sg5372
L2148L
sg5373
S'2148'
p5377
ssssVChrome 4.0.254
p5378
(dp5379
S'summary_display'
p5380
S'99.3%'
p5381
sS'total_runs'
p5382
L1L
sS'summary_score'
p5383
F99.260628465804061
sS'results'
p5384
(dp5385
S'failed'
p5386
(dp5387
S'score'
p5388
I75
sS'raw_score'
p5389
L16L
sS'display'
p5390
S'16'
p5391
ssS'passed'
p5392
(dp5393
g5388
I95
sg5389
L2148L
sg5390
S'2148'
p5394
ssssVChrome 4.0.257
p5395
(dp5396
S'summary_display'
p5397
S'99.3%'
p5398
sS'total_runs'
p5399
L2L
sS'summary_score'
p5400
F99.260628465804061
sS'results'
p5401
(dp5402
S'failed'
p5403
(dp5404
S'score'
p5405
I75
sS'raw_score'
p5406
L16L
sS'display'
p5407
S'16'
p5408
ssS'passed'
p5409
(dp5410
g5405
I95
sg5406
L2148L
sg5407
S'2148'
p5411
ssssVChrome 4.0.256
p5412
(dp5413
S'summary_display'
p5414
S'99.3%'
p5415
sS'total_runs'
p5416
L4L
sS'summary_score'
p5417
F99.260628465804061
sS'results'
p5418
(dp5419
S'failed'
p5420
(dp5421
S'score'
p5422
I75
sS'raw_score'
p5423
L16L
sS'display'
p5424
S'16'
p5425
ssS'passed'
p5426
(dp5427
g5422
I95
sg5423
L2148L
sg5424
S'2148'
p5428
ssssVIceweasel 3.5.3
p5429
(dp5430
S'summary_display'
p5431
S'99.3%'
p5432
sS'total_runs'
p5433
L3L
sS'summary_score'
p5434
F99.260628465804061
sS'results'
p5435
(dp5436
S'failed'
p5437
(dp5438
S'score'
p5439
I75
sS'raw_score'
p5440
L16L
sS'display'
p5441
S'16'
p5442
ssS'passed'
p5443
(dp5444
g5439
I95
sg5440
L2148L
sg5441
S'2148'
p5445
ssssVFennec 1.0b4pre
p5446
(dp5447
S'summary_display'
p5448
S'99.3%'
p5449
sS'total_runs'
p5450
L1L
sS'summary_score'
p5451
F99.260628465804061
sS'results'
p5452
(dp5453
S'failed'
p5454
(dp5455
S'score'
p5456
I75
sS'raw_score'
p5457
L16L
sS'display'
p5458
S'16'
p5459
ssS'passed'
p5460
(dp5461
g5456
I95
sg5457
L2148L
sg5458
S'2148'
p5462
ssssVFirefox (Namoroka) 3.6b2pre
p5463
(dp5464
S'summary_display'
p5465
S'99.3%'
p5466
sS'total_runs'
p5467
L3L
sS'summary_score'
p5468
F99.260628465804061
sS'results'
p5469
(dp5470
S'failed'
p5471
(dp5472
S'score'
p5473
I75
sS'raw_score'
p5474
L16L
sS'display'
p5475
S'16'
p5476
ssS'passed'
p5477
(dp5478
g5473
I95
sg5474
L2148L
sg5475
S'2148'
p5479
ssssVOpera 9.70
p5480
(dp5481
S'summary_display'
p5482
S'99.8%'
p5483
sS'total_runs'
p5484
L2L
sS'summary_score'
p5485
F99.815157116451019
sS'results'
p5486
(dp5487
S'failed'
p5488
(dp5489
S'score'
p5490
I85
sS'raw_score'
p5491
L4L
sS'display'
p5492
g4715
ssS'passed'
p5493
(dp5494
g5490
I95
sg5491
L2160L
sg5492
S'2160'
p5495
ssssVChrome 3.0.191
p5496
(dp5497
S'summary_display'
p5498
S'99.3%'
p5499
sS'total_runs'
p5500
L1L
sS'summary_score'
p5501
F99.260628465804061
sS'results'
p5502
(dp5503
S'failed'
p5504
(dp5505
S'score'
p5506
I75
sS'raw_score'
p5507
L16L
sS'display'
p5508
S'16'
p5509
ssS'passed'
p5510
(dp5511
g5506
I95
sg5507
L2148L
sg5508
S'2148'
p5512
ssssVChrome 3.0.193
p5513
(dp5514
S'summary_display'
p5515
S'99.3%'
p5516
sS'total_runs'
p5517
L1L
sS'summary_score'
p5518
F99.260628465804061
sS'results'
p5519
(dp5520
S'failed'
p5521
(dp5522
S'score'
p5523
I75
sS'raw_score'
p5524
L16L
sS'display'
p5525
S'16'
p5526
ssS'passed'
p5527
(dp5528
g5523
I95
sg5524
L2148L
sg5525
S'2148'
p5529
ssssVSleipnir 2.9.2
p5530
(dp5531
S'summary_display'
p5532
S'0%'
p5533
sS'total_runs'
p5534
L1L
sS'summary_score'
p5535
I100
sS'results'
p5536
(dp5537
S'failed'
p5538
(dp5539
S'score'
p5540
I50
sS'raw_score'
p5541
L1816L
sS'display'
p5542
S'1816'
p5543
ssS'passed'
p5544
(dp5545
g5540
I50
sg5541
L0L
sg5542
g51
ssssVChrome 3.0.195
p5546
(dp5547
S'summary_display'
p5548
S'99.3%'
p5549
sS'total_runs'
p5550
I550
sS'summary_score'
p5551
F99.260628465804061
sS'results'
p5552
(dp5553
S'failed'
p5554
(dp5555
S'score'
p5556
I75
sS'raw_score'
p5557
I16
sS'display'
p5558
S'16'
p5559
ssS'passed'
p5560
(dp5561
g5556
I95
sg5557
I2148
sg5558
S'2148'
p5562
ssssVChrome 3.0.194
p5563
(dp5564
S'summary_display'
p5565
S'99.3%'
p5566
sS'total_runs'
p5567
L1L
sS'summary_score'
p5568
F99.260628465804061
sS'results'
p5569
(dp5570
S'failed'
p5571
(dp5572
S'score'
p5573
I75
sS'raw_score'
p5574
L16L
sS'display'
p5575
S'16'
p5576
ssS'passed'
p5577
(dp5578
g5573
I95
sg5574
L2148L
sg5575
S'2148'
p5579
ssssVChrome 3.0.196
p5580
(dp5581
S'summary_display'
p5582
S'99.3%'
p5583
sS'total_runs'
p5584
L5L
sS'summary_score'
p5585
F99.260628465804061
sS'results'
p5586
(dp5587
S'failed'
p5588
(dp5589
S'score'
p5590
I75
sS'raw_score'
p5591
L16L
sS'display'
p5592
S'16'
p5593
ssS'passed'
p5594
(dp5595
g5590
I95
sg5591
L2148L
sg5592
S'2148'
p5596
ssss.