(dp0
S'total_runs'
p1
L10533L
sVChrome
p2
(dp3
S'summary_display'
p4
S'99.3%'
p5
sS'total_runs'
p6
I1763
sS'summary_score'
p7
F99.260628465804061
sS'results'
p8
(dp9
S'failed'
p10
(dp11
S'score'
p12
I75
sS'raw_score'
p13
I16
sS'display'
p14
S'16'
p15
ssS'passed'
p16
(dp17
g12
I95
sg13
I2148
sg14
S'2148'
p18
ssssVStainless
p19
(dp20
S'summary_display'
p21
S'99.3%'
p22
sS'total_runs'
p23
L5L
sS'summary_score'
p24
F99.260628465804061
sS'results'
p25
(dp26
S'failed'
p27
(dp28
S'score'
p29
I75
sS'raw_score'
p30
L16L
sS'display'
p31
S'16'
p32
ssS'passed'
p33
(dp34
g29
I95
sg30
L2148L
sg31
S'2148'
p35
ssssVSeaMonkey
p36
(dp37
S'summary_display'
p38
S'99.3%'
p39
sS'total_runs'
p40
L34L
sS'summary_score'
p41
F99.260628465804061
sS'results'
p42
(dp43
S'failed'
p44
(dp45
S'score'
p46
I75
sS'raw_score'
p47
L16L
sS'display'
p48
S'16'
p49
ssS'passed'
p50
(dp51
g46
I95
sg47
L2148L
sg48
S'2148'
p52
ssssVFirefox (Minefield)
p53
(dp54
S'summary_display'
p55
S'100.0%'
p56
sS'total_runs'
p57
I184
sS'summary_score'
p58
F100.0
sS'results'
p59
(dp60
S'failed'
p61
(dp62
S'score'
p63
I95
sS'raw_score'
p64
I0
sS'display'
p65
S'0'
p66
ssS'passed'
p67
(dp68
g63
I95
sg64
I2164
sg65
S'2164'
p69
ssssVFirefox (Shiretoko)
p70
(dp71
S'summary_display'
p72
S'99.3%'
p73
sS'total_runs'
p74
L171L
sS'summary_score'
p75
F99.260628465804061
sS'results'
p76
(dp77
S'failed'
p78
(dp79
S'score'
p80
I75
sS'raw_score'
p81
L16L
sS'display'
p82
S'16'
p83
ssS'passed'
p84
(dp85
g80
I95
sg81
L2148L
sg82
S'2148'
p86
ssssVMaxthon
p87
(dp88
S'summary_display'
p89
S'0%'
p90
sS'total_runs'
p91
I19
sS'summary_score'
p92
I100
sS'results'
p93
(dp94
S'failed'
p95
(dp96
S'score'
p97
I50
sS'raw_score'
p98
I1816
sS'display'
p99
S'1816'
p100
ssS'passed'
p101
(dp102
g97
I50
sg98
I0
sg99
g66
ssssVCamino
p103
(dp104
S'summary_display'
p105
S'0%'
p106
sS'total_runs'
p107
L23L
sS'summary_score'
p108
I100
sS'results'
p109
(dp110
S'failed'
p111
(dp112
S'score'
p113
I50
sS'raw_score'
p114
L2164L
sS'display'
p115
S'2164'
p116
ssS'passed'
p117
(dp118
g113
I50
sg114
L0L
sg115
g66
ssssVOther
p119
(dp120
S'summary_display'
p121
S'99.3%'
p122
sS'total_runs'
p123
L65L
sS'summary_score'
p124
F99.260628465804061
sS'results'
p125
(dp126
S'failed'
p127
(dp128
S'score'
p129
I75
sS'raw_score'
p130
L16L
sS'display'
p131
S'16'
p132
ssS'passed'
p133
(dp134
g129
I95
sg130
L2148L
sg131
S'2148'
p135
ssssVGranParadiso
p136
(dp137
S'summary_display'
p138
S'0%'
p139
sS'total_runs'
p140
L1L
sS'summary_score'
p141
I100
sS'results'
p142
(dp143
S'failed'
p144
(dp145
S'score'
p146
I50
sS'raw_score'
p147
L2164L
sS'display'
p148
S'2164'
p149
ssS'passed'
p150
(dp151
g146
I50
sg147
L0L
sg148
g66
ssssVOpera Mini
p152
(dp153
S'summary_display'
p154
S'97.5%'
p155
sS'total_runs'
p156
L26L
sS'summary_score'
p157
F97.504621072088725
sS'results'
p158
(dp159
S'failed'
p160
(dp161
S'score'
p162
I50
sS'raw_score'
p163
L54L
sS'display'
p164
S'54'
p165
ssS'passed'
p166
(dp167
g162
I95
sg163
L2110L
sg164
S'2110'
p168
ssssVAndroid
p169
(dp170
S'summary_display'
p171
S'97.8%'
p172
sS'total_runs'
p173
I56
sS'summary_score'
p174
F97.781885397412196
sS'results'
p175
(dp176
S'failed'
p177
(dp178
S'score'
p179
I50
sS'raw_score'
p180
I48
sS'display'
p181
S'48'
p182
ssS'passed'
p183
(dp184
g179
I95
sg180
I2116
sg181
S'2116'
p185
ssssVUzbl
p186
(dp187
S'summary_display'
p188
S'99.3%'
p189
sS'total_runs'
p190
L25L
sS'summary_score'
p191
F99.260628465804061
sS'results'
p192
(dp193
S'failed'
p194
(dp195
S'score'
p196
I75
sS'raw_score'
p197
L16L
sS'display'
p198
S'16'
p199
ssS'passed'
p200
(dp201
g196
I95
sg197
L2148L
sg198
S'2148'
p202
ssssVVodafone
p203
(dp204
S'summary_display'
p205
S'99.3%'
p206
sS'total_runs'
p207
L1L
sS'summary_score'
p208
F99.260628465804061
sS'results'
p209
(dp210
S'failed'
p211
(dp212
S'score'
p213
I75
sS'raw_score'
p214
L16L
sS'display'
p215
S'16'
p216
ssS'passed'
p217
(dp218
g213
I95
sg214
L2148L
sg215
S'2148'
p219
ssssVVienna
p220
(dp221
S'summary_display'
p222
S'99.3%'
p223
sS'total_runs'
p224
L2L
sS'summary_score'
p225
F99.260628465804061
sS'results'
p226
(dp227
S'failed'
p228
(dp229
S'score'
p230
I75
sS'raw_score'
p231
L16L
sS'display'
p232
S'16'
p233
ssS'passed'
p234
(dp235
g230
I95
sg231
L2148L
sg232
S'2148'
p236
ssssVSleipnir
p237
(dp238
S'summary_display'
p239
S'58.5%'
p240
sS'total_runs'
p241
L15L
sS'summary_score'
p242
F58.456561922365992
sS'results'
p243
(dp244
S'failed'
p245
(dp246
S'score'
p247
I50
sS'raw_score'
p248
L899L
sS'display'
p249
S'899'
p250
ssS'passed'
p251
(dp252
g247
I50
sg248
L1265L
sg249
S'1265'
p253
ssssVNetFront
p254
(dp255
S'summary_display'
p256
S'49.8%'
p257
sS'total_runs'
p258
L2L
sS'summary_score'
p259
F49.814471243042675
sS'results'
p260
(dp261
S'failed'
p262
(dp263
S'score'
p264
I50
sS'raw_score'
p265
L2164L
sS'display'
p266
S'2164'
p267
ssS'passed'
p268
(dp269
g264
I95
sg265
L2148L
sg266
S'2148'
p270
ssssVNokia
p271
(dp272
S'summary_display'
p273
S'0%'
p274
sS'total_runs'
p275
L7L
sS'summary_score'
p276
I100
sS'results'
p277
(dp278
S'failed'
p279
(dp280
S'score'
p281
I50
sS'raw_score'
p282
L2164L
sS'display'
p283
S'2164'
p284
ssS'passed'
p285
(dp286
g281
I50
sg282
L0L
sg283
g66
ssssVJasmine
p287
(dp288
S'summary_display'
p289
S'49.8%'
p290
sS'total_runs'
p291
L2L
sS'summary_score'
p292
F49.814471243042675
sS'results'
p293
(dp294
S'failed'
p295
(dp296
S'score'
p297
I50
sS'raw_score'
p298
L2164L
sS'display'
p299
S'2164'
p300
ssS'passed'
p301
(dp302
g297
I95
sg298
L2148L
sg299
S'2148'
p303
ssssVFluid
p304
(dp305
S'summary_display'
p306
S'99.3%'
p307
sS'total_runs'
p308
L1L
sS'summary_score'
p309
F99.260628465804061
sS'results'
p310
(dp311
S'failed'
p312
(dp313
S'score'
p314
I75
sS'raw_score'
p315
L16L
sS'display'
p316
S'16'
p317
ssS'passed'
p318
(dp319
g314
I95
sg315
L2148L
sg316
S'2148'
p320
ssssVK-Meleon
p321
(dp322
S'summary_display'
p323
S'0%'
p324
sS'total_runs'
p325
L8L
sS'summary_score'
p326
I100
sS'results'
p327
(dp328
S'failed'
p329
(dp330
S'score'
p331
I50
sS'raw_score'
p332
L2164L
sS'display'
p333
S'2164'
p334
ssS'passed'
p335
(dp336
g331
I50
sg332
L0L
sg333
g66
ssssVChrome Frame (IE 7)
p337
(dp338
S'summary_display'
p339
S'99.3%'
p340
sS'total_runs'
p341
L5L
sS'summary_score'
p342
F99.260628465804061
sS'results'
p343
(dp344
S'failed'
p345
(dp346
S'score'
p347
I75
sS'raw_score'
p348
L16L
sS'display'
p349
S'16'
p350
ssS'passed'
p351
(dp352
g347
I95
sg348
L2148L
sg349
S'2148'
p353
ssssVSafari
p354
(dp355
S'summary_display'
p356
S'99.3%'
p357
sS'total_runs'
p358
I997
sS'summary_score'
p359
F99.260628465804061
sS'results'
p360
(dp361
S'failed'
p362
(dp363
S'score'
p364
I75
sS'raw_score'
p365
I16
sS'display'
p366
S'16'
p367
ssS'passed'
p368
(dp369
g364
I95
sg365
I2148
sg366
S'2148'
p370
ssssVGaleon
p371
(dp372
S'summary_display'
p373
S'0%'
p374
sS'total_runs'
p375
L2L
sS'summary_score'
p376
I100
sS'results'
p377
(dp378
S'failed'
p379
(dp380
S'score'
p381
I50
sS'raw_score'
p382
L2164L
sS'display'
p383
S'2164'
p384
ssS'passed'
p385
(dp386
g381
I50
sg382
L0L
sg383
g66
ssssVNetNewsWire
p387
(dp388
S'summary_display'
p389
S'99.3%'
p390
sS'total_runs'
p391
L10L
sS'summary_score'
p392
F99.260628465804061
sS'results'
p393
(dp394
S'failed'
p395
(dp396
S'score'
p397
I75
sS'raw_score'
p398
L16L
sS'display'
p399
S'16'
p400
ssS'passed'
p401
(dp402
g397
I95
sg398
L2148L
sg399
S'2148'
p403
ssssVMaemo Browser
p404
(dp405
S'summary_display'
p406
S'99.3%'
p407
sS'total_runs'
p408
L1L
sS'summary_score'
p409
F99.260628465804061
sS'results'
p410
(dp411
S'failed'
p412
(dp413
S'score'
p414
I75
sS'raw_score'
p415
L16L
sS'display'
p416
S'16'
p417
ssS'passed'
p418
(dp419
g414
I95
sg415
L2148L
sg416
S'2148'
p420
ssssVPalm Pre
p421
(dp422
S'summary_display'
p423
S'99.3%'
p424
sS'total_runs'
p425
I9
sS'summary_score'
p426
F99.260628465804061
sS'results'
p427
(dp428
S'failed'
p429
(dp430
S'score'
p431
I75
sS'raw_score'
p432
I16
sS'display'
p433
S'16'
p434
ssS'passed'
p435
(dp436
g431
I95
sg432
I2148
sg433
S'2148'
p437
ssssVNetscape
p438
(dp439
S'summary_display'
p440
S'0%'
p441
sS'total_runs'
p442
L1L
sS'summary_score'
p443
I100
sS'results'
p444
(dp445
S'failed'
p446
(dp447
S'score'
p448
I50
sS'raw_score'
p449
L2164L
sS'display'
p450
S'2164'
p451
ssS'passed'
p452
(dp453
g448
I50
sg449
L0L
sg450
g66
ssssVIceweasel
p454
(dp455
S'summary_display'
p456
S'0%'
p457
sS'total_runs'
p458
L49L
sS'summary_score'
p459
I100
sS'results'
p460
(dp461
S'failed'
p462
(dp463
S'score'
p464
I50
sS'raw_score'
p465
L2164L
sS'display'
p466
S'2164'
p467
ssS'passed'
p468
(dp469
g464
I50
sg465
L0L
sg466
g66
ssssVKonqueror
p470
(dp471
S'summary_display'
p472
S'0%'
p473
sS'total_runs'
p474
L62L
sS'summary_score'
p475
I100
sS'results'
p476
(dp477
S'failed'
p478
(dp479
S'score'
p480
I50
sS'raw_score'
p481
L2164L
sS'display'
p482
S'2164'
p483
ssS'passed'
p484
(dp485
g480
I50
sg481
L0L
sg482
g66
ssssVKazehakase
p486
(dp487
S'summary_display'
p488
S'0%'
p489
sS'total_runs'
p490
L1L
sS'summary_score'
p491
I100
sS'results'
p492
(dp493
S'failed'
p494
(dp495
S'score'
p496
I50
sS'raw_score'
p497
L2164L
sS'display'
p498
S'2164'
p499
ssS'passed'
p500
(dp501
g496
I50
sg497
L0L
sg498
g66
ssssVOpera
p502
(dp503
S'summary_display'
p504
S'97.5%'
p505
sS'total_runs'
p506
I1288
sS'summary_score'
p507
F97.504621072088725
sS'results'
p508
(dp509
S'failed'
p510
(dp511
S'score'
p512
I50
sS'raw_score'
p513
I54
sS'display'
p514
S'54'
p515
ssS'passed'
p516
(dp517
g512
I95
sg513
I2110
sg514
S'2110'
p518
ssssVAvant
p519
(dp520
S'summary_display'
p521
S'0%'
p522
sS'total_runs'
p523
L10L
sS'summary_score'
p524
I100
sS'results'
p525
(dp526
S'failed'
p527
(dp528
S'score'
p529
I50
sS'raw_score'
p530
L1816L
sS'display'
p531
S'1816'
p532
ssS'passed'
p533
(dp534
g529
I50
sg530
L0L
sg531
g66
ssssVQtWeb
p535
(dp536
S'summary_display'
p537
S'97.8%'
p538
sS'total_runs'
p539
L1L
sS'summary_score'
p540
F97.781885397412196
sS'results'
p541
(dp542
S'failed'
p543
(dp544
S'score'
p545
I50
sS'raw_score'
p546
L48L
sS'display'
p547
S'48'
p548
ssS'passed'
p549
(dp550
g545
I95
sg546
L2116L
sg547
S'2116'
p551
ssssVMicroB
p552
(dp553
S'summary_display'
p554
S'0%'
p555
sS'total_runs'
p556
L1L
sS'summary_score'
p557
I100
sS'results'
p558
(dp559
S'failed'
p560
(dp561
S'score'
p562
I50
sS'raw_score'
p563
L2164L
sS'display'
p564
S'2164'
p565
ssS'passed'
p566
(dp567
g562
I50
sg563
L0L
sg564
g66
ssssVEpiphany
p568
(dp569
S'summary_display'
p570
S'0%'
p571
sS'total_runs'
p572
L7L
sS'summary_score'
p573
I100
sS'results'
p574
(dp575
S'failed'
p576
(dp577
S'score'
p578
I50
sS'raw_score'
p579
L2164L
sS'display'
p580
S'2164'
p581
ssS'passed'
p582
(dp583
g578
I50
sg579
L0L
sg580
g66
ssssViPhone
p584
(dp585
S'summary_display'
p586
S'97.8%'
p587
sS'total_runs'
p588
L121L
sS'summary_score'
p589
F97.781885397412196
sS'results'
p590
(dp591
S'failed'
p592
(dp593
S'score'
p594
I50
sS'raw_score'
p595
L48L
sS'display'
p596
S'48'
p597
ssS'passed'
p598
(dp599
g594
I95
sg595
L2116L
sg596
S'2116'
p600
ssssVIron
p601
(dp602
S'summary_display'
p603
S'99.3%'
p604
sS'total_runs'
p605
L71L
sS'summary_score'
p606
F99.260628465804061
sS'results'
p607
(dp608
S'failed'
p609
(dp610
S'score'
p611
I75
sS'raw_score'
p612
L16L
sS'display'
p613
S'16'
p614
ssS'passed'
p615
(dp616
g611
I95
sg612
L2148L
sg613
S'2148'
p617
ssssVShiira
p618
(dp619
S'summary_display'
p620
S'99.3%'
p621
sS'total_runs'
p622
L1L
sS'summary_score'
p623
F99.260628465804061
sS'results'
p624
(dp625
S'failed'
p626
(dp627
S'score'
p628
I75
sS'raw_score'
p629
L16L
sS'display'
p630
S'16'
p631
ssS'passed'
p632
(dp633
g628
I95
sg629
L2148L
sg630
S'2148'
p634
ssssVMidori
p635
(dp636
S'summary_display'
p637
S'99.3%'
p638
sS'total_runs'
p639
L18L
sS'summary_score'
p640
F99.260628465804061
sS'results'
p641
(dp642
S'failed'
p643
(dp644
S'score'
p645
I75
sS'raw_score'
p646
L16L
sS'display'
p647
S'16'
p648
ssS'passed'
p649
(dp650
g645
I95
sg646
L2148L
sg647
S'2148'
p651
ssssVOmniWeb
p652
(dp653
S'summary_display'
p654
S'99.3%'
p655
sS'total_runs'
p656
L5L
sS'summary_score'
p657
F99.260628465804061
sS'results'
p658
(dp659
S'failed'
p660
(dp661
S'score'
p662
I75
sS'raw_score'
p663
L16L
sS'display'
p664
S'16'
p665
ssS'passed'
p666
(dp667
g662
I95
sg663
L2148L
sg664
S'2148'
p668
ssssVIE
p669
(dp670
S'summary_display'
p671
S'58.5%'
p672
sS'total_runs'
p673
I719
sS'summary_score'
p674
F58.456561922365992
sS'results'
p675
(dp676
S'failed'
p677
(dp678
S'score'
p679
I50
sS'raw_score'
p680
I899
sS'display'
p681
S'899'
p682
ssS'passed'
p683
(dp684
g679
I50
sg680
I1265
sg681
S'1265'
p685
ssssVFirefox
p686
(dp687
S'summary_display'
p688
S'99.3%'
p689
sS'total_runs'
p690
I4612
sS'summary_score'
p691
F99.260628465804061
sS'results'
p692
(dp693
S'failed'
p694
(dp695
S'score'
p696
I75
sS'raw_score'
p697
I16
sS'display'
p698
S'16'
p699
ssS'passed'
p700
(dp701
g696
I95
sg697
I2148
sg698
S'2148'
p702
ssssVLunascape
p703
(dp704
S'summary_display'
p705
S'99.3%'
p706
sS'total_runs'
p707
L19L
sS'summary_score'
p708
F99.260628465804061
sS'results'
p709
(dp710
S'failed'
p711
(dp712
S'score'
p713
I75
sS'raw_score'
p714
L16L
sS'display'
p715
S'16'
p716
ssS'passed'
p717
(dp718
g713
I95
sg714
L2148L
sg715
S'2148'
p719
ssssVSwiftfox
p720
(dp721
S'summary_display'
p722
S'99.3%'
p723
sS'total_runs'
p724
L10L
sS'summary_score'
p725
F99.260628465804061
sS'results'
p726
(dp727
S'failed'
p728
(dp729
S'score'
p730
I75
sS'raw_score'
p731
L16L
sS'display'
p732
S'16'
p733
ssS'passed'
p734
(dp735
g730
I95
sg731
L2148L
sg732
S'2148'
p736
ssssVCrazy Browser
p737
(dp738
S'summary_display'
p739
S'0%'
p740
sS'total_runs'
p741
L1L
sS'summary_score'
p742
I100
sS'results'
p743
(dp744
S'failed'
p745
(dp746
S'score'
p747
I50
sS'raw_score'
p748
L1816L
sS'display'
p749
S'1816'
p750
ssS'passed'
p751
(dp752
g747
I50
sg748
L0L
sg749
g66
ssssVWii
p753
(dp754
S'summary_display'
p755
S'0%'
p756
sS'total_runs'
p757
L2L
sS'summary_score'
p758
I100
sS'results'
p759
(dp760
S'failed'
p761
(dp762
S'score'
p763
I50
sS'raw_score'
p764
L2164L
sS'display'
p765
S'2164'
p766
ssS'passed'
p767
(dp768
g763
I50
sg764
L0L
sg765
g66
ssssVFennec
p769
(dp770
S'summary_display'
p771
S'99.3%'
p772
sS'total_runs'
p773
L6L
sS'summary_score'
p774
F99.260628465804061
sS'results'
p775
(dp776
S'failed'
p777
(dp778
S'score'
p779
I75
sS'raw_score'
p780
L16L
sS'display'
p781
S'16'
p782
ssS'passed'
p783
(dp784
g779
I95
sg780
L2148L
sg781
S'2148'
p785
ssssVChrome Frame (IE 6)
p786
(dp787
S'summary_display'
p788
S'99.3%'
p789
sS'total_runs'
p790
L2L
sS'summary_score'
p791
F99.260628465804061
sS'results'
p792
(dp793
S'failed'
p794
(dp795
S'score'
p796
I75
sS'raw_score'
p797
L16L
sS'display'
p798
S'16'
p799
ssS'passed'
p800
(dp801
g796
I95
sg797
L2148L
sg798
S'2148'
p802
ssssVFirefox (Namoroka)
p803
(dp804
S'summary_display'
p805
S'99.3%'
p806
sS'total_runs'
p807
L47L
sS'summary_score'
p808
F99.260628465804061
sS'results'
p809
(dp810
S'failed'
p811
(dp812
S'score'
p813
I75
sS'raw_score'
p814
L16L
sS'display'
p815
S'16'
p816
ssS'passed'
p817
(dp818
g813
I95
sg814
L2148L
sg815
S'2148'
p819
ssssVArora
p820
(dp821
S'summary_display'
p822
S'97.8%'
p823
sS'total_runs'
p824
L24L
sS'summary_score'
p825
F97.781885397412196
sS'results'
p826
(dp827
S'failed'
p828
(dp829
S'score'
p830
I50
sS'raw_score'
p831
L48L
sS'display'
p832
S'48'
p833
ssS'passed'
p834
(dp835
g830
I95
sg831
L2116L
sg832
S'2116'
p836
ssssVFlock
p837
(dp838
S'summary_display'
p839
S'0%'
p840
sS'total_runs'
p841
L8L
sS'summary_score'
p842
I100
sS'results'
p843
(dp844
S'failed'
p845
(dp846
S'score'
p847
I50
sS'raw_score'
p848
L2164L
sS'display'
p849
S'2164'
p850
ssS'passed'
p851
(dp852
g847
I50
sg848
L0L
sg849
g66
ssssViCab
p853
(dp854
S'summary_display'
p855
S'99.3%'
p856
sS'total_runs'
p857
L1L
sS'summary_score'
p858
F99.260628465804061
sS'results'
p859
(dp860
S'failed'
p861
(dp862
S'score'
p863
I75
sS'raw_score'
p864
L16L
sS'display'
p865
S'16'
p866
ssS'passed'
p867
(dp868
g863
I95
sg864
L2148L
sg865
S'2148'
p869
ssssVChrome Frame (IE 8)
p870
(dp871
S'summary_display'
p872
S'99.3%'
p873
sS'total_runs'
p874
L12L
sS'summary_score'
p875
F99.260628465804061
sS'results'
p876
(dp877
S'failed'
p878
(dp879
S'score'
p880
I75
sS'raw_score'
p881
L16L
sS'display'
p882
S'16'
p883
ssS'passed'
p884
(dp885
g880
I95
sg881
L2148L
sg882
S'2148'
p886
ssss.