(dp0
S'Chrome 4'
p1
(dp2
S'total_runs'
p3
L16L
sS'score'
p4
I10
sS'results'
p5
(dp6
S'failed'
p7
(dp8
g4
I8
sS'median'
p9
L16L
sS'display'
p10
L16L
ssS'passed'
p11
(dp12
g4
I10
sg9
L2148L
sg10
L2148L
sssg10
S'99.3%'
p13
ssS'Chrome 2'
p14
(dp15
S'total_runs'
p16
L5L
sS'score'
p17
I10
sS'results'
p18
(dp19
S'failed'
p20
(dp21
g17
I8
sS'median'
p22
L16L
sS'display'
p23
L16L
ssS'passed'
p24
(dp25
g17
I10
sg22
L2148L
sg23
L2148L
sssg23
S'99.3%'
p26
ssS'Chrome 3'
p27
(dp28
S'total_runs'
p29
L3L
sS'score'
p30
I10
sS'results'
p31
(dp32
S'failed'
p33
(dp34
g30
I8
sS'median'
p35
L16L
sS'display'
p36
L16L
ssS'passed'
p37
(dp38
g30
I10
sg35
L2148L
sg36
L2148L
sssg36
S'99.3%'
p39
ssS'Opera 9.64'
p40
(dp41
S'total_runs'
p42
L1L
sS'score'
p43
I0
sS'results'
p44
(dp45
S'failed'
p46
(dp47
g43
I6
sS'median'
p48
L2164L
sS'display'
p49
L2164L
ssS'passed'
p50
(dp51
g43
I7
sg48
L0L
sg49
L0L
sssg49
S'0.0%'
p52
ssS'IE 6'
p53
(dp54
S'total_runs'
p55
L2L
sS'score'
p56
I1
sS'results'
p57
(dp58
S'failed'
p59
(dp60
g56
I5
sS'median'
p61
L1816L
sS'display'
p62
L1816L
ssS'passed'
p63
(dp64
g56
I5
sg61
L0L
sg62
L0L
sssg62
S'0%'
p65
ssS'Safari 3.2'
p66
(dp67
S'total_runs'
p68
L2L
sS'score'
p69
I8
sS'results'
p70
(dp71
S'failed'
p72
(dp73
g69
I6
sS'median'
p74
L419L
sS'display'
p75
L419L
ssS'passed'
p76
(dp77
g69
I7
sg74
L1745L
sg75
L1745L
sssg75
S'80.6%'
p78
ssS'Safari 4.0'
p79
(dp80
S'total_runs'
p81
L17L
sS'score'
p82
I10
sS'results'
p83
(dp84
S'failed'
p85
(dp86
g82
I8
sS'median'
p87
L16L
sS'display'
p88
L16L
ssS'passed'
p89
(dp90
g82
I10
sg87
L2148L
sg88
L2148L
sssg88
S'99.3%'
p91
ssS'IE 8'
p92
(dp93
S'total_runs'
p94
L7L
sS'score'
p95
I6
sS'results'
p96
(dp97
S'failed'
p98
(dp99
g95
I5
sS'median'
p100
L899L
sS'display'
p101
L899L
ssS'passed'
p102
(dp103
g95
I5
sg100
L1265L
sg101
L1265L
sssg101
S'58.5%'
p104
ssS'Opera 10'
p105
(dp106
S'total_runs'
p107
L7L
sS'score'
p108
I10
sS'results'
p109
(dp110
S'failed'
p111
(dp112
g108
I5
sS'median'
p113
L54L
sS'display'
p114
L54L
ssS'passed'
p115
(dp116
g108
I10
sg113
L2110L
sg114
L2110L
sssg114
S'97.5%'
p117
ssS'iPhone 2.2'
p118
(dp119
S'total_runs'
p120
L2L
sS'score'
p121
I8
sS'results'
p122
(dp123
S'failed'
p124
(dp125
g121
I5
sS'median'
p126
L419L
sS'display'
p127
L419L
ssS'passed'
p128
(dp129
g121
I5
sg126
L1745L
sg127
L1745L
sssg127
S'80.6%'
p130
ssS'Firefox 3.0'
p131
(dp132
S'total_runs'
p133
L7L
sS'score'
p134
I1
sS'results'
p135
(dp136
S'failed'
p137
(dp138
g134
I5
sS'median'
p139
L2164L
sS'display'
p140
L2164L
ssS'passed'
p141
(dp142
g134
I5
sg139
L0L
sg140
L0L
sssg140
S'0%'
p143
ssS'Firefox 3.5'
p144
(dp145
S'total_runs'
p146
L40L
sS'score'
p147
I10
sS'results'
p148
(dp149
S'failed'
p150
(dp151
g147
I8
sS'median'
p152
L16L
sS'display'
p153
L16L
ssS'passed'
p154
(dp155
g147
I10
sg152
L2148L
sg153
L2148L
sssg153
S'99.3%'
p156
ssS'IE 7'
p157
(dp158
S'total_runs'
p159
L3L
sS'score'
p160
I1
sS'results'
p161
(dp162
S'failed'
p163
(dp164
g160
I5
sS'median'
p165
L1816L
sS'display'
p166
L1816L
ssS'passed'
p167
(dp168
g160
I5
sg165
L0L
sg166
L0L
sssg166
S'0%'
p169
ss.