(dp0
S'Firefox (Namoroka) 3'
p1
(dp2
S'total_runs'
p3
L1L
sS'score'
p4
I10
sS'results'
p5
(dp6
S'failed'
p7
(dp8
g4
I8
sS'median'
p9
I16
sS'display'
p10
I16
ssS'passed'
p11
(dp12
g4
I10
sg9
I2148
sg10
I2148
sssg10
S'99.3%'
p13
ssS'IE 8'
p14
(dp15
S'total_runs'
p16
L7L
sS'score'
p17
I6
sS'results'
p18
(dp19
S'failed'
p20
(dp21
g17
I5
sS'median'
p22
L899L
sS'display'
p23
L899L
ssS'passed'
p24
(dp25
g17
I5
sg22
L1265L
sg23
L1265L
sssg23
S'58.5%'
p26
ssS'Opera 10'
p27
(dp28
S'total_runs'
p29
L7L
sS'score'
p30
I10
sS'results'
p31
(dp32
S'failed'
p33
(dp34
g30
I5
sS'median'
p35
L54L
sS'display'
p36
L54L
ssS'passed'
p37
(dp38
g30
I10
sg35
L2110L
sg36
L2110L
sssg36
S'97.5%'
p39
ssS'Midori 0'
p40
(dp41
S'total_runs'
p42
L1L
sS'score'
p43
I10
sS'results'
p44
(dp45
S'failed'
p46
(dp47
g43
I8
sS'median'
p48
I16
sS'display'
p49
I16
ssS'passed'
p50
(dp51
g43
I10
sg48
I2148
sg49
I2148
sssg49
S'99.3%'
p52
ssS'IE 6'
p53
(dp54
S'total_runs'
p55
L2L
sS'score'
p56
I1
sS'results'
p57
(dp58
S'failed'
p59
(dp60
g56
I5
sS'median'
p61
L1816L
sS'display'
p62
L1816L
ssS'passed'
p63
(dp64
g56
I5
sg61
L0L
sg62
L0L
sssg62
S'0%'
p65
ssS'IE 7'
p66
(dp67
S'total_runs'
p68
L3L
sS'score'
p69
I1
sS'results'
p70
(dp71
S'failed'
p72
(dp73
g69
I5
sS'median'
p74
L1816L
sS'display'
p75
L1816L
ssS'passed'
p76
(dp77
g69
I5
sg74
L0L
sg75
L0L
sssg75
S'0%'
p78
ssS'Firefox 2'
p79
(dp80
S'total_runs'
p81
L1L
sS'score'
p82
I10
sS'results'
p83
(dp84
S'failed'
p85
(dp86
g82
I8
sS'median'
p87
I16
sS'display'
p88
I16
ssS'passed'
p89
(dp90
g82
I10
sg87
I2148
sg88
I2148
sssg88
S'99.3%'
p91
ssS'Firefox 3'
p92
(dp93
S'total_runs'
p94
L47L
sS'score'
p95
I10
sS'results'
p96
(dp97
S'failed'
p98
(dp99
g95
I8
sS'median'
p100
L16L
sS'display'
p101
L16L
ssS'passed'
p102
(dp103
g95
I10
sg100
L2148L
sg101
L2148L
sssg101
S'99.3%'
p104
ssS'Chrome 4'
p105
(dp106
S'total_runs'
p107
L16L
sS'score'
p108
I10
sS'results'
p109
(dp110
S'failed'
p111
(dp112
g108
I8
sS'median'
p113
L16L
sS'display'
p114
L16L
ssS'passed'
p115
(dp116
g108
I10
sg113
L2148L
sg114
L2148L
sssg114
S'99.3%'
p117
ssS'Chrome 2'
p118
(dp119
S'total_runs'
p120
L5L
sS'score'
p121
I10
sS'results'
p122
(dp123
S'failed'
p124
(dp125
g121
I8
sS'median'
p126
L16L
sS'display'
p127
L16L
ssS'passed'
p128
(dp129
g121
I10
sg126
L2148L
sg127
L2148L
sssg127
S'99.3%'
p130
ssS'Chrome 3'
p131
(dp132
S'total_runs'
p133
L3L
sS'score'
p134
I10
sS'results'
p135
(dp136
S'failed'
p137
(dp138
g134
I8
sS'median'
p139
L16L
sS'display'
p140
L16L
ssS'passed'
p141
(dp142
g134
I10
sg139
L2148L
sg140
L2148L
sssg140
S'99.3%'
p143
ssS'Chrome 1'
p144
(dp145
S'total_runs'
p146
L3L
sS'score'
p147
I8
sS'results'
p148
(dp149
S'failed'
p150
(dp151
g147
I6
sS'median'
p152
L419L
sS'display'
p153
L419L
ssS'passed'
p154
(dp155
g147
I7
sg152
L1745L
sg153
L1745L
sssg153
S'80.6%'
p156
ssS'NetNewsWire 3'
p157
(dp158
S'total_runs'
p159
L1L
sS'score'
p160
I10
sS'results'
p161
(dp162
S'failed'
p163
(dp164
g160
I8
sS'median'
p165
I16
sS'display'
p166
I16
ssS'passed'
p167
(dp168
g160
I10
sg165
I2148
sg166
I2148
sssg166
S'99.3%'
p169
ssS'Safari 3'
p170
(dp171
S'total_runs'
p172
L2L
sS'score'
p173
I8
sS'results'
p174
(dp175
S'failed'
p176
(dp177
g173
I6
sS'median'
p178
L419L
sS'display'
p179
L419L
ssS'passed'
p180
(dp181
g173
I7
sg178
L1745L
sg179
L1745L
sssg179
S'80.6%'
p182
ssS'Safari 4'
p183
(dp184
S'total_runs'
p185
L17L
sS'score'
p186
I10
sS'results'
p187
(dp188
S'failed'
p189
(dp190
g186
I8
sS'median'
p191
L16L
sS'display'
p192
L16L
ssS'passed'
p193
(dp194
g186
I10
sg191
L2148L
sg192
L2148L
sssg192
S'99.3%'
p195
ssS'iPhone 3'
p196
(dp197
S'total_runs'
p198
L6L
sS'score'
p199
I10
sS'results'
p200
(dp201
S'failed'
p202
(dp203
g199
I5
sS'median'
p204
I48
sS'display'
p205
I48
ssS'passed'
p206
(dp207
g199
I10
sg204
I2116
sg205
I2116
sssg205
S'97.8%'
p208
ssS'iPhone 2'
p209
(dp210
S'total_runs'
p211
L2L
sS'score'
p212
I8
sS'results'
p213
(dp214
S'failed'
p215
(dp216
g212
I5
sS'median'
p217
I419
sS'display'
p218
I419
ssS'passed'
p219
(dp220
g212
I5
sg217
I1745
sg218
I1745
sssg218
S'80.6%'
p221
ssS'Firefox (Shiretoko) 3'
p222
(dp223
S'total_runs'
p224
L2L
sS'score'
p225
I10
sS'results'
p226
(dp227
S'failed'
p228
(dp229
g225
I8
sS'median'
p230
I16
sS'display'
p231
I16
ssS'passed'
p232
(dp233
g225
I10
sg230
I2148
sg231
I2148
sssg231
S'99.3%'
p234
ssS'Konqueror 3'
p235
(dp236
S'total_runs'
p237
L1L
sS'score'
p238
I1
sS'results'
p239
(dp240
S'failed'
p241
(dp242
g238
I5
sS'median'
p243
I2164
sS'display'
p244
I2164
ssS'passed'
p245
(dp246
g238
I5
sg243
I0
sg244
I0
sssg244
S'0%'
p247
ssS'Firefox (Minefield) 3'
p248
(dp249
S'total_runs'
p250
L2L
sS'score'
p251
I10
sS'results'
p252
(dp253
S'failed'
p254
(dp255
g251
I8
sS'median'
p256
I16
sS'display'
p257
I16
ssS'passed'
p258
(dp259
g251
I10
sg256
I2148
sg257
I2148
sssg257
S'99.3%'
p260
ssS'Camino 1'
p261
(dp262
S'total_runs'
p263
L2L
sS'score'
p264
I1
sS'results'
p265
(dp266
S'failed'
p267
(dp268
g264
I5
sS'median'
p269
I2164
sS'display'
p270
I2164
ssS'passed'
p271
(dp272
g264
I5
sg269
I0
sg270
I0
sssg270
S'0%'
p273
ssS'Android 1'
p274
(dp275
S'total_runs'
p276
L2L
sS'score'
p277
I10
sS'results'
p278
(dp279
S'failed'
p280
(dp281
g277
I5
sS'median'
p282
L48L
sS'display'
p283
L48L
ssS'passed'
p284
(dp285
g277
I10
sg282
L2116L
sg283
L2116L
sssg283
S'97.8%'
p286
ssS'Opera 9'
p287
(dp288
S'total_runs'
p289
L1L
sS'score'
p290
I0
sS'results'
p291
(dp292
S'failed'
p293
(dp294
g290
I6
sS'median'
p295
L2164L
sS'display'
p296
L2164L
ssS'passed'
p297
(dp298
g290
I7
sg295
L0L
sg296
L0L
sssg296
S'0.0%'
p299
ss.