(dp0
VFirefox
p1
(dp2
S'total_runs'
p3
L22L
sS'score'
p4
I10
sS'results'
p5
(dp6
S'failed'
p7
(dp8
g4
I8
sS'median'
p9
L16L
sS'display'
p10
L16L
ssS'passed'
p11
(dp12
g4
I10
sg9
L2148L
sg10
L2148L
sssg10
S'99.3%'
p13
ssVChrome
p14
(dp15
S'total_runs'
p16
L13L
sS'score'
p17
I10
sS'results'
p18
(dp19
S'failed'
p20
(dp21
g17
I8
sS'median'
p22
L16L
sS'display'
p23
L16L
ssS'passed'
p24
(dp25
g17
I10
sg22
L2148L
sg23
L2148L
sssg23
S'99.3%'
p26
ssVOpera
p27
(dp28
S'total_runs'
p29
L4L
sS'score'
p30
I10
sS'results'
p31
(dp32
S'failed'
p33
(dp34
g30
I6
sS'median'
p35
L54L
sS'display'
p36
L54L
ssS'passed'
p37
(dp38
g30
I10
sg35
L2110L
sg36
L2110L
sssg36
S'97.5%'
p39
ssVSafari
p40
(dp41
S'total_runs'
p42
L5L
sS'score'
p43
I10
sS'results'
p44
(dp45
S'failed'
p46
(dp47
g43
I6
sS'median'
p48
L48L
sS'display'
p49
L48L
ssS'passed'
p50
(dp51
g43
I10
sg48
L2116L
sg49
L2116L
sssg49
S'97.8%'
p52
ssVAndroid
p53
(dp54
S'total_runs'
p55
L1L
sS'score'
p56
I10
sS'results'
p57
(dp58
S'failed'
p59
(dp60
g56
I6
sS'median'
p61
L48L
sS'display'
p62
L48L
ssS'passed'
p63
(dp64
g56
I10
sg61
L2116L
sg62
L2116L
sssg62
S'97.8%'
p65
ssVIE
p66
(dp67
S'total_runs'
p68
L4L
sS'score'
p69
I0
sS'results'
p70
(dp71
S'failed'
p72
(dp73
g69
I6
sS'median'
p74
L1816L
sS'display'
p75
L1816L
ssS'passed'
p76
(dp77
g69
I7
sg74
L0L
sg75
L0L
sssg75
S'0.0%'
p78
ss.