(dp0
S'IE 6.0'
p1
(dp2
S'total_runs'
p3
L2L
sS'score'
p4
I1
sS'results'
p5
(dp6
S'failed'
p7
(dp8
g4
I5
sS'median'
p9
L1816L
sS'display'
p10
L1816L
ssS'passed'
p11
(dp12
g4
I5
sg9
L0L
sg10
L0L
sssg10
S'0%'
p13
ssS'Konqueror 3.5'
p14
(dp15
S'total_runs'
p16
L1L
sS'score'
p17
I1
sS'results'
p18
(dp19
S'failed'
p20
(dp21
g17
I5
sS'median'
p22
I2164
sS'display'
p23
I2164
ssS'passed'
p24
(dp25
g17
I5
sg22
I0
sg23
I0
sssg23
S'0%'
p26
ssS'Firefox 2.0'
p27
(dp28
S'total_runs'
p29
L1L
sS'score'
p30
I10
sS'results'
p31
(dp32
S'failed'
p33
(dp34
g30
I8
sS'median'
p35
I16
sS'display'
p36
I16
ssS'passed'
p37
(dp38
g30
I10
sg35
I2148
sg36
I2148
sssg36
S'99.3%'
p39
ssS'Firefox (Shiretoko) 3.5'
p40
(dp41
S'total_runs'
p42
L2L
sS'score'
p43
I10
sS'results'
p44
(dp45
S'failed'
p46
(dp47
g43
I8
sS'median'
p48
I16
sS'display'
p49
I16
ssS'passed'
p50
(dp51
g43
I10
sg48
I2148
sg49
I2148
sssg49
S'99.3%'
p52
ssS'IE 7.0'
p53
(dp54
S'total_runs'
p55
L3L
sS'score'
p56
I1
sS'results'
p57
(dp58
S'failed'
p59
(dp60
g56
I5
sS'median'
p61
L1816L
sS'display'
p62
L1816L
ssS'passed'
p63
(dp64
g56
I5
sg61
L0L
sg62
L0L
sssg62
S'0%'
p65
ssS'Opera 10.00'
p66
(dp67
S'total_runs'
p68
L7L
sS'score'
p69
I10
sS'results'
p70
(dp71
S'failed'
p72
(dp73
g69
I5
sS'median'
p74
L54L
sS'display'
p75
L54L
ssS'passed'
p76
(dp77
g69
I10
sg74
L2110L
sg75
L2110L
sssg75
S'97.5%'
p78
ssS'Opera 9.64'
p79
(dp80
S'total_runs'
p81
L2L
sS'score'
p82
I1
sS'results'
p83
(dp84
S'failed'
p85
(dp86
g82
I5
sS'median'
p87
L2164L
sS'display'
p88
L2164L
ssS'passed'
p89
(dp90
g82
I5
sg87
L0L
sg88
L0L
sssg88
S'0%'
p91
ssS'iPhone 3.0'
p92
(dp93
S'total_runs'
p94
L1L
sS'score'
p95
I10
sS'results'
p96
(dp97
S'failed'
p98
(dp99
g95
I5
sS'median'
p100
I48
sS'display'
p101
I48
ssS'passed'
p102
(dp103
g95
I10
sg100
I2116
sg101
I2116
sssg101
S'97.8%'
p104
ssS'iPhone 3.1'
p105
(dp106
S'total_runs'
p107
L5L
sS'score'
p108
I10
sS'results'
p109
(dp110
S'failed'
p111
(dp112
g108
I5
sS'median'
p113
I48
sS'display'
p114
I48
ssS'passed'
p115
(dp116
g108
I10
sg113
I2116
sg114
I2116
sssg114
S'97.8%'
p117
ssS'Camino 1.6'
p118
(dp119
S'total_runs'
p120
L2L
sS'score'
p121
I1
sS'results'
p122
(dp123
S'failed'
p124
(dp125
g121
I5
sS'median'
p126
I2164
sS'display'
p127
I2164
ssS'passed'
p128
(dp129
g121
I5
sg126
I0
sg127
I0
sssg127
S'0%'
p130
ssS'iPhone 2.2'
p131
(dp132
S'total_runs'
p133
L3L
sS'score'
p134
I8
sS'results'
p135
(dp136
S'failed'
p137
(dp138
g134
I5
sS'median'
p139
L419L
sS'display'
p140
L419L
ssS'passed'
p141
(dp142
g134
I5
sg139
L1745L
sg140
L1745L
sssg140
S'80.6%'
p143
ssS'Firefox 3.0'
p144
(dp145
S'total_runs'
p146
L8L
sS'score'
p147
I1
sS'results'
p148
(dp149
S'failed'
p150
(dp151
g147
I5
sS'median'
p152
L2164L
sS'display'
p153
L2164L
ssS'passed'
p154
(dp155
g147
I5
sg152
L0L
sg153
L0L
sssg153
S'0%'
p156
ssS'Firefox 3.5'
p157
(dp158
S'total_runs'
p159
L47L
sS'score'
p160
I10
sS'results'
p161
(dp162
S'failed'
p163
(dp164
g160
I8
sS'median'
p165
L16L
sS'display'
p166
L16L
ssS'passed'
p167
(dp168
g160
I10
sg165
L2148L
sg166
L2148L
sssg166
S'99.3%'
p169
ssS'Chrome 3.0'
p170
(dp171
S'total_runs'
p172
L4L
sS'score'
p173
I10
sS'results'
p174
(dp175
S'failed'
p176
(dp177
g173
I8
sS'median'
p178
L16L
sS'display'
p179
L16L
ssS'passed'
p180
(dp181
g173
I10
sg178
L2148L
sg179
L2148L
sssg179
S'99.3%'
p182
ssS'Chrome 2.0'
p183
(dp184
S'total_runs'
p185
L5L
sS'score'
p186
I10
sS'results'
p187
(dp188
S'failed'
p189
(dp190
g186
I8
sS'median'
p191
L16L
sS'display'
p192
L16L
ssS'passed'
p193
(dp194
g186
I10
sg191
L2148L
sg192
L2148L
sssg192
S'99.3%'
p195
ssS'Android 1.5'
p196
(dp197
S'total_runs'
p198
L2L
sS'score'
p199
I10
sS'results'
p200
(dp201
S'failed'
p202
(dp203
g199
I5
sS'median'
p204
L48L
sS'display'
p205
L48L
ssS'passed'
p206
(dp207
g199
I10
sg204
L2116L
sg205
L2116L
sssg205
S'97.8%'
p208
ssS'Chrome 4.0'
p209
(dp210
S'total_runs'
p211
L19L
sS'score'
p212
I10
sS'results'
p213
(dp214
S'failed'
p215
(dp216
g212
I8
sS'median'
p217
L16L
sS'display'
p218
L16L
ssS'passed'
p219
(dp220
g212
I10
sg217
L2148L
sg218
L2148L
sssg218
S'99.3%'
p221
ssS'Chrome 1.0'
p222
(dp223
S'total_runs'
p224
L3L
sS'score'
p225
I8
sS'results'
p226
(dp227
S'failed'
p228
(dp229
g225
I6
sS'median'
p230
L419L
sS'display'
p231
L419L
ssS'passed'
p232
(dp233
g225
I7
sg230
L1745L
sg231
L1745L
sssg231
S'80.6%'
p234
ssS'Opera 10.10'
p235
(dp236
S'total_runs'
p237
L1L
sS'score'
p238
I10
sS'results'
p239
(dp240
S'failed'
p241
(dp242
g238
I5
sS'median'
p243
I54
sS'display'
p244
I54
ssS'passed'
p245
(dp246
g238
I10
sg243
I2110
sg244
I2110
sssg244
S'97.5%'
p247
ssS'Midori 0.1'
p248
(dp249
S'total_runs'
p250
L1L
sS'score'
p251
I10
sS'results'
p252
(dp253
S'failed'
p254
(dp255
g251
I8
sS'median'
p256
I16
sS'display'
p257
I16
ssS'passed'
p258
(dp259
g251
I10
sg256
I2148
sg257
I2148
sssg257
S'99.3%'
p260
ssS'Safari 3.2'
p261
(dp262
S'total_runs'
p263
L2L
sS'score'
p264
I8
sS'results'
p265
(dp266
S'failed'
p267
(dp268
g264
I6
sS'median'
p269
L419L
sS'display'
p270
L419L
ssS'passed'
p271
(dp272
g264
I7
sg269
L1745L
sg270
L1745L
sssg270
S'80.6%'
p273
ssS'IE 8.0'
p274
(dp275
S'total_runs'
p276
L7L
sS'score'
p277
I6
sS'results'
p278
(dp279
S'failed'
p280
(dp281
g277
I5
sS'median'
p282
L899L
sS'display'
p283
L899L
ssS'passed'
p284
(dp285
g277
I5
sg282
L1265L
sg283
L1265L
sssg283
S'58.5%'
p286
ssS'NetNewsWire 3.1'
p287
(dp288
S'total_runs'
p289
L1L
sS'score'
p290
I10
sS'results'
p291
(dp292
S'failed'
p293
(dp294
g290
I8
sS'median'
p295
I16
sS'display'
p296
I16
ssS'passed'
p297
(dp298
g290
I10
sg295
I2148
sg296
I2148
sssg296
S'99.3%'
p299
ssS'Safari 4.0'
p300
(dp301
S'total_runs'
p302
L20L
sS'score'
p303
I10
sS'results'
p304
(dp305
S'failed'
p306
(dp307
g303
I8
sS'median'
p308
L16L
sS'display'
p309
L16L
ssS'passed'
p310
(dp311
g303
I10
sg308
L2148L
sg309
L2148L
sssg309
S'99.3%'
p312
ss.