(dp0
S'IE 6.0'
p1
(dp2
S'total_runs'
p3
L2L
sS'score'
p4
I1
sS'results'
p5
(dp6
S'failed'
p7
(dp8
g4
I5
sS'median'
p9
L1816L
sS'display'
p10
L1816L
ssS'passed'
p11
(dp12
g4
I5
sg9
L0L
sg10
L0L
sssg10
S'0%'
p13
ssS'Konqueror 3.5'
p14
(dp15
S'total_runs'
p16
L1L
sS'score'
p17
I1
sS'results'
p18
(dp19
S'failed'
p20
(dp21
g17
I5
sS'median'
p22
I2164
sS'display'
p23
I2164
ssS'passed'
p24
(dp25
g17
I5
sg22
I0
sg23
I0
sssg23
S'0%'
p26
ssS'Camino 1.6.8'
p27
(dp28
S'total_runs'
p29
L1L
sS'score'
p30
I1
sS'results'
p31
(dp32
S'failed'
p33
(dp34
g30
I5
sS'median'
p35
I2164
sS'display'
p36
I2164
ssS'passed'
p37
(dp38
g30
I5
sg35
I0
sg36
I0
sssg36
S'0%'
p39
ssS'Firefox (Shiretoko) 3.5'
p40
(dp41
S'total_runs'
p42
L2L
sS'score'
p43
I10
sS'results'
p44
(dp45
S'failed'
p46
(dp47
g43
I8
sS'median'
p48
I16
sS'display'
p49
I16
ssS'passed'
p50
(dp51
g43
I10
sg48
I2148
sg49
I2148
sssg49
S'99.3%'
p52
ssS'Midori 0.1.9'
p53
(dp54
S'total_runs'
p55
L1L
sS'score'
p56
I10
sS'results'
p57
(dp58
S'failed'
p59
(dp60
g56
I8
sS'median'
p61
I16
sS'display'
p62
I16
ssS'passed'
p63
(dp64
g56
I10
sg61
I2148
sg62
I2148
sssg62
S'99.3%'
p65
ssS'IE 7.0'
p66
(dp67
S'total_runs'
p68
L3L
sS'score'
p69
I1
sS'results'
p70
(dp71
S'failed'
p72
(dp73
g69
I5
sS'median'
p74
L1816L
sS'display'
p75
L1816L
ssS'passed'
p76
(dp77
g69
I5
sg74
L0L
sg75
L0L
sssg75
S'0%'
p78
ssS'Firefox 3.0.9'
p79
(dp80
S'total_runs'
p81
L1L
sS'score'
p82
I10
sS'results'
p83
(dp84
S'failed'
p85
(dp86
g82
I8
sS'median'
p87
L16L
sS'display'
p88
L16L
ssS'passed'
p89
(dp90
g82
I10
sg87
L2148L
sg88
L2148L
sssg88
S'99.3%'
p91
ssS'Firefox 3.5.1'
p92
(dp93
S'total_runs'
p94
L3L
sS'score'
p95
I10
sS'results'
p96
(dp97
S'failed'
p98
(dp99
g95
I8
sS'median'
p100
I16
sS'display'
p101
I16
ssS'passed'
p102
(dp103
g95
I10
sg100
I2148
sg101
I2148
sssg101
S'99.3%'
p104
ssS'Firefox 3.5.2'
p105
(dp106
S'total_runs'
p107
L6L
sS'score'
p108
I10
sS'results'
p109
(dp110
S'failed'
p111
(dp112
g108
I8
sS'median'
p113
L16L
sS'display'
p114
L16L
ssS'passed'
p115
(dp116
g108
I10
sg113
L2148L
sg114
L2148L
sssg114
S'99.3%'
p117
ssS'Firefox 3.5.3'
p118
(dp119
S'total_runs'
p120
L21L
sS'score'
p121
I10
sS'results'
p122
(dp123
S'failed'
p124
(dp125
g121
I8
sS'median'
p126
I16
sS'display'
p127
I16
ssS'passed'
p128
(dp129
g121
I10
sg126
I2148
sg127
I2148
sssg127
S'99.3%'
p130
ssS'Opera 10.00'
p131
(dp132
S'total_runs'
p133
L7L
sS'score'
p134
I10
sS'results'
p135
(dp136
S'failed'
p137
(dp138
g134
I5
sS'median'
p139
L54L
sS'display'
p140
L54L
ssS'passed'
p141
(dp142
g134
I10
sg139
L2110L
sg140
L2110L
sssg140
S'97.5%'
p143
ssS'Safari 4.0'
p144
(dp145
S'total_runs'
p146
L20L
sS'score'
p147
I10
sS'results'
p148
(dp149
S'failed'
p150
(dp151
g147
I8
sS'median'
p152
L16L
sS'display'
p153
L16L
ssS'passed'
p154
(dp155
g147
I10
sg152
L2148L
sg153
L2148L
sssg153
S'99.3%'
p156
ssS'Opera 9.64'
p157
(dp158
S'total_runs'
p159
L2L
sS'score'
p160
I1
sS'results'
p161
(dp162
S'failed'
p163
(dp164
g160
I5
sS'median'
p165
L2164L
sS'display'
p166
L2164L
ssS'passed'
p167
(dp168
g160
I5
sg165
L0L
sg166
L0L
sssg166
S'0%'
p169
ssS'Firefox 3.0.14'
p170
(dp171
S'total_runs'
p172
L2L
sS'score'
p173
I1
sS'results'
p174
(dp175
S'failed'
p176
(dp177
g173
I5
sS'median'
p178
L2164L
sS'display'
p179
L2164L
ssS'passed'
p180
(dp181
g173
I5
sg178
L0L
sg179
L0L
sssg179
S'0%'
p182
ssS'iPhone 3.0'
p183
(dp184
S'total_runs'
p185
L1L
sS'score'
p186
I10
sS'results'
p187
(dp188
S'failed'
p189
(dp190
g186
I5
sS'median'
p191
I48
sS'display'
p192
I48
ssS'passed'
p193
(dp194
g186
I10
sg191
I2116
sg192
I2116
sssg192
S'97.8%'
p195
ssS'iPhone 3.1'
p196
(dp197
S'total_runs'
p198
L5L
sS'score'
p199
I10
sS'results'
p200
(dp201
S'failed'
p202
(dp203
g199
I5
sS'median'
p204
I48
sS'display'
p205
I48
ssS'passed'
p206
(dp207
g199
I10
sg204
I2116
sg205
I2116
sssg205
S'97.8%'
p208
ssS'Chrome 4.0.206'
p209
(dp210
S'total_runs'
p211
L12L
sS'score'
p212
I10
sS'results'
p213
(dp214
S'failed'
p215
(dp216
g212
I8
sS'median'
p217
L16L
sS'display'
p218
L16L
ssS'passed'
p219
(dp220
g212
I10
sg217
L2148L
sg218
L2148L
sssg218
S'99.3%'
p221
ssS'Chrome 4.0.207'
p222
(dp223
S'total_runs'
p224
L5L
sS'score'
p225
I10
sS'results'
p226
(dp227
S'failed'
p228
(dp229
g225
I8
sS'median'
p230
I16
sS'display'
p231
I16
ssS'passed'
p232
(dp233
g225
I10
sg230
I2148
sg231
I2148
sssg231
S'99.3%'
p234
ssS'Chrome 4.0.203'
p235
(dp236
S'total_runs'
p237
L1L
sS'score'
p238
I10
sS'results'
p239
(dp240
S'failed'
p241
(dp242
g238
I8
sS'median'
p243
L16L
sS'display'
p244
L16L
ssS'passed'
p245
(dp246
g238
I10
sg243
L2148L
sg244
L2148L
sssg244
S'99.3%'
p247
ssS'Firefox 3.0.13'
p248
(dp249
S'total_runs'
p250
L3L
sS'score'
p251
I1
sS'results'
p252
(dp253
S'failed'
p254
(dp255
g251
I5
sS'median'
p256
L2164L
sS'display'
p257
L2164L
ssS'passed'
p258
(dp259
g251
I5
sg256
L0L
sg257
L0L
sssg257
S'0%'
p260
ssS'Camino 1.6.9'
p261
(dp262
S'total_runs'
p263
L1L
sS'score'
p264
I1
sS'results'
p265
(dp266
S'failed'
p267
(dp268
g264
I5
sS'median'
p269
I2164
sS'display'
p270
I2164
ssS'passed'
p271
(dp272
g264
I5
sg269
I0
sg270
I0
sssg270
S'0%'
p273
ssS'Firefox 3.0'
p274
(dp275
S'total_runs'
p276
L8L
sS'score'
p277
I1
sS'results'
p278
(dp279
S'failed'
p280
(dp281
g277
I5
sS'median'
p282
L2164L
sS'display'
p283
L2164L
ssS'passed'
p284
(dp285
g277
I5
sg282
L0L
sg283
L0L
sssg283
S'0%'
p286
ssS'Firefox 3.5'
p287
(dp288
S'total_runs'
p289
L47L
sS'score'
p290
I10
sS'results'
p291
(dp292
S'failed'
p293
(dp294
g290
I8
sS'median'
p295
L16L
sS'display'
p296
L16L
ssS'passed'
p297
(dp298
g290
I10
sg295
L2148L
sg296
L2148L
sssg296
S'99.3%'
p299
ssS'Firefox 3.0.10'
p300
(dp301
S'total_runs'
p302
L2L
sS'score'
p303
I0
sS'results'
p304
(dp305
S'failed'
p306
(dp307
g303
I6
sS'median'
p308
L2164L
sS'display'
p309
L2164L
ssS'passed'
p310
(dp311
g303
I7
sg308
L0L
sg309
L0L
sssg309
S'0.0%'
p312
ssS'NetNewsWire 3.1.3'
p313
(dp314
S'total_runs'
p315
L1L
sS'score'
p316
I10
sS'results'
p317
(dp318
S'failed'
p319
(dp320
g316
I8
sS'median'
p321
I16
sS'display'
p322
I16
ssS'passed'
p323
(dp324
g316
I10
sg321
I2148
sg322
I2148
sssg322
S'99.3%'
p325
ssS'Firefox 2.0'
p326
(dp327
S'total_runs'
p328
L1L
sS'score'
p329
I10
sS'results'
p330
(dp331
S'failed'
p332
(dp333
g329
I8
sS'median'
p334
I16
sS'display'
p335
I16
ssS'passed'
p336
(dp337
g329
I10
sg334
I2148
sg335
I2148
sssg335
S'99.3%'
p338
ssS'Android 1.5'
p339
(dp340
S'total_runs'
p341
L2L
sS'score'
p342
I10
sS'results'
p343
(dp344
S'failed'
p345
(dp346
g342
I5
sS'median'
p347
L48L
sS'display'
p348
L48L
ssS'passed'
p349
(dp350
g342
I10
sg347
L2116L
sg348
L2116L
sssg348
S'97.8%'
p351
ssS'Chrome 1.0.154'
p352
(dp353
S'total_runs'
p354
L3L
sS'score'
p355
I8
sS'results'
p356
(dp357
S'failed'
p358
(dp359
g355
I6
sS'median'
p360
L419L
sS'display'
p361
L419L
ssS'passed'
p362
(dp363
g355
I7
sg360
L1745L
sg361
L1745L
sssg361
S'80.6%'
p364
ssS'iPhone 2.2'
p365
(dp366
S'total_runs'
p367
L3L
sS'score'
p368
I8
sS'results'
p369
(dp370
S'failed'
p371
(dp372
g368
I5
sS'median'
p373
L419L
sS'display'
p374
L419L
ssS'passed'
p375
(dp376
g368
I5
sg373
L1745L
sg374
L1745L
sssg374
S'80.6%'
p377
ssS'Safari 4.0.2'
p378
(dp379
S'total_runs'
p380
L2L
sS'score'
p381
I10
sS'results'
p382
(dp383
S'failed'
p384
(dp385
g381
I8
sS'median'
p386
L16L
sS'display'
p387
L16L
ssS'passed'
p388
(dp389
g381
I10
sg386
L2148L
sg387
L2148L
sssg387
S'99.3%'
p390
ssS'Safari 4.0.3'
p391
(dp392
S'total_runs'
p393
L15L
sS'score'
p394
I10
sS'results'
p395
(dp396
S'failed'
p397
(dp398
g394
I8
sS'median'
p399
I16
sS'display'
p400
I16
ssS'passed'
p401
(dp402
g394
I10
sg399
I2148
sg400
I2148
sssg400
S'99.3%'
p403
ssS'Opera 10.10'
p404
(dp405
S'total_runs'
p406
L1L
sS'score'
p407
I10
sS'results'
p408
(dp409
S'failed'
p410
(dp411
g407
I5
sS'median'
p412
I54
sS'display'
p413
I54
ssS'passed'
p414
(dp415
g407
I10
sg412
I2110
sg413
I2110
sssg413
S'97.5%'
p416
ssS'Chrome 2.0.172'
p417
(dp418
S'total_runs'
p419
L5L
sS'score'
p420
I10
sS'results'
p421
(dp422
S'failed'
p423
(dp424
g420
I8
sS'median'
p425
L16L
sS'display'
p426
L16L
ssS'passed'
p427
(dp428
g420
I10
sg425
L2148L
sg426
L2148L
sssg426
S'99.3%'
p429
ssS'Safari 3.2'
p430
(dp431
S'total_runs'
p432
L2L
sS'score'
p433
I8
sS'results'
p434
(dp435
S'failed'
p436
(dp437
g433
I6
sS'median'
p438
L419L
sS'display'
p439
L419L
ssS'passed'
p440
(dp441
g433
I7
sg438
L1745L
sg439
L1745L
sssg439
S'80.6%'
p442
ssS'Safari 3.2.3'
p443
(dp444
S'total_runs'
p445
L2L
sS'score'
p446
I8
sS'results'
p447
(dp448
S'failed'
p449
(dp450
g446
I6
sS'median'
p451
L419L
sS'display'
p452
L419L
ssS'passed'
p453
(dp454
g446
I7
sg451
L1745L
sg452
L1745L
sssg452
S'80.6%'
p455
ssS'IE 8.0'
p456
(dp457
S'total_runs'
p458
L7L
sS'score'
p459
I6
sS'results'
p460
(dp461
S'failed'
p462
(dp463
g459
I5
sS'median'
p464
L899L
sS'display'
p465
L899L
ssS'passed'
p466
(dp467
g459
I5
sg464
L1265L
sg465
L1265L
sssg465
S'58.5%'
p468
ssS'iPhone 2.2.1'
p469
(dp470
S'total_runs'
p471
L2L
sS'score'
p472
I8
sS'results'
p473
(dp474
S'failed'
p475
(dp476
g472
I5
sS'median'
p477
I419
sS'display'
p478
I419
ssS'passed'
p479
(dp480
g472
I5
sg477
I1745
sg478
I1745
sssg478
S'80.6%'
p481
ssS'Firefox (Shiretoko) 3.5.2'
p482
(dp483
S'total_runs'
p484
L1L
sS'score'
p485
I10
sS'results'
p486
(dp487
S'failed'
p488
(dp489
g485
I8
sS'median'
p490
I16
sS'display'
p491
I16
ssS'passed'
p492
(dp493
g485
I10
sg490
I2148
sg491
I2148
sssg491
S'99.3%'
p494
ssS'Chrome 3.0.195'
p495
(dp496
S'total_runs'
p497
L4L
sS'score'
p498
I10
sS'results'
p499
(dp500
S'failed'
p501
(dp502
g498
I8
sS'median'
p503
L16L
sS'display'
p504
L16L
ssS'passed'
p505
(dp506
g498
I10
sg503
L2148L
sg504
L2148L
sssg504
S'99.3%'
p507
ss.