(dp0
S'total_runs'
p1
L8930L
sS'Chrome 4'
p2
(dp3
S'summary_display'
p4
S'99.3%'
p5
sS'total_runs'
p6
I989
sS'summary_score'
p7
F99.260628465804061
sS'results'
p8
(dp9
S'failed'
p10
(dp11
S'score'
p12
I75
sS'raw_score'
p13
I16
sS'display'
p14
S'16'
p15
ssS'passed'
p16
(dp17
g12
I95
sg13
I2148
sg14
S'2148'
p18
ssssS'iPhone 3.1'
p19
(dp20
S'summary_display'
p21
S'97.8%'
p22
sS'total_runs'
p23
L85L
sS'summary_score'
p24
F97.781885397412196
sS'results'
p25
(dp26
S'failed'
p27
(dp28
S'score'
p29
I50
sS'raw_score'
p30
L48L
sS'display'
p31
S'48'
p32
ssS'passed'
p33
(dp34
g29
I95
sg30
L2116L
sg31
S'2116'
p35
ssssS'Chrome 3'
p36
(dp37
S'summary_display'
p38
S'99.3%'
p39
sS'total_runs'
p40
I560
sS'summary_score'
p41
F99.260628465804061
sS'results'
p42
(dp43
S'failed'
p44
(dp45
S'score'
p46
I75
sS'raw_score'
p47
I16
sS'display'
p48
S'16'
p49
ssS'passed'
p50
(dp51
g46
I95
sg47
I2148
sg48
S'2148'
p52
ssssS'Opera 9.64'
p53
(dp54
S'summary_display'
p55
S'0%'
p56
sS'total_runs'
p57
L29L
sS'summary_score'
p58
I100
sS'results'
p59
(dp60
S'failed'
p61
(dp62
S'score'
p63
I50
sS'raw_score'
p64
L2164L
sS'display'
p65
S'2164'
p66
ssS'passed'
p67
(dp68
g63
I50
sg64
L0L
sg65
S'0'
p69
ssssS'IE 6'
p70
(dp71
S'summary_display'
p72
S'0%'
p73
sS'total_runs'
p74
I102
sS'summary_score'
p75
I100
sS'results'
p76
(dp77
S'failed'
p78
(dp79
S'score'
p80
I50
sS'raw_score'
p81
I1816
sS'display'
p82
S'1816'
p83
ssS'passed'
p84
(dp85
g80
I50
sg81
I0
sg82
g69
ssssS'Safari 3.2'
p86
(dp87
S'summary_display'
p88
S'80.6%'
p89
sS'total_runs'
p90
L19L
sS'summary_score'
p91
F80.637707948244
sS'results'
p92
(dp93
S'failed'
p94
(dp95
S'score'
p96
I50
sS'raw_score'
p97
L419L
sS'display'
p98
S'419'
p99
ssS'passed'
p100
(dp101
g96
I50
sg97
L1745L
sg98
S'1745'
p102
ssssS'Safari 4.0'
p103
(dp104
S'summary_display'
p105
S'99.3%'
p106
sS'total_runs'
p107
I960
sS'summary_score'
p108
F99.260628465804061
sS'results'
p109
(dp110
S'failed'
p111
(dp112
S'score'
p113
I75
sS'raw_score'
p114
I16
sS'display'
p115
S'16'
p116
ssS'passed'
p117
(dp118
g113
I95
sg114
I2148
sg115
S'2148'
p119
ssssS'IE 8'
p120
(dp121
S'summary_display'
p122
S'58.5%'
p123
sS'total_runs'
p124
I424
sS'summary_score'
p125
F58.456561922365992
sS'results'
p126
(dp127
S'failed'
p128
(dp129
S'score'
p130
I50
sS'raw_score'
p131
I899
sS'display'
p132
S'899'
p133
ssS'passed'
p134
(dp135
g130
I50
sg131
I1265
sg132
S'1265'
p136
ssssS'Opera 10'
p137
(dp138
S'summary_display'
p139
S'99.8%'
p140
sS'total_runs'
p141
I1230
sS'summary_score'
p142
F99.815157116451019
sS'results'
p143
(dp144
S'failed'
p145
(dp146
S'score'
p147
I85
sS'raw_score'
p148
I4
sS'display'
p149
S'4'
p150
ssS'passed'
p151
(dp152
g147
I95
sg148
I2160
sg149
S'2160'
p153
ssssS'iPhone 2.2'
p154
(dp155
S'summary_display'
p156
S'80.6%'
p157
sS'total_runs'
p158
L8L
sS'summary_score'
p159
F80.637707948244
sS'results'
p160
(dp161
S'failed'
p162
(dp163
S'score'
p164
I50
sS'raw_score'
p165
L419L
sS'display'
p166
S'419'
p167
ssS'passed'
p168
(dp169
g164
I50
sg165
L1745L
sg166
S'1745'
p170
ssssS'Firefox 3.0'
p171
(dp172
S'summary_display'
p173
S'0%'
p174
sS'total_runs'
p175
I581
sS'summary_score'
p176
I100
sS'results'
p177
(dp178
S'failed'
p179
(dp180
S'score'
p181
I50
sS'raw_score'
p182
I2164
sS'display'
p183
S'2164'
p184
ssS'passed'
p185
(dp186
g181
I50
sg182
I0
sg183
g69
ssssS'Firefox 3.5'
p187
(dp188
S'summary_display'
p189
S'99.3%'
p190
sS'total_runs'
p191
I3752
sS'summary_score'
p192
F99.260628465804061
sS'results'
p193
(dp194
S'failed'
p195
(dp196
S'score'
p197
I75
sS'raw_score'
p198
I16
sS'display'
p199
S'16'
p200
ssS'passed'
p201
(dp202
g197
I95
sg198
I2148
sg199
S'2148'
p203
ssssS'IE 7'
p204
(dp205
S'summary_display'
p206
S'0%'
p207
sS'total_runs'
p208
I191
sS'summary_score'
p209
I100
sS'results'
p210
(dp211
S'failed'
p212
(dp213
S'score'
p214
I50
sS'raw_score'
p215
I1816
sS'display'
p216
S'1816'
p217
ssS'passed'
p218
(dp219
g214
I50
sg215
I0
sg216
g69
ssss.